ARM GAS  /tmp/ccFKdsFU.s 			page 1


   1              		.syntax unified
   2              		.cpu cortex-m4
   3              		.eabi_attribute 27, 1
   4              		.eabi_attribute 28, 1
   5              		.fpu fpv4-sp-d16
   6              		.eabi_attribute 20, 1
   7              		.eabi_attribute 21, 1
   8              		.eabi_attribute 23, 3
   9              		.eabi_attribute 24, 1
  10              		.eabi_attribute 25, 1
  11              		.eabi_attribute 26, 1
  12              		.eabi_attribute 30, 2
  13              		.eabi_attribute 34, 1
  14              		.eabi_attribute 18, 4
  15              		.thumb
  16              		.syntax unified
  17              		.file	"chprintf.c"
  18              		.text
  19              	.Ltext0:
  20              		.cfi_sections	.debug_frame
  21              		.section	.text.ch_ltoa,"ax",%progbits
  22              		.align	2
  23              		.p2align 4,,15
  24              		.thumb
  25              		.thumb_func
  26              		.type	ch_ltoa, %function
  27              	ch_ltoa:
  28              	.LFB262:
  29              		.file 1 "../../os/hal/lib/streams/chprintf.c"
  30              		.loc 1 70 0
  31              		.cfi_startproc
  32              		@ args = 0, pretend = 0, frame = 0
  33              		@ frame_needed = 0, uses_anonymous_args = 0
  34              		@ link register save eliminated.
  35              	.LVL0:
  36 0000 F0B4     		push	{r4, r5, r6, r7}
  37              		.cfi_def_cfa_offset 16
  38              		.cfi_offset 4, -16
  39              		.cfi_offset 5, -12
  40              		.cfi_offset 6, -8
  41              		.cfi_offset 7, -4
  42              	.LBB4:
  43              	.LBB5:
  44              		.loc 1 52 0
  45 0002 00F10B07 		add	r7, r0, #11
  46              	.LVL1:
  47 0006 3C46     		mov	r4, r7
  48 0008 0D46     		mov	r5, r1
  49              	.LVL2:
  50              	.L3:
  51              		.loc 1 54 0
  52 000a B1FBF2F6 		udiv	r6, r1, r2
  53 000e 02FB1611 		mls	r1, r2, r6, r1
  54              	.LVL3:
  55              		.loc 1 55 0
  56 0012 01F13003 		add	r3, r1, #48
  57              	.LVL4:
ARM GAS  /tmp/ccFKdsFU.s 			page 2


  58              		.loc 1 56 0
  59 0016 392B     		cmp	r3, #57
  60              		.loc 1 57 0
  61 0018 C8BF     		it	gt
  62 001a 01F13703 		addgt	r3, r1, #55
  63              	.LVL5:
  64              		.loc 1 58 0
  65 001e DBB2     		uxtb	r3, r3
  66              	.LVL6:
  67 0020 04F8013D 		strb	r3, [r4, #-1]!
  68              	.LVL7:
  69              		.loc 1 60 0
  70 0024 B5FBF2F5 		udiv	r5, r5, r2
  71              	.LVL8:
  72              		.loc 1 59 0
  73 0028 3146     		mov	r1, r6
  74              	.LVL9:
  75              		.loc 1 60 0
  76 002a 002D     		cmp	r5, #0
  77 002c EDD1     		bne	.L3
  78              	.LVL10:
  79 002e 3A1B     		subs	r2, r7, r4
  80              	.LVL11:
  81 0030 0244     		add	r2, r2, r0
  82 0032 01E0     		b	.L5
  83              	.LVL12:
  84              	.L10:
  85 0034 14F8013F 		ldrb	r3, [r4, #1]!	@ zero_extendqisi2
  86              	.LVL13:
  87              	.L5:
  88              		.loc 1 64 0
  89 0038 00F8013B 		strb	r3, [r0], #1
  90              	.LVL14:
  91              		.loc 1 65 0
  92 003c 9042     		cmp	r0, r2
  93 003e F9D1     		bne	.L10
  94              	.LBE5:
  95              	.LBE4:
  96              		.loc 1 73 0
  97 0040 F0BC     		pop	{r4, r5, r6, r7}
  98              		.cfi_restore 7
  99              		.cfi_restore 6
 100              		.cfi_restore 5
 101              		.cfi_restore 4
 102              		.cfi_def_cfa_offset 0
 103              	.LVL15:
 104 0042 7047     		bx	lr
 105              		.cfi_endproc
 106              	.LFE262:
 107              		.size	ch_ltoa, .-ch_ltoa
 108 0044 AFF30080 		.section	.text.chvprintf,"ax",%progbits
 108      AFF30080 
 108      AFF30080 
 109              		.align	2
 110              		.p2align 4,,15
 111              		.global	chvprintf
 112              		.thumb
ARM GAS  /tmp/ccFKdsFU.s 			page 3


 113              		.thumb_func
 114              		.type	chvprintf, %function
 115              	chvprintf:
 116              	.LFB263:
 117              		.loc 1 121 0
 118              		.cfi_startproc
 119              		@ args = 0, pretend = 0, frame = 24
 120              		@ frame_needed = 0, uses_anonymous_args = 0
 121              	.LVL16:
 122 0000 2DE9F04F 		push	{r4, r5, r6, r7, r8, r9, r10, fp, lr}
 123              		.cfi_def_cfa_offset 36
 124              		.cfi_offset 4, -36
 125              		.cfi_offset 5, -32
 126              		.cfi_offset 6, -28
 127              		.cfi_offset 7, -24
 128              		.cfi_offset 8, -20
 129              		.cfi_offset 9, -16
 130              		.cfi_offset 10, -12
 131              		.cfi_offset 11, -8
 132              		.cfi_offset 14, -4
 133 0004 87B0     		sub	sp, sp, #28
 134              		.cfi_def_cfa_offset 64
 135              		.loc 1 121 0
 136 0006 1646     		mov	r6, r2
 137              	.LVL17:
 138 0008 0DF10D03 		add	r3, sp, #13
 139 000c 03AA     		add	r2, sp, #12
 140              	.LVL18:
 141 000e 9B1A     		subs	r3, r3, r2
 142 0010 8246     		mov	r10, r0
 143 0012 0D46     		mov	r5, r1
 144 0014 0193     		str	r3, [sp, #4]
 145              		.loc 1 124 0
 146 0016 4FF00009 		mov	r9, #0
 147 001a 8346     		mov	fp, r0
 148              	.LVL19:
 149              	.L12:
 150              		.loc 1 135 0
 151 001c 2978     		ldrb	r1, [r5]	@ zero_extendqisi2
 152 001e 6A1C     		adds	r2, r5, #1
 153              	.LVL20:
 154              		.loc 1 136 0
 155 0020 69B1     		cbz	r1, .L83
 156              	.L93:
 157              		.loc 1 138 0
 158 0022 2529     		cmp	r1, #37
 159 0024 0FD0     		beq	.L14
 160              		.loc 1 139 0
 161 0026 DBF80000 		ldr	r0, [fp]
 162              		.loc 1 135 0
 163 002a 1546     		mov	r5, r2
 164              		.loc 1 139 0
 165 002c 8468     		ldr	r4, [r0, #8]
 166 002e 5846     		mov	r0, fp
 167 0030 A047     		blx	r4
 168              	.LVL21:
 169              		.loc 1 135 0
ARM GAS  /tmp/ccFKdsFU.s 			page 4


 170 0032 2978     		ldrb	r1, [r5]	@ zero_extendqisi2
 171              		.loc 1 140 0
 172 0034 09F10109 		add	r9, r9, #1
 173              	.LVL22:
 174              		.loc 1 135 0
 175 0038 6A1C     		adds	r2, r5, #1
 176              	.LVL23:
 177              		.loc 1 136 0
 178 003a 0029     		cmp	r1, #0
 179 003c F1D1     		bne	.L93
 180              	.L83:
 181              		.loc 1 277 0
 182 003e 4846     		mov	r0, r9
 183 0040 07B0     		add	sp, sp, #28
 184              		.cfi_remember_state
 185              		.cfi_def_cfa_offset 36
 186              		@ sp needed
 187 0042 BDE8F08F 		pop	{r4, r5, r6, r7, r8, r9, r10, fp, pc}
 188              	.LVL24:
 189              	.L14:
 190              		.cfi_restore_state
 191              		.loc 1 146 0
 192 0046 6978     		ldrb	r1, [r5, #1]	@ zero_extendqisi2
 193              	.LVL25:
 194 0048 2D29     		cmp	r1, #45
 195 004a 03BF     		ittte	eq
 196 004c A978     		ldrbeq	r1, [r5, #2]	@ zero_extendqisi2
 197              		.loc 1 147 0
 198 004e AA1C     		addeq	r2, r5, #2
 199              	.LVL26:
 200              		.loc 1 148 0
 201 0050 4FF0010A 		moveq	r10, #1
 202              		.loc 1 145 0
 203 0054 4FF0000A 		movne	r10, #0
 204              	.LVL27:
 205              		.loc 1 151 0
 206 0058 3029     		cmp	r1, #48
 207 005a 03BF     		ittte	eq
 208 005c 5178     		ldrbeq	r1, [r2, #1]	@ zero_extendqisi2
 209              		.loc 1 152 0
 210 005e 0132     		addeq	r2, r2, #1
 211              	.LVL28:
 212              		.loc 1 153 0
 213 0060 4FF03008 		moveq	r8, #48
 214              		.loc 1 150 0
 215 0064 4FF02008 		movne	r8, #32
 216              	.LVL29:
 217 0068 501C     		adds	r0, r2, #1
 218              		.loc 1 155 0
 219 006a 0027     		movs	r7, #0
 220 006c 05E0     		b	.L20
 221              	.LVL30:
 222              	.L94:
 223              		.loc 1 161 0
 224 006e 3378     		ldrb	r3, [r6]	@ zero_extendqisi2
 225              	.LVL31:
 226 0070 0436     		adds	r6, r6, #4
ARM GAS  /tmp/ccFKdsFU.s 			page 5


 227              	.LVL32:
 228              	.L18:
 229 0072 2978     		ldrb	r1, [r5]	@ zero_extendqisi2
 230              		.loc 1 164 0
 231 0074 03EB4207 		add	r7, r3, r2, lsl #1
 232              	.LVL33:
 233 0078 0130     		adds	r0, r0, #1
 234              	.LVL34:
 235              	.L20:
 236              		.loc 1 158 0
 237 007a A1F13003 		sub	r3, r1, #48
 238 007e DBB2     		uxtb	r3, r3
 239 0080 092B     		cmp	r3, #9
 240              		.loc 1 157 0
 241 0082 0546     		mov	r5, r0
 242              	.LVL35:
 243              		.loc 1 164 0
 244 0084 07EB8702 		add	r2, r7, r7, lsl #2
 245              		.loc 1 158 0
 246 0088 F3D9     		bls	.L18
 247              		.loc 1 160 0
 248 008a 2A29     		cmp	r1, #42
 249 008c EFD0     		beq	.L94
 250              	.LVL36:
 251              		.loc 1 167 0
 252 008e 2E29     		cmp	r1, #46
 253 0090 4FF00000 		mov	r0, #0
 254              	.LVL37:
 255 0094 43D0     		beq	.L23
 256              	.LVL38:
 257              		.loc 1 181 0
 258 0096 01F0DF02 		and	r2, r1, #223
 259 009a 4C2A     		cmp	r2, #76
 260 009c 4ED0     		beq	.L95
 261              	.L84:
 262              		.loc 1 190 0
 263 009e A1F14402 		sub	r2, r1, #68
 264 00a2 342A     		cmp	r2, #52
 265 00a4 00F2F880 		bhi	.L26
 266 00a8 DFE812F0 		tbh	[pc, r2, lsl #1]
 267              	.L35:
 268 00ac ED00     		.2byte	(.L43-.L35)/2
 269 00ae F600     		.2byte	(.L26-.L35)/2
 270 00b0 F600     		.2byte	(.L26-.L35)/2
 271 00b2 F600     		.2byte	(.L26-.L35)/2
 272 00b4 F600     		.2byte	(.L26-.L35)/2
 273 00b6 ED00     		.2byte	(.L43-.L35)/2
 274 00b8 F600     		.2byte	(.L26-.L35)/2
 275 00ba F600     		.2byte	(.L26-.L35)/2
 276 00bc F600     		.2byte	(.L26-.L35)/2
 277 00be F600     		.2byte	(.L26-.L35)/2
 278 00c0 F600     		.2byte	(.L26-.L35)/2
 279 00c2 EB00     		.2byte	(.L29-.L35)/2
 280 00c4 F600     		.2byte	(.L26-.L35)/2
 281 00c6 F600     		.2byte	(.L26-.L35)/2
 282 00c8 F600     		.2byte	(.L26-.L35)/2
 283 00ca F600     		.2byte	(.L26-.L35)/2
ARM GAS  /tmp/ccFKdsFU.s 			page 6


 284 00cc F600     		.2byte	(.L26-.L35)/2
 285 00ce B900     		.2byte	(.L30-.L35)/2
 286 00d0 F600     		.2byte	(.L26-.L35)/2
 287 00d2 F600     		.2byte	(.L26-.L35)/2
 288 00d4 6F00     		.2byte	(.L66-.L35)/2
 289 00d6 F600     		.2byte	(.L26-.L35)/2
 290 00d8 F600     		.2byte	(.L26-.L35)/2
 291 00da F600     		.2byte	(.L26-.L35)/2
 292 00dc F600     		.2byte	(.L26-.L35)/2
 293 00de F600     		.2byte	(.L26-.L35)/2
 294 00e0 F600     		.2byte	(.L26-.L35)/2
 295 00e2 F600     		.2byte	(.L26-.L35)/2
 296 00e4 F600     		.2byte	(.L26-.L35)/2
 297 00e6 F600     		.2byte	(.L26-.L35)/2
 298 00e8 F600     		.2byte	(.L26-.L35)/2
 299 00ea DF00     		.2byte	(.L32-.L35)/2
 300 00ec ED00     		.2byte	(.L43-.L35)/2
 301 00ee F600     		.2byte	(.L26-.L35)/2
 302 00f0 F600     		.2byte	(.L26-.L35)/2
 303 00f2 F600     		.2byte	(.L26-.L35)/2
 304 00f4 F600     		.2byte	(.L26-.L35)/2
 305 00f6 ED00     		.2byte	(.L43-.L35)/2
 306 00f8 F600     		.2byte	(.L26-.L35)/2
 307 00fa F600     		.2byte	(.L26-.L35)/2
 308 00fc F600     		.2byte	(.L26-.L35)/2
 309 00fe F600     		.2byte	(.L26-.L35)/2
 310 0100 F600     		.2byte	(.L26-.L35)/2
 311 0102 EB00     		.2byte	(.L29-.L35)/2
 312 0104 F600     		.2byte	(.L26-.L35)/2
 313 0106 F600     		.2byte	(.L26-.L35)/2
 314 0108 F600     		.2byte	(.L26-.L35)/2
 315 010a BB00     		.2byte	(.L33-.L35)/2
 316 010c F600     		.2byte	(.L26-.L35)/2
 317 010e B900     		.2byte	(.L30-.L35)/2
 318 0110 F600     		.2byte	(.L26-.L35)/2
 319 0112 F600     		.2byte	(.L26-.L35)/2
 320 0114 6F00     		.2byte	(.L66-.L35)/2
 321              	.LVL39:
 322              		.p2align 1
 323              	.L96:
 324              		.loc 1 173 0
 325 0116 3378     		ldrb	r3, [r6]	@ zero_extendqisi2
 326              	.LVL40:
 327 0118 0436     		adds	r6, r6, #4
 328              	.LVL41:
 329              	.L22:
 330              		.loc 1 177 0
 331 011a 03EB4200 		add	r0, r3, r2, lsl #1
 332              	.LVL42:
 333              	.L23:
 334              		.loc 1 169 0
 335 011e 15F8011B 		ldrb	r1, [r5], #1	@ zero_extendqisi2
 336              	.LVL43:
 337              		.loc 1 170 0
 338 0122 A1F13003 		sub	r3, r1, #48
 339 0126 DBB2     		uxtb	r3, r3
 340 0128 092B     		cmp	r3, #9
ARM GAS  /tmp/ccFKdsFU.s 			page 7


 341              		.loc 1 176 0
 342 012a 00EB8002 		add	r2, r0, r0, lsl #2
 343              		.loc 1 170 0
 344 012e F4D9     		bls	.L22
 345              		.loc 1 172 0
 346 0130 2A29     		cmp	r1, #42
 347 0132 F0D0     		beq	.L96
 348              	.LVL44:
 349              		.loc 1 181 0
 350 0134 01F0DF02 		and	r2, r1, #223
 351 0138 4C2A     		cmp	r2, #76
 352 013a B0D1     		bne	.L84
 353              	.L95:
 354              	.LVL45:
 355              		.loc 1 183 0
 356 013c 2C78     		ldrb	r4, [r5]	@ zero_extendqisi2
 357 013e 002C     		cmp	r4, #0
 358 0140 00F0AA80 		beq	.L26
 359              		.loc 1 190 0
 360 0144 A4F14402 		sub	r2, r4, #68
 361              		.loc 1 184 0
 362 0148 0135     		adds	r5, r5, #1
 363              	.LVL46:
 364              		.loc 1 190 0
 365 014a 342A     		cmp	r2, #52
 366 014c 00F2A380 		bhi	.L63
 367 0150 DFE802F0 		tbb	[pc, r2]
 368              	.L28:
 369 0154 99       		.byte	(.L43-.L28)/2
 370 0155 A1       		.byte	(.L63-.L28)/2
 371 0156 A1       		.byte	(.L63-.L28)/2
 372 0157 A1       		.byte	(.L63-.L28)/2
 373 0158 A1       		.byte	(.L63-.L28)/2
 374 0159 99       		.byte	(.L43-.L28)/2
 375 015a A1       		.byte	(.L63-.L28)/2
 376 015b A1       		.byte	(.L63-.L28)/2
 377 015c A1       		.byte	(.L63-.L28)/2
 378 015d A1       		.byte	(.L63-.L28)/2
 379 015e A1       		.byte	(.L63-.L28)/2
 380 015f 97       		.byte	(.L29-.L28)/2
 381 0160 A1       		.byte	(.L63-.L28)/2
 382 0161 A1       		.byte	(.L63-.L28)/2
 383 0162 A1       		.byte	(.L63-.L28)/2
 384 0163 A1       		.byte	(.L63-.L28)/2
 385 0164 A1       		.byte	(.L63-.L28)/2
 386 0165 65       		.byte	(.L30-.L28)/2
 387 0166 A1       		.byte	(.L63-.L28)/2
 388 0167 A1       		.byte	(.L63-.L28)/2
 389 0168 1B       		.byte	(.L66-.L28)/2
 390 0169 A1       		.byte	(.L63-.L28)/2
 391 016a A1       		.byte	(.L63-.L28)/2
 392 016b A1       		.byte	(.L63-.L28)/2
 393 016c A1       		.byte	(.L63-.L28)/2
 394 016d A1       		.byte	(.L63-.L28)/2
 395 016e A1       		.byte	(.L63-.L28)/2
 396 016f A1       		.byte	(.L63-.L28)/2
 397 0170 A1       		.byte	(.L63-.L28)/2
ARM GAS  /tmp/ccFKdsFU.s 			page 8


 398 0171 A1       		.byte	(.L63-.L28)/2
 399 0172 A1       		.byte	(.L63-.L28)/2
 400 0173 8B       		.byte	(.L32-.L28)/2
 401 0174 99       		.byte	(.L43-.L28)/2
 402 0175 A1       		.byte	(.L63-.L28)/2
 403 0176 A1       		.byte	(.L63-.L28)/2
 404 0177 A1       		.byte	(.L63-.L28)/2
 405 0178 A1       		.byte	(.L63-.L28)/2
 406 0179 99       		.byte	(.L43-.L28)/2
 407 017a A1       		.byte	(.L63-.L28)/2
 408 017b A1       		.byte	(.L63-.L28)/2
 409 017c A1       		.byte	(.L63-.L28)/2
 410 017d A1       		.byte	(.L63-.L28)/2
 411 017e A1       		.byte	(.L63-.L28)/2
 412 017f 97       		.byte	(.L29-.L28)/2
 413 0180 A1       		.byte	(.L63-.L28)/2
 414 0181 A1       		.byte	(.L63-.L28)/2
 415 0182 A1       		.byte	(.L63-.L28)/2
 416 0183 67       		.byte	(.L33-.L28)/2
 417 0184 A1       		.byte	(.L63-.L28)/2
 418 0185 65       		.byte	(.L30-.L28)/2
 419 0186 A1       		.byte	(.L63-.L28)/2
 420 0187 A1       		.byte	(.L63-.L28)/2
 421 0188 1B       		.byte	(.L66-.L28)/2
 422              	.L36:
 423              	.LVL47:
 424 0189 00       		.p2align 1
 425              	.L66:
 426 018a 1022     		movs	r2, #16
 427              	.L46:
 428              		.loc 1 243 0
 429 018c 3168     		ldr	r1, [r6]
 430              	.LVL48:
 431              		.loc 1 244 0
 432 018e 03A8     		add	r0, sp, #12
 433              	.LVL49:
 434              		.loc 1 243 0
 435 0190 0436     		adds	r6, r6, #4
 436              	.LVL50:
 437              	.L89:
 438              		.loc 1 244 0
 439 0192 FFF7FEFF 		bl	ch_ltoa
 440              	.LVL51:
 441 0196 03AB     		add	r3, sp, #12
 442              	.LVL52:
 443 0198 C01A     		subs	r0, r0, r3
 444              	.LVL53:
 445 019a 431E     		subs	r3, r0, #1
 446              	.LVL54:
 447 019c 0093     		str	r3, [sp]
 448              		.loc 1 144 0
 449 019e 03AC     		add	r4, sp, #12
 450              	.LVL55:
 451              	.L37:
 452              		.loc 1 251 0
 453 01a0 3F1A     		subs	r7, r7, r0
 454              	.LVL56:
ARM GAS  /tmp/ccFKdsFU.s 			page 9


 455 01a2 27EAE777 		bic	r7, r7, r7, asr #31
 456              	.LVL57:
 457              		.loc 1 253 0
 458 01a6 BAF1000F 		cmp	r10, #0
 459 01aa 5AD1     		bne	.L48
 460              	.LVL58:
 461              	.L59:
 462              		.loc 1 254 0
 463 01ac C7F1000A 		rsb	r10, r7, #0
 464              	.LVL59:
 465              		.loc 1 255 0
 466 01b0 BAF1000F 		cmp	r10, #0
 467 01b4 78D0     		beq	.L49
 468              		.loc 1 256 0
 469 01b6 2178     		ldrb	r1, [r4]	@ zero_extendqisi2
 470 01b8 2D29     		cmp	r1, #45
 471 01ba 7BD0     		beq	.L97
 472              	.L50:
 473              		.loc 1 258 0 discriminator 1
 474 01bc 5746     		mov	r7, r10
 475              	.LVL60:
 476              	.L51:
 477              		.loc 1 262 0 discriminator 1
 478 01be DBF80030 		ldr	r3, [fp]
 479 01c2 4146     		mov	r1, r8
 480 01c4 9B68     		ldr	r3, [r3, #8]
 481 01c6 5846     		mov	r0, fp
 482 01c8 9847     		blx	r3
 483              	.LVL61:
 484              		.loc 1 264 0 discriminator 1
 485 01ca 0137     		adds	r7, r7, #1
 486              	.LVL62:
 487 01cc F7D1     		bne	.L51
 488              		.loc 1 266 0
 489 01ce 009B     		ldr	r3, [sp]
 490 01d0 002B     		cmp	r3, #0
 491 01d2 CAEB0909 		rsb	r9, r10, r9
 492              	.LVL63:
 493 01d6 FFF621AF 		blt	.L12
 494              	.LVL64:
 495              	.L58:
 496 01da DDF800A0 		ldr	r10, [sp]
 497              	.LVL65:
 498              	.L54:
 499              		.loc 1 267 0
 500 01de DBF80030 		ldr	r3, [fp]
 501 01e2 14F8011B 		ldrb	r1, [r4], #1	@ zero_extendqisi2
 502              	.LVL66:
 503 01e6 9B68     		ldr	r3, [r3, #8]
 504              		.loc 1 266 0
 505 01e8 0AF1FF3A 		add	r10, r10, #-1
 506              	.LVL67:
 507              		.loc 1 267 0
 508 01ec 5846     		mov	r0, fp
 509 01ee 9847     		blx	r3
 510              	.LVL68:
 511              		.loc 1 266 0
ARM GAS  /tmp/ccFKdsFU.s 			page 10


 512 01f0 BAF1FF3F 		cmp	r10, #-1
 513 01f4 F3D1     		bne	.L54
 514 01f6 009B     		ldr	r3, [sp]
 515 01f8 09F10109 		add	r9, r9, #1
 516 01fc 002B     		cmp	r3, #0
 517 01fe A8BF     		it	ge
 518 0200 9944     		addge	r9, r9, r3
 519              	.LVL69:
 520              	.L53:
 521              		.loc 1 271 0
 522 0202 002F     		cmp	r7, #0
 523 0204 3FF40AAF 		beq	.L12
 524 0208 3C46     		mov	r4, r7
 525              	.LVL70:
 526              	.L55:
 527              		.loc 1 272 0
 528 020a DBF80030 		ldr	r3, [fp]
 529 020e 4146     		mov	r1, r8
 530 0210 9B68     		ldr	r3, [r3, #8]
 531 0212 5846     		mov	r0, fp
 532 0214 9847     		blx	r3
 533              	.LVL71:
 534              		.loc 1 271 0
 535 0216 013C     		subs	r4, r4, #1
 536              	.LVL72:
 537 0218 F7D1     		bne	.L55
 538 021a B944     		add	r9, r9, r7
 539 021c FEE6     		b	.L12
 540              	.LVL73:
 541              	.L30:
 542              		.loc 1 235 0
 543 021e 0A22     		movs	r2, #10
 544 0220 B4E7     		b	.L46
 545              	.LVL74:
 546              	.L33:
 547              		.loc 1 197 0
 548 0222 3468     		ldr	r4, [r6]
 549              		.loc 1 198 0
 550 0224 374A     		ldr	r2, .L100
 551 0226 002C     		cmp	r4, #0
 552 0228 08BF     		it	eq
 553 022a 1446     		moveq	r4, r2
 554              		.loc 1 197 0
 555 022c 0436     		adds	r6, r6, #4
 556              	.LVL75:
 557              		.loc 1 201 0
 558 022e 2278     		ldrb	r2, [r4]	@ zero_extendqisi2
 559              		.loc 1 199 0
 560 0230 0028     		cmp	r0, #0
 561 0232 4ED0     		beq	.L39
 562              	.LVL76:
 563              		.loc 1 201 0 discriminator 1
 564 0234 002A     		cmp	r2, #0
 565 0236 50D0     		beq	.L40
 566              		.loc 1 201 0 is_stmt 0
 567 0238 0138     		subs	r0, r0, #1
 568              	.LVL77:
ARM GAS  /tmp/ccFKdsFU.s 			page 11


 569              	.L57:
 570              		.loc 1 201 0 discriminator 4
 571 023a 2246     		mov	r2, r4
 572 023c 01E0     		b	.L42
 573              	.LVL78:
 574              	.L98:
 575              		.loc 1 201 0 discriminator 3
 576 023e 431C     		adds	r3, r0, #1
 577 0240 04D0     		beq	.L88
 578              	.LVL79:
 579              	.L42:
 580              		.loc 1 201 0 discriminator 4
 581 0242 12F8013F 		ldrb	r3, [r2, #1]!	@ zero_extendqisi2
 582              	.LVL80:
 583 0246 0138     		subs	r0, r0, #1
 584              	.LVL81:
 585 0248 002B     		cmp	r3, #0
 586 024a F8D1     		bne	.L98
 587              	.L88:
 588 024c 101B     		subs	r0, r2, r4
 589              	.LVL82:
 590 024e 431E     		subs	r3, r0, #1
 591              		.loc 1 251 0 is_stmt 1
 592 0250 3F1A     		subs	r7, r7, r0
 593              	.LVL83:
 594 0252 0093     		str	r3, [sp]
 595              		.loc 1 196 0
 596 0254 4FF02008 		mov	r8, #32
 597              	.LVL84:
 598 0258 27EAE777 		bic	r7, r7, r7, asr #31
 599              	.LVL85:
 600              		.loc 1 253 0
 601 025c BAF1000F 		cmp	r10, #0
 602 0260 A4D0     		beq	.L59
 603              	.L48:
 604              		.loc 1 266 0
 605 0262 009B     		ldr	r3, [sp]
 606 0264 002B     		cmp	r3, #0
 607 0266 B8DA     		bge	.L58
 608 0268 CBE7     		b	.L53
 609              	.LVL86:
 610              	.L32:
 611 026a 019B     		ldr	r3, [sp, #4]
 612              		.loc 1 193 0
 613 026c 3268     		ldr	r2, [r6]
 614 026e 8DF80C20 		strb	r2, [sp, #12]
 615 0272 1846     		mov	r0, r3
 616              	.LVL87:
 617 0274 013B     		subs	r3, r3, #1
 618 0276 0436     		adds	r6, r6, #4
 619 0278 0093     		str	r3, [sp]
 620              		.loc 1 192 0
 621 027a 4FF02008 		mov	r8, #32
 622              		.loc 1 144 0
 623 027e 03AC     		add	r4, sp, #12
 624              	.LVL88:
 625              		.loc 1 194 0
ARM GAS  /tmp/ccFKdsFU.s 			page 12


 626 0280 8EE7     		b	.L37
 627              	.LVL89:
 628              	.L29:
 629 0282 0822     		movs	r2, #8
 630 0284 82E7     		b	.L46
 631              	.LVL90:
 632              	.L43:
 633              		.loc 1 211 0
 634 0286 3168     		ldr	r1, [r6]
 635              	.LVL91:
 636              		.loc 1 212 0
 637 0288 0029     		cmp	r1, #0
 638              		.loc 1 211 0
 639 028a 06F10406 		add	r6, r6, #4
 640              		.loc 1 212 0
 641 028e 2FDB     		blt	.L99
 642              		.loc 1 143 0
 643 0290 03A8     		add	r0, sp, #12
 644              	.LVL92:
 645              	.L45:
 646              		.loc 1 216 0
 647 0292 0A22     		movs	r2, #10
 648 0294 7DE7     		b	.L89
 649              	.LVL93:
 650              	.L63:
 651              		.loc 1 190 0
 652 0296 2146     		mov	r1, r4
 653              	.LVL94:
 654              	.L26:
 655 0298 019B     		ldr	r3, [sp, #4]
 656              		.loc 1 247 0
 657 029a 8DF80C10 		strb	r1, [sp, #12]
 658 029e 1846     		mov	r0, r3
 659              	.LVL95:
 660 02a0 013B     		subs	r3, r3, #1
 661 02a2 0093     		str	r3, [sp]
 662              		.loc 1 144 0
 663 02a4 03AC     		add	r4, sp, #12
 664              	.LVL96:
 665              		.loc 1 248 0
 666 02a6 7BE7     		b	.L37
 667              	.LVL97:
 668              	.L49:
 669              		.loc 1 266 0
 670 02a8 009B     		ldr	r3, [sp]
 671 02aa 002B     		cmp	r3, #0
 672 02ac A8BF     		it	ge
 673 02ae 5746     		movge	r7, r10
 674 02b0 93DA     		bge	.L58
 675 02b2 B3E6     		b	.L12
 676              	.LVL98:
 677              	.L97:
 678              		.loc 1 256 0 discriminator 1
 679 02b4 B8F1300F 		cmp	r8, #48
 680 02b8 80D1     		bne	.L50
 681              		.loc 1 257 0
 682 02ba DBF80020 		ldr	r2, [fp]
ARM GAS  /tmp/ccFKdsFU.s 			page 13


 683 02be 5846     		mov	r0, fp
 684 02c0 9268     		ldr	r2, [r2, #8]
 685 02c2 9047     		blx	r2
 686              	.LVL99:
 687 02c4 009B     		ldr	r3, [sp]
 688 02c6 013B     		subs	r3, r3, #1
 689 02c8 0134     		adds	r4, r4, #1
 690              	.LVL100:
 691              		.loc 1 258 0
 692 02ca 09F10109 		add	r9, r9, #1
 693              	.LVL101:
 694 02ce 0093     		str	r3, [sp]
 695 02d0 74E7     		b	.L50
 696              	.LVL102:
 697              	.L39:
 698              		.loc 1 201 0
 699 02d2 47F6FE70 		movw	r0, #32766
 700 02d6 002A     		cmp	r2, #0
 701 02d8 AFD1     		bne	.L57
 702              	.LVL103:
 703              	.L40:
 704 02da 27EAE777 		bic	r7, r7, r7, asr #31
 705              	.LVL104:
 706              		.loc 1 253 0
 707 02de BAF1000F 		cmp	r10, #0
 708 02e2 0CD1     		bne	.L71
 709 02e4 4FF0FF33 		mov	r3, #-1
 710 02e8 0093     		str	r3, [sp]
 711 02ea 4FF02008 		mov	r8, #32
 712 02ee 5DE7     		b	.L59
 713              	.LVL105:
 714              	.L99:
 715              		.loc 1 213 0
 716 02f0 2D22     		movs	r2, #45
 717              		.loc 1 214 0
 718 02f2 4942     		negs	r1, r1
 719              	.LVL106:
 720              		.loc 1 213 0
 721 02f4 8DF80C20 		strb	r2, [sp, #12]
 722 02f8 0DF10D00 		add	r0, sp, #13
 723              	.LVL107:
 724 02fc C9E7     		b	.L45
 725              	.LVL108:
 726              	.L71:
 727              		.loc 1 253 0
 728 02fe 4FF02008 		mov	r8, #32
 729 0302 7EE7     		b	.L53
 730              	.L101:
 731              		.align	2
 732              	.L100:
 733 0304 00000000 		.word	.LC0
 734              		.cfi_endproc
 735              	.LFE263:
 736              		.size	chvprintf, .-chvprintf
 737 0308 AFF30080 		.section	.text.chsnprintf,"ax",%progbits
 737      AFF30080 
 738              		.align	2
ARM GAS  /tmp/ccFKdsFU.s 			page 14


 739              		.p2align 4,,15
 740              		.global	chsnprintf
 741              		.thumb
 742              		.thumb_func
 743              		.type	chsnprintf, %function
 744              	chsnprintf:
 745              	.LFB264:
 746              		.loc 1 307 0
 747              		.cfi_startproc
 748              		@ args = 4, pretend = 8, frame = 24
 749              		@ frame_needed = 0, uses_anonymous_args = 1
 750              	.LVL109:
 751 0000 0CB4     		push	{r2, r3}
 752              		.cfi_def_cfa_offset 8
 753              		.cfi_offset 2, -8
 754              		.cfi_offset 3, -4
 755 0002 30B5     		push	{r4, r5, lr}
 756              		.cfi_def_cfa_offset 20
 757              		.cfi_offset 4, -20
 758              		.cfi_offset 5, -16
 759              		.cfi_offset 14, -12
 760 0004 0546     		mov	r5, r0
 761 0006 87B0     		sub	sp, sp, #28
 762              		.cfi_def_cfa_offset 48
 763              		.loc 1 314 0
 764 0008 0C46     		mov	r4, r1
 765 000a B1B1     		cbz	r1, .L103
 766              	.LVL110:
 767              		.loc 1 321 0
 768 000c 4A1E     		subs	r2, r1, #1
 769              	.LVL111:
 770 000e 01A8     		add	r0, sp, #4
 771              	.LVL112:
 772 0010 0023     		movs	r3, #0
 773 0012 2946     		mov	r1, r5
 774              	.LVL113:
 775 0014 FFF7FEFF 		bl	msObjectInit
 776              	.LVL114:
 777              		.loc 1 325 0
 778 0018 0BAB     		add	r3, sp, #44
 779              		.loc 1 326 0
 780 001a 1A46     		mov	r2, r3
 781 001c 01A8     		add	r0, sp, #4
 782              	.LVL115:
 783 001e 0A99     		ldr	r1, [sp, #40]
 784              		.loc 1 325 0
 785 0020 0093     		str	r3, [sp]
 786              		.loc 1 326 0
 787 0022 FFF7FEFF 		bl	chvprintf
 788              	.LVL116:
 789              		.loc 1 330 0
 790 0026 049B     		ldr	r3, [sp, #16]
 791 0028 9C42     		cmp	r4, r3
 792 002a 01D9     		bls	.L105
 793              		.loc 1 331 0
 794 002c 0022     		movs	r2, #0
 795 002e EA54     		strb	r2, [r5, r3]
ARM GAS  /tmp/ccFKdsFU.s 			page 15


 796              	.L105:
 797              		.loc 1 335 0
 798 0030 07B0     		add	sp, sp, #28
 799              		.cfi_remember_state
 800              		.cfi_def_cfa_offset 20
 801              		@ sp needed
 802 0032 BDE83040 		pop	{r4, r5, lr}
 803              		.cfi_restore 14
 804              		.cfi_restore 5
 805              		.cfi_restore 4
 806              		.cfi_def_cfa_offset 8
 807              	.LVL117:
 808 0036 02B0     		add	sp, sp, #8
 809              		.cfi_restore 3
 810              		.cfi_restore 2
 811              		.cfi_def_cfa_offset 0
 812 0038 7047     		bx	lr
 813              	.LVL118:
 814              	.L103:
 815              		.cfi_restore_state
 816              		.loc 1 321 0
 817 003a 0146     		mov	r1, r0
 818              	.LVL119:
 819 003c 2346     		mov	r3, r4
 820 003e 01A8     		add	r0, sp, #4
 821              	.LVL120:
 822 0040 2246     		mov	r2, r4
 823 0042 FFF7FEFF 		bl	msObjectInit
 824              	.LVL121:
 825              		.loc 1 325 0
 826 0046 0BAB     		add	r3, sp, #44
 827              		.loc 1 326 0
 828 0048 01A8     		add	r0, sp, #4
 829              	.LVL122:
 830 004a 1A46     		mov	r2, r3
 831 004c 0A99     		ldr	r1, [sp, #40]
 832              		.loc 1 325 0
 833 004e 0093     		str	r3, [sp]
 834              		.loc 1 326 0
 835 0050 FFF7FEFF 		bl	chvprintf
 836              	.LVL123:
 837              		.loc 1 335 0
 838 0054 07B0     		add	sp, sp, #28
 839              		.cfi_def_cfa_offset 20
 840              		@ sp needed
 841 0056 BDE83040 		pop	{r4, r5, lr}
 842              		.cfi_restore 4
 843              		.cfi_restore 5
 844              		.cfi_restore 14
 845              		.cfi_def_cfa_offset 8
 846              	.LVL124:
 847 005a 02B0     		add	sp, sp, #8
 848              		.cfi_restore 2
 849              		.cfi_restore 3
 850              		.cfi_def_cfa_offset 0
 851 005c 7047     		bx	lr
 852              		.cfi_endproc
ARM GAS  /tmp/ccFKdsFU.s 			page 16


 853              	.LFE264:
 854              		.size	chsnprintf, .-chsnprintf
 855 005e 00BF     		.section	.rodata.str1.4,"aMS",%progbits,1
 856              		.align	2
 857              	.LC0:
 858 0000 286E756C 		.ascii	"(null)\000"
 858      6C2900
 859 0007 00       		.text
 860              	.Letext0:
 861              		.file 2 "/usr/lib/gcc/arm-none-eabi/5.2.0/include/stddef.h"
 862              		.file 3 "/usr/arm-none-eabi/include/machine/_default_types.h"
 863              		.file 4 "/usr/arm-none-eabi/include/stdint.h"
 864              		.file 5 "../../os/rt/ports/ARMCMx/compilers/GCC/chtypes.h"
 865              		.file 6 "../../os/rt/include/chsystypes.h"
 866              		.file 7 "../../os/rt/include/chschd.h"
 867              		.file 8 "../../os/rt/ports/ARMCMx/chcore.h"
 868              		.file 9 "../../os/rt/ports/ARMCMx/chcore_v7m.h"
 869              		.file 10 "../../os/rt/include/chtm.h"
 870              		.file 11 "../../os/rt/include/chsem.h"
 871              		.file 12 "../../os/rt/include/chmtx.h"
 872              		.file 13 "../../os/rt/include/chstreams.h"
 873              		.file 14 "/usr/lib/gcc/arm-none-eabi/5.2.0/include/stdarg.h"
 874              		.file 15 "<built-in>"
 875              		.file 16 "../../os/hal/lib/streams/memstreams.h"
 876              		.file 17 "../../os/ext/CMSIS/include/core_cm4.h"
 877              		.section	.debug_info,"",%progbits
 878              	.Ldebug_info0:
 879 0000 600C0000 		.4byte	0xc60
 880 0004 0400     		.2byte	0x4
 881 0006 00000000 		.4byte	.Ldebug_abbrev0
 882 000a 04       		.byte	0x4
 883 000b 01       		.uleb128 0x1
 884 000c AC020000 		.4byte	.LASF129
 885 0010 0C       		.byte	0xc
 886 0011 15000000 		.4byte	.LASF130
 887 0015 A4010000 		.4byte	.LASF131
 888 0019 00000000 		.4byte	.Ldebug_ranges0+0
 889 001d 00000000 		.4byte	0
 890 0021 00000000 		.4byte	.Ldebug_line0
 891 0025 02       		.uleb128 0x2
 892 0026 04       		.byte	0x4
 893 0027 05       		.byte	0x5
 894 0028 696E7400 		.ascii	"int\000"
 895 002c 03       		.uleb128 0x3
 896 002d 39000000 		.4byte	.LASF4
 897 0031 02       		.byte	0x2
 898 0032 D8       		.byte	0xd8
 899 0033 37000000 		.4byte	0x37
 900 0037 04       		.uleb128 0x4
 901 0038 04       		.byte	0x4
 902 0039 07       		.byte	0x7
 903 003a 0C020000 		.4byte	.LASF0
 904 003e 04       		.uleb128 0x4
 905 003f 08       		.byte	0x8
 906 0040 05       		.byte	0x5
 907 0041 EF000000 		.4byte	.LASF1
 908 0045 04       		.uleb128 0x4
ARM GAS  /tmp/ccFKdsFU.s 			page 17


 909 0046 08       		.byte	0x8
 910 0047 04       		.byte	0x4
 911 0048 DA030000 		.4byte	.LASF2
 912 004c 04       		.uleb128 0x4
 913 004d 01       		.byte	0x1
 914 004e 06       		.byte	0x6
 915 004f FD000000 		.4byte	.LASF3
 916 0053 03       		.uleb128 0x3
 917 0054 49000000 		.4byte	.LASF5
 918 0058 03       		.byte	0x3
 919 0059 1D       		.byte	0x1d
 920 005a 5E000000 		.4byte	0x5e
 921 005e 04       		.uleb128 0x4
 922 005f 01       		.byte	0x1
 923 0060 08       		.byte	0x8
 924 0061 B3040000 		.4byte	.LASF6
 925 0065 04       		.uleb128 0x4
 926 0066 02       		.byte	0x2
 927 0067 05       		.byte	0x5
 928 0068 D9040000 		.4byte	.LASF7
 929 006c 04       		.uleb128 0x4
 930 006d 02       		.byte	0x2
 931 006e 07       		.byte	0x7
 932 006f 4D020000 		.4byte	.LASF8
 933 0073 03       		.uleb128 0x3
 934 0074 97020000 		.4byte	.LASF9
 935 0078 03       		.byte	0x3
 936 0079 3F       		.byte	0x3f
 937 007a 7E000000 		.4byte	0x7e
 938 007e 04       		.uleb128 0x4
 939 007f 04       		.byte	0x4
 940 0080 05       		.byte	0x5
 941 0081 3A010000 		.4byte	.LASF10
 942 0085 03       		.uleb128 0x3
 943 0086 C6050000 		.4byte	.LASF11
 944 008a 03       		.byte	0x3
 945 008b 41       		.byte	0x41
 946 008c 90000000 		.4byte	0x90
 947 0090 04       		.uleb128 0x4
 948 0091 04       		.byte	0x4
 949 0092 07       		.byte	0x7
 950 0093 09010000 		.4byte	.LASF12
 951 0097 03       		.uleb128 0x3
 952 0098 57040000 		.4byte	.LASF13
 953 009c 03       		.byte	0x3
 954 009d 5B       		.byte	0x5b
 955 009e A2000000 		.4byte	0xa2
 956 00a2 04       		.uleb128 0x4
 957 00a3 08       		.byte	0x8
 958 00a4 07       		.byte	0x7
 959 00a5 89000000 		.4byte	.LASF14
 960 00a9 03       		.uleb128 0x3
 961 00aa 38060000 		.4byte	.LASF15
 962 00ae 04       		.byte	0x4
 963 00af 15       		.byte	0x15
 964 00b0 53000000 		.4byte	0x53
 965 00b4 03       		.uleb128 0x3
ARM GAS  /tmp/ccFKdsFU.s 			page 18


 966 00b5 AB040000 		.4byte	.LASF16
 967 00b9 04       		.byte	0x4
 968 00ba 2C       		.byte	0x2c
 969 00bb 73000000 		.4byte	0x73
 970 00bf 03       		.uleb128 0x3
 971 00c0 56050000 		.4byte	.LASF17
 972 00c4 04       		.byte	0x4
 973 00c5 2D       		.byte	0x2d
 974 00c6 85000000 		.4byte	0x85
 975 00ca 03       		.uleb128 0x3
 976 00cb 40000000 		.4byte	.LASF18
 977 00cf 04       		.byte	0x4
 978 00d0 39       		.byte	0x39
 979 00d1 97000000 		.4byte	0x97
 980 00d5 05       		.uleb128 0x5
 981 00d6 B4000000 		.4byte	0xb4
 982 00da 03       		.uleb128 0x3
 983 00db FB050000 		.4byte	.LASF19
 984 00df 05       		.byte	0x5
 985 00e0 45       		.byte	0x45
 986 00e1 BF000000 		.4byte	0xbf
 987 00e5 03       		.uleb128 0x3
 988 00e6 75020000 		.4byte	.LASF20
 989 00ea 05       		.byte	0x5
 990 00eb 48       		.byte	0x48
 991 00ec A9000000 		.4byte	0xa9
 992 00f0 03       		.uleb128 0x3
 993 00f1 43010000 		.4byte	.LASF21
 994 00f5 05       		.byte	0x5
 995 00f6 49       		.byte	0x49
 996 00f7 A9000000 		.4byte	0xa9
 997 00fb 03       		.uleb128 0x3
 998 00fc 00000000 		.4byte	.LASF22
 999 0100 05       		.byte	0x5
 1000 0101 4A       		.byte	0x4a
 1001 0102 A9000000 		.4byte	0xa9
 1002 0106 03       		.uleb128 0x3
 1003 0107 79040000 		.4byte	.LASF23
 1004 010b 05       		.byte	0x5
 1005 010c 4C       		.byte	0x4c
 1006 010d BF000000 		.4byte	0xbf
 1007 0111 03       		.uleb128 0x3
 1008 0112 6A020000 		.4byte	.LASF24
 1009 0116 05       		.byte	0x5
 1010 0117 4D       		.byte	0x4d
 1011 0118 B4000000 		.4byte	0xb4
 1012 011c 03       		.uleb128 0x3
 1013 011d 8B020000 		.4byte	.LASF25
 1014 0121 05       		.byte	0x5
 1015 0122 4F       		.byte	0x4f
 1016 0123 BF000000 		.4byte	0xbf
 1017 0127 03       		.uleb128 0x3
 1018 0128 06020000 		.4byte	.LASF26
 1019 012c 05       		.byte	0x5
 1020 012d 51       		.byte	0x51
 1021 012e B4000000 		.4byte	0xb4
 1022 0132 03       		.uleb128 0x3
ARM GAS  /tmp/ccFKdsFU.s 			page 19


 1023 0133 A8050000 		.4byte	.LASF27
 1024 0137 06       		.byte	0x6
 1025 0138 33       		.byte	0x33
 1026 0139 BF000000 		.4byte	0xbf
 1027 013d 03       		.uleb128 0x3
 1028 013e 98050000 		.4byte	.LASF28
 1029 0142 06       		.byte	0x6
 1030 0143 3F       		.byte	0x3f
 1031 0144 48010000 		.4byte	0x148
 1032 0148 06       		.uleb128 0x6
 1033 0149 60020000 		.4byte	.LASF48
 1034 014d 44       		.byte	0x44
 1035 014e 07       		.byte	0x7
 1036 014f C2       		.byte	0xc2
 1037 0150 35020000 		.4byte	0x235
 1038 0154 07       		.uleb128 0x7
 1039 0155 F9040000 		.4byte	.LASF29
 1040 0159 07       		.byte	0x7
 1041 015a C3       		.byte	0xc3
 1042 015b 40020000 		.4byte	0x240
 1043 015f 00       		.byte	0
 1044 0160 07       		.uleb128 0x7
 1045 0161 72040000 		.4byte	.LASF30
 1046 0165 07       		.byte	0x7
 1047 0166 C5       		.byte	0xc5
 1048 0167 40020000 		.4byte	0x240
 1049 016b 04       		.byte	0x4
 1050 016c 07       		.uleb128 0x7
 1051 016d E8000000 		.4byte	.LASF31
 1052 0171 07       		.byte	0x7
 1053 0172 C7       		.byte	0xc7
 1054 0173 06010000 		.4byte	0x106
 1055 0177 08       		.byte	0x8
 1056 0178 07       		.uleb128 0x7
 1057 0179 8F060000 		.4byte	.LASF32
 1058 017d 07       		.byte	0x7
 1059 017e C8       		.byte	0xc8
 1060 017f 70040000 		.4byte	0x470
 1061 0183 0C       		.byte	0xc
 1062 0184 07       		.uleb128 0x7
 1063 0185 5D010000 		.4byte	.LASF33
 1064 0189 07       		.byte	0x7
 1065 018a CA       		.byte	0xca
 1066 018b 40020000 		.4byte	0x240
 1067 018f 10       		.byte	0x10
 1068 0190 07       		.uleb128 0x7
 1069 0191 19040000 		.4byte	.LASF34
 1070 0195 07       		.byte	0x7
 1071 0196 CB       		.byte	0xcb
 1072 0197 40020000 		.4byte	0x240
 1073 019b 14       		.byte	0x14
 1074 019c 07       		.uleb128 0x7
 1075 019d 8E040000 		.4byte	.LASF35
 1076 01a1 07       		.byte	0x7
 1077 01a2 D2       		.byte	0xd2
 1078 01a3 B5060000 		.4byte	0x6b5
 1079 01a7 18       		.byte	0x18
ARM GAS  /tmp/ccFKdsFU.s 			page 20


 1080 01a8 07       		.uleb128 0x7
 1081 01a9 E3040000 		.4byte	.LASF36
 1082 01ad 07       		.byte	0x7
 1083 01ae DD       		.byte	0xdd
 1084 01af F0000000 		.4byte	0xf0
 1085 01b3 1C       		.byte	0x1c
 1086 01b4 07       		.uleb128 0x7
 1087 01b5 18050000 		.4byte	.LASF37
 1088 01b9 07       		.byte	0x7
 1089 01ba E1       		.byte	0xe1
 1090 01bb E5000000 		.4byte	0xe5
 1091 01bf 1D       		.byte	0x1d
 1092 01c0 07       		.uleb128 0x7
 1093 01c1 23060000 		.4byte	.LASF38
 1094 01c5 07       		.byte	0x7
 1095 01c6 E6       		.byte	0xe6
 1096 01c7 FB000000 		.4byte	0xfb
 1097 01cb 1E       		.byte	0x1e
 1098 01cc 08       		.uleb128 0x8
 1099 01cd 705F7500 		.ascii	"p_u\000"
 1100 01d1 07       		.byte	0x7
 1101 01d2 3101     		.2byte	0x131
 1102 01d4 F0050000 		.4byte	0x5f0
 1103 01d8 20       		.byte	0x20
 1104 01d9 09       		.uleb128 0x9
 1105 01da 9D030000 		.4byte	.LASF39
 1106 01de 07       		.byte	0x7
 1107 01df 3601     		.2byte	0x136
 1108 01e1 46020000 		.4byte	0x246
 1109 01e5 24       		.byte	0x24
 1110 01e6 09       		.uleb128 0x9
 1111 01e7 31020000 		.4byte	.LASF40
 1112 01eb 07       		.byte	0x7
 1113 01ec 3C01     		.2byte	0x13c
 1114 01ee 6A020000 		.4byte	0x26a
 1115 01f2 28       		.byte	0x28
 1116 01f3 09       		.uleb128 0x9
 1117 01f4 81060000 		.4byte	.LASF41
 1118 01f8 07       		.byte	0x7
 1119 01f9 4001     		.2byte	0x140
 1120 01fb 11010000 		.4byte	0x111
 1121 01ff 30       		.byte	0x30
 1122 0200 09       		.uleb128 0x9
 1123 0201 4B050000 		.4byte	.LASF42
 1124 0205 07       		.byte	0x7
 1125 0206 4601     		.2byte	0x146
 1126 0208 1C010000 		.4byte	0x11c
 1127 020c 34       		.byte	0x34
 1128 020d 09       		.uleb128 0x9
 1129 020e CF040000 		.4byte	.LASF43
 1130 0212 07       		.byte	0x7
 1131 0213 4D01     		.2byte	0x14d
 1132 0215 AF060000 		.4byte	0x6af
 1133 0219 38       		.byte	0x38
 1134 021a 09       		.uleb128 0x9
 1135 021b B2050000 		.4byte	.LASF44
 1136 021f 07       		.byte	0x7
ARM GAS  /tmp/ccFKdsFU.s 			page 21


 1137 0220 5101     		.2byte	0x151
 1138 0222 06010000 		.4byte	0x106
 1139 0226 3C       		.byte	0x3c
 1140 0227 09       		.uleb128 0x9
 1141 0228 1B010000 		.4byte	.LASF45
 1142 022c 07       		.byte	0x7
 1143 022d 5801     		.2byte	0x158
 1144 022f 1D030000 		.4byte	0x31d
 1145 0233 40       		.byte	0x40
 1146 0234 00       		.byte	0
 1147 0235 03       		.uleb128 0x3
 1148 0236 B0030000 		.4byte	.LASF46
 1149 023a 06       		.byte	0x6
 1150 023b 44       		.byte	0x44
 1151 023c 40020000 		.4byte	0x240
 1152 0240 0A       		.uleb128 0xa
 1153 0241 04       		.byte	0x4
 1154 0242 3D010000 		.4byte	0x13d
 1155 0246 03       		.uleb128 0x3
 1156 0247 72060000 		.4byte	.LASF47
 1157 024b 06       		.byte	0x6
 1158 024c 49       		.byte	0x49
 1159 024d 51020000 		.4byte	0x251
 1160 0251 06       		.uleb128 0x6
 1161 0252 6E050000 		.4byte	.LASF49
 1162 0256 04       		.byte	0x4
 1163 0257 07       		.byte	0x7
 1164 0258 B0       		.byte	0xb0
 1165 0259 6A020000 		.4byte	0x26a
 1166 025d 07       		.uleb128 0x7
 1167 025e F9040000 		.4byte	.LASF29
 1168 0262 07       		.byte	0x7
 1169 0263 B1       		.byte	0xb1
 1170 0264 40020000 		.4byte	0x240
 1171 0268 00       		.byte	0
 1172 0269 00       		.byte	0
 1173 026a 03       		.uleb128 0x3
 1174 026b 0A060000 		.4byte	.LASF50
 1175 026f 06       		.byte	0x6
 1176 0270 50       		.byte	0x50
 1177 0271 75020000 		.4byte	0x275
 1178 0275 06       		.uleb128 0x6
 1179 0276 D7000000 		.4byte	.LASF51
 1180 027a 08       		.byte	0x8
 1181 027b 07       		.byte	0x7
 1182 027c B7       		.byte	0xb7
 1183 027d 9A020000 		.4byte	0x29a
 1184 0281 07       		.uleb128 0x7
 1185 0282 F9040000 		.4byte	.LASF29
 1186 0286 07       		.byte	0x7
 1187 0287 B8       		.byte	0xb8
 1188 0288 40020000 		.4byte	0x240
 1189 028c 00       		.byte	0
 1190 028d 07       		.uleb128 0x7
 1191 028e 72040000 		.4byte	.LASF30
 1192 0292 07       		.byte	0x7
 1193 0293 B9       		.byte	0xb9
ARM GAS  /tmp/ccFKdsFU.s 			page 22


 1194 0294 40020000 		.4byte	0x240
 1195 0298 04       		.byte	0x4
 1196 0299 00       		.byte	0
 1197 029a 03       		.uleb128 0x3
 1198 029b 08000000 		.4byte	.LASF52
 1199 029f 06       		.byte	0x6
 1200 02a0 57       		.byte	0x57
 1201 02a1 A5020000 		.4byte	0x2a5
 1202 02a5 0B       		.uleb128 0xb
 1203 02a6 7D020000 		.4byte	.LASF53
 1204 02aa 1C       		.byte	0x1c
 1205 02ab 07       		.byte	0x7
 1206 02ac 9001     		.2byte	0x190
 1207 02ae 01030000 		.4byte	0x301
 1208 02b2 09       		.uleb128 0x9
 1209 02b3 66050000 		.4byte	.LASF54
 1210 02b7 07       		.byte	0x7
 1211 02b8 9101     		.2byte	0x191
 1212 02ba 6A020000 		.4byte	0x26a
 1213 02be 00       		.byte	0
 1214 02bf 09       		.uleb128 0x9
 1215 02c0 EB040000 		.4byte	.LASF55
 1216 02c4 07       		.byte	0x7
 1217 02c5 9201     		.2byte	0x192
 1218 02c7 06010000 		.4byte	0x106
 1219 02cb 08       		.byte	0x8
 1220 02cc 09       		.uleb128 0x9
 1221 02cd 21040000 		.4byte	.LASF56
 1222 02d1 07       		.byte	0x7
 1223 02d2 9401     		.2byte	0x194
 1224 02d4 70040000 		.4byte	0x470
 1225 02d8 0C       		.byte	0xc
 1226 02d9 09       		.uleb128 0x9
 1227 02da 6D010000 		.4byte	.LASF57
 1228 02de 07       		.byte	0x7
 1229 02df 9701     		.2byte	0x197
 1230 02e1 40020000 		.4byte	0x240
 1231 02e5 10       		.byte	0x10
 1232 02e6 09       		.uleb128 0x9
 1233 02e7 42040000 		.4byte	.LASF58
 1234 02eb 07       		.byte	0x7
 1235 02ec 9801     		.2byte	0x198
 1236 02ee 40020000 		.4byte	0x240
 1237 02f2 14       		.byte	0x14
 1238 02f3 09       		.uleb128 0x9
 1239 02f4 38040000 		.4byte	.LASF59
 1240 02f8 07       		.byte	0x7
 1241 02f9 9B01     		.2byte	0x19b
 1242 02fb 40020000 		.4byte	0x240
 1243 02ff 18       		.byte	0x18
 1244 0300 00       		.byte	0
 1245 0301 03       		.uleb128 0x3
 1246 0302 BD050000 		.4byte	.LASF60
 1247 0306 06       		.byte	0x6
 1248 0307 5C       		.byte	0x5c
 1249 0308 0C030000 		.4byte	0x30c
 1250 030c 0A       		.uleb128 0xa
ARM GAS  /tmp/ccFKdsFU.s 			page 23


 1251 030d 04       		.byte	0x4
 1252 030e 12030000 		.4byte	0x312
 1253 0312 0C       		.uleb128 0xc
 1254 0313 1D030000 		.4byte	0x31d
 1255 0317 0D       		.uleb128 0xd
 1256 0318 1D030000 		.4byte	0x31d
 1257 031c 00       		.byte	0
 1258 031d 0E       		.uleb128 0xe
 1259 031e 04       		.byte	0x4
 1260 031f 03       		.uleb128 0x3
 1261 0320 62040000 		.4byte	.LASF61
 1262 0324 06       		.byte	0x6
 1263 0325 61       		.byte	0x61
 1264 0326 2A030000 		.4byte	0x32a
 1265 032a 0B       		.uleb128 0xb
 1266 032b 2D050000 		.4byte	.LASF62
 1267 032f 14       		.byte	0x14
 1268 0330 07       		.byte	0x7
 1269 0331 6B01     		.2byte	0x16b
 1270 0333 79030000 		.4byte	0x379
 1271 0337 09       		.uleb128 0x9
 1272 0338 19020000 		.4byte	.LASF63
 1273 033c 07       		.byte	0x7
 1274 033d 6C01     		.2byte	0x16c
 1275 033f C7060000 		.4byte	0x6c7
 1276 0343 00       		.byte	0
 1277 0344 09       		.uleb128 0x9
 1278 0345 7E010000 		.4byte	.LASF64
 1279 0349 07       		.byte	0x7
 1280 034a 6D01     		.2byte	0x16d
 1281 034c C7060000 		.4byte	0x6c7
 1282 0350 04       		.byte	0x4
 1283 0351 09       		.uleb128 0x9
 1284 0352 28020000 		.4byte	.LASF65
 1285 0356 07       		.byte	0x7
 1286 0357 6E01     		.2byte	0x16e
 1287 0359 32010000 		.4byte	0x132
 1288 035d 08       		.byte	0x8
 1289 035e 09       		.uleb128 0x9
 1290 035f 95060000 		.4byte	.LASF66
 1291 0363 07       		.byte	0x7
 1292 0364 6F01     		.2byte	0x16f
 1293 0366 01030000 		.4byte	0x301
 1294 036a 0C       		.byte	0xc
 1295 036b 09       		.uleb128 0x9
 1296 036c 03060000 		.4byte	.LASF67
 1297 0370 07       		.byte	0x7
 1298 0371 7101     		.2byte	0x171
 1299 0373 1D030000 		.4byte	0x31d
 1300 0377 10       		.byte	0x10
 1301 0378 00       		.byte	0
 1302 0379 03       		.uleb128 0x3
 1303 037a B4000000 		.4byte	.LASF68
 1304 037e 06       		.byte	0x6
 1305 037f 66       		.byte	0x66
 1306 0380 84030000 		.4byte	0x384
 1307 0384 0B       		.uleb128 0xb
ARM GAS  /tmp/ccFKdsFU.s 			page 24


 1308 0385 C3030000 		.4byte	.LASF69
 1309 0389 10       		.byte	0x10
 1310 038a 07       		.byte	0x7
 1311 038b 7B01     		.2byte	0x17b
 1312 038d C6030000 		.4byte	0x3c6
 1313 0391 09       		.uleb128 0x9
 1314 0392 19020000 		.4byte	.LASF63
 1315 0396 07       		.byte	0x7
 1316 0397 7C01     		.2byte	0x17c
 1317 0399 C7060000 		.4byte	0x6c7
 1318 039d 00       		.byte	0
 1319 039e 09       		.uleb128 0x9
 1320 039f 7E010000 		.4byte	.LASF64
 1321 03a3 07       		.byte	0x7
 1322 03a4 7E01     		.2byte	0x17e
 1323 03a6 C7060000 		.4byte	0x6c7
 1324 03aa 04       		.byte	0x4
 1325 03ab 09       		.uleb128 0x9
 1326 03ac 28020000 		.4byte	.LASF65
 1327 03b0 07       		.byte	0x7
 1328 03b1 8001     		.2byte	0x180
 1329 03b3 32010000 		.4byte	0x132
 1330 03b7 08       		.byte	0x8
 1331 03b8 09       		.uleb128 0x9
 1332 03b9 0D040000 		.4byte	.LASF70
 1333 03bd 07       		.byte	0x7
 1334 03be 8801     		.2byte	0x188
 1335 03c0 32010000 		.4byte	0x132
 1336 03c4 0C       		.byte	0xc
 1337 03c5 00       		.byte	0
 1338 03c6 03       		.uleb128 0x3
 1339 03c7 67000000 		.4byte	.LASF71
 1340 03cb 06       		.byte	0x6
 1341 03cc 6B       		.byte	0x6b
 1342 03cd D1030000 		.4byte	0x3d1
 1343 03d1 0B       		.uleb128 0xb
 1344 03d2 95040000 		.4byte	.LASF72
 1345 03d6 04       		.byte	0x4
 1346 03d7 07       		.byte	0x7
 1347 03d8 A201     		.2byte	0x1a2
 1348 03da EC030000 		.4byte	0x3ec
 1349 03de 09       		.uleb128 0x9
 1350 03df D1050000 		.4byte	.LASF73
 1351 03e3 07       		.byte	0x7
 1352 03e4 AA01     		.2byte	0x1aa
 1353 03e6 CD060000 		.4byte	0x6cd
 1354 03ea 00       		.byte	0
 1355 03eb 00       		.byte	0
 1356 03ec 03       		.uleb128 0x3
 1357 03ed EF050000 		.4byte	.LASF74
 1358 03f1 06       		.byte	0x6
 1359 03f2 70       		.byte	0x70
 1360 03f3 F7030000 		.4byte	0x3f7
 1361 03f7 0F       		.uleb128 0xf
 1362 03f8 30010000 		.4byte	.LASF75
 1363 03fc D801     		.2byte	0x1d8
 1364 03fe 07       		.byte	0x7
ARM GAS  /tmp/ccFKdsFU.s 			page 25


 1365 03ff C201     		.2byte	0x1c2
 1366 0401 53040000 		.4byte	0x453
 1367 0405 09       		.uleb128 0x9
 1368 0406 32060000 		.4byte	.LASF76
 1369 040a 07       		.byte	0x7
 1370 040b C601     		.2byte	0x1c6
 1371 040d 9A020000 		.4byte	0x29a
 1372 0411 00       		.byte	0
 1373 0412 09       		.uleb128 0x9
 1374 0413 86010000 		.4byte	.LASF77
 1375 0417 07       		.byte	0x7
 1376 0418 CA01     		.2byte	0x1ca
 1377 041a 79030000 		.4byte	0x379
 1378 041e 1C       		.byte	0x1c
 1379 041f 08       		.uleb128 0x8
 1380 0420 64626700 		.ascii	"dbg\000"
 1381 0424 07       		.byte	0x7
 1382 0425 CE01     		.2byte	0x1ce
 1383 0427 C6030000 		.4byte	0x3c6
 1384 042b 2C       		.byte	0x2c
 1385 042c 09       		.uleb128 0x9
 1386 042d A9000000 		.4byte	.LASF78
 1387 0431 07       		.byte	0x7
 1388 0432 D201     		.2byte	0x1d2
 1389 0434 3D010000 		.4byte	0x13d
 1390 0438 30       		.byte	0x30
 1391 0439 08       		.uleb128 0x8
 1392 043a 746D00   		.ascii	"tm\000"
 1393 043d 07       		.byte	0x7
 1394 043e D701     		.2byte	0x1d7
 1395 0440 E5050000 		.4byte	0x5e5
 1396 0444 74       		.byte	0x74
 1397 0445 09       		.uleb128 0x9
 1398 0446 F7010000 		.4byte	.LASF79
 1399 044a 07       		.byte	0x7
 1400 044b E301     		.2byte	0x1e3
 1401 044d D2060000 		.4byte	0x6d2
 1402 0451 78       		.byte	0x78
 1403 0452 00       		.byte	0
 1404 0453 04       		.uleb128 0x4
 1405 0454 04       		.byte	0x4
 1406 0455 07       		.byte	0x7
 1407 0456 A7030000 		.4byte	.LASF80
 1408 045a 03       		.uleb128 0x3
 1409 045b 75010000 		.4byte	.LASF81
 1410 045f 08       		.byte	0x8
 1411 0460 65       		.byte	0x65
 1412 0461 1D030000 		.4byte	0x31d
 1413 0465 03       		.uleb128 0x3
 1414 0466 A1020000 		.4byte	.LASF82
 1415 046a 08       		.byte	0x8
 1416 046b 6D       		.byte	0x6d
 1417 046c CA000000 		.4byte	0xca
 1418 0470 06       		.uleb128 0x6
 1419 0471 E7050000 		.4byte	.LASF83
 1420 0475 04       		.byte	0x4
 1421 0476 08       		.byte	0x8
ARM GAS  /tmp/ccFKdsFU.s 			page 26


 1422 0477 89       		.byte	0x89
 1423 0478 89040000 		.4byte	0x489
 1424 047c 10       		.uleb128 0x10
 1425 047d 72313300 		.ascii	"r13\000"
 1426 0481 08       		.byte	0x8
 1427 0482 8A       		.byte	0x8a
 1428 0483 CA050000 		.4byte	0x5ca
 1429 0487 00       		.byte	0
 1430 0488 00       		.byte	0
 1431 0489 06       		.uleb128 0x6
 1432 048a 53000000 		.4byte	.LASF84
 1433 048e 64       		.byte	0x64
 1434 048f 09       		.byte	0x9
 1435 0490 F4       		.byte	0xf4
 1436 0491 CA050000 		.4byte	0x5ca
 1437 0495 10       		.uleb128 0x10
 1438 0496 73313600 		.ascii	"s16\000"
 1439 049a 09       		.byte	0x9
 1440 049b F6       		.byte	0xf6
 1441 049c 5A040000 		.4byte	0x45a
 1442 04a0 00       		.byte	0
 1443 04a1 10       		.uleb128 0x10
 1444 04a2 73313700 		.ascii	"s17\000"
 1445 04a6 09       		.byte	0x9
 1446 04a7 F7       		.byte	0xf7
 1447 04a8 5A040000 		.4byte	0x45a
 1448 04ac 04       		.byte	0x4
 1449 04ad 10       		.uleb128 0x10
 1450 04ae 73313800 		.ascii	"s18\000"
 1451 04b2 09       		.byte	0x9
 1452 04b3 F8       		.byte	0xf8
 1453 04b4 5A040000 		.4byte	0x45a
 1454 04b8 08       		.byte	0x8
 1455 04b9 10       		.uleb128 0x10
 1456 04ba 73313900 		.ascii	"s19\000"
 1457 04be 09       		.byte	0x9
 1458 04bf F9       		.byte	0xf9
 1459 04c0 5A040000 		.4byte	0x45a
 1460 04c4 0C       		.byte	0xc
 1461 04c5 10       		.uleb128 0x10
 1462 04c6 73323000 		.ascii	"s20\000"
 1463 04ca 09       		.byte	0x9
 1464 04cb FA       		.byte	0xfa
 1465 04cc 5A040000 		.4byte	0x45a
 1466 04d0 10       		.byte	0x10
 1467 04d1 10       		.uleb128 0x10
 1468 04d2 73323100 		.ascii	"s21\000"
 1469 04d6 09       		.byte	0x9
 1470 04d7 FB       		.byte	0xfb
 1471 04d8 5A040000 		.4byte	0x45a
 1472 04dc 14       		.byte	0x14
 1473 04dd 10       		.uleb128 0x10
 1474 04de 73323200 		.ascii	"s22\000"
 1475 04e2 09       		.byte	0x9
 1476 04e3 FC       		.byte	0xfc
 1477 04e4 5A040000 		.4byte	0x45a
 1478 04e8 18       		.byte	0x18
ARM GAS  /tmp/ccFKdsFU.s 			page 27


 1479 04e9 10       		.uleb128 0x10
 1480 04ea 73323300 		.ascii	"s23\000"
 1481 04ee 09       		.byte	0x9
 1482 04ef FD       		.byte	0xfd
 1483 04f0 5A040000 		.4byte	0x45a
 1484 04f4 1C       		.byte	0x1c
 1485 04f5 10       		.uleb128 0x10
 1486 04f6 73323400 		.ascii	"s24\000"
 1487 04fa 09       		.byte	0x9
 1488 04fb FE       		.byte	0xfe
 1489 04fc 5A040000 		.4byte	0x45a
 1490 0500 20       		.byte	0x20
 1491 0501 10       		.uleb128 0x10
 1492 0502 73323500 		.ascii	"s25\000"
 1493 0506 09       		.byte	0x9
 1494 0507 FF       		.byte	0xff
 1495 0508 5A040000 		.4byte	0x45a
 1496 050c 24       		.byte	0x24
 1497 050d 08       		.uleb128 0x8
 1498 050e 73323600 		.ascii	"s26\000"
 1499 0512 09       		.byte	0x9
 1500 0513 0001     		.2byte	0x100
 1501 0515 5A040000 		.4byte	0x45a
 1502 0519 28       		.byte	0x28
 1503 051a 08       		.uleb128 0x8
 1504 051b 73323700 		.ascii	"s27\000"
 1505 051f 09       		.byte	0x9
 1506 0520 0101     		.2byte	0x101
 1507 0522 5A040000 		.4byte	0x45a
 1508 0526 2C       		.byte	0x2c
 1509 0527 08       		.uleb128 0x8
 1510 0528 73323800 		.ascii	"s28\000"
 1511 052c 09       		.byte	0x9
 1512 052d 0201     		.2byte	0x102
 1513 052f 5A040000 		.4byte	0x45a
 1514 0533 30       		.byte	0x30
 1515 0534 08       		.uleb128 0x8
 1516 0535 73323900 		.ascii	"s29\000"
 1517 0539 09       		.byte	0x9
 1518 053a 0301     		.2byte	0x103
 1519 053c 5A040000 		.4byte	0x45a
 1520 0540 34       		.byte	0x34
 1521 0541 08       		.uleb128 0x8
 1522 0542 73333000 		.ascii	"s30\000"
 1523 0546 09       		.byte	0x9
 1524 0547 0401     		.2byte	0x104
 1525 0549 5A040000 		.4byte	0x45a
 1526 054d 38       		.byte	0x38
 1527 054e 08       		.uleb128 0x8
 1528 054f 73333100 		.ascii	"s31\000"
 1529 0553 09       		.byte	0x9
 1530 0554 0501     		.2byte	0x105
 1531 0556 5A040000 		.4byte	0x45a
 1532 055a 3C       		.byte	0x3c
 1533 055b 08       		.uleb128 0x8
 1534 055c 723400   		.ascii	"r4\000"
 1535 055f 09       		.byte	0x9
ARM GAS  /tmp/ccFKdsFU.s 			page 28


 1536 0560 0701     		.2byte	0x107
 1537 0562 5A040000 		.4byte	0x45a
 1538 0566 40       		.byte	0x40
 1539 0567 08       		.uleb128 0x8
 1540 0568 723500   		.ascii	"r5\000"
 1541 056b 09       		.byte	0x9
 1542 056c 0801     		.2byte	0x108
 1543 056e 5A040000 		.4byte	0x45a
 1544 0572 44       		.byte	0x44
 1545 0573 08       		.uleb128 0x8
 1546 0574 723600   		.ascii	"r6\000"
 1547 0577 09       		.byte	0x9
 1548 0578 0901     		.2byte	0x109
 1549 057a 5A040000 		.4byte	0x45a
 1550 057e 48       		.byte	0x48
 1551 057f 08       		.uleb128 0x8
 1552 0580 723700   		.ascii	"r7\000"
 1553 0583 09       		.byte	0x9
 1554 0584 0A01     		.2byte	0x10a
 1555 0586 5A040000 		.4byte	0x45a
 1556 058a 4C       		.byte	0x4c
 1557 058b 08       		.uleb128 0x8
 1558 058c 723800   		.ascii	"r8\000"
 1559 058f 09       		.byte	0x9
 1560 0590 0B01     		.2byte	0x10b
 1561 0592 5A040000 		.4byte	0x45a
 1562 0596 50       		.byte	0x50
 1563 0597 08       		.uleb128 0x8
 1564 0598 723900   		.ascii	"r9\000"
 1565 059b 09       		.byte	0x9
 1566 059c 0C01     		.2byte	0x10c
 1567 059e 5A040000 		.4byte	0x45a
 1568 05a2 54       		.byte	0x54
 1569 05a3 08       		.uleb128 0x8
 1570 05a4 72313000 		.ascii	"r10\000"
 1571 05a8 09       		.byte	0x9
 1572 05a9 0D01     		.2byte	0x10d
 1573 05ab 5A040000 		.4byte	0x45a
 1574 05af 58       		.byte	0x58
 1575 05b0 08       		.uleb128 0x8
 1576 05b1 72313100 		.ascii	"r11\000"
 1577 05b5 09       		.byte	0x9
 1578 05b6 0E01     		.2byte	0x10e
 1579 05b8 5A040000 		.4byte	0x45a
 1580 05bc 5C       		.byte	0x5c
 1581 05bd 08       		.uleb128 0x8
 1582 05be 6C7200   		.ascii	"lr\000"
 1583 05c1 09       		.byte	0x9
 1584 05c2 0F01     		.2byte	0x10f
 1585 05c4 5A040000 		.4byte	0x45a
 1586 05c8 60       		.byte	0x60
 1587 05c9 00       		.byte	0
 1588 05ca 0A       		.uleb128 0xa
 1589 05cb 04       		.byte	0x4
 1590 05cc 89040000 		.4byte	0x489
 1591 05d0 11       		.uleb128 0x11
 1592 05d1 04       		.byte	0x4
ARM GAS  /tmp/ccFKdsFU.s 			page 29


 1593 05d2 0A       		.byte	0xa
 1594 05d3 38       		.byte	0x38
 1595 05d4 E5050000 		.4byte	0x5e5
 1596 05d8 07       		.uleb128 0x7
 1597 05d9 DB050000 		.4byte	.LASF85
 1598 05dd 0A       		.byte	0xa
 1599 05de 3C       		.byte	0x3c
 1600 05df DA000000 		.4byte	0xda
 1601 05e3 00       		.byte	0
 1602 05e4 00       		.byte	0
 1603 05e5 03       		.uleb128 0x3
 1604 05e6 27040000 		.4byte	.LASF86
 1605 05ea 0A       		.byte	0xa
 1606 05eb 3D       		.byte	0x3d
 1607 05ec D0050000 		.4byte	0x5d0
 1608 05f0 12       		.uleb128 0x12
 1609 05f1 04       		.byte	0x4
 1610 05f2 07       		.byte	0x7
 1611 05f3 FA       		.byte	0xfa
 1612 05f4 4D060000 		.4byte	0x64d
 1613 05f8 13       		.uleb128 0x13
 1614 05f9 26050000 		.4byte	.LASF87
 1615 05fd 07       		.byte	0x7
 1616 05fe 0101     		.2byte	0x101
 1617 0600 11010000 		.4byte	0x111
 1618 0604 13       		.uleb128 0x13
 1619 0605 A0000000 		.4byte	.LASF88
 1620 0609 07       		.byte	0x7
 1621 060a 0801     		.2byte	0x108
 1622 060c 11010000 		.4byte	0x111
 1623 0610 13       		.uleb128 0x13
 1624 0611 4A060000 		.4byte	.LASF89
 1625 0615 07       		.byte	0x7
 1626 0616 0F01     		.2byte	0x10f
 1627 0618 1D030000 		.4byte	0x31d
 1628 061c 13       		.uleb128 0x13
 1629 061d 2A010000 		.4byte	.LASF90
 1630 0621 07       		.byte	0x7
 1631 0622 1601     		.2byte	0x116
 1632 0624 4D060000 		.4byte	0x64d
 1633 0628 13       		.uleb128 0x13
 1634 0629 21020000 		.4byte	.LASF91
 1635 062d 07       		.byte	0x7
 1636 062e 1E01     		.2byte	0x11e
 1637 0630 78060000 		.4byte	0x678
 1638 0634 13       		.uleb128 0x13
 1639 0635 5F050000 		.4byte	.LASF92
 1640 0639 07       		.byte	0x7
 1641 063a 2701     		.2byte	0x127
 1642 063c AF060000 		.4byte	0x6af
 1643 0640 13       		.uleb128 0x13
 1644 0641 F2040000 		.4byte	.LASF93
 1645 0645 07       		.byte	0x7
 1646 0646 2F01     		.2byte	0x12f
 1647 0648 1C010000 		.4byte	0x11c
 1648 064c 00       		.byte	0
 1649 064d 0A       		.uleb128 0xa
ARM GAS  /tmp/ccFKdsFU.s 			page 30


 1650 064e 04       		.byte	0x4
 1651 064f 35020000 		.4byte	0x235
 1652 0653 06       		.uleb128 0x6
 1653 0654 3E050000 		.4byte	.LASF94
 1654 0658 0C       		.byte	0xc
 1655 0659 0B       		.byte	0xb
 1656 065a 34       		.byte	0x34
 1657 065b 78060000 		.4byte	0x678
 1658 065f 07       		.uleb128 0x7
 1659 0660 65010000 		.4byte	.LASF95
 1660 0664 0B       		.byte	0xb
 1661 0665 35       		.byte	0x35
 1662 0666 6A020000 		.4byte	0x26a
 1663 066a 00       		.byte	0
 1664 066b 07       		.uleb128 0x7
 1665 066c C9040000 		.4byte	.LASF96
 1666 0670 0B       		.byte	0xb
 1667 0671 37       		.byte	0x37
 1668 0672 27010000 		.4byte	0x127
 1669 0676 08       		.byte	0x8
 1670 0677 00       		.byte	0
 1671 0678 0A       		.uleb128 0xa
 1672 0679 04       		.byte	0x4
 1673 067a 53060000 		.4byte	0x653
 1674 067e 06       		.uleb128 0x6
 1675 067f 1A060000 		.4byte	.LASF97
 1676 0683 10       		.byte	0x10
 1677 0684 0C       		.byte	0xc
 1678 0685 39       		.byte	0x39
 1679 0686 AF060000 		.4byte	0x6af
 1680 068a 07       		.uleb128 0x7
 1681 068b C1040000 		.4byte	.LASF98
 1682 068f 0C       		.byte	0xc
 1683 0690 3A       		.byte	0x3a
 1684 0691 6A020000 		.4byte	0x26a
 1685 0695 00       		.byte	0
 1686 0696 07       		.uleb128 0x7
 1687 0697 87060000 		.4byte	.LASF99
 1688 069b 0C       		.byte	0xc
 1689 069c 3C       		.byte	0x3c
 1690 069d 40020000 		.4byte	0x240
 1691 06a1 08       		.byte	0x8
 1692 06a2 07       		.uleb128 0x7
 1693 06a3 A1050000 		.4byte	.LASF100
 1694 06a7 0C       		.byte	0xc
 1695 06a8 3E       		.byte	0x3e
 1696 06a9 ED060000 		.4byte	0x6ed
 1697 06ad 0C       		.byte	0xc
 1698 06ae 00       		.byte	0
 1699 06af 0A       		.uleb128 0xa
 1700 06b0 04       		.byte	0x4
 1701 06b1 7E060000 		.4byte	0x67e
 1702 06b5 0A       		.uleb128 0xa
 1703 06b6 04       		.byte	0x4
 1704 06b7 C2060000 		.4byte	0x6c2
 1705 06bb 04       		.uleb128 0x4
 1706 06bc 01       		.byte	0x1
ARM GAS  /tmp/ccFKdsFU.s 			page 31


 1707 06bd 08       		.byte	0x8
 1708 06be 89050000 		.4byte	.LASF101
 1709 06c2 14       		.uleb128 0x14
 1710 06c3 BB060000 		.4byte	0x6bb
 1711 06c7 0A       		.uleb128 0xa
 1712 06c8 04       		.byte	0x4
 1713 06c9 1F030000 		.4byte	0x31f
 1714 06cd 05       		.uleb128 0x5
 1715 06ce B5060000 		.4byte	0x6b5
 1716 06d2 15       		.uleb128 0x15
 1717 06d3 65040000 		.4byte	0x465
 1718 06d7 E2060000 		.4byte	0x6e2
 1719 06db 16       		.uleb128 0x16
 1720 06dc 53040000 		.4byte	0x453
 1721 06e0 2B       		.byte	0x2b
 1722 06e1 00       		.byte	0
 1723 06e2 03       		.uleb128 0x3
 1724 06e3 9C010000 		.4byte	.LASF102
 1725 06e7 0C       		.byte	0xc
 1726 06e8 34       		.byte	0x34
 1727 06e9 7E060000 		.4byte	0x67e
 1728 06ed 0A       		.uleb128 0xa
 1729 06ee 04       		.byte	0x4
 1730 06ef E2060000 		.4byte	0x6e2
 1731 06f3 0A       		.uleb128 0xa
 1732 06f4 04       		.byte	0x4
 1733 06f5 A9000000 		.4byte	0xa9
 1734 06f9 06       		.uleb128 0x6
 1735 06fa 00050000 		.4byte	.LASF103
 1736 06fe 10       		.byte	0x10
 1737 06ff 0D       		.byte	0xd
 1738 0700 40       		.byte	0x40
 1739 0701 36070000 		.4byte	0x736
 1740 0705 07       		.uleb128 0x7
 1741 0706 97030000 		.4byte	.LASF104
 1742 070a 0D       		.byte	0xd
 1743 070b 41       		.byte	0x41
 1744 070c 5A070000 		.4byte	0x75a
 1745 0710 00       		.byte	0
 1746 0711 07       		.uleb128 0x7
 1747 0712 70020000 		.4byte	.LASF105
 1748 0716 0D       		.byte	0xd
 1749 0717 41       		.byte	0x41
 1750 0718 79070000 		.4byte	0x779
 1751 071c 04       		.byte	0x4
 1752 071d 10       		.uleb128 0x10
 1753 071e 70757400 		.ascii	"put\000"
 1754 0722 0D       		.byte	0xd
 1755 0723 41       		.byte	0x41
 1756 0724 93070000 		.4byte	0x793
 1757 0728 08       		.byte	0x8
 1758 0729 10       		.uleb128 0x10
 1759 072a 67657400 		.ascii	"get\000"
 1760 072e 0D       		.byte	0xd
 1761 072f 41       		.byte	0x41
 1762 0730 A8070000 		.4byte	0x7a8
 1763 0734 0C       		.byte	0xc
ARM GAS  /tmp/ccFKdsFU.s 			page 32


 1764 0735 00       		.byte	0
 1765 0736 17       		.uleb128 0x17
 1766 0737 2C000000 		.4byte	0x2c
 1767 073b 4F070000 		.4byte	0x74f
 1768 073f 0D       		.uleb128 0xd
 1769 0740 1D030000 		.4byte	0x31d
 1770 0744 0D       		.uleb128 0xd
 1771 0745 4F070000 		.4byte	0x74f
 1772 0749 0D       		.uleb128 0xd
 1773 074a 2C000000 		.4byte	0x2c
 1774 074e 00       		.byte	0
 1775 074f 0A       		.uleb128 0xa
 1776 0750 04       		.byte	0x4
 1777 0751 55070000 		.4byte	0x755
 1778 0755 14       		.uleb128 0x14
 1779 0756 A9000000 		.4byte	0xa9
 1780 075a 0A       		.uleb128 0xa
 1781 075b 04       		.byte	0x4
 1782 075c 36070000 		.4byte	0x736
 1783 0760 17       		.uleb128 0x17
 1784 0761 2C000000 		.4byte	0x2c
 1785 0765 79070000 		.4byte	0x779
 1786 0769 0D       		.uleb128 0xd
 1787 076a 1D030000 		.4byte	0x31d
 1788 076e 0D       		.uleb128 0xd
 1789 076f F3060000 		.4byte	0x6f3
 1790 0773 0D       		.uleb128 0xd
 1791 0774 2C000000 		.4byte	0x2c
 1792 0778 00       		.byte	0
 1793 0779 0A       		.uleb128 0xa
 1794 077a 04       		.byte	0x4
 1795 077b 60070000 		.4byte	0x760
 1796 077f 17       		.uleb128 0x17
 1797 0780 11010000 		.4byte	0x111
 1798 0784 93070000 		.4byte	0x793
 1799 0788 0D       		.uleb128 0xd
 1800 0789 1D030000 		.4byte	0x31d
 1801 078d 0D       		.uleb128 0xd
 1802 078e A9000000 		.4byte	0xa9
 1803 0792 00       		.byte	0
 1804 0793 0A       		.uleb128 0xa
 1805 0794 04       		.byte	0x4
 1806 0795 7F070000 		.4byte	0x77f
 1807 0799 17       		.uleb128 0x17
 1808 079a 11010000 		.4byte	0x111
 1809 079e A8070000 		.4byte	0x7a8
 1810 07a2 0D       		.uleb128 0xd
 1811 07a3 1D030000 		.4byte	0x31d
 1812 07a7 00       		.byte	0
 1813 07a8 0A       		.uleb128 0xa
 1814 07a9 04       		.byte	0x4
 1815 07aa 99070000 		.4byte	0x799
 1816 07ae 11       		.uleb128 0x11
 1817 07af 04       		.byte	0x4
 1818 07b0 0D       		.byte	0xd
 1819 07b1 49       		.byte	0x49
 1820 07b2 C3070000 		.4byte	0x7c3
ARM GAS  /tmp/ccFKdsFU.s 			page 33


 1821 07b6 10       		.uleb128 0x10
 1822 07b7 766D7400 		.ascii	"vmt\000"
 1823 07bb 0D       		.byte	0xd
 1824 07bc 4B       		.byte	0x4b
 1825 07bd C3070000 		.4byte	0x7c3
 1826 07c1 00       		.byte	0
 1827 07c2 00       		.byte	0
 1828 07c3 0A       		.uleb128 0xa
 1829 07c4 04       		.byte	0x4
 1830 07c5 C9070000 		.4byte	0x7c9
 1831 07c9 14       		.uleb128 0x14
 1832 07ca F9060000 		.4byte	0x6f9
 1833 07ce 03       		.uleb128 0x3
 1834 07cf E2010000 		.4byte	.LASF106
 1835 07d3 0D       		.byte	0xd
 1836 07d4 4D       		.byte	0x4d
 1837 07d5 AE070000 		.4byte	0x7ae
 1838 07d9 04       		.uleb128 0x4
 1839 07da 01       		.byte	0x1
 1840 07db 02       		.byte	0x2
 1841 07dc A5040000 		.4byte	.LASF107
 1842 07e0 03       		.uleb128 0x3
 1843 07e1 FE030000 		.4byte	.LASF108
 1844 07e5 0E       		.byte	0xe
 1845 07e6 28       		.byte	0x28
 1846 07e7 EB070000 		.4byte	0x7eb
 1847 07eb 06       		.uleb128 0x6
 1848 07ec 4C010000 		.4byte	.LASF109
 1849 07f0 04       		.byte	0x4
 1850 07f1 0F       		.byte	0xf
 1851 07f2 00       		.byte	0
 1852 07f3 02080000 		.4byte	0x802
 1853 07f7 18       		.uleb128 0x18
 1854 07f8 E2050000 		.4byte	.LASF110
 1855 07fc 1D030000 		.4byte	0x31d
 1856 0800 00       		.byte	0
 1857 0801 00       		.byte	0
 1858 0802 03       		.uleb128 0x3
 1859 0803 5F000000 		.4byte	.LASF111
 1860 0807 0E       		.byte	0xe
 1861 0808 62       		.byte	0x62
 1862 0809 E0070000 		.4byte	0x7e0
 1863 080d 06       		.uleb128 0x6
 1864 080e 4A040000 		.4byte	.LASF112
 1865 0812 10       		.byte	0x10
 1866 0813 10       		.byte	0x10
 1867 0814 3D       		.byte	0x3d
 1868 0815 4A080000 		.4byte	0x84a
 1869 0819 07       		.uleb128 0x7
 1870 081a 97030000 		.4byte	.LASF104
 1871 081e 10       		.byte	0x10
 1872 081f 3E       		.byte	0x3e
 1873 0820 5A070000 		.4byte	0x75a
 1874 0824 00       		.byte	0
 1875 0825 07       		.uleb128 0x7
 1876 0826 70020000 		.4byte	.LASF105
 1877 082a 10       		.byte	0x10
ARM GAS  /tmp/ccFKdsFU.s 			page 34


 1878 082b 3E       		.byte	0x3e
 1879 082c 79070000 		.4byte	0x779
 1880 0830 04       		.byte	0x4
 1881 0831 10       		.uleb128 0x10
 1882 0832 70757400 		.ascii	"put\000"
 1883 0836 10       		.byte	0x10
 1884 0837 3E       		.byte	0x3e
 1885 0838 93070000 		.4byte	0x793
 1886 083c 08       		.byte	0x8
 1887 083d 10       		.uleb128 0x10
 1888 083e 67657400 		.ascii	"get\000"
 1889 0842 10       		.byte	0x10
 1890 0843 3E       		.byte	0x3e
 1891 0844 A8070000 		.4byte	0x7a8
 1892 0848 0C       		.byte	0xc
 1893 0849 00       		.byte	0
 1894 084a 11       		.uleb128 0x11
 1895 084b 14       		.byte	0x14
 1896 084c 10       		.byte	0x10
 1897 084d 46       		.byte	0x46
 1898 084e 8F080000 		.4byte	0x88f
 1899 0852 10       		.uleb128 0x10
 1900 0853 766D7400 		.ascii	"vmt\000"
 1901 0857 10       		.byte	0x10
 1902 0858 48       		.byte	0x48
 1903 0859 8F080000 		.4byte	0x88f
 1904 085d 00       		.byte	0
 1905 085e 07       		.uleb128 0x7
 1906 085f 56010000 		.4byte	.LASF113
 1907 0863 10       		.byte	0x10
 1908 0864 49       		.byte	0x49
 1909 0865 F3060000 		.4byte	0x6f3
 1910 0869 04       		.byte	0x4
 1911 086a 07       		.uleb128 0x7
 1912 086b 6D060000 		.4byte	.LASF114
 1913 086f 10       		.byte	0x10
 1914 0870 49       		.byte	0x49
 1915 0871 2C000000 		.4byte	0x2c
 1916 0875 08       		.byte	0x8
 1917 0876 10       		.uleb128 0x10
 1918 0877 656F7300 		.ascii	"eos\000"
 1919 087b 10       		.byte	0x10
 1920 087c 49       		.byte	0x49
 1921 087d 2C000000 		.4byte	0x2c
 1922 0881 0C       		.byte	0xc
 1923 0882 07       		.uleb128 0x7
 1924 0883 DB050000 		.4byte	.LASF85
 1925 0887 10       		.byte	0x10
 1926 0888 49       		.byte	0x49
 1927 0889 2C000000 		.4byte	0x2c
 1928 088d 10       		.byte	0x10
 1929 088e 00       		.byte	0
 1930 088f 0A       		.uleb128 0xa
 1931 0890 04       		.byte	0x4
 1932 0891 95080000 		.4byte	0x895
 1933 0895 14       		.uleb128 0x14
 1934 0896 0D080000 		.4byte	0x80d
ARM GAS  /tmp/ccFKdsFU.s 			page 35


 1935 089a 03       		.uleb128 0x3
 1936 089b 81040000 		.4byte	.LASF115
 1937 089f 10       		.byte	0x10
 1938 08a0 4A       		.byte	0x4a
 1939 08a1 4A080000 		.4byte	0x84a
 1940 08a5 19       		.uleb128 0x19
 1941 08a6 51060000 		.4byte	.LASF132
 1942 08aa 01       		.byte	0x1
 1943 08ab 25       		.byte	0x25
 1944 08ac 05090000 		.4byte	0x905
 1945 08b0 01       		.byte	0x1
 1946 08b1 05090000 		.4byte	0x905
 1947 08b5 1A       		.uleb128 0x1a
 1948 08b6 7000     		.ascii	"p\000"
 1949 08b8 01       		.byte	0x1
 1950 08b9 25       		.byte	0x25
 1951 08ba 05090000 		.4byte	0x905
 1952 08be 1A       		.uleb128 0x1a
 1953 08bf 6E756D00 		.ascii	"num\000"
 1954 08c3 01       		.byte	0x1
 1955 08c4 26       		.byte	0x26
 1956 08c5 7E000000 		.4byte	0x7e
 1957 08c9 1B       		.uleb128 0x1b
 1958 08ca 20050000 		.4byte	.LASF116
 1959 08ce 01       		.byte	0x1
 1960 08cf 27       		.byte	0x27
 1961 08d0 37000000 		.4byte	0x37
 1962 08d4 1B       		.uleb128 0x1b
 1963 08d5 F6030000 		.4byte	.LASF117
 1964 08d9 01       		.byte	0x1
 1965 08da 28       		.byte	0x28
 1966 08db 7E000000 		.4byte	0x7e
 1967 08df 1C       		.uleb128 0x1c
 1968 08e0 6900     		.ascii	"i\000"
 1969 08e2 01       		.byte	0x1
 1970 08e3 29       		.byte	0x29
 1971 08e4 25000000 		.4byte	0x25
 1972 08e8 1C       		.uleb128 0x1c
 1973 08e9 7100     		.ascii	"q\000"
 1974 08eb 01       		.byte	0x1
 1975 08ec 2A       		.byte	0x2a
 1976 08ed 05090000 		.4byte	0x905
 1977 08f1 1C       		.uleb128 0x1c
 1978 08f2 6C00     		.ascii	"l\000"
 1979 08f4 01       		.byte	0x1
 1980 08f5 2B       		.byte	0x2b
 1981 08f6 7E000000 		.4byte	0x7e
 1982 08fa 1C       		.uleb128 0x1c
 1983 08fb 6C6C00   		.ascii	"ll\000"
 1984 08fe 01       		.byte	0x1
 1985 08ff 2B       		.byte	0x2b
 1986 0900 7E000000 		.4byte	0x7e
 1987 0904 00       		.byte	0
 1988 0905 0A       		.uleb128 0xa
 1989 0906 04       		.byte	0x4
 1990 0907 BB060000 		.4byte	0x6bb
 1991 090b 1D       		.uleb128 0x1d
ARM GAS  /tmp/ccFKdsFU.s 			page 36


 1992 090c 2A060000 		.4byte	.LASF133
 1993 0910 01       		.byte	0x1
 1994 0911 46       		.byte	0x46
 1995 0912 05090000 		.4byte	0x905
 1996 0916 00000000 		.4byte	.LFB262
 1997 091a 44000000 		.4byte	.LFE262-.LFB262
 1998 091e 01       		.uleb128 0x1
 1999 091f 9C       		.byte	0x9c
 2000 0920 AF090000 		.4byte	0x9af
 2001 0924 1E       		.uleb128 0x1e
 2002 0925 7000     		.ascii	"p\000"
 2003 0927 01       		.byte	0x1
 2004 0928 46       		.byte	0x46
 2005 0929 05090000 		.4byte	0x905
 2006 092d 00000000 		.4byte	.LLST0
 2007 0931 1E       		.uleb128 0x1e
 2008 0932 6E756D00 		.ascii	"num\000"
 2009 0936 01       		.byte	0x1
 2010 0937 46       		.byte	0x46
 2011 0938 7E000000 		.4byte	0x7e
 2012 093c 2E000000 		.4byte	.LLST1
 2013 0940 1F       		.uleb128 0x1f
 2014 0941 20050000 		.4byte	.LASF116
 2015 0945 01       		.byte	0x1
 2016 0946 46       		.byte	0x46
 2017 0947 37000000 		.4byte	0x37
 2018 094b 4F000000 		.4byte	.LLST2
 2019 094f 20       		.uleb128 0x20
 2020 0950 A5080000 		.4byte	0x8a5
 2021 0954 02000000 		.4byte	.LBB4
 2022 0958 3E000000 		.4byte	.LBE4-.LBB4
 2023 095c 01       		.byte	0x1
 2024 095d 48       		.byte	0x48
 2025 095e 21       		.uleb128 0x21
 2026 095f D4080000 		.4byte	0x8d4
 2027 0963 00       		.byte	0
 2028 0964 22       		.uleb128 0x22
 2029 0965 C9080000 		.4byte	0x8c9
 2030 0969 70000000 		.4byte	.LLST3
 2031 096d 22       		.uleb128 0x22
 2032 096e BE080000 		.4byte	0x8be
 2033 0972 91000000 		.4byte	.LLST4
 2034 0976 22       		.uleb128 0x22
 2035 0977 B5080000 		.4byte	0x8b5
 2036 097b B2000000 		.4byte	.LLST5
 2037 097f 23       		.uleb128 0x23
 2038 0980 02000000 		.4byte	.LBB5
 2039 0984 3E000000 		.4byte	.LBE5-.LBB5
 2040 0988 24       		.uleb128 0x24
 2041 0989 DF080000 		.4byte	0x8df
 2042 098d EA000000 		.4byte	.LLST6
 2043 0991 24       		.uleb128 0x24
 2044 0992 E8080000 		.4byte	0x8e8
 2045 0996 18010000 		.4byte	.LLST7
 2046 099a 24       		.uleb128 0x24
 2047 099b F1080000 		.4byte	0x8f1
 2048 099f 4E010000 		.4byte	.LLST8
ARM GAS  /tmp/ccFKdsFU.s 			page 37


 2049 09a3 24       		.uleb128 0x24
 2050 09a4 FA080000 		.4byte	0x8fa
 2051 09a8 6C010000 		.4byte	.LLST9
 2052 09ac 00       		.byte	0
 2053 09ad 00       		.byte	0
 2054 09ae 00       		.byte	0
 2055 09af 25       		.uleb128 0x25
 2056 09b0 40060000 		.4byte	.LASF124
 2057 09b4 01       		.byte	0x1
 2058 09b5 79       		.byte	0x79
 2059 09b6 25000000 		.4byte	0x25
 2060 09ba 00000000 		.4byte	.LFB263
 2061 09be 08030000 		.4byte	.LFE263-.LFB263
 2062 09c2 01       		.uleb128 0x1
 2063 09c3 9C       		.byte	0x9c
 2064 09c4 0B0B0000 		.4byte	0xb0b
 2065 09c8 1E       		.uleb128 0x1e
 2066 09c9 63687000 		.ascii	"chp\000"
 2067 09cd 01       		.byte	0x1
 2068 09ce 79       		.byte	0x79
 2069 09cf 0B0B0000 		.4byte	0xb0b
 2070 09d3 95010000 		.4byte	.LLST10
 2071 09d7 1E       		.uleb128 0x1e
 2072 09d8 666D7400 		.ascii	"fmt\000"
 2073 09dc 01       		.byte	0x1
 2074 09dd 79       		.byte	0x79
 2075 09de B5060000 		.4byte	0x6b5
 2076 09e2 B3010000 		.4byte	.LLST11
 2077 09e6 1E       		.uleb128 0x1e
 2078 09e7 617000   		.ascii	"ap\000"
 2079 09ea 01       		.byte	0x1
 2080 09eb 79       		.byte	0x79
 2081 09ec 02080000 		.4byte	0x802
 2082 09f0 68020000 		.4byte	.LLST12
 2083 09f4 26       		.uleb128 0x26
 2084 09f5 7000     		.ascii	"p\000"
 2085 09f7 01       		.byte	0x1
 2086 09f8 7A       		.byte	0x7a
 2087 09f9 05090000 		.4byte	0x905
 2088 09fd 7B020000 		.4byte	.LLST13
 2089 0a01 26       		.uleb128 0x26
 2090 0a02 7300     		.ascii	"s\000"
 2091 0a04 01       		.byte	0x1
 2092 0a05 7A       		.byte	0x7a
 2093 0a06 05090000 		.4byte	0x905
 2094 0a0a 45030000 		.4byte	.LLST14
 2095 0a0e 26       		.uleb128 0x26
 2096 0a0f 6300     		.ascii	"c\000"
 2097 0a11 01       		.byte	0x1
 2098 0a12 7A       		.byte	0x7a
 2099 0a13 BB060000 		.4byte	0x6bb
 2100 0a17 18040000 		.4byte	.LLST15
 2101 0a1b 27       		.uleb128 0x27
 2102 0a1c 8D010000 		.4byte	.LASF118
 2103 0a20 01       		.byte	0x1
 2104 0a21 7A       		.byte	0x7a
 2105 0a22 BB060000 		.4byte	0x6bb
ARM GAS  /tmp/ccFKdsFU.s 			page 38


 2106 0a26 B4040000 		.4byte	.LLST16
 2107 0a2a 26       		.uleb128 0x26
 2108 0a2b 6900     		.ascii	"i\000"
 2109 0a2d 01       		.byte	0x1
 2110 0a2e 7B       		.byte	0x7b
 2111 0a2f 25000000 		.4byte	0x25
 2112 0a33 34050000 		.4byte	.LLST17
 2113 0a37 27       		.uleb128 0x27
 2114 0a38 8E050000 		.4byte	.LASF119
 2115 0a3c 01       		.byte	0x1
 2116 0a3d 7B       		.byte	0x7b
 2117 0a3e 25000000 		.4byte	0x25
 2118 0a42 5F050000 		.4byte	.LLST18
 2119 0a46 27       		.uleb128 0x27
 2120 0a47 47020000 		.4byte	.LASF120
 2121 0a4b 01       		.byte	0x1
 2122 0a4c 7B       		.byte	0x7b
 2123 0a4d 25000000 		.4byte	0x25
 2124 0a51 DD050000 		.4byte	.LLST19
 2125 0a55 26       		.uleb128 0x26
 2126 0a56 6E00     		.ascii	"n\000"
 2127 0a58 01       		.byte	0x1
 2128 0a59 7C       		.byte	0x7c
 2129 0a5a 25000000 		.4byte	0x25
 2130 0a5e 9C060000 		.4byte	.LLST20
 2131 0a62 27       		.uleb128 0x27
 2132 0a63 94010000 		.4byte	.LASF121
 2133 0a67 01       		.byte	0x1
 2134 0a68 7D       		.byte	0x7d
 2135 0a69 D9070000 		.4byte	0x7d9
 2136 0a6d DC060000 		.4byte	.LLST21
 2137 0a71 27       		.uleb128 0x27
 2138 0a72 3C020000 		.4byte	.LASF122
 2139 0a76 01       		.byte	0x1
 2140 0a77 7D       		.byte	0x7d
 2141 0a78 D9070000 		.4byte	0x7d9
 2142 0a7c FC060000 		.4byte	.LLST22
 2143 0a80 26       		.uleb128 0x26
 2144 0a81 6C00     		.ascii	"l\000"
 2145 0a83 01       		.byte	0x1
 2146 0a84 7E       		.byte	0x7e
 2147 0a85 7E000000 		.4byte	0x7e
 2148 0a89 3D070000 		.4byte	.LLST23
 2149 0a8d 28       		.uleb128 0x28
 2150 0a8e 23010000 		.4byte	.LASF123
 2151 0a92 01       		.byte	0x1
 2152 0a93 83       		.byte	0x83
 2153 0a94 110B0000 		.4byte	0xb11
 2154 0a98 02       		.uleb128 0x2
 2155 0a99 91       		.byte	0x91
 2156 0a9a 4C       		.sleb128 -52
 2157 0a9b 29       		.uleb128 0x29
 2158 0a9c E6030000 		.4byte	.LASF134
 2159 0aa0 01       		.byte	0x1
 2160 0aa1 EF       		.byte	0xef
 2161 0aa2 89010000 		.4byte	.L36
 2162 0aa6 2A       		.uleb128 0x2a
ARM GAS  /tmp/ccFKdsFU.s 			page 39


 2163 0aa7 32000000 		.4byte	.LVL21
 2164 0aab 02       		.uleb128 0x2
 2165 0aac 74       		.byte	0x74
 2166 0aad 00       		.sleb128 0
 2167 0aae B90A0000 		.4byte	0xab9
 2168 0ab2 2B       		.uleb128 0x2b
 2169 0ab3 01       		.uleb128 0x1
 2170 0ab4 50       		.byte	0x50
 2171 0ab5 02       		.uleb128 0x2
 2172 0ab6 7B       		.byte	0x7b
 2173 0ab7 00       		.sleb128 0
 2174 0ab8 00       		.byte	0
 2175 0ab9 2C       		.uleb128 0x2c
 2176 0aba 96010000 		.4byte	.LVL51
 2177 0abe 0B090000 		.4byte	0x90b
 2178 0ac2 2D       		.uleb128 0x2d
 2179 0ac3 CA010000 		.4byte	.LVL61
 2180 0ac7 D80A0000 		.4byte	0xad8
 2181 0acb 2B       		.uleb128 0x2b
 2182 0acc 01       		.uleb128 0x1
 2183 0acd 50       		.byte	0x50
 2184 0ace 02       		.uleb128 0x2
 2185 0acf 7B       		.byte	0x7b
 2186 0ad0 00       		.sleb128 0
 2187 0ad1 2B       		.uleb128 0x2b
 2188 0ad2 01       		.uleb128 0x1
 2189 0ad3 51       		.byte	0x51
 2190 0ad4 02       		.uleb128 0x2
 2191 0ad5 78       		.byte	0x78
 2192 0ad6 00       		.sleb128 0
 2193 0ad7 00       		.byte	0
 2194 0ad8 2D       		.uleb128 0x2d
 2195 0ad9 F0010000 		.4byte	.LVL68
 2196 0add E80A0000 		.4byte	0xae8
 2197 0ae1 2B       		.uleb128 0x2b
 2198 0ae2 01       		.uleb128 0x1
 2199 0ae3 50       		.byte	0x50
 2200 0ae4 02       		.uleb128 0x2
 2201 0ae5 7B       		.byte	0x7b
 2202 0ae6 00       		.sleb128 0
 2203 0ae7 00       		.byte	0
 2204 0ae8 2D       		.uleb128 0x2d
 2205 0ae9 16020000 		.4byte	.LVL71
 2206 0aed FE0A0000 		.4byte	0xafe
 2207 0af1 2B       		.uleb128 0x2b
 2208 0af2 01       		.uleb128 0x1
 2209 0af3 50       		.byte	0x50
 2210 0af4 02       		.uleb128 0x2
 2211 0af5 7B       		.byte	0x7b
 2212 0af6 00       		.sleb128 0
 2213 0af7 2B       		.uleb128 0x2b
 2214 0af8 01       		.uleb128 0x1
 2215 0af9 51       		.byte	0x51
 2216 0afa 02       		.uleb128 0x2
 2217 0afb 78       		.byte	0x78
 2218 0afc 00       		.sleb128 0
 2219 0afd 00       		.byte	0
ARM GAS  /tmp/ccFKdsFU.s 			page 40


 2220 0afe 2E       		.uleb128 0x2e
 2221 0aff C4020000 		.4byte	.LVL99
 2222 0b03 2B       		.uleb128 0x2b
 2223 0b04 01       		.uleb128 0x1
 2224 0b05 50       		.byte	0x50
 2225 0b06 02       		.uleb128 0x2
 2226 0b07 7B       		.byte	0x7b
 2227 0b08 00       		.sleb128 0
 2228 0b09 00       		.byte	0
 2229 0b0a 00       		.byte	0
 2230 0b0b 0A       		.uleb128 0xa
 2231 0b0c 04       		.byte	0x4
 2232 0b0d CE070000 		.4byte	0x7ce
 2233 0b11 15       		.uleb128 0x15
 2234 0b12 BB060000 		.4byte	0x6bb
 2235 0b16 210B0000 		.4byte	0xb21
 2236 0b1a 16       		.uleb128 0x16
 2237 0b1b 53040000 		.4byte	0x453
 2238 0b1f 0B       		.byte	0xb
 2239 0b20 00       		.byte	0
 2240 0b21 2F       		.uleb128 0x2f
 2241 0b22 7E050000 		.4byte	.LASF125
 2242 0b26 01       		.byte	0x1
 2243 0b27 3301     		.2byte	0x133
 2244 0b29 25000000 		.4byte	0x25
 2245 0b2d 00000000 		.4byte	.LFB264
 2246 0b31 5E000000 		.4byte	.LFE264-.LFB264
 2247 0b35 01       		.uleb128 0x1
 2248 0b36 9C       		.byte	0x9c
 2249 0b37 410C0000 		.4byte	0xc41
 2250 0b3b 30       		.uleb128 0x30
 2251 0b3c 73747200 		.ascii	"str\000"
 2252 0b40 01       		.byte	0x1
 2253 0b41 3301     		.2byte	0x133
 2254 0b43 05090000 		.4byte	0x905
 2255 0b47 66070000 		.4byte	.LLST24
 2256 0b4b 31       		.uleb128 0x31
 2257 0b4c 6D060000 		.4byte	.LASF114
 2258 0b50 01       		.byte	0x1
 2259 0b51 3301     		.2byte	0x133
 2260 0b53 2C000000 		.4byte	0x2c
 2261 0b57 B6070000 		.4byte	.LLST25
 2262 0b5b 32       		.uleb128 0x32
 2263 0b5c 666D7400 		.ascii	"fmt\000"
 2264 0b60 01       		.byte	0x1
 2265 0b61 3301     		.2byte	0x133
 2266 0b63 B5060000 		.4byte	0x6b5
 2267 0b67 02       		.uleb128 0x2
 2268 0b68 91       		.byte	0x91
 2269 0b69 78       		.sleb128 -8
 2270 0b6a 33       		.uleb128 0x33
 2271 0b6b 34       		.uleb128 0x34
 2272 0b6c 617000   		.ascii	"ap\000"
 2273 0b6f 01       		.byte	0x1
 2274 0b70 3401     		.2byte	0x134
 2275 0b72 02080000 		.4byte	0x802
 2276 0b76 02       		.uleb128 0x2
ARM GAS  /tmp/ccFKdsFU.s 			page 41


 2277 0b77 91       		.byte	0x91
 2278 0b78 50       		.sleb128 -48
 2279 0b79 34       		.uleb128 0x34
 2280 0b7a 6D7300   		.ascii	"ms\000"
 2281 0b7d 01       		.byte	0x1
 2282 0b7e 3501     		.2byte	0x135
 2283 0b80 9A080000 		.4byte	0x89a
 2284 0b84 02       		.uleb128 0x2
 2285 0b85 91       		.byte	0x91
 2286 0b86 54       		.sleb128 -44
 2287 0b87 35       		.uleb128 0x35
 2288 0b88 63687000 		.ascii	"chp\000"
 2289 0b8c 01       		.byte	0x1
 2290 0b8d 3601     		.2byte	0x136
 2291 0b8f 0B0B0000 		.4byte	0xb0b
 2292 0b93 06080000 		.4byte	.LLST26
 2293 0b97 36       		.uleb128 0x36
 2294 0b98 7D000000 		.4byte	.LASF126
 2295 0b9c 01       		.byte	0x1
 2296 0b9d 3701     		.2byte	0x137
 2297 0b9f 2C000000 		.4byte	0x2c
 2298 0ba3 58080000 		.4byte	.LLST27
 2299 0ba7 36       		.uleb128 0x36
 2300 0ba8 76000000 		.4byte	.LASF127
 2301 0bac 01       		.byte	0x1
 2302 0bad 3801     		.2byte	0x138
 2303 0baf 25000000 		.4byte	0x25
 2304 0bb3 A1080000 		.4byte	.LLST28
 2305 0bb7 37       		.uleb128 0x37
 2306 0bb8 18000000 		.4byte	.LVL114
 2307 0bbc 580C0000 		.4byte	0xc58
 2308 0bc0 DC0B0000 		.4byte	0xbdc
 2309 0bc4 2B       		.uleb128 0x2b
 2310 0bc5 01       		.uleb128 0x1
 2311 0bc6 50       		.byte	0x50
 2312 0bc7 02       		.uleb128 0x2
 2313 0bc8 91       		.byte	0x91
 2314 0bc9 44       		.sleb128 -60
 2315 0bca 2B       		.uleb128 0x2b
 2316 0bcb 01       		.uleb128 0x1
 2317 0bcc 51       		.byte	0x51
 2318 0bcd 02       		.uleb128 0x2
 2319 0bce 75       		.byte	0x75
 2320 0bcf 00       		.sleb128 0
 2321 0bd0 2B       		.uleb128 0x2b
 2322 0bd1 01       		.uleb128 0x1
 2323 0bd2 52       		.byte	0x52
 2324 0bd3 02       		.uleb128 0x2
 2325 0bd4 74       		.byte	0x74
 2326 0bd5 7F       		.sleb128 -1
 2327 0bd6 2B       		.uleb128 0x2b
 2328 0bd7 01       		.uleb128 0x1
 2329 0bd8 53       		.byte	0x53
 2330 0bd9 01       		.uleb128 0x1
 2331 0bda 30       		.byte	0x30
 2332 0bdb 00       		.byte	0
 2333 0bdc 37       		.uleb128 0x37
ARM GAS  /tmp/ccFKdsFU.s 			page 42


 2334 0bdd 26000000 		.4byte	.LVL116
 2335 0be1 AF090000 		.4byte	0x9af
 2336 0be5 FD0B0000 		.4byte	0xbfd
 2337 0be9 2B       		.uleb128 0x2b
 2338 0bea 01       		.uleb128 0x1
 2339 0beb 50       		.byte	0x50
 2340 0bec 02       		.uleb128 0x2
 2341 0bed 91       		.byte	0x91
 2342 0bee 44       		.sleb128 -60
 2343 0bef 2B       		.uleb128 0x2b
 2344 0bf0 01       		.uleb128 0x1
 2345 0bf1 51       		.byte	0x51
 2346 0bf2 03       		.uleb128 0x3
 2347 0bf3 91       		.byte	0x91
 2348 0bf4 68       		.sleb128 -24
 2349 0bf5 06       		.byte	0x6
 2350 0bf6 2B       		.uleb128 0x2b
 2351 0bf7 01       		.uleb128 0x1
 2352 0bf8 52       		.byte	0x52
 2353 0bf9 02       		.uleb128 0x2
 2354 0bfa 91       		.byte	0x91
 2355 0bfb 6C       		.sleb128 -20
 2356 0bfc 00       		.byte	0
 2357 0bfd 37       		.uleb128 0x37
 2358 0bfe 46000000 		.4byte	.LVL121
 2359 0c02 580C0000 		.4byte	0xc58
 2360 0c06 230C0000 		.4byte	0xc23
 2361 0c0a 2B       		.uleb128 0x2b
 2362 0c0b 01       		.uleb128 0x1
 2363 0c0c 50       		.byte	0x50
 2364 0c0d 02       		.uleb128 0x2
 2365 0c0e 91       		.byte	0x91
 2366 0c0f 44       		.sleb128 -60
 2367 0c10 2B       		.uleb128 0x2b
 2368 0c11 01       		.uleb128 0x1
 2369 0c12 51       		.byte	0x51
 2370 0c13 02       		.uleb128 0x2
 2371 0c14 75       		.byte	0x75
 2372 0c15 00       		.sleb128 0
 2373 0c16 2B       		.uleb128 0x2b
 2374 0c17 01       		.uleb128 0x1
 2375 0c18 52       		.byte	0x52
 2376 0c19 02       		.uleb128 0x2
 2377 0c1a 74       		.byte	0x74
 2378 0c1b 00       		.sleb128 0
 2379 0c1c 2B       		.uleb128 0x2b
 2380 0c1d 01       		.uleb128 0x1
 2381 0c1e 53       		.byte	0x53
 2382 0c1f 02       		.uleb128 0x2
 2383 0c20 74       		.byte	0x74
 2384 0c21 00       		.sleb128 0
 2385 0c22 00       		.byte	0
 2386 0c23 38       		.uleb128 0x38
 2387 0c24 54000000 		.4byte	.LVL123
 2388 0c28 AF090000 		.4byte	0x9af
 2389 0c2c 2B       		.uleb128 0x2b
 2390 0c2d 01       		.uleb128 0x1
ARM GAS  /tmp/ccFKdsFU.s 			page 43


 2391 0c2e 50       		.byte	0x50
 2392 0c2f 02       		.uleb128 0x2
 2393 0c30 91       		.byte	0x91
 2394 0c31 44       		.sleb128 -60
 2395 0c32 2B       		.uleb128 0x2b
 2396 0c33 01       		.uleb128 0x1
 2397 0c34 51       		.byte	0x51
 2398 0c35 03       		.uleb128 0x3
 2399 0c36 91       		.byte	0x91
 2400 0c37 68       		.sleb128 -24
 2401 0c38 06       		.byte	0x6
 2402 0c39 2B       		.uleb128 0x2b
 2403 0c3a 01       		.uleb128 0x1
 2404 0c3b 52       		.byte	0x52
 2405 0c3c 02       		.uleb128 0x2
 2406 0c3d 91       		.byte	0x91
 2407 0c3e 6C       		.sleb128 -20
 2408 0c3f 00       		.byte	0
 2409 0c40 00       		.byte	0
 2410 0c41 39       		.uleb128 0x39
 2411 0c42 CA000000 		.4byte	.LASF128
 2412 0c46 11       		.byte	0x11
 2413 0c47 A706     		.2byte	0x6a7
 2414 0c49 D5000000 		.4byte	0xd5
 2415 0c4d 3A       		.uleb128 0x3a
 2416 0c4e 636800   		.ascii	"ch\000"
 2417 0c51 07       		.byte	0x7
 2418 0c52 0902     		.2byte	0x209
 2419 0c54 EC030000 		.4byte	0x3ec
 2420 0c58 3B       		.uleb128 0x3b
 2421 0c59 8A030000 		.4byte	.LASF135
 2422 0c5d 8A030000 		.4byte	.LASF135
 2423 0c61 10       		.byte	0x10
 2424 0c62 57       		.byte	0x57
 2425 0c63 00       		.byte	0
 2426              		.section	.debug_abbrev,"",%progbits
 2427              	.Ldebug_abbrev0:
 2428 0000 01       		.uleb128 0x1
 2429 0001 11       		.uleb128 0x11
 2430 0002 01       		.byte	0x1
 2431 0003 25       		.uleb128 0x25
 2432 0004 0E       		.uleb128 0xe
 2433 0005 13       		.uleb128 0x13
 2434 0006 0B       		.uleb128 0xb
 2435 0007 03       		.uleb128 0x3
 2436 0008 0E       		.uleb128 0xe
 2437 0009 1B       		.uleb128 0x1b
 2438 000a 0E       		.uleb128 0xe
 2439 000b 55       		.uleb128 0x55
 2440 000c 17       		.uleb128 0x17
 2441 000d 11       		.uleb128 0x11
 2442 000e 01       		.uleb128 0x1
 2443 000f 10       		.uleb128 0x10
 2444 0010 17       		.uleb128 0x17
 2445 0011 00       		.byte	0
 2446 0012 00       		.byte	0
 2447 0013 02       		.uleb128 0x2
ARM GAS  /tmp/ccFKdsFU.s 			page 44


 2448 0014 24       		.uleb128 0x24
 2449 0015 00       		.byte	0
 2450 0016 0B       		.uleb128 0xb
 2451 0017 0B       		.uleb128 0xb
 2452 0018 3E       		.uleb128 0x3e
 2453 0019 0B       		.uleb128 0xb
 2454 001a 03       		.uleb128 0x3
 2455 001b 08       		.uleb128 0x8
 2456 001c 00       		.byte	0
 2457 001d 00       		.byte	0
 2458 001e 03       		.uleb128 0x3
 2459 001f 16       		.uleb128 0x16
 2460 0020 00       		.byte	0
 2461 0021 03       		.uleb128 0x3
 2462 0022 0E       		.uleb128 0xe
 2463 0023 3A       		.uleb128 0x3a
 2464 0024 0B       		.uleb128 0xb
 2465 0025 3B       		.uleb128 0x3b
 2466 0026 0B       		.uleb128 0xb
 2467 0027 49       		.uleb128 0x49
 2468 0028 13       		.uleb128 0x13
 2469 0029 00       		.byte	0
 2470 002a 00       		.byte	0
 2471 002b 04       		.uleb128 0x4
 2472 002c 24       		.uleb128 0x24
 2473 002d 00       		.byte	0
 2474 002e 0B       		.uleb128 0xb
 2475 002f 0B       		.uleb128 0xb
 2476 0030 3E       		.uleb128 0x3e
 2477 0031 0B       		.uleb128 0xb
 2478 0032 03       		.uleb128 0x3
 2479 0033 0E       		.uleb128 0xe
 2480 0034 00       		.byte	0
 2481 0035 00       		.byte	0
 2482 0036 05       		.uleb128 0x5
 2483 0037 35       		.uleb128 0x35
 2484 0038 00       		.byte	0
 2485 0039 49       		.uleb128 0x49
 2486 003a 13       		.uleb128 0x13
 2487 003b 00       		.byte	0
 2488 003c 00       		.byte	0
 2489 003d 06       		.uleb128 0x6
 2490 003e 13       		.uleb128 0x13
 2491 003f 01       		.byte	0x1
 2492 0040 03       		.uleb128 0x3
 2493 0041 0E       		.uleb128 0xe
 2494 0042 0B       		.uleb128 0xb
 2495 0043 0B       		.uleb128 0xb
 2496 0044 3A       		.uleb128 0x3a
 2497 0045 0B       		.uleb128 0xb
 2498 0046 3B       		.uleb128 0x3b
 2499 0047 0B       		.uleb128 0xb
 2500 0048 01       		.uleb128 0x1
 2501 0049 13       		.uleb128 0x13
 2502 004a 00       		.byte	0
 2503 004b 00       		.byte	0
 2504 004c 07       		.uleb128 0x7
ARM GAS  /tmp/ccFKdsFU.s 			page 45


 2505 004d 0D       		.uleb128 0xd
 2506 004e 00       		.byte	0
 2507 004f 03       		.uleb128 0x3
 2508 0050 0E       		.uleb128 0xe
 2509 0051 3A       		.uleb128 0x3a
 2510 0052 0B       		.uleb128 0xb
 2511 0053 3B       		.uleb128 0x3b
 2512 0054 0B       		.uleb128 0xb
 2513 0055 49       		.uleb128 0x49
 2514 0056 13       		.uleb128 0x13
 2515 0057 38       		.uleb128 0x38
 2516 0058 0B       		.uleb128 0xb
 2517 0059 00       		.byte	0
 2518 005a 00       		.byte	0
 2519 005b 08       		.uleb128 0x8
 2520 005c 0D       		.uleb128 0xd
 2521 005d 00       		.byte	0
 2522 005e 03       		.uleb128 0x3
 2523 005f 08       		.uleb128 0x8
 2524 0060 3A       		.uleb128 0x3a
 2525 0061 0B       		.uleb128 0xb
 2526 0062 3B       		.uleb128 0x3b
 2527 0063 05       		.uleb128 0x5
 2528 0064 49       		.uleb128 0x49
 2529 0065 13       		.uleb128 0x13
 2530 0066 38       		.uleb128 0x38
 2531 0067 0B       		.uleb128 0xb
 2532 0068 00       		.byte	0
 2533 0069 00       		.byte	0
 2534 006a 09       		.uleb128 0x9
 2535 006b 0D       		.uleb128 0xd
 2536 006c 00       		.byte	0
 2537 006d 03       		.uleb128 0x3
 2538 006e 0E       		.uleb128 0xe
 2539 006f 3A       		.uleb128 0x3a
 2540 0070 0B       		.uleb128 0xb
 2541 0071 3B       		.uleb128 0x3b
 2542 0072 05       		.uleb128 0x5
 2543 0073 49       		.uleb128 0x49
 2544 0074 13       		.uleb128 0x13
 2545 0075 38       		.uleb128 0x38
 2546 0076 0B       		.uleb128 0xb
 2547 0077 00       		.byte	0
 2548 0078 00       		.byte	0
 2549 0079 0A       		.uleb128 0xa
 2550 007a 0F       		.uleb128 0xf
 2551 007b 00       		.byte	0
 2552 007c 0B       		.uleb128 0xb
 2553 007d 0B       		.uleb128 0xb
 2554 007e 49       		.uleb128 0x49
 2555 007f 13       		.uleb128 0x13
 2556 0080 00       		.byte	0
 2557 0081 00       		.byte	0
 2558 0082 0B       		.uleb128 0xb
 2559 0083 13       		.uleb128 0x13
 2560 0084 01       		.byte	0x1
 2561 0085 03       		.uleb128 0x3
ARM GAS  /tmp/ccFKdsFU.s 			page 46


 2562 0086 0E       		.uleb128 0xe
 2563 0087 0B       		.uleb128 0xb
 2564 0088 0B       		.uleb128 0xb
 2565 0089 3A       		.uleb128 0x3a
 2566 008a 0B       		.uleb128 0xb
 2567 008b 3B       		.uleb128 0x3b
 2568 008c 05       		.uleb128 0x5
 2569 008d 01       		.uleb128 0x1
 2570 008e 13       		.uleb128 0x13
 2571 008f 00       		.byte	0
 2572 0090 00       		.byte	0
 2573 0091 0C       		.uleb128 0xc
 2574 0092 15       		.uleb128 0x15
 2575 0093 01       		.byte	0x1
 2576 0094 27       		.uleb128 0x27
 2577 0095 19       		.uleb128 0x19
 2578 0096 01       		.uleb128 0x1
 2579 0097 13       		.uleb128 0x13
 2580 0098 00       		.byte	0
 2581 0099 00       		.byte	0
 2582 009a 0D       		.uleb128 0xd
 2583 009b 05       		.uleb128 0x5
 2584 009c 00       		.byte	0
 2585 009d 49       		.uleb128 0x49
 2586 009e 13       		.uleb128 0x13
 2587 009f 00       		.byte	0
 2588 00a0 00       		.byte	0
 2589 00a1 0E       		.uleb128 0xe
 2590 00a2 0F       		.uleb128 0xf
 2591 00a3 00       		.byte	0
 2592 00a4 0B       		.uleb128 0xb
 2593 00a5 0B       		.uleb128 0xb
 2594 00a6 00       		.byte	0
 2595 00a7 00       		.byte	0
 2596 00a8 0F       		.uleb128 0xf
 2597 00a9 13       		.uleb128 0x13
 2598 00aa 01       		.byte	0x1
 2599 00ab 03       		.uleb128 0x3
 2600 00ac 0E       		.uleb128 0xe
 2601 00ad 0B       		.uleb128 0xb
 2602 00ae 05       		.uleb128 0x5
 2603 00af 3A       		.uleb128 0x3a
 2604 00b0 0B       		.uleb128 0xb
 2605 00b1 3B       		.uleb128 0x3b
 2606 00b2 05       		.uleb128 0x5
 2607 00b3 01       		.uleb128 0x1
 2608 00b4 13       		.uleb128 0x13
 2609 00b5 00       		.byte	0
 2610 00b6 00       		.byte	0
 2611 00b7 10       		.uleb128 0x10
 2612 00b8 0D       		.uleb128 0xd
 2613 00b9 00       		.byte	0
 2614 00ba 03       		.uleb128 0x3
 2615 00bb 08       		.uleb128 0x8
 2616 00bc 3A       		.uleb128 0x3a
 2617 00bd 0B       		.uleb128 0xb
 2618 00be 3B       		.uleb128 0x3b
ARM GAS  /tmp/ccFKdsFU.s 			page 47


 2619 00bf 0B       		.uleb128 0xb
 2620 00c0 49       		.uleb128 0x49
 2621 00c1 13       		.uleb128 0x13
 2622 00c2 38       		.uleb128 0x38
 2623 00c3 0B       		.uleb128 0xb
 2624 00c4 00       		.byte	0
 2625 00c5 00       		.byte	0
 2626 00c6 11       		.uleb128 0x11
 2627 00c7 13       		.uleb128 0x13
 2628 00c8 01       		.byte	0x1
 2629 00c9 0B       		.uleb128 0xb
 2630 00ca 0B       		.uleb128 0xb
 2631 00cb 3A       		.uleb128 0x3a
 2632 00cc 0B       		.uleb128 0xb
 2633 00cd 3B       		.uleb128 0x3b
 2634 00ce 0B       		.uleb128 0xb
 2635 00cf 01       		.uleb128 0x1
 2636 00d0 13       		.uleb128 0x13
 2637 00d1 00       		.byte	0
 2638 00d2 00       		.byte	0
 2639 00d3 12       		.uleb128 0x12
 2640 00d4 17       		.uleb128 0x17
 2641 00d5 01       		.byte	0x1
 2642 00d6 0B       		.uleb128 0xb
 2643 00d7 0B       		.uleb128 0xb
 2644 00d8 3A       		.uleb128 0x3a
 2645 00d9 0B       		.uleb128 0xb
 2646 00da 3B       		.uleb128 0x3b
 2647 00db 0B       		.uleb128 0xb
 2648 00dc 01       		.uleb128 0x1
 2649 00dd 13       		.uleb128 0x13
 2650 00de 00       		.byte	0
 2651 00df 00       		.byte	0
 2652 00e0 13       		.uleb128 0x13
 2653 00e1 0D       		.uleb128 0xd
 2654 00e2 00       		.byte	0
 2655 00e3 03       		.uleb128 0x3
 2656 00e4 0E       		.uleb128 0xe
 2657 00e5 3A       		.uleb128 0x3a
 2658 00e6 0B       		.uleb128 0xb
 2659 00e7 3B       		.uleb128 0x3b
 2660 00e8 05       		.uleb128 0x5
 2661 00e9 49       		.uleb128 0x49
 2662 00ea 13       		.uleb128 0x13
 2663 00eb 00       		.byte	0
 2664 00ec 00       		.byte	0
 2665 00ed 14       		.uleb128 0x14
 2666 00ee 26       		.uleb128 0x26
 2667 00ef 00       		.byte	0
 2668 00f0 49       		.uleb128 0x49
 2669 00f1 13       		.uleb128 0x13
 2670 00f2 00       		.byte	0
 2671 00f3 00       		.byte	0
 2672 00f4 15       		.uleb128 0x15
 2673 00f5 01       		.uleb128 0x1
 2674 00f6 01       		.byte	0x1
 2675 00f7 49       		.uleb128 0x49
ARM GAS  /tmp/ccFKdsFU.s 			page 48


 2676 00f8 13       		.uleb128 0x13
 2677 00f9 01       		.uleb128 0x1
 2678 00fa 13       		.uleb128 0x13
 2679 00fb 00       		.byte	0
 2680 00fc 00       		.byte	0
 2681 00fd 16       		.uleb128 0x16
 2682 00fe 21       		.uleb128 0x21
 2683 00ff 00       		.byte	0
 2684 0100 49       		.uleb128 0x49
 2685 0101 13       		.uleb128 0x13
 2686 0102 2F       		.uleb128 0x2f
 2687 0103 0B       		.uleb128 0xb
 2688 0104 00       		.byte	0
 2689 0105 00       		.byte	0
 2690 0106 17       		.uleb128 0x17
 2691 0107 15       		.uleb128 0x15
 2692 0108 01       		.byte	0x1
 2693 0109 27       		.uleb128 0x27
 2694 010a 19       		.uleb128 0x19
 2695 010b 49       		.uleb128 0x49
 2696 010c 13       		.uleb128 0x13
 2697 010d 01       		.uleb128 0x1
 2698 010e 13       		.uleb128 0x13
 2699 010f 00       		.byte	0
 2700 0110 00       		.byte	0
 2701 0111 18       		.uleb128 0x18
 2702 0112 0D       		.uleb128 0xd
 2703 0113 00       		.byte	0
 2704 0114 03       		.uleb128 0x3
 2705 0115 0E       		.uleb128 0xe
 2706 0116 49       		.uleb128 0x49
 2707 0117 13       		.uleb128 0x13
 2708 0118 38       		.uleb128 0x38
 2709 0119 0B       		.uleb128 0xb
 2710 011a 34       		.uleb128 0x34
 2711 011b 19       		.uleb128 0x19
 2712 011c 00       		.byte	0
 2713 011d 00       		.byte	0
 2714 011e 19       		.uleb128 0x19
 2715 011f 2E       		.uleb128 0x2e
 2716 0120 01       		.byte	0x1
 2717 0121 03       		.uleb128 0x3
 2718 0122 0E       		.uleb128 0xe
 2719 0123 3A       		.uleb128 0x3a
 2720 0124 0B       		.uleb128 0xb
 2721 0125 3B       		.uleb128 0x3b
 2722 0126 0B       		.uleb128 0xb
 2723 0127 27       		.uleb128 0x27
 2724 0128 19       		.uleb128 0x19
 2725 0129 49       		.uleb128 0x49
 2726 012a 13       		.uleb128 0x13
 2727 012b 20       		.uleb128 0x20
 2728 012c 0B       		.uleb128 0xb
 2729 012d 01       		.uleb128 0x1
 2730 012e 13       		.uleb128 0x13
 2731 012f 00       		.byte	0
 2732 0130 00       		.byte	0
ARM GAS  /tmp/ccFKdsFU.s 			page 49


 2733 0131 1A       		.uleb128 0x1a
 2734 0132 05       		.uleb128 0x5
 2735 0133 00       		.byte	0
 2736 0134 03       		.uleb128 0x3
 2737 0135 08       		.uleb128 0x8
 2738 0136 3A       		.uleb128 0x3a
 2739 0137 0B       		.uleb128 0xb
 2740 0138 3B       		.uleb128 0x3b
 2741 0139 0B       		.uleb128 0xb
 2742 013a 49       		.uleb128 0x49
 2743 013b 13       		.uleb128 0x13
 2744 013c 00       		.byte	0
 2745 013d 00       		.byte	0
 2746 013e 1B       		.uleb128 0x1b
 2747 013f 05       		.uleb128 0x5
 2748 0140 00       		.byte	0
 2749 0141 03       		.uleb128 0x3
 2750 0142 0E       		.uleb128 0xe
 2751 0143 3A       		.uleb128 0x3a
 2752 0144 0B       		.uleb128 0xb
 2753 0145 3B       		.uleb128 0x3b
 2754 0146 0B       		.uleb128 0xb
 2755 0147 49       		.uleb128 0x49
 2756 0148 13       		.uleb128 0x13
 2757 0149 00       		.byte	0
 2758 014a 00       		.byte	0
 2759 014b 1C       		.uleb128 0x1c
 2760 014c 34       		.uleb128 0x34
 2761 014d 00       		.byte	0
 2762 014e 03       		.uleb128 0x3
 2763 014f 08       		.uleb128 0x8
 2764 0150 3A       		.uleb128 0x3a
 2765 0151 0B       		.uleb128 0xb
 2766 0152 3B       		.uleb128 0x3b
 2767 0153 0B       		.uleb128 0xb
 2768 0154 49       		.uleb128 0x49
 2769 0155 13       		.uleb128 0x13
 2770 0156 00       		.byte	0
 2771 0157 00       		.byte	0
 2772 0158 1D       		.uleb128 0x1d
 2773 0159 2E       		.uleb128 0x2e
 2774 015a 01       		.byte	0x1
 2775 015b 03       		.uleb128 0x3
 2776 015c 0E       		.uleb128 0xe
 2777 015d 3A       		.uleb128 0x3a
 2778 015e 0B       		.uleb128 0xb
 2779 015f 3B       		.uleb128 0x3b
 2780 0160 0B       		.uleb128 0xb
 2781 0161 27       		.uleb128 0x27
 2782 0162 19       		.uleb128 0x19
 2783 0163 49       		.uleb128 0x49
 2784 0164 13       		.uleb128 0x13
 2785 0165 11       		.uleb128 0x11
 2786 0166 01       		.uleb128 0x1
 2787 0167 12       		.uleb128 0x12
 2788 0168 06       		.uleb128 0x6
 2789 0169 40       		.uleb128 0x40
ARM GAS  /tmp/ccFKdsFU.s 			page 50


 2790 016a 18       		.uleb128 0x18
 2791 016b 9742     		.uleb128 0x2117
 2792 016d 19       		.uleb128 0x19
 2793 016e 01       		.uleb128 0x1
 2794 016f 13       		.uleb128 0x13
 2795 0170 00       		.byte	0
 2796 0171 00       		.byte	0
 2797 0172 1E       		.uleb128 0x1e
 2798 0173 05       		.uleb128 0x5
 2799 0174 00       		.byte	0
 2800 0175 03       		.uleb128 0x3
 2801 0176 08       		.uleb128 0x8
 2802 0177 3A       		.uleb128 0x3a
 2803 0178 0B       		.uleb128 0xb
 2804 0179 3B       		.uleb128 0x3b
 2805 017a 0B       		.uleb128 0xb
 2806 017b 49       		.uleb128 0x49
 2807 017c 13       		.uleb128 0x13
 2808 017d 02       		.uleb128 0x2
 2809 017e 17       		.uleb128 0x17
 2810 017f 00       		.byte	0
 2811 0180 00       		.byte	0
 2812 0181 1F       		.uleb128 0x1f
 2813 0182 05       		.uleb128 0x5
 2814 0183 00       		.byte	0
 2815 0184 03       		.uleb128 0x3
 2816 0185 0E       		.uleb128 0xe
 2817 0186 3A       		.uleb128 0x3a
 2818 0187 0B       		.uleb128 0xb
 2819 0188 3B       		.uleb128 0x3b
 2820 0189 0B       		.uleb128 0xb
 2821 018a 49       		.uleb128 0x49
 2822 018b 13       		.uleb128 0x13
 2823 018c 02       		.uleb128 0x2
 2824 018d 17       		.uleb128 0x17
 2825 018e 00       		.byte	0
 2826 018f 00       		.byte	0
 2827 0190 20       		.uleb128 0x20
 2828 0191 1D       		.uleb128 0x1d
 2829 0192 01       		.byte	0x1
 2830 0193 31       		.uleb128 0x31
 2831 0194 13       		.uleb128 0x13
 2832 0195 11       		.uleb128 0x11
 2833 0196 01       		.uleb128 0x1
 2834 0197 12       		.uleb128 0x12
 2835 0198 06       		.uleb128 0x6
 2836 0199 58       		.uleb128 0x58
 2837 019a 0B       		.uleb128 0xb
 2838 019b 59       		.uleb128 0x59
 2839 019c 0B       		.uleb128 0xb
 2840 019d 00       		.byte	0
 2841 019e 00       		.byte	0
 2842 019f 21       		.uleb128 0x21
 2843 01a0 05       		.uleb128 0x5
 2844 01a1 00       		.byte	0
 2845 01a2 31       		.uleb128 0x31
 2846 01a3 13       		.uleb128 0x13
ARM GAS  /tmp/ccFKdsFU.s 			page 51


 2847 01a4 1C       		.uleb128 0x1c
 2848 01a5 0B       		.uleb128 0xb
 2849 01a6 00       		.byte	0
 2850 01a7 00       		.byte	0
 2851 01a8 22       		.uleb128 0x22
 2852 01a9 05       		.uleb128 0x5
 2853 01aa 00       		.byte	0
 2854 01ab 31       		.uleb128 0x31
 2855 01ac 13       		.uleb128 0x13
 2856 01ad 02       		.uleb128 0x2
 2857 01ae 17       		.uleb128 0x17
 2858 01af 00       		.byte	0
 2859 01b0 00       		.byte	0
 2860 01b1 23       		.uleb128 0x23
 2861 01b2 0B       		.uleb128 0xb
 2862 01b3 01       		.byte	0x1
 2863 01b4 11       		.uleb128 0x11
 2864 01b5 01       		.uleb128 0x1
 2865 01b6 12       		.uleb128 0x12
 2866 01b7 06       		.uleb128 0x6
 2867 01b8 00       		.byte	0
 2868 01b9 00       		.byte	0
 2869 01ba 24       		.uleb128 0x24
 2870 01bb 34       		.uleb128 0x34
 2871 01bc 00       		.byte	0
 2872 01bd 31       		.uleb128 0x31
 2873 01be 13       		.uleb128 0x13
 2874 01bf 02       		.uleb128 0x2
 2875 01c0 17       		.uleb128 0x17
 2876 01c1 00       		.byte	0
 2877 01c2 00       		.byte	0
 2878 01c3 25       		.uleb128 0x25
 2879 01c4 2E       		.uleb128 0x2e
 2880 01c5 01       		.byte	0x1
 2881 01c6 3F       		.uleb128 0x3f
 2882 01c7 19       		.uleb128 0x19
 2883 01c8 03       		.uleb128 0x3
 2884 01c9 0E       		.uleb128 0xe
 2885 01ca 3A       		.uleb128 0x3a
 2886 01cb 0B       		.uleb128 0xb
 2887 01cc 3B       		.uleb128 0x3b
 2888 01cd 0B       		.uleb128 0xb
 2889 01ce 27       		.uleb128 0x27
 2890 01cf 19       		.uleb128 0x19
 2891 01d0 49       		.uleb128 0x49
 2892 01d1 13       		.uleb128 0x13
 2893 01d2 11       		.uleb128 0x11
 2894 01d3 01       		.uleb128 0x1
 2895 01d4 12       		.uleb128 0x12
 2896 01d5 06       		.uleb128 0x6
 2897 01d6 40       		.uleb128 0x40
 2898 01d7 18       		.uleb128 0x18
 2899 01d8 9742     		.uleb128 0x2117
 2900 01da 19       		.uleb128 0x19
 2901 01db 01       		.uleb128 0x1
 2902 01dc 13       		.uleb128 0x13
 2903 01dd 00       		.byte	0
ARM GAS  /tmp/ccFKdsFU.s 			page 52


 2904 01de 00       		.byte	0
 2905 01df 26       		.uleb128 0x26
 2906 01e0 34       		.uleb128 0x34
 2907 01e1 00       		.byte	0
 2908 01e2 03       		.uleb128 0x3
 2909 01e3 08       		.uleb128 0x8
 2910 01e4 3A       		.uleb128 0x3a
 2911 01e5 0B       		.uleb128 0xb
 2912 01e6 3B       		.uleb128 0x3b
 2913 01e7 0B       		.uleb128 0xb
 2914 01e8 49       		.uleb128 0x49
 2915 01e9 13       		.uleb128 0x13
 2916 01ea 02       		.uleb128 0x2
 2917 01eb 17       		.uleb128 0x17
 2918 01ec 00       		.byte	0
 2919 01ed 00       		.byte	0
 2920 01ee 27       		.uleb128 0x27
 2921 01ef 34       		.uleb128 0x34
 2922 01f0 00       		.byte	0
 2923 01f1 03       		.uleb128 0x3
 2924 01f2 0E       		.uleb128 0xe
 2925 01f3 3A       		.uleb128 0x3a
 2926 01f4 0B       		.uleb128 0xb
 2927 01f5 3B       		.uleb128 0x3b
 2928 01f6 0B       		.uleb128 0xb
 2929 01f7 49       		.uleb128 0x49
 2930 01f8 13       		.uleb128 0x13
 2931 01f9 02       		.uleb128 0x2
 2932 01fa 17       		.uleb128 0x17
 2933 01fb 00       		.byte	0
 2934 01fc 00       		.byte	0
 2935 01fd 28       		.uleb128 0x28
 2936 01fe 34       		.uleb128 0x34
 2937 01ff 00       		.byte	0
 2938 0200 03       		.uleb128 0x3
 2939 0201 0E       		.uleb128 0xe
 2940 0202 3A       		.uleb128 0x3a
 2941 0203 0B       		.uleb128 0xb
 2942 0204 3B       		.uleb128 0x3b
 2943 0205 0B       		.uleb128 0xb
 2944 0206 49       		.uleb128 0x49
 2945 0207 13       		.uleb128 0x13
 2946 0208 02       		.uleb128 0x2
 2947 0209 18       		.uleb128 0x18
 2948 020a 00       		.byte	0
 2949 020b 00       		.byte	0
 2950 020c 29       		.uleb128 0x29
 2951 020d 0A       		.uleb128 0xa
 2952 020e 00       		.byte	0
 2953 020f 03       		.uleb128 0x3
 2954 0210 0E       		.uleb128 0xe
 2955 0211 3A       		.uleb128 0x3a
 2956 0212 0B       		.uleb128 0xb
 2957 0213 3B       		.uleb128 0x3b
 2958 0214 0B       		.uleb128 0xb
 2959 0215 11       		.uleb128 0x11
 2960 0216 01       		.uleb128 0x1
ARM GAS  /tmp/ccFKdsFU.s 			page 53


 2961 0217 00       		.byte	0
 2962 0218 00       		.byte	0
 2963 0219 2A       		.uleb128 0x2a
 2964 021a 898201   		.uleb128 0x4109
 2965 021d 01       		.byte	0x1
 2966 021e 11       		.uleb128 0x11
 2967 021f 01       		.uleb128 0x1
 2968 0220 9342     		.uleb128 0x2113
 2969 0222 18       		.uleb128 0x18
 2970 0223 01       		.uleb128 0x1
 2971 0224 13       		.uleb128 0x13
 2972 0225 00       		.byte	0
 2973 0226 00       		.byte	0
 2974 0227 2B       		.uleb128 0x2b
 2975 0228 8A8201   		.uleb128 0x410a
 2976 022b 00       		.byte	0
 2977 022c 02       		.uleb128 0x2
 2978 022d 18       		.uleb128 0x18
 2979 022e 9142     		.uleb128 0x2111
 2980 0230 18       		.uleb128 0x18
 2981 0231 00       		.byte	0
 2982 0232 00       		.byte	0
 2983 0233 2C       		.uleb128 0x2c
 2984 0234 898201   		.uleb128 0x4109
 2985 0237 00       		.byte	0
 2986 0238 11       		.uleb128 0x11
 2987 0239 01       		.uleb128 0x1
 2988 023a 31       		.uleb128 0x31
 2989 023b 13       		.uleb128 0x13
 2990 023c 00       		.byte	0
 2991 023d 00       		.byte	0
 2992 023e 2D       		.uleb128 0x2d
 2993 023f 898201   		.uleb128 0x4109
 2994 0242 01       		.byte	0x1
 2995 0243 11       		.uleb128 0x11
 2996 0244 01       		.uleb128 0x1
 2997 0245 01       		.uleb128 0x1
 2998 0246 13       		.uleb128 0x13
 2999 0247 00       		.byte	0
 3000 0248 00       		.byte	0
 3001 0249 2E       		.uleb128 0x2e
 3002 024a 898201   		.uleb128 0x4109
 3003 024d 01       		.byte	0x1
 3004 024e 11       		.uleb128 0x11
 3005 024f 01       		.uleb128 0x1
 3006 0250 00       		.byte	0
 3007 0251 00       		.byte	0
 3008 0252 2F       		.uleb128 0x2f
 3009 0253 2E       		.uleb128 0x2e
 3010 0254 01       		.byte	0x1
 3011 0255 3F       		.uleb128 0x3f
 3012 0256 19       		.uleb128 0x19
 3013 0257 03       		.uleb128 0x3
 3014 0258 0E       		.uleb128 0xe
 3015 0259 3A       		.uleb128 0x3a
 3016 025a 0B       		.uleb128 0xb
 3017 025b 3B       		.uleb128 0x3b
ARM GAS  /tmp/ccFKdsFU.s 			page 54


 3018 025c 05       		.uleb128 0x5
 3019 025d 27       		.uleb128 0x27
 3020 025e 19       		.uleb128 0x19
 3021 025f 49       		.uleb128 0x49
 3022 0260 13       		.uleb128 0x13
 3023 0261 11       		.uleb128 0x11
 3024 0262 01       		.uleb128 0x1
 3025 0263 12       		.uleb128 0x12
 3026 0264 06       		.uleb128 0x6
 3027 0265 40       		.uleb128 0x40
 3028 0266 18       		.uleb128 0x18
 3029 0267 9742     		.uleb128 0x2117
 3030 0269 19       		.uleb128 0x19
 3031 026a 01       		.uleb128 0x1
 3032 026b 13       		.uleb128 0x13
 3033 026c 00       		.byte	0
 3034 026d 00       		.byte	0
 3035 026e 30       		.uleb128 0x30
 3036 026f 05       		.uleb128 0x5
 3037 0270 00       		.byte	0
 3038 0271 03       		.uleb128 0x3
 3039 0272 08       		.uleb128 0x8
 3040 0273 3A       		.uleb128 0x3a
 3041 0274 0B       		.uleb128 0xb
 3042 0275 3B       		.uleb128 0x3b
 3043 0276 05       		.uleb128 0x5
 3044 0277 49       		.uleb128 0x49
 3045 0278 13       		.uleb128 0x13
 3046 0279 02       		.uleb128 0x2
 3047 027a 17       		.uleb128 0x17
 3048 027b 00       		.byte	0
 3049 027c 00       		.byte	0
 3050 027d 31       		.uleb128 0x31
 3051 027e 05       		.uleb128 0x5
 3052 027f 00       		.byte	0
 3053 0280 03       		.uleb128 0x3
 3054 0281 0E       		.uleb128 0xe
 3055 0282 3A       		.uleb128 0x3a
 3056 0283 0B       		.uleb128 0xb
 3057 0284 3B       		.uleb128 0x3b
 3058 0285 05       		.uleb128 0x5
 3059 0286 49       		.uleb128 0x49
 3060 0287 13       		.uleb128 0x13
 3061 0288 02       		.uleb128 0x2
 3062 0289 17       		.uleb128 0x17
 3063 028a 00       		.byte	0
 3064 028b 00       		.byte	0
 3065 028c 32       		.uleb128 0x32
 3066 028d 05       		.uleb128 0x5
 3067 028e 00       		.byte	0
 3068 028f 03       		.uleb128 0x3
 3069 0290 08       		.uleb128 0x8
 3070 0291 3A       		.uleb128 0x3a
 3071 0292 0B       		.uleb128 0xb
 3072 0293 3B       		.uleb128 0x3b
 3073 0294 05       		.uleb128 0x5
 3074 0295 49       		.uleb128 0x49
ARM GAS  /tmp/ccFKdsFU.s 			page 55


 3075 0296 13       		.uleb128 0x13
 3076 0297 02       		.uleb128 0x2
 3077 0298 18       		.uleb128 0x18
 3078 0299 00       		.byte	0
 3079 029a 00       		.byte	0
 3080 029b 33       		.uleb128 0x33
 3081 029c 18       		.uleb128 0x18
 3082 029d 00       		.byte	0
 3083 029e 00       		.byte	0
 3084 029f 00       		.byte	0
 3085 02a0 34       		.uleb128 0x34
 3086 02a1 34       		.uleb128 0x34
 3087 02a2 00       		.byte	0
 3088 02a3 03       		.uleb128 0x3
 3089 02a4 08       		.uleb128 0x8
 3090 02a5 3A       		.uleb128 0x3a
 3091 02a6 0B       		.uleb128 0xb
 3092 02a7 3B       		.uleb128 0x3b
 3093 02a8 05       		.uleb128 0x5
 3094 02a9 49       		.uleb128 0x49
 3095 02aa 13       		.uleb128 0x13
 3096 02ab 02       		.uleb128 0x2
 3097 02ac 18       		.uleb128 0x18
 3098 02ad 00       		.byte	0
 3099 02ae 00       		.byte	0
 3100 02af 35       		.uleb128 0x35
 3101 02b0 34       		.uleb128 0x34
 3102 02b1 00       		.byte	0
 3103 02b2 03       		.uleb128 0x3
 3104 02b3 08       		.uleb128 0x8
 3105 02b4 3A       		.uleb128 0x3a
 3106 02b5 0B       		.uleb128 0xb
 3107 02b6 3B       		.uleb128 0x3b
 3108 02b7 05       		.uleb128 0x5
 3109 02b8 49       		.uleb128 0x49
 3110 02b9 13       		.uleb128 0x13
 3111 02ba 02       		.uleb128 0x2
 3112 02bb 17       		.uleb128 0x17
 3113 02bc 00       		.byte	0
 3114 02bd 00       		.byte	0
 3115 02be 36       		.uleb128 0x36
 3116 02bf 34       		.uleb128 0x34
 3117 02c0 00       		.byte	0
 3118 02c1 03       		.uleb128 0x3
 3119 02c2 0E       		.uleb128 0xe
 3120 02c3 3A       		.uleb128 0x3a
 3121 02c4 0B       		.uleb128 0xb
 3122 02c5 3B       		.uleb128 0x3b
 3123 02c6 05       		.uleb128 0x5
 3124 02c7 49       		.uleb128 0x49
 3125 02c8 13       		.uleb128 0x13
 3126 02c9 02       		.uleb128 0x2
 3127 02ca 17       		.uleb128 0x17
 3128 02cb 00       		.byte	0
 3129 02cc 00       		.byte	0
 3130 02cd 37       		.uleb128 0x37
 3131 02ce 898201   		.uleb128 0x4109
ARM GAS  /tmp/ccFKdsFU.s 			page 56


 3132 02d1 01       		.byte	0x1
 3133 02d2 11       		.uleb128 0x11
 3134 02d3 01       		.uleb128 0x1
 3135 02d4 31       		.uleb128 0x31
 3136 02d5 13       		.uleb128 0x13
 3137 02d6 01       		.uleb128 0x1
 3138 02d7 13       		.uleb128 0x13
 3139 02d8 00       		.byte	0
 3140 02d9 00       		.byte	0
 3141 02da 38       		.uleb128 0x38
 3142 02db 898201   		.uleb128 0x4109
 3143 02de 01       		.byte	0x1
 3144 02df 11       		.uleb128 0x11
 3145 02e0 01       		.uleb128 0x1
 3146 02e1 31       		.uleb128 0x31
 3147 02e2 13       		.uleb128 0x13
 3148 02e3 00       		.byte	0
 3149 02e4 00       		.byte	0
 3150 02e5 39       		.uleb128 0x39
 3151 02e6 34       		.uleb128 0x34
 3152 02e7 00       		.byte	0
 3153 02e8 03       		.uleb128 0x3
 3154 02e9 0E       		.uleb128 0xe
 3155 02ea 3A       		.uleb128 0x3a
 3156 02eb 0B       		.uleb128 0xb
 3157 02ec 3B       		.uleb128 0x3b
 3158 02ed 05       		.uleb128 0x5
 3159 02ee 49       		.uleb128 0x49
 3160 02ef 13       		.uleb128 0x13
 3161 02f0 3F       		.uleb128 0x3f
 3162 02f1 19       		.uleb128 0x19
 3163 02f2 3C       		.uleb128 0x3c
 3164 02f3 19       		.uleb128 0x19
 3165 02f4 00       		.byte	0
 3166 02f5 00       		.byte	0
 3167 02f6 3A       		.uleb128 0x3a
 3168 02f7 34       		.uleb128 0x34
 3169 02f8 00       		.byte	0
 3170 02f9 03       		.uleb128 0x3
 3171 02fa 08       		.uleb128 0x8
 3172 02fb 3A       		.uleb128 0x3a
 3173 02fc 0B       		.uleb128 0xb
 3174 02fd 3B       		.uleb128 0x3b
 3175 02fe 05       		.uleb128 0x5
 3176 02ff 49       		.uleb128 0x49
 3177 0300 13       		.uleb128 0x13
 3178 0301 3F       		.uleb128 0x3f
 3179 0302 19       		.uleb128 0x19
 3180 0303 3C       		.uleb128 0x3c
 3181 0304 19       		.uleb128 0x19
 3182 0305 00       		.byte	0
 3183 0306 00       		.byte	0
 3184 0307 3B       		.uleb128 0x3b
 3185 0308 2E       		.uleb128 0x2e
 3186 0309 00       		.byte	0
 3187 030a 3F       		.uleb128 0x3f
 3188 030b 19       		.uleb128 0x19
ARM GAS  /tmp/ccFKdsFU.s 			page 57


 3189 030c 3C       		.uleb128 0x3c
 3190 030d 19       		.uleb128 0x19
 3191 030e 6E       		.uleb128 0x6e
 3192 030f 0E       		.uleb128 0xe
 3193 0310 03       		.uleb128 0x3
 3194 0311 0E       		.uleb128 0xe
 3195 0312 3A       		.uleb128 0x3a
 3196 0313 0B       		.uleb128 0xb
 3197 0314 3B       		.uleb128 0x3b
 3198 0315 0B       		.uleb128 0xb
 3199 0316 00       		.byte	0
 3200 0317 00       		.byte	0
 3201 0318 00       		.byte	0
 3202              		.section	.debug_loc,"",%progbits
 3203              	.Ldebug_loc0:
 3204              	.LLST0:
 3205 0000 00000000 		.4byte	.LVL0
 3206 0004 34000000 		.4byte	.LVL12
 3207 0008 0100     		.2byte	0x1
 3208 000a 50       		.byte	0x50
 3209 000b 34000000 		.4byte	.LVL12
 3210 000f 42000000 		.4byte	.LVL15
 3211 0013 0300     		.2byte	0x3
 3212 0015 77       		.byte	0x77
 3213 0016 75       		.sleb128 -11
 3214 0017 9F       		.byte	0x9f
 3215 0018 42000000 		.4byte	.LVL15
 3216 001c 44000000 		.4byte	.LFE262
 3217 0020 0400     		.2byte	0x4
 3218 0022 F3       		.byte	0xf3
 3219 0023 01       		.uleb128 0x1
 3220 0024 50       		.byte	0x50
 3221 0025 9F       		.byte	0x9f
 3222 0026 00000000 		.4byte	0
 3223 002a 00000000 		.4byte	0
 3224              	.LLST1:
 3225 002e 00000000 		.4byte	.LVL0
 3226 0032 0A000000 		.4byte	.LVL2
 3227 0036 0100     		.2byte	0x1
 3228 0038 51       		.byte	0x51
 3229 0039 0A000000 		.4byte	.LVL2
 3230 003d 44000000 		.4byte	.LFE262
 3231 0041 0400     		.2byte	0x4
 3232 0043 F3       		.byte	0xf3
 3233 0044 01       		.uleb128 0x1
 3234 0045 51       		.byte	0x51
 3235 0046 9F       		.byte	0x9f
 3236 0047 00000000 		.4byte	0
 3237 004b 00000000 		.4byte	0
 3238              	.LLST2:
 3239 004f 00000000 		.4byte	.LVL0
 3240 0053 30000000 		.4byte	.LVL11
 3241 0057 0100     		.2byte	0x1
 3242 0059 52       		.byte	0x52
 3243 005a 30000000 		.4byte	.LVL11
 3244 005e 44000000 		.4byte	.LFE262
 3245 0062 0400     		.2byte	0x4
ARM GAS  /tmp/ccFKdsFU.s 			page 58


 3246 0064 F3       		.byte	0xf3
 3247 0065 01       		.uleb128 0x1
 3248 0066 52       		.byte	0x52
 3249 0067 9F       		.byte	0x9f
 3250 0068 00000000 		.4byte	0
 3251 006c 00000000 		.4byte	0
 3252              	.LLST3:
 3253 0070 06000000 		.4byte	.LVL1
 3254 0074 30000000 		.4byte	.LVL11
 3255 0078 0100     		.2byte	0x1
 3256 007a 52       		.byte	0x52
 3257 007b 30000000 		.4byte	.LVL11
 3258 007f 44000000 		.4byte	.LFE262
 3259 0083 0400     		.2byte	0x4
 3260 0085 F3       		.byte	0xf3
 3261 0086 01       		.uleb128 0x1
 3262 0087 52       		.byte	0x52
 3263 0088 9F       		.byte	0x9f
 3264 0089 00000000 		.4byte	0
 3265 008d 00000000 		.4byte	0
 3266              	.LLST4:
 3267 0091 00000000 		.4byte	.LVL0
 3268 0095 0A000000 		.4byte	.LVL2
 3269 0099 0100     		.2byte	0x1
 3270 009b 51       		.byte	0x51
 3271 009c 0A000000 		.4byte	.LVL2
 3272 00a0 44000000 		.4byte	.LFE262
 3273 00a4 0400     		.2byte	0x4
 3274 00a6 F3       		.byte	0xf3
 3275 00a7 01       		.uleb128 0x1
 3276 00a8 51       		.byte	0x51
 3277 00a9 9F       		.byte	0x9f
 3278 00aa 00000000 		.4byte	0
 3279 00ae 00000000 		.4byte	0
 3280              	.LLST5:
 3281 00b2 00000000 		.4byte	.LVL0
 3282 00b6 34000000 		.4byte	.LVL12
 3283 00ba 0100     		.2byte	0x1
 3284 00bc 50       		.byte	0x50
 3285 00bd 34000000 		.4byte	.LVL12
 3286 00c1 38000000 		.4byte	.LVL13
 3287 00c5 0300     		.2byte	0x3
 3288 00c7 70       		.byte	0x70
 3289 00c8 7F       		.sleb128 -1
 3290 00c9 9F       		.byte	0x9f
 3291 00ca 38000000 		.4byte	.LVL13
 3292 00ce 3C000000 		.4byte	.LVL14
 3293 00d2 0100     		.2byte	0x1
 3294 00d4 50       		.byte	0x50
 3295 00d5 3C000000 		.4byte	.LVL14
 3296 00d9 44000000 		.4byte	.LFE262
 3297 00dd 0300     		.2byte	0x3
 3298 00df 70       		.byte	0x70
 3299 00e0 7F       		.sleb128 -1
 3300 00e1 9F       		.byte	0x9f
 3301 00e2 00000000 		.4byte	0
 3302 00e6 00000000 		.4byte	0
ARM GAS  /tmp/ccFKdsFU.s 			page 59


 3303              	.LLST6:
 3304 00ea 12000000 		.4byte	.LVL3
 3305 00ee 16000000 		.4byte	.LVL4
 3306 00f2 0100     		.2byte	0x1
 3307 00f4 51       		.byte	0x51
 3308 00f5 16000000 		.4byte	.LVL4
 3309 00f9 20000000 		.4byte	.LVL6
 3310 00fd 0100     		.2byte	0x1
 3311 00ff 53       		.byte	0x53
 3312 0100 2E000000 		.4byte	.LVL10
 3313 0104 34000000 		.4byte	.LVL12
 3314 0108 0600     		.2byte	0x6
 3315 010a 77       		.byte	0x77
 3316 010b 00       		.sleb128 0
 3317 010c 74       		.byte	0x74
 3318 010d 00       		.sleb128 0
 3319 010e 1C       		.byte	0x1c
 3320 010f 9F       		.byte	0x9f
 3321 0110 00000000 		.4byte	0
 3322 0114 00000000 		.4byte	0
 3323              	.LLST7:
 3324 0118 06000000 		.4byte	.LVL1
 3325 011c 0A000000 		.4byte	.LVL2
 3326 0120 0100     		.2byte	0x1
 3327 0122 57       		.byte	0x57
 3328 0123 0A000000 		.4byte	.LVL2
 3329 0127 1E000000 		.4byte	.LVL5
 3330 012b 0100     		.2byte	0x1
 3331 012d 54       		.byte	0x54
 3332 012e 1E000000 		.4byte	.LVL5
 3333 0132 24000000 		.4byte	.LVL7
 3334 0136 0300     		.2byte	0x3
 3335 0138 74       		.byte	0x74
 3336 0139 7F       		.sleb128 -1
 3337 013a 9F       		.byte	0x9f
 3338 013b 24000000 		.4byte	.LVL7
 3339 013f 34000000 		.4byte	.LVL12
 3340 0143 0100     		.2byte	0x1
 3341 0145 54       		.byte	0x54
 3342 0146 00000000 		.4byte	0
 3343 014a 00000000 		.4byte	0
 3344              	.LLST8:
 3345 014e 06000000 		.4byte	.LVL1
 3346 0152 12000000 		.4byte	.LVL3
 3347 0156 0100     		.2byte	0x1
 3348 0158 51       		.byte	0x51
 3349 0159 2A000000 		.4byte	.LVL9
 3350 015d 44000000 		.4byte	.LFE262
 3351 0161 0100     		.2byte	0x1
 3352 0163 51       		.byte	0x51
 3353 0164 00000000 		.4byte	0
 3354 0168 00000000 		.4byte	0
 3355              	.LLST9:
 3356 016c 06000000 		.4byte	.LVL1
 3357 0170 0A000000 		.4byte	.LVL2
 3358 0174 0100     		.2byte	0x1
 3359 0176 51       		.byte	0x51
ARM GAS  /tmp/ccFKdsFU.s 			page 60


 3360 0177 0A000000 		.4byte	.LVL2
 3361 017b 28000000 		.4byte	.LVL8
 3362 017f 0100     		.2byte	0x1
 3363 0181 55       		.byte	0x55
 3364 0182 2A000000 		.4byte	.LVL9
 3365 0186 42000000 		.4byte	.LVL15
 3366 018a 0100     		.2byte	0x1
 3367 018c 55       		.byte	0x55
 3368 018d 00000000 		.4byte	0
 3369 0191 00000000 		.4byte	0
 3370              	.LLST10:
 3371 0195 00000000 		.4byte	.LVL16
 3372 0199 1C000000 		.4byte	.LVL19
 3373 019d 0100     		.2byte	0x1
 3374 019f 50       		.byte	0x50
 3375 01a0 1C000000 		.4byte	.LVL19
 3376 01a4 08030000 		.4byte	.LFE263
 3377 01a8 0100     		.2byte	0x1
 3378 01aa 5B       		.byte	0x5b
 3379 01ab 00000000 		.4byte	0
 3380 01af 00000000 		.4byte	0
 3381              	.LLST11:
 3382 01b3 00000000 		.4byte	.LVL16
 3383 01b7 1C000000 		.4byte	.LVL19
 3384 01bb 0100     		.2byte	0x1
 3385 01bd 51       		.byte	0x51
 3386 01be 1C000000 		.4byte	.LVL19
 3387 01c2 20000000 		.4byte	.LVL20
 3388 01c6 0100     		.2byte	0x1
 3389 01c8 55       		.byte	0x55
 3390 01c9 20000000 		.4byte	.LVL20
 3391 01cd 31000000 		.4byte	.LVL21-1
 3392 01d1 0100     		.2byte	0x1
 3393 01d3 52       		.byte	0x52
 3394 01d4 31000000 		.4byte	.LVL21-1
 3395 01d8 3A000000 		.4byte	.LVL23
 3396 01dc 0100     		.2byte	0x1
 3397 01de 55       		.byte	0x55
 3398 01df 3A000000 		.4byte	.LVL23
 3399 01e3 58000000 		.4byte	.LVL27
 3400 01e7 0100     		.2byte	0x1
 3401 01e9 52       		.byte	0x52
 3402 01ea 58000000 		.4byte	.LVL27
 3403 01ee 60000000 		.4byte	.LVL28
 3404 01f2 0300     		.2byte	0x3
 3405 01f4 72       		.byte	0x72
 3406 01f5 01       		.sleb128 1
 3407 01f6 9F       		.byte	0x9f
 3408 01f7 68000000 		.4byte	.LVL29
 3409 01fb 6E000000 		.4byte	.LVL30
 3410 01ff 0100     		.2byte	0x1
 3411 0201 52       		.byte	0x52
 3412 0202 6E000000 		.4byte	.LVL30
 3413 0206 7A000000 		.4byte	.LVL34
 3414 020a 0100     		.2byte	0x1
 3415 020c 50       		.byte	0x50
 3416 020d 7A000000 		.4byte	.LVL34
ARM GAS  /tmp/ccFKdsFU.s 			page 61


 3417 0211 84000000 		.4byte	.LVL35
 3418 0215 0300     		.2byte	0x3
 3419 0217 70       		.byte	0x70
 3420 0218 7F       		.sleb128 -1
 3421 0219 9F       		.byte	0x9f
 3422 021a 84000000 		.4byte	.LVL35
 3423 021e 94000000 		.4byte	.LVL37
 3424 0222 0100     		.2byte	0x1
 3425 0224 50       		.byte	0x50
 3426 0225 94000000 		.4byte	.LVL37
 3427 0229 16010000 		.4byte	.LVL39
 3428 022d 0100     		.2byte	0x1
 3429 022f 55       		.byte	0x55
 3430 0230 16010000 		.4byte	.LVL39
 3431 0234 1E010000 		.4byte	.LVL42
 3432 0238 0300     		.2byte	0x3
 3433 023a 75       		.byte	0x75
 3434 023b 7F       		.sleb128 -1
 3435 023c 9F       		.byte	0x9f
 3436 023d 1E010000 		.4byte	.LVL42
 3437 0241 22010000 		.4byte	.LVL43
 3438 0245 0100     		.2byte	0x1
 3439 0247 55       		.byte	0x55
 3440 0248 22010000 		.4byte	.LVL43
 3441 024c 34010000 		.4byte	.LVL44
 3442 0250 0300     		.2byte	0x3
 3443 0252 75       		.byte	0x75
 3444 0253 7F       		.sleb128 -1
 3445 0254 9F       		.byte	0x9f
 3446 0255 34010000 		.4byte	.LVL44
 3447 0259 08030000 		.4byte	.LFE263
 3448 025d 0100     		.2byte	0x1
 3449 025f 55       		.byte	0x55
 3450 0260 00000000 		.4byte	0
 3451 0264 00000000 		.4byte	0
 3452              	.LLST12:
 3453 0268 00000000 		.4byte	.LVL16
 3454 026c 0E000000 		.4byte	.LVL18
 3455 0270 0100     		.2byte	0x1
 3456 0272 52       		.byte	0x52
 3457 0273 00000000 		.4byte	0
 3458 0277 00000000 		.4byte	0
 3459              	.LLST13:
 3460 027b 46000000 		.4byte	.LVL24
 3461 027f 90010000 		.4byte	.LVL49
 3462 0283 0300     		.2byte	0x3
 3463 0285 91       		.byte	0x91
 3464 0286 4C       		.sleb128 -52
 3465 0287 9F       		.byte	0x9f
 3466 0288 90010000 		.4byte	.LVL49
 3467 028c 95010000 		.4byte	.LVL51-1
 3468 0290 0100     		.2byte	0x1
 3469 0292 50       		.byte	0x50
 3470 0293 96010000 		.4byte	.LVL51
 3471 0297 9A010000 		.4byte	.LVL53
 3472 029b 0100     		.2byte	0x1
 3473 029d 50       		.byte	0x50
ARM GAS  /tmp/ccFKdsFU.s 			page 62


 3474 029e 1E020000 		.4byte	.LVL73
 3475 02a2 34020000 		.4byte	.LVL76
 3476 02a6 0300     		.2byte	0x3
 3477 02a8 91       		.byte	0x91
 3478 02a9 4C       		.sleb128 -52
 3479 02aa 9F       		.byte	0x9f
 3480 02ab 34020000 		.4byte	.LVL76
 3481 02af 3E020000 		.4byte	.LVL78
 3482 02b3 0100     		.2byte	0x1
 3483 02b5 54       		.byte	0x54
 3484 02b6 3E020000 		.4byte	.LVL78
 3485 02ba 42020000 		.4byte	.LVL79
 3486 02be 0300     		.2byte	0x3
 3487 02c0 72       		.byte	0x72
 3488 02c1 7F       		.sleb128 -1
 3489 02c2 9F       		.byte	0x9f
 3490 02c3 42020000 		.4byte	.LVL79
 3491 02c7 46020000 		.4byte	.LVL80
 3492 02cb 0100     		.2byte	0x1
 3493 02cd 52       		.byte	0x52
 3494 02ce 46020000 		.4byte	.LVL80
 3495 02d2 58020000 		.4byte	.LVL84
 3496 02d6 0300     		.2byte	0x3
 3497 02d8 72       		.byte	0x72
 3498 02d9 7F       		.sleb128 -1
 3499 02da 9F       		.byte	0x9f
 3500 02db 6A020000 		.4byte	.LVL86
 3501 02df 82020000 		.4byte	.LVL89
 3502 02e3 0300     		.2byte	0x3
 3503 02e5 91       		.byte	0x91
 3504 02e6 4D       		.sleb128 -51
 3505 02e7 9F       		.byte	0x9f
 3506 02e8 82020000 		.4byte	.LVL89
 3507 02ec 92020000 		.4byte	.LVL92
 3508 02f0 0300     		.2byte	0x3
 3509 02f2 91       		.byte	0x91
 3510 02f3 4C       		.sleb128 -52
 3511 02f4 9F       		.byte	0x9f
 3512 02f5 92020000 		.4byte	.LVL92
 3513 02f9 96020000 		.4byte	.LVL93
 3514 02fd 0100     		.2byte	0x1
 3515 02ff 50       		.byte	0x50
 3516 0300 96020000 		.4byte	.LVL93
 3517 0304 98020000 		.4byte	.LVL94
 3518 0308 0300     		.2byte	0x3
 3519 030a 91       		.byte	0x91
 3520 030b 4C       		.sleb128 -52
 3521 030c 9F       		.byte	0x9f
 3522 030d 98020000 		.4byte	.LVL94
 3523 0311 A8020000 		.4byte	.LVL97
 3524 0315 0300     		.2byte	0x3
 3525 0317 91       		.byte	0x91
 3526 0318 4D       		.sleb128 -51
 3527 0319 9F       		.byte	0x9f
 3528 031a D2020000 		.4byte	.LVL102
 3529 031e DA020000 		.4byte	.LVL103
 3530 0322 0100     		.2byte	0x1
ARM GAS  /tmp/ccFKdsFU.s 			page 63


 3531 0324 54       		.byte	0x54
 3532 0325 F0020000 		.4byte	.LVL105
 3533 0329 FC020000 		.4byte	.LVL107
 3534 032d 0300     		.2byte	0x3
 3535 032f 91       		.byte	0x91
 3536 0330 4D       		.sleb128 -51
 3537 0331 9F       		.byte	0x9f
 3538 0332 FC020000 		.4byte	.LVL107
 3539 0336 FE020000 		.4byte	.LVL108
 3540 033a 0100     		.2byte	0x1
 3541 033c 50       		.byte	0x50
 3542 033d 00000000 		.4byte	0
 3543 0341 00000000 		.4byte	0
 3544              	.LLST14:
 3545 0345 46000000 		.4byte	.LVL24
 3546 0349 90010000 		.4byte	.LVL49
 3547 034d 0300     		.2byte	0x3
 3548 034f 91       		.byte	0x91
 3549 0350 4C       		.sleb128 -52
 3550 0351 9F       		.byte	0x9f
 3551 0352 90010000 		.4byte	.LVL49
 3552 0356 92010000 		.4byte	.LVL50
 3553 035a 0100     		.2byte	0x1
 3554 035c 50       		.byte	0x50
 3555 035d 92010000 		.4byte	.LVL50
 3556 0361 98010000 		.4byte	.LVL52
 3557 0365 0300     		.2byte	0x3
 3558 0367 91       		.byte	0x91
 3559 0368 4C       		.sleb128 -52
 3560 0369 9F       		.byte	0x9f
 3561 036a 98010000 		.4byte	.LVL52
 3562 036e 9C010000 		.4byte	.LVL54
 3563 0372 0100     		.2byte	0x1
 3564 0374 53       		.byte	0x53
 3565 0375 9C010000 		.4byte	.LVL54
 3566 0379 A0010000 		.4byte	.LVL55
 3567 037d 0300     		.2byte	0x3
 3568 037f 91       		.byte	0x91
 3569 0380 4C       		.sleb128 -52
 3570 0381 9F       		.byte	0x9f
 3571 0382 A0010000 		.4byte	.LVL55
 3572 0386 BE010000 		.4byte	.LVL60
 3573 038a 0100     		.2byte	0x1
 3574 038c 54       		.byte	0x54
 3575 038d D6010000 		.4byte	.LVL63
 3576 0391 E6010000 		.4byte	.LVL66
 3577 0395 0100     		.2byte	0x1
 3578 0397 54       		.byte	0x54
 3579 0398 E6010000 		.4byte	.LVL66
 3580 039c F0010000 		.4byte	.LVL68
 3581 03a0 0300     		.2byte	0x3
 3582 03a2 74       		.byte	0x74
 3583 03a3 7F       		.sleb128 -1
 3584 03a4 9F       		.byte	0x9f
 3585 03a5 F0010000 		.4byte	.LVL68
 3586 03a9 0A020000 		.4byte	.LVL70
 3587 03ad 0100     		.2byte	0x1
ARM GAS  /tmp/ccFKdsFU.s 			page 64


 3588 03af 54       		.byte	0x54
 3589 03b0 1E020000 		.4byte	.LVL73
 3590 03b4 2E020000 		.4byte	.LVL75
 3591 03b8 0300     		.2byte	0x3
 3592 03ba 91       		.byte	0x91
 3593 03bb 4C       		.sleb128 -52
 3594 03bc 9F       		.byte	0x9f
 3595 03bd 2E020000 		.4byte	.LVL75
 3596 03c1 6A020000 		.4byte	.LVL86
 3597 03c5 0100     		.2byte	0x1
 3598 03c7 54       		.byte	0x54
 3599 03c8 6A020000 		.4byte	.LVL86
 3600 03cc 80020000 		.4byte	.LVL88
 3601 03d0 0300     		.2byte	0x3
 3602 03d2 91       		.byte	0x91
 3603 03d3 4C       		.sleb128 -52
 3604 03d4 9F       		.byte	0x9f
 3605 03d5 80020000 		.4byte	.LVL88
 3606 03d9 82020000 		.4byte	.LVL89
 3607 03dd 0100     		.2byte	0x1
 3608 03df 54       		.byte	0x54
 3609 03e0 82020000 		.4byte	.LVL89
 3610 03e4 A6020000 		.4byte	.LVL96
 3611 03e8 0300     		.2byte	0x3
 3612 03ea 91       		.byte	0x91
 3613 03eb 4C       		.sleb128 -52
 3614 03ec 9F       		.byte	0x9f
 3615 03ed A6020000 		.4byte	.LVL96
 3616 03f1 F0020000 		.4byte	.LVL105
 3617 03f5 0100     		.2byte	0x1
 3618 03f7 54       		.byte	0x54
 3619 03f8 F0020000 		.4byte	.LVL105
 3620 03fc FE020000 		.4byte	.LVL108
 3621 0400 0300     		.2byte	0x3
 3622 0402 91       		.byte	0x91
 3623 0403 4C       		.sleb128 -52
 3624 0404 9F       		.byte	0x9f
 3625 0405 FE020000 		.4byte	.LVL108
 3626 0409 08030000 		.4byte	.LFE263
 3627 040d 0100     		.2byte	0x1
 3628 040f 54       		.byte	0x54
 3629 0410 00000000 		.4byte	0
 3630 0414 00000000 		.4byte	0
 3631              	.LLST15:
 3632 0418 20000000 		.4byte	.LVL20
 3633 041c 31000000 		.4byte	.LVL21-1
 3634 0420 0100     		.2byte	0x1
 3635 0422 51       		.byte	0x51
 3636 0423 3A000000 		.4byte	.LVL23
 3637 0427 48000000 		.4byte	.LVL25
 3638 042b 0100     		.2byte	0x1
 3639 042d 51       		.byte	0x51
 3640 042e 6E000000 		.4byte	.LVL30
 3641 0432 70000000 		.4byte	.LVL31
 3642 0436 0200     		.2byte	0x2
 3643 0438 70       		.byte	0x70
 3644 0439 7F       		.sleb128 -1
ARM GAS  /tmp/ccFKdsFU.s 			page 65


 3645 043a 70000000 		.4byte	.LVL31
 3646 043e 7A000000 		.4byte	.LVL34
 3647 0442 0100     		.2byte	0x1
 3648 0444 53       		.byte	0x53
 3649 0445 84000000 		.4byte	.LVL35
 3650 0449 94000000 		.4byte	.LVL37
 3651 044d 0200     		.2byte	0x2
 3652 044f 70       		.byte	0x70
 3653 0450 7F       		.sleb128 -1
 3654 0451 94000000 		.4byte	.LVL37
 3655 0455 96000000 		.4byte	.LVL38
 3656 0459 0200     		.2byte	0x2
 3657 045b 75       		.byte	0x75
 3658 045c 7F       		.sleb128 -1
 3659 045d 96000000 		.4byte	.LVL38
 3660 0461 18010000 		.4byte	.LVL40
 3661 0465 0100     		.2byte	0x1
 3662 0467 51       		.byte	0x51
 3663 0468 18010000 		.4byte	.LVL40
 3664 046c 1E010000 		.4byte	.LVL42
 3665 0470 0100     		.2byte	0x1
 3666 0472 53       		.byte	0x53
 3667 0473 22010000 		.4byte	.LVL43
 3668 0477 4A010000 		.4byte	.LVL46
 3669 047b 0100     		.2byte	0x1
 3670 047d 51       		.byte	0x51
 3671 047e 4A010000 		.4byte	.LVL46
 3672 0482 89010000 		.4byte	.LVL47
 3673 0486 0100     		.2byte	0x1
 3674 0488 54       		.byte	0x54
 3675 0489 1E020000 		.4byte	.LVL73
 3676 048d 22020000 		.4byte	.LVL74
 3677 0491 0200     		.2byte	0x2
 3678 0493 3A       		.byte	0x3a
 3679 0494 9F       		.byte	0x9f
 3680 0495 82020000 		.4byte	.LVL89
 3681 0499 86020000 		.4byte	.LVL90
 3682 049d 0200     		.2byte	0x2
 3683 049f 38       		.byte	0x38
 3684 04a0 9F       		.byte	0x9f
 3685 04a1 96020000 		.4byte	.LVL93
 3686 04a5 98020000 		.4byte	.LVL94
 3687 04a9 0100     		.2byte	0x1
 3688 04ab 54       		.byte	0x54
 3689 04ac 00000000 		.4byte	0
 3690 04b0 00000000 		.4byte	0
 3691              	.LLST16:
 3692 04b4 58000000 		.4byte	.LVL27
 3693 04b8 68000000 		.4byte	.LVL29
 3694 04bc 0300     		.2byte	0x3
 3695 04be 08       		.byte	0x8
 3696 04bf 30       		.byte	0x30
 3697 04c0 9F       		.byte	0x9f
 3698 04c1 68000000 		.4byte	.LVL29
 3699 04c5 AC010000 		.4byte	.LVL58
 3700 04c9 0100     		.2byte	0x1
 3701 04cb 58       		.byte	0x58
ARM GAS  /tmp/ccFKdsFU.s 			page 66


 3702 04cc 1E020000 		.4byte	.LVL73
 3703 04d0 22020000 		.4byte	.LVL74
 3704 04d4 0100     		.2byte	0x1
 3705 04d6 58       		.byte	0x58
 3706 04d7 22020000 		.4byte	.LVL74
 3707 04db 58020000 		.4byte	.LVL84
 3708 04df 0300     		.2byte	0x3
 3709 04e1 08       		.byte	0x8
 3710 04e2 20       		.byte	0x20
 3711 04e3 9F       		.byte	0x9f
 3712 04e4 58020000 		.4byte	.LVL84
 3713 04e8 6A020000 		.4byte	.LVL86
 3714 04ec 0100     		.2byte	0x1
 3715 04ee 58       		.byte	0x58
 3716 04ef 6A020000 		.4byte	.LVL86
 3717 04f3 82020000 		.4byte	.LVL89
 3718 04f7 0300     		.2byte	0x3
 3719 04f9 08       		.byte	0x8
 3720 04fa 20       		.byte	0x20
 3721 04fb 9F       		.byte	0x9f
 3722 04fc 82020000 		.4byte	.LVL89
 3723 0500 A8020000 		.4byte	.LVL97
 3724 0504 0100     		.2byte	0x1
 3725 0506 58       		.byte	0x58
 3726 0507 D2020000 		.4byte	.LVL102
 3727 050b F0020000 		.4byte	.LVL105
 3728 050f 0300     		.2byte	0x3
 3729 0511 08       		.byte	0x8
 3730 0512 20       		.byte	0x20
 3731 0513 9F       		.byte	0x9f
 3732 0514 F0020000 		.4byte	.LVL105
 3733 0518 FE020000 		.4byte	.LVL108
 3734 051c 0100     		.2byte	0x1
 3735 051e 58       		.byte	0x58
 3736 051f FE020000 		.4byte	.LVL108
 3737 0523 08030000 		.4byte	.LFE263
 3738 0527 0300     		.2byte	0x3
 3739 0529 08       		.byte	0x8
 3740 052a 20       		.byte	0x20
 3741 052b 9F       		.byte	0x9f
 3742 052c 00000000 		.4byte	0
 3743 0530 00000000 		.4byte	0
 3744              	.LLST17:
 3745 0534 DE010000 		.4byte	.LVL65
 3746 0538 EC010000 		.4byte	.LVL67
 3747 053c 0100     		.2byte	0x1
 3748 053e 5A       		.byte	0x5a
 3749 053f EC010000 		.4byte	.LVL67
 3750 0543 F0010000 		.4byte	.LVL68
 3751 0547 0300     		.2byte	0x3
 3752 0549 7A       		.byte	0x7a
 3753 054a 01       		.sleb128 1
 3754 054b 9F       		.byte	0x9f
 3755 054c F0010000 		.4byte	.LVL68
 3756 0550 02020000 		.4byte	.LVL69
 3757 0554 0100     		.2byte	0x1
 3758 0556 5A       		.byte	0x5a
ARM GAS  /tmp/ccFKdsFU.s 			page 67


 3759 0557 00000000 		.4byte	0
 3760 055b 00000000 		.4byte	0
 3761              	.LLST18:
 3762 055f 8E000000 		.4byte	.LVL36
 3763 0563 96000000 		.4byte	.LVL38
 3764 0567 0200     		.2byte	0x2
 3765 0569 30       		.byte	0x30
 3766 056a 9F       		.byte	0x9f
 3767 056b 96000000 		.4byte	.LVL38
 3768 056f 1A010000 		.4byte	.LVL41
 3769 0573 0100     		.2byte	0x1
 3770 0575 50       		.byte	0x50
 3771 0576 1A010000 		.4byte	.LVL41
 3772 057a 1E010000 		.4byte	.LVL42
 3773 057e 0500     		.2byte	0x5
 3774 0580 72       		.byte	0x72
 3775 0581 00       		.sleb128 0
 3776 0582 31       		.byte	0x31
 3777 0583 24       		.byte	0x24
 3778 0584 9F       		.byte	0x9f
 3779 0585 1E010000 		.4byte	.LVL42
 3780 0589 90010000 		.4byte	.LVL49
 3781 058d 0100     		.2byte	0x1
 3782 058f 50       		.byte	0x50
 3783 0590 1E020000 		.4byte	.LVL73
 3784 0594 4E020000 		.4byte	.LVL82
 3785 0598 0100     		.2byte	0x1
 3786 059a 50       		.byte	0x50
 3787 059b 6A020000 		.4byte	.LVL86
 3788 059f 74020000 		.4byte	.LVL87
 3789 05a3 0100     		.2byte	0x1
 3790 05a5 50       		.byte	0x50
 3791 05a6 82020000 		.4byte	.LVL89
 3792 05aa 92020000 		.4byte	.LVL92
 3793 05ae 0100     		.2byte	0x1
 3794 05b0 50       		.byte	0x50
 3795 05b1 96020000 		.4byte	.LVL93
 3796 05b5 A0020000 		.4byte	.LVL95
 3797 05b9 0100     		.2byte	0x1
 3798 05bb 50       		.byte	0x50
 3799 05bc D2020000 		.4byte	.LVL102
 3800 05c0 DA020000 		.4byte	.LVL103
 3801 05c4 0400     		.2byte	0x4
 3802 05c6 0A       		.byte	0xa
 3803 05c7 FF7F     		.2byte	0x7fff
 3804 05c9 9F       		.byte	0x9f
 3805 05ca F0020000 		.4byte	.LVL105
 3806 05ce FC020000 		.4byte	.LVL107
 3807 05d2 0100     		.2byte	0x1
 3808 05d4 50       		.byte	0x50
 3809 05d5 00000000 		.4byte	0
 3810 05d9 00000000 		.4byte	0
 3811              	.LLST19:
 3812 05dd 68000000 		.4byte	.LVL29
 3813 05e1 6E000000 		.4byte	.LVL30
 3814 05e5 0200     		.2byte	0x2
 3815 05e7 30       		.byte	0x30
ARM GAS  /tmp/ccFKdsFU.s 			page 68


 3816 05e8 9F       		.byte	0x9f
 3817 05e9 6E000000 		.4byte	.LVL30
 3818 05ed B0010000 		.4byte	.LVL59
 3819 05f1 0100     		.2byte	0x1
 3820 05f3 57       		.byte	0x57
 3821 05f4 B0010000 		.4byte	.LVL59
 3822 05f8 BE010000 		.4byte	.LVL60
 3823 05fc 0100     		.2byte	0x1
 3824 05fe 5A       		.byte	0x5a
 3825 05ff BE010000 		.4byte	.LVL60
 3826 0603 CA010000 		.4byte	.LVL61
 3827 0607 0100     		.2byte	0x1
 3828 0609 57       		.byte	0x57
 3829 060a CA010000 		.4byte	.LVL61
 3830 060e CC010000 		.4byte	.LVL62
 3831 0612 0300     		.2byte	0x3
 3832 0614 77       		.byte	0x77
 3833 0615 01       		.sleb128 1
 3834 0616 9F       		.byte	0x9f
 3835 0617 CC010000 		.4byte	.LVL62
 3836 061b D6010000 		.4byte	.LVL63
 3837 061f 0100     		.2byte	0x1
 3838 0621 57       		.byte	0x57
 3839 0622 D6010000 		.4byte	.LVL63
 3840 0626 DA010000 		.4byte	.LVL64
 3841 062a 0200     		.2byte	0x2
 3842 062c 30       		.byte	0x30
 3843 062d 9F       		.byte	0x9f
 3844 062e 02020000 		.4byte	.LVL69
 3845 0632 0A020000 		.4byte	.LVL70
 3846 0636 0100     		.2byte	0x1
 3847 0638 57       		.byte	0x57
 3848 0639 0A020000 		.4byte	.LVL70
 3849 063d 16020000 		.4byte	.LVL71
 3850 0641 0100     		.2byte	0x1
 3851 0643 54       		.byte	0x54
 3852 0644 16020000 		.4byte	.LVL71
 3853 0648 18020000 		.4byte	.LVL72
 3854 064c 0300     		.2byte	0x3
 3855 064e 74       		.byte	0x74
 3856 064f 7F       		.sleb128 -1
 3857 0650 9F       		.byte	0x9f
 3858 0651 18020000 		.4byte	.LVL72
 3859 0655 1E020000 		.4byte	.LVL73
 3860 0659 0100     		.2byte	0x1
 3861 065b 54       		.byte	0x54
 3862 065c 1E020000 		.4byte	.LVL73
 3863 0660 52020000 		.4byte	.LVL83
 3864 0664 0100     		.2byte	0x1
 3865 0666 57       		.byte	0x57
 3866 0667 58020000 		.4byte	.LVL84
 3867 066b A8020000 		.4byte	.LVL97
 3868 066f 0100     		.2byte	0x1
 3869 0671 57       		.byte	0x57
 3870 0672 A8020000 		.4byte	.LVL97
 3871 0676 B4020000 		.4byte	.LVL98
 3872 067a 0200     		.2byte	0x2
ARM GAS  /tmp/ccFKdsFU.s 			page 69


 3873 067c 30       		.byte	0x30
 3874 067d 9F       		.byte	0x9f
 3875 067e B4020000 		.4byte	.LVL98
 3876 0682 D2020000 		.4byte	.LVL102
 3877 0686 0100     		.2byte	0x1
 3878 0688 5A       		.byte	0x5a
 3879 0689 D2020000 		.4byte	.LVL102
 3880 068d 08030000 		.4byte	.LFE263
 3881 0691 0100     		.2byte	0x1
 3882 0693 57       		.byte	0x57
 3883 0694 00000000 		.4byte	0
 3884 0698 00000000 		.4byte	0
 3885              	.LLST20:
 3886 069c 08000000 		.4byte	.LVL17
 3887 06a0 1C000000 		.4byte	.LVL19
 3888 06a4 0200     		.2byte	0x2
 3889 06a6 30       		.byte	0x30
 3890 06a7 9F       		.byte	0x9f
 3891 06a8 1C000000 		.4byte	.LVL19
 3892 06ac BE010000 		.4byte	.LVL60
 3893 06b0 0100     		.2byte	0x1
 3894 06b2 59       		.byte	0x59
 3895 06b3 D6010000 		.4byte	.LVL63
 3896 06b7 DE010000 		.4byte	.LVL65
 3897 06bb 0100     		.2byte	0x1
 3898 06bd 59       		.byte	0x59
 3899 06be 02020000 		.4byte	.LVL69
 3900 06c2 0A020000 		.4byte	.LVL70
 3901 06c6 0100     		.2byte	0x1
 3902 06c8 59       		.byte	0x59
 3903 06c9 1E020000 		.4byte	.LVL73
 3904 06cd 08030000 		.4byte	.LFE263
 3905 06d1 0100     		.2byte	0x1
 3906 06d3 59       		.byte	0x59
 3907 06d4 00000000 		.4byte	0
 3908 06d8 00000000 		.4byte	0
 3909              	.LLST21:
 3910 06dc 3C010000 		.4byte	.LVL45
 3911 06e0 89010000 		.4byte	.LVL47
 3912 06e4 0200     		.2byte	0x2
 3913 06e6 31       		.byte	0x31
 3914 06e7 9F       		.byte	0x9f
 3915 06e8 96020000 		.4byte	.LVL93
 3916 06ec 98020000 		.4byte	.LVL94
 3917 06f0 0200     		.2byte	0x2
 3918 06f2 31       		.byte	0x31
 3919 06f3 9F       		.byte	0x9f
 3920 06f4 00000000 		.4byte	0
 3921 06f8 00000000 		.4byte	0
 3922              	.LLST22:
 3923 06fc 46000000 		.4byte	.LVL24
 3924 0700 50000000 		.4byte	.LVL26
 3925 0704 0200     		.2byte	0x2
 3926 0706 30       		.byte	0x30
 3927 0707 9F       		.byte	0x9f
 3928 0708 50000000 		.4byte	.LVL26
 3929 070c 58000000 		.4byte	.LVL27
ARM GAS  /tmp/ccFKdsFU.s 			page 70


 3930 0710 0200     		.2byte	0x2
 3931 0712 31       		.byte	0x31
 3932 0713 9F       		.byte	0x9f
 3933 0714 58000000 		.4byte	.LVL27
 3934 0718 B0010000 		.4byte	.LVL59
 3935 071c 0100     		.2byte	0x1
 3936 071e 5A       		.byte	0x5a
 3937 071f 1E020000 		.4byte	.LVL73
 3938 0723 A8020000 		.4byte	.LVL97
 3939 0727 0100     		.2byte	0x1
 3940 0729 5A       		.byte	0x5a
 3941 072a D2020000 		.4byte	.LVL102
 3942 072e 08030000 		.4byte	.LFE263
 3943 0732 0100     		.2byte	0x1
 3944 0734 5A       		.byte	0x5a
 3945 0735 00000000 		.4byte	0
 3946 0739 00000000 		.4byte	0
 3947              	.LLST23:
 3948 073d 8E010000 		.4byte	.LVL48
 3949 0741 95010000 		.4byte	.LVL51-1
 3950 0745 0100     		.2byte	0x1
 3951 0747 51       		.byte	0x51
 3952 0748 88020000 		.4byte	.LVL91
 3953 074c 96020000 		.4byte	.LVL93
 3954 0750 0100     		.2byte	0x1
 3955 0752 51       		.byte	0x51
 3956 0753 F0020000 		.4byte	.LVL105
 3957 0757 FE020000 		.4byte	.LVL108
 3958 075b 0100     		.2byte	0x1
 3959 075d 51       		.byte	0x51
 3960 075e 00000000 		.4byte	0
 3961 0762 00000000 		.4byte	0
 3962              	.LLST24:
 3963 0766 00000000 		.4byte	.LVL109
 3964 076a 10000000 		.4byte	.LVL112
 3965 076e 0100     		.2byte	0x1
 3966 0770 50       		.byte	0x50
 3967 0771 10000000 		.4byte	.LVL112
 3968 0775 36000000 		.4byte	.LVL117
 3969 0779 0100     		.2byte	0x1
 3970 077b 55       		.byte	0x55
 3971 077c 36000000 		.4byte	.LVL117
 3972 0780 3A000000 		.4byte	.LVL118
 3973 0784 0400     		.2byte	0x4
 3974 0786 F3       		.byte	0xf3
 3975 0787 01       		.uleb128 0x1
 3976 0788 50       		.byte	0x50
 3977 0789 9F       		.byte	0x9f
 3978 078a 3A000000 		.4byte	.LVL118
 3979 078e 40000000 		.4byte	.LVL120
 3980 0792 0100     		.2byte	0x1
 3981 0794 50       		.byte	0x50
 3982 0795 40000000 		.4byte	.LVL120
 3983 0799 5A000000 		.4byte	.LVL124
 3984 079d 0100     		.2byte	0x1
 3985 079f 55       		.byte	0x55
 3986 07a0 5A000000 		.4byte	.LVL124
ARM GAS  /tmp/ccFKdsFU.s 			page 71


 3987 07a4 5E000000 		.4byte	.LFE264
 3988 07a8 0400     		.2byte	0x4
 3989 07aa F3       		.byte	0xf3
 3990 07ab 01       		.uleb128 0x1
 3991 07ac 50       		.byte	0x50
 3992 07ad 9F       		.byte	0x9f
 3993 07ae 00000000 		.4byte	0
 3994 07b2 00000000 		.4byte	0
 3995              	.LLST25:
 3996 07b6 00000000 		.4byte	.LVL109
 3997 07ba 14000000 		.4byte	.LVL113
 3998 07be 0100     		.2byte	0x1
 3999 07c0 51       		.byte	0x51
 4000 07c1 14000000 		.4byte	.LVL113
 4001 07c5 36000000 		.4byte	.LVL117
 4002 07c9 0100     		.2byte	0x1
 4003 07cb 54       		.byte	0x54
 4004 07cc 36000000 		.4byte	.LVL117
 4005 07d0 3A000000 		.4byte	.LVL118
 4006 07d4 0400     		.2byte	0x4
 4007 07d6 F3       		.byte	0xf3
 4008 07d7 01       		.uleb128 0x1
 4009 07d8 51       		.byte	0x51
 4010 07d9 9F       		.byte	0x9f
 4011 07da 3A000000 		.4byte	.LVL118
 4012 07de 3C000000 		.4byte	.LVL119
 4013 07e2 0100     		.2byte	0x1
 4014 07e4 51       		.byte	0x51
 4015 07e5 3C000000 		.4byte	.LVL119
 4016 07e9 5A000000 		.4byte	.LVL124
 4017 07ed 0100     		.2byte	0x1
 4018 07ef 54       		.byte	0x54
 4019 07f0 5A000000 		.4byte	.LVL124
 4020 07f4 5E000000 		.4byte	.LFE264
 4021 07f8 0400     		.2byte	0x4
 4022 07fa F3       		.byte	0xf3
 4023 07fb 01       		.uleb128 0x1
 4024 07fc 51       		.byte	0x51
 4025 07fd 9F       		.byte	0x9f
 4026 07fe 00000000 		.4byte	0
 4027 0802 00000000 		.4byte	0
 4028              	.LLST26:
 4029 0806 18000000 		.4byte	.LVL114
 4030 080a 1E000000 		.4byte	.LVL115
 4031 080e 0300     		.2byte	0x3
 4032 0810 91       		.byte	0x91
 4033 0811 44       		.sleb128 -60
 4034 0812 9F       		.byte	0x9f
 4035 0813 1E000000 		.4byte	.LVL115
 4036 0817 25000000 		.4byte	.LVL116-1
 4037 081b 0100     		.2byte	0x1
 4038 081d 50       		.byte	0x50
 4039 081e 25000000 		.4byte	.LVL116-1
 4040 0822 3A000000 		.4byte	.LVL118
 4041 0826 0300     		.2byte	0x3
 4042 0828 91       		.byte	0x91
 4043 0829 44       		.sleb128 -60
ARM GAS  /tmp/ccFKdsFU.s 			page 72


 4044 082a 9F       		.byte	0x9f
 4045 082b 46000000 		.4byte	.LVL121
 4046 082f 4A000000 		.4byte	.LVL122
 4047 0833 0300     		.2byte	0x3
 4048 0835 91       		.byte	0x91
 4049 0836 44       		.sleb128 -60
 4050 0837 9F       		.byte	0x9f
 4051 0838 4A000000 		.4byte	.LVL122
 4052 083c 53000000 		.4byte	.LVL123-1
 4053 0840 0100     		.2byte	0x1
 4054 0842 50       		.byte	0x50
 4055 0843 53000000 		.4byte	.LVL123-1
 4056 0847 5E000000 		.4byte	.LFE264
 4057 084b 0300     		.2byte	0x3
 4058 084d 91       		.byte	0x91
 4059 084e 44       		.sleb128 -60
 4060 084f 9F       		.byte	0x9f
 4061 0850 00000000 		.4byte	0
 4062 0854 00000000 		.4byte	0
 4063              	.LLST27:
 4064 0858 0C000000 		.4byte	.LVL110
 4065 085c 0E000000 		.4byte	.LVL111
 4066 0860 0300     		.2byte	0x3
 4067 0862 71       		.byte	0x71
 4068 0863 7F       		.sleb128 -1
 4069 0864 9F       		.byte	0x9f
 4070 0865 0E000000 		.4byte	.LVL111
 4071 0869 17000000 		.4byte	.LVL114-1
 4072 086d 0100     		.2byte	0x1
 4073 086f 52       		.byte	0x52
 4074 0870 17000000 		.4byte	.LVL114-1
 4075 0874 36000000 		.4byte	.LVL117
 4076 0878 0300     		.2byte	0x3
 4077 087a 74       		.byte	0x74
 4078 087b 7F       		.sleb128 -1
 4079 087c 9F       		.byte	0x9f
 4080 087d 36000000 		.4byte	.LVL117
 4081 0881 3A000000 		.4byte	.LVL118
 4082 0885 0600     		.2byte	0x6
 4083 0887 F3       		.byte	0xf3
 4084 0888 01       		.uleb128 0x1
 4085 0889 51       		.byte	0x51
 4086 088a 31       		.byte	0x31
 4087 088b 1C       		.byte	0x1c
 4088 088c 9F       		.byte	0x9f
 4089 088d 3A000000 		.4byte	.LVL118
 4090 0891 5E000000 		.4byte	.LFE264
 4091 0895 0200     		.2byte	0x2
 4092 0897 30       		.byte	0x30
 4093 0898 9F       		.byte	0x9f
 4094 0899 00000000 		.4byte	0
 4095 089d 00000000 		.4byte	0
 4096              	.LLST28:
 4097 08a1 26000000 		.4byte	.LVL116
 4098 08a5 3A000000 		.4byte	.LVL118
 4099 08a9 0100     		.2byte	0x1
 4100 08ab 50       		.byte	0x50
ARM GAS  /tmp/ccFKdsFU.s 			page 73


 4101 08ac 54000000 		.4byte	.LVL123
 4102 08b0 5E000000 		.4byte	.LFE264
 4103 08b4 0100     		.2byte	0x1
 4104 08b6 50       		.byte	0x50
 4105 08b7 00000000 		.4byte	0
 4106 08bb 00000000 		.4byte	0
 4107              		.section	.debug_aranges,"",%progbits
 4108 0000 2C000000 		.4byte	0x2c
 4109 0004 0200     		.2byte	0x2
 4110 0006 00000000 		.4byte	.Ldebug_info0
 4111 000a 04       		.byte	0x4
 4112 000b 00       		.byte	0
 4113 000c 0000     		.2byte	0
 4114 000e 0000     		.2byte	0
 4115 0010 00000000 		.4byte	.LFB262
 4116 0014 44000000 		.4byte	.LFE262-.LFB262
 4117 0018 00000000 		.4byte	.LFB263
 4118 001c 08030000 		.4byte	.LFE263-.LFB263
 4119 0020 00000000 		.4byte	.LFB264
 4120 0024 5E000000 		.4byte	.LFE264-.LFB264
 4121 0028 00000000 		.4byte	0
 4122 002c 00000000 		.4byte	0
 4123              		.section	.debug_ranges,"",%progbits
 4124              	.Ldebug_ranges0:
 4125 0000 00000000 		.4byte	.LFB262
 4126 0004 44000000 		.4byte	.LFE262
 4127 0008 00000000 		.4byte	.LFB263
 4128 000c 08030000 		.4byte	.LFE263
 4129 0010 00000000 		.4byte	.LFB264
 4130 0014 5E000000 		.4byte	.LFE264
 4131 0018 00000000 		.4byte	0
 4132 001c 00000000 		.4byte	0
 4133              		.section	.debug_line,"",%progbits
 4134              	.Ldebug_line0:
 4135 0000 1F030000 		.section	.debug_str,"MS",%progbits,1
 4135      0200E801 
 4135      00000201 
 4135      FB0E0D00 
 4135      01010101 
 4136              	.LASF22:
 4137 0000 74726566 		.ascii	"trefs_t\000"
 4137      735F7400 
 4138              	.LASF52:
 4139 0008 72656164 		.ascii	"ready_list_t\000"
 4139      795F6C69 
 4139      73745F74 
 4139      00
 4140              	.LASF130:
 4141 0015 2E2E2F2E 		.ascii	"../../os/hal/lib/streams/chprintf.c\000"
 4141      2E2F6F73 
 4141      2F68616C 
 4141      2F6C6962 
 4141      2F737472 
 4142              	.LASF4:
 4143 0039 73697A65 		.ascii	"size_t\000"
 4143      5F7400
 4144              	.LASF18:
ARM GAS  /tmp/ccFKdsFU.s 			page 74


 4145 0040 75696E74 		.ascii	"uint64_t\000"
 4145      36345F74 
 4145      00
 4146              	.LASF5:
 4147 0049 5F5F7569 		.ascii	"__uint8_t\000"
 4147      6E74385F 
 4147      7400
 4148              	.LASF84:
 4149 0053 706F7274 		.ascii	"port_intctx\000"
 4149      5F696E74 
 4149      63747800 
 4150              	.LASF111:
 4151 005f 76615F6C 		.ascii	"va_list\000"
 4151      69737400 
 4152              	.LASF71:
 4153 0067 73797374 		.ascii	"system_debug_t\000"
 4153      656D5F64 
 4153      65627567 
 4153      5F7400
 4154              	.LASF127:
 4155 0076 72657476 		.ascii	"retval\000"
 4155      616C00
 4156              	.LASF126:
 4157 007d 73697A65 		.ascii	"size_wo_nul\000"
 4157      5F776F5F 
 4157      6E756C00 
 4158              	.LASF14:
 4159 0089 6C6F6E67 		.ascii	"long long unsigned int\000"
 4159      206C6F6E 
 4159      6720756E 
 4159      7369676E 
 4159      65642069 
 4160              	.LASF88:
 4161 00a0 65786974 		.ascii	"exitcode\000"
 4161      636F6465 
 4161      00
 4162              	.LASF78:
 4163 00a9 6D61696E 		.ascii	"mainthread\000"
 4163      74687265 
 4163      616400
 4164              	.LASF68:
 4165 00b4 76697274 		.ascii	"virtual_timers_list_t\000"
 4165      75616C5F 
 4165      74696D65 
 4165      72735F6C 
 4165      6973745F 
 4166              	.LASF128:
 4167 00ca 49544D5F 		.ascii	"ITM_RxBuffer\000"
 4167      52784275 
 4167      66666572 
 4167      00
 4168              	.LASF51:
 4169 00d7 63685F74 		.ascii	"ch_threads_queue\000"
 4169      68726561 
 4169      64735F71 
 4169      75657565 
 4169      00
ARM GAS  /tmp/ccFKdsFU.s 			page 75


 4170              	.LASF31:
 4171 00e8 705F7072 		.ascii	"p_prio\000"
 4171      696F00
 4172              	.LASF1:
 4173 00ef 6C6F6E67 		.ascii	"long long int\000"
 4173      206C6F6E 
 4173      6720696E 
 4173      7400
 4174              	.LASF3:
 4175 00fd 7369676E 		.ascii	"signed char\000"
 4175      65642063 
 4175      68617200 
 4176              	.LASF12:
 4177 0109 6C6F6E67 		.ascii	"long unsigned int\000"
 4177      20756E73 
 4177      69676E65 
 4177      6420696E 
 4177      7400
 4178              	.LASF45:
 4179 011b 705F6D70 		.ascii	"p_mpool\000"
 4179      6F6F6C00 
 4180              	.LASF123:
 4181 0123 746D7062 		.ascii	"tmpbuf\000"
 4181      756600
 4182              	.LASF90:
 4183 012a 77747472 		.ascii	"wttrp\000"
 4183      7000
 4184              	.LASF75:
 4185 0130 63685F73 		.ascii	"ch_system\000"
 4185      79737465 
 4185      6D00
 4186              	.LASF10:
 4187 013a 6C6F6E67 		.ascii	"long int\000"
 4187      20696E74 
 4187      00
 4188              	.LASF21:
 4189 0143 74737461 		.ascii	"tstate_t\000"
 4189      74655F74 
 4189      00
 4190              	.LASF109:
 4191 014c 5F5F7661 		.ascii	"__va_list\000"
 4191      5F6C6973 
 4191      7400
 4192              	.LASF113:
 4193 0156 62756666 		.ascii	"buffer\000"
 4193      657200
 4194              	.LASF33:
 4195 015d 705F6E65 		.ascii	"p_newer\000"
 4195      77657200 
 4196              	.LASF95:
 4197 0165 735F7175 		.ascii	"s_queue\000"
 4197      65756500 
 4198              	.LASF57:
 4199 016d 725F6E65 		.ascii	"r_newer\000"
 4199      77657200 
 4200              	.LASF81:
 4201 0175 72656761 		.ascii	"regarm_t\000"
ARM GAS  /tmp/ccFKdsFU.s 			page 76


 4201      726D5F74 
 4201      00
 4202              	.LASF64:
 4203 017e 76745F70 		.ascii	"vt_prev\000"
 4203      72657600 
 4204              	.LASF77:
 4205 0186 76746C69 		.ascii	"vtlist\000"
 4205      737400
 4206              	.LASF118:
 4207 018d 66696C6C 		.ascii	"filler\000"
 4207      657200
 4208              	.LASF121:
 4209 0194 69735F6C 		.ascii	"is_long\000"
 4209      6F6E6700 
 4210              	.LASF102:
 4211 019c 6D757465 		.ascii	"mutex_t\000"
 4211      785F7400 
 4212              	.LASF131:
 4213 01a4 2F686F6D 		.ascii	"/home/sssilvar/Documents/embebidos/ChibiOS/iflab/pr"
 4213      652F7373 
 4213      73696C76 
 4213      61722F44 
 4213      6F63756D 
 4214 01d7 6F6A6563 		.ascii	"ojects/ADC\000"
 4214      74732F41 
 4214      444300
 4215              	.LASF106:
 4216 01e2 42617365 		.ascii	"BaseSequentialStream\000"
 4216      53657175 
 4216      656E7469 
 4216      616C5374 
 4216      7265616D 
 4217              	.LASF79:
 4218 01f7 69646C65 		.ascii	"idle_thread_wa\000"
 4218      5F746872 
 4218      6561645F 
 4218      776100
 4219              	.LASF26:
 4220 0206 636E745F 		.ascii	"cnt_t\000"
 4220      7400
 4221              	.LASF0:
 4222 020c 756E7369 		.ascii	"unsigned int\000"
 4222      676E6564 
 4222      20696E74 
 4222      00
 4223              	.LASF63:
 4224 0219 76745F6E 		.ascii	"vt_next\000"
 4224      65787400 
 4225              	.LASF91:
 4226 0221 77747365 		.ascii	"wtsemp\000"
 4226      6D7000
 4227              	.LASF65:
 4228 0228 76745F64 		.ascii	"vt_delta\000"
 4228      656C7461 
 4228      00
 4229              	.LASF40:
 4230 0231 705F6D73 		.ascii	"p_msgqueue\000"
ARM GAS  /tmp/ccFKdsFU.s 			page 77


 4230      67717565 
 4230      756500
 4231              	.LASF122:
 4232 023c 6C656674 		.ascii	"left_align\000"
 4232      5F616C69 
 4232      676E00
 4233              	.LASF120:
 4234 0247 77696474 		.ascii	"width\000"
 4234      6800
 4235              	.LASF8:
 4236 024d 73686F72 		.ascii	"short unsigned int\000"
 4236      7420756E 
 4236      7369676E 
 4236      65642069 
 4236      6E7400
 4237              	.LASF48:
 4238 0260 63685F74 		.ascii	"ch_thread\000"
 4238      68726561 
 4238      6400
 4239              	.LASF24:
 4240 026a 6D73675F 		.ascii	"msg_t\000"
 4240      7400
 4241              	.LASF105:
 4242 0270 72656164 		.ascii	"read\000"
 4242      00
 4243              	.LASF20:
 4244 0275 746D6F64 		.ascii	"tmode_t\000"
 4244      655F7400 
 4245              	.LASF53:
 4246 027d 63685F72 		.ascii	"ch_ready_list\000"
 4246      65616479 
 4246      5F6C6973 
 4246      7400
 4247              	.LASF25:
 4248 028b 6576656E 		.ascii	"eventmask_t\000"
 4248      746D6173 
 4248      6B5F7400 
 4249              	.LASF9:
 4250 0297 5F5F696E 		.ascii	"__int32_t\000"
 4250      7433325F 
 4250      7400
 4251              	.LASF82:
 4252 02a1 73746B61 		.ascii	"stkalign_t\000"
 4252      6C69676E 
 4252      5F7400
 4253              	.LASF129:
 4254 02ac 474E5520 		.ascii	"GNU C11 5.2.0 -mcpu=cortex-m4 -mfloat-abi=hard -mfp"
 4254      43313120 
 4254      352E322E 
 4254      30202D6D 
 4254      6370753D 
 4255 02df 753D6670 		.ascii	"u=fpv4-sp-d16 -mno-thumb-interwork -mthumb -ggdb -O"
 4255      76342D73 
 4255      702D6431 
 4255      36202D6D 
 4255      6E6F2D74 
 4256 0312 32202D66 		.ascii	"2 -fomit-frame-pointer -falign-functions=16 -ffunct"
ARM GAS  /tmp/ccFKdsFU.s 			page 78


 4256      6F6D6974 
 4256      2D667261 
 4256      6D652D70 
 4256      6F696E74 
 4257 0345 696F6E2D 		.ascii	"ion-sections -fdata-sections -fno-common -fsingle-p"
 4257      73656374 
 4257      696F6E73 
 4257      202D6664 
 4257      6174612D 
 4258 0378 72656369 		.ascii	"recision-constant\000"
 4258      73696F6E 
 4258      2D636F6E 
 4258      7374616E 
 4258      7400
 4259              	.LASF135:
 4260 038a 6D734F62 		.ascii	"msObjectInit\000"
 4260      6A656374 
 4260      496E6974 
 4260      00
 4261              	.LASF104:
 4262 0397 77726974 		.ascii	"write\000"
 4262      6500
 4263              	.LASF39:
 4264 039d 705F7761 		.ascii	"p_waiting\000"
 4264      6974696E 
 4264      6700
 4265              	.LASF80:
 4266 03a7 73697A65 		.ascii	"sizetype\000"
 4266      74797065 
 4266      00
 4267              	.LASF46:
 4268 03b0 74687265 		.ascii	"thread_reference_t\000"
 4268      61645F72 
 4268      65666572 
 4268      656E6365 
 4268      5F7400
 4269              	.LASF69:
 4270 03c3 63685F76 		.ascii	"ch_virtual_timers_list\000"
 4270      69727475 
 4270      616C5F74 
 4270      696D6572 
 4270      735F6C69 
 4271              	.LASF2:
 4272 03da 6C6F6E67 		.ascii	"long double\000"
 4272      20646F75 
 4272      626C6500 
 4273              	.LASF134:
 4274 03e6 756E7369 		.ascii	"unsigned_common\000"
 4274      676E6564 
 4274      5F636F6D 
 4274      6D6F6E00 
 4275              	.LASF117:
 4276 03f6 64697669 		.ascii	"divisor\000"
 4276      736F7200 
 4277              	.LASF108:
 4278 03fe 5F5F676E 		.ascii	"__gnuc_va_list\000"
 4278      75635F76 
ARM GAS  /tmp/ccFKdsFU.s 			page 79


 4278      615F6C69 
 4278      737400
 4279              	.LASF70:
 4280 040d 76745F6C 		.ascii	"vt_lasttime\000"
 4280      61737474 
 4280      696D6500 
 4281              	.LASF34:
 4282 0419 705F6F6C 		.ascii	"p_older\000"
 4282      64657200 
 4283              	.LASF56:
 4284 0421 725F6374 		.ascii	"r_ctx\000"
 4284      7800
 4285              	.LASF86:
 4286 0427 746D5F63 		.ascii	"tm_calibration_t\000"
 4286      616C6962 
 4286      72617469 
 4286      6F6E5F74 
 4286      00
 4287              	.LASF59:
 4288 0438 725F6375 		.ascii	"r_current\000"
 4288      7272656E 
 4288      7400
 4289              	.LASF58:
 4290 0442 725F6F6C 		.ascii	"r_older\000"
 4290      64657200 
 4291              	.LASF112:
 4292 044a 4D656D53 		.ascii	"MemStreamVMT\000"
 4292      74726561 
 4292      6D564D54 
 4292      00
 4293              	.LASF13:
 4294 0457 5F5F7569 		.ascii	"__uint64_t\000"
 4294      6E743634 
 4294      5F7400
 4295              	.LASF61:
 4296 0462 76697274 		.ascii	"virtual_timer_t\000"
 4296      75616C5F 
 4296      74696D65 
 4296      725F7400 
 4297              	.LASF30:
 4298 0472 705F7072 		.ascii	"p_prev\000"
 4298      657600
 4299              	.LASF23:
 4300 0479 74707269 		.ascii	"tprio_t\000"
 4300      6F5F7400 
 4301              	.LASF115:
 4302 0481 4D656D6F 		.ascii	"MemoryStream\000"
 4302      72795374 
 4302      7265616D 
 4302      00
 4303              	.LASF35:
 4304 048e 705F6E61 		.ascii	"p_name\000"
 4304      6D6500
 4305              	.LASF72:
 4306 0495 63685F73 		.ascii	"ch_system_debug\000"
 4306      79737465 
 4306      6D5F6465 
ARM GAS  /tmp/ccFKdsFU.s 			page 80


 4306      62756700 
 4307              	.LASF107:
 4308 04a5 5F426F6F 		.ascii	"_Bool\000"
 4308      6C00
 4309              	.LASF16:
 4310 04ab 696E7433 		.ascii	"int32_t\000"
 4310      325F7400 
 4311              	.LASF6:
 4312 04b3 756E7369 		.ascii	"unsigned char\000"
 4312      676E6564 
 4312      20636861 
 4312      7200
 4313              	.LASF98:
 4314 04c1 6D5F7175 		.ascii	"m_queue\000"
 4314      65756500 
 4315              	.LASF96:
 4316 04c9 735F636E 		.ascii	"s_cnt\000"
 4316      7400
 4317              	.LASF43:
 4318 04cf 705F6D74 		.ascii	"p_mtxlist\000"
 4318      786C6973 
 4318      7400
 4319              	.LASF7:
 4320 04d9 73686F72 		.ascii	"short int\000"
 4320      7420696E 
 4320      7400
 4321              	.LASF36:
 4322 04e3 705F7374 		.ascii	"p_state\000"
 4322      61746500 
 4323              	.LASF55:
 4324 04eb 725F7072 		.ascii	"r_prio\000"
 4324      696F00
 4325              	.LASF93:
 4326 04f2 65776D61 		.ascii	"ewmask\000"
 4326      736B00
 4327              	.LASF29:
 4328 04f9 705F6E65 		.ascii	"p_next\000"
 4328      787400
 4329              	.LASF103:
 4330 0500 42617365 		.ascii	"BaseSequentialStreamVMT\000"
 4330      53657175 
 4330      656E7469 
 4330      616C5374 
 4330      7265616D 
 4331              	.LASF37:
 4332 0518 705F666C 		.ascii	"p_flags\000"
 4332      61677300 
 4333              	.LASF116:
 4334 0520 72616469 		.ascii	"radix\000"
 4334      7800
 4335              	.LASF87:
 4336 0526 7264796D 		.ascii	"rdymsg\000"
 4336      736700
 4337              	.LASF62:
 4338 052d 63685F76 		.ascii	"ch_virtual_timer\000"
 4338      69727475 
 4338      616C5F74 
ARM GAS  /tmp/ccFKdsFU.s 			page 81


 4338      696D6572 
 4338      00
 4339              	.LASF94:
 4340 053e 63685F73 		.ascii	"ch_semaphore\000"
 4340      656D6170 
 4340      686F7265 
 4340      00
 4341              	.LASF42:
 4342 054b 705F6570 		.ascii	"p_epending\000"
 4342      656E6469 
 4342      6E6700
 4343              	.LASF17:
 4344 0556 75696E74 		.ascii	"uint32_t\000"
 4344      33325F74 
 4344      00
 4345              	.LASF92:
 4346 055f 77746D74 		.ascii	"wtmtxp\000"
 4346      787000
 4347              	.LASF54:
 4348 0566 725F7175 		.ascii	"r_queue\000"
 4348      65756500 
 4349              	.LASF49:
 4350 056e 63685F74 		.ascii	"ch_threads_list\000"
 4350      68726561 
 4350      64735F6C 
 4350      69737400 
 4351              	.LASF125:
 4352 057e 6368736E 		.ascii	"chsnprintf\000"
 4352      7072696E 
 4352      746600
 4353              	.LASF101:
 4354 0589 63686172 		.ascii	"char\000"
 4354      00
 4355              	.LASF119:
 4356 058e 70726563 		.ascii	"precision\000"
 4356      6973696F 
 4356      6E00
 4357              	.LASF28:
 4358 0598 74687265 		.ascii	"thread_t\000"
 4358      61645F74 
 4358      00
 4359              	.LASF100:
 4360 05a1 6D5F6E65 		.ascii	"m_next\000"
 4360      787400
 4361              	.LASF27:
 4362 05a8 73797374 		.ascii	"systime_t\000"
 4362      696D655F 
 4362      7400
 4363              	.LASF44:
 4364 05b2 705F7265 		.ascii	"p_realprio\000"
 4364      616C7072 
 4364      696F00
 4365              	.LASF60:
 4366 05bd 76746675 		.ascii	"vtfunc_t\000"
 4366      6E635F74 
 4366      00
 4367              	.LASF11:
ARM GAS  /tmp/ccFKdsFU.s 			page 82


 4368 05c6 5F5F7569 		.ascii	"__uint32_t\000"
 4368      6E743332 
 4368      5F7400
 4369              	.LASF73:
 4370 05d1 70616E69 		.ascii	"panic_msg\000"
 4370      635F6D73 
 4370      6700
 4371              	.LASF85:
 4372 05db 6F666673 		.ascii	"offset\000"
 4372      657400
 4373              	.LASF110:
 4374 05e2 5F5F6170 		.ascii	"__ap\000"
 4374      00
 4375              	.LASF83:
 4376 05e7 636F6E74 		.ascii	"context\000"
 4376      65787400 
 4377              	.LASF74:
 4378 05ef 63685F73 		.ascii	"ch_system_t\000"
 4378      79737465 
 4378      6D5F7400 
 4379              	.LASF19:
 4380 05fb 7274636E 		.ascii	"rtcnt_t\000"
 4380      745F7400 
 4381              	.LASF67:
 4382 0603 76745F70 		.ascii	"vt_par\000"
 4382      617200
 4383              	.LASF50:
 4384 060a 74687265 		.ascii	"threads_queue_t\000"
 4384      6164735F 
 4384      71756575 
 4384      655F7400 
 4385              	.LASF97:
 4386 061a 63685F6D 		.ascii	"ch_mutex\000"
 4386      75746578 
 4386      00
 4387              	.LASF38:
 4388 0623 705F7265 		.ascii	"p_refs\000"
 4388      667300
 4389              	.LASF133:
 4390 062a 63685F6C 		.ascii	"ch_ltoa\000"
 4390      746F6100 
 4391              	.LASF76:
 4392 0632 726C6973 		.ascii	"rlist\000"
 4392      7400
 4393              	.LASF15:
 4394 0638 75696E74 		.ascii	"uint8_t\000"
 4394      385F7400 
 4395              	.LASF124:
 4396 0640 63687670 		.ascii	"chvprintf\000"
 4396      72696E74 
 4396      6600
 4397              	.LASF89:
 4398 064a 77746F62 		.ascii	"wtobjp\000"
 4398      6A7000
 4399              	.LASF132:
 4400 0651 6C6F6E67 		.ascii	"long_to_string_with_divisor\000"
 4400      5F746F5F 
ARM GAS  /tmp/ccFKdsFU.s 			page 83


 4400      73747269 
 4400      6E675F77 
 4400      6974685F 
 4401              	.LASF114:
 4402 066d 73697A65 		.ascii	"size\000"
 4402      00
 4403              	.LASF47:
 4404 0672 74687265 		.ascii	"threads_list_t\000"
 4404      6164735F 
 4404      6C697374 
 4404      5F7400
 4405              	.LASF41:
 4406 0681 705F6D73 		.ascii	"p_msg\000"
 4406      6700
 4407              	.LASF99:
 4408 0687 6D5F6F77 		.ascii	"m_owner\000"
 4408      6E657200 
 4409              	.LASF32:
 4410 068f 705F6374 		.ascii	"p_ctx\000"
 4410      7800
 4411              	.LASF66:
 4412 0695 76745F66 		.ascii	"vt_func\000"
 4412      756E6300 
 4413              		.ident	"GCC: (Fedora 5.2.0-2.fc22) 5.2.0"
ARM GAS  /tmp/ccFKdsFU.s 			page 84


DEFINED SYMBOLS
                            *ABS*:0000000000000000 chprintf.c
     /tmp/ccFKdsFU.s:22     .text.ch_ltoa:0000000000000000 $t
     /tmp/ccFKdsFU.s:27     .text.ch_ltoa:0000000000000000 ch_ltoa
     /tmp/ccFKdsFU.s:109    .text.chvprintf:0000000000000000 $t
     /tmp/ccFKdsFU.s:115    .text.chvprintf:0000000000000000 chvprintf
     /tmp/ccFKdsFU.s:268    .text.chvprintf:00000000000000ac $d
     /tmp/ccFKdsFU.s:322    .text.chvprintf:0000000000000116 $t
     /tmp/ccFKdsFU.s:369    .text.chvprintf:0000000000000154 $d
     /tmp/ccFKdsFU.s:733    .text.chvprintf:0000000000000304 $d
     /tmp/ccFKdsFU.s:738    .text.chsnprintf:0000000000000000 $t
     /tmp/ccFKdsFU.s:744    .text.chsnprintf:0000000000000000 chsnprintf
     /tmp/ccFKdsFU.s:856    .rodata.str1.4:0000000000000000 $d
                     .debug_frame:0000000000000010 $d
     /tmp/ccFKdsFU.s:737    .text.chvprintf:0000000000000308 $t
     /tmp/ccFKdsFU.s:424    .text.chvprintf:0000000000000189 $d
     /tmp/ccFKdsFU.s:424    .text.chvprintf:000000000000018a $t

UNDEFINED SYMBOLS
msObjectInit
