ARM GAS  /tmp/ccFKdsFU.s 			page 1


   1              		.syntax unified
   2              		.cpu cortex-m4
   3              		.eabi_attribute 27, 1
   4              		.eabi_attribute 28, 1
   5              		.fpu fpv4-sp-d16
   6              		.eabi_attribute 20, 1
   7              		.eabi_attribute 21, 1
   8              		.eabi_attribute 23, 3
   9              		.eabi_attribute 24, 1
  10              		.eabi_attribute 25, 1
  11              		.eabi_attribute 26, 1
  12              		.eabi_attribute 30, 2
  13              		.eabi_attribute 34, 1
  14              		.eabi_attribute 18, 4
  15              		.thumb
  16              		.syntax unified
  17              		.file	"chprintf.c"
  18              		.text
  19              	.Ltext0:
  20              		.cfi_sections	.debug_frame
  21              		.section	.text.ch_ltoa,"ax",%progbits
  22              		.align	2
  23              		.p2align 4,,15
  24              		.thumb
  25              		.thumb_func
  26              		.type	ch_ltoa, %function
  27              	ch_ltoa:
  28              	.LFB262:
  29              		.file 1 "../../os/hal/lib/streams/chprintf.c"
  30              		.loc 1 70 0
  31              		.cfi_startproc
  32              		@ args = 0, pretend = 0, frame = 0
  33              		@ frame_needed = 0, uses_anonymous_args = 0
  34              		@ link register save eliminated.
  35              	.LVL0:
  36 0000 F0B4     		push	{r4, r5, r6, r7}
  37              		.cfi_def_cfa_offset 16
  38              		.cfi_offset 4, -16
  39              		.cfi_offset 5, -12
  40              		.cfi_offset 6, -8
  41              		.cfi_offset 7, -4
  42              	.LBB4:
  43              	.LBB5:
  44              		.loc 1 52 0
  45 0002 00F10B07 		add	r7, r0, #11
  46              	.LVL1:
  47 0006 3C46     		mov	r4, r7
  48 0008 0D46     		mov	r5, r1
  49              	.LVL2:
  50              	.L3:
  51              		.loc 1 54 0
  52 000a B1FBF2F6 		udiv	r6, r1, r2
  53 000e 02FB1611 		mls	r1, r2, r6, r1
  54              	.LVL3:
  55              		.loc 1 55 0
  56 0012 01F13003 		add	r3, r1, #48
  57              	.LVL4:
ARM GAS  /tmp/ccFKdsFU.s 			page 2


  58              		.loc 1 56 0
  59 0016 392B     		cmp	r3, #57
  60              		.loc 1 57 0
  61 0018 C8BF     		it	gt
  62 001a 01F13703 		addgt	r3, r1, #55
  63              	.LVL5:
  64              		.loc 1 58 0
  65 001e DBB2     		uxtb	r3, r3
  66              	.LVL6:
  67 0020 04F8013D 		strb	r3, [r4, #-1]!
  68              	.LVL7:
  69              		.loc 1 60 0
  70 0024 B5FBF2F5 		udiv	r5, r5, r2
  71              	.LVL8:
  72              		.loc 1 59 0
  73 0028 3146     		mov	r1, r6
  74              	.LVL9:
  75              		.loc 1 60 0
  76 002a 002D     		cmp	r5, #0
  77 002c EDD1     		bne	.L3
  78              	.LVL10:
  79 002e 3A1B     		subs	r2, r7, r4
  80              	.LVL11:
  81 0030 0244     		add	r2, r2, r0
  82 0032 01E0     		b	.L5
  83              	.LVL12:
  84              	.L10:
  85 0034 14F8013F 		ldrb	r3, [r4, #1]!	@ zero_extendqisi2
  86              	.LVL13:
  87              	.L5:
  88              		.loc 1 64 0
  89 0038 00F8013B 		strb	r3, [r0], #1
  90              	.LVL14:
  91              		.loc 1 65 0
  92 003c 9042     		cmp	r0, r2
  93 003e F9D1     		bne	.L10
  94              	.LBE5:
  95              	.LBE4:
  96              		.loc 1 73 0
  97 0040 F0BC     		pop	{r4, r5, r6, r7}
  98              		.cfi_restore 7
  99              		.cfi_restore 6
 100              		.cfi_restore 5
 101              		.cfi_restore 4
 102              		.cfi_def_cfa_offset 0
 103              	.LVL15:
 104 0042 7047     		bx	lr
 105              		.cfi_endproc
 106              	.LFE262:
 107              		.size	ch_ltoa, .-ch_ltoa
 108 0044 AFF30080 		.section	.text.chvprintf,"ax",%progbits
 108      AFF30080 
 108      AFF30080 
 109              		.align	2
 110              		.p2align 4,,15
 111              		.global	chvprintf
 112              		.thumb
ARM GAS  /tmp/ccFKdsFU.s 			page 3


 113              		.thumb_func
 114              		.type	chvprintf, %function
 115              	chvprintf:
 116              	.LFB263:
 117              		.loc 1 121 0
 118              		.cfi_startproc
 119              		@ args = 0, pretend = 0, frame = 24
 120              		@ frame_needed = 0, uses_anonymous_args = 0
 121              	.LVL16:
 122 0000 2DE9F04F 		push	{r4, r5, r6, r7, r8, r9, r10, fp, lr}
 123              		.cfi_def_cfa_offset 36
 124              		.cfi_offset 4, -36
 125              		.cfi_offset 5, -32
 126              		.cfi_offset 6, -28
 127              		.cfi_offset 7, -24
 128              		.cfi_offset 8, -20
 129              		.cfi_offset 9, -16
 130              		.cfi_offset 10, -12
 131              		.cfi_offset 11, -8
 132              		.cfi_offset 14, -4
 133 0004 87B0     		sub	sp, sp, #28
 134              		.cfi_def_cfa_offset 64
 135              		.loc 1 121 0
 136 0006 1646     		mov	r6, r2
 137              	.LVL17:
 138 0008 0DF10D03 		add	r3, sp, #13
 139 000c 03AA     		add	r2, sp, #12
 140              	.LVL18:
 141 000e 9B1A     		subs	r3, r3, r2
 142 0010 8246     		mov	r10, r0
 143 0012 0D46     		mov	r5, r1
 144 0014 0193     		str	r3, [sp, #4]
 145              		.loc 1 124 0
 146 0016 4FF00009 		mov	r9, #0
 147 001a 8346     		mov	fp, r0
 148              	.LVL19:
 149              	.L12:
 150              		.loc 1 135 0
 151 001c 2978     		ldrb	r1, [r5]	@ zero_extendqisi2
 152 001e 6A1C     		adds	r2, r5, #1
 153              	.LVL20:
 154              		.loc 1 136 0
 155 0020 69B1     		cbz	r1, .L83
 156              	.L93:
 157              		.loc 1 138 0
 158 0022 2529     		cmp	r1, #37
 159 0024 0FD0     		beq	.L14
 160              		.loc 1 139 0
 161 0026 DBF80000 		ldr	r0, [fp]
 162              		.loc 1 135 0
 163 002a 1546     		mov	r5, r2
 164              		.loc 1 139 0
 165 002c 8468     		ldr	r4, [r0, #8]
 166 002e 5846     		mov	r0, fp
 167 0030 A047     		blx	r4
 168              	.LVL21:
 169              		.loc 1 135 0
ARM GAS  /tmp/ccFKdsFU.s 			page 4


 170 0032 2978     		ldrb	r1, [r5]	@ zero_extendqisi2
 171              		.loc 1 140 0
 172 0034 09F10109 		add	r9, r9, #1
 173              	.LVL22:
 174              		.loc 1 135 0
 175 0038 6A1C     		adds	r2, r5, #1
 176              	.LVL23:
 177              		.loc 1 136 0
 178 003a 0029     		cmp	r1, #0
 179 003c F1D1     		bne	.L93
 180              	.L83:
 181              		.loc 1 277 0
 182 003e 4846     		mov	r0, r9
 183 0040 07B0     		add	sp, sp, #28
 184              		.cfi_remember_state
 185              		.cfi_def_cfa_offset 36
 186              		@ sp needed
 187 0042 BDE8F08F 		pop	{r4, r5, r6, r7, r8, r9, r10, fp, pc}
 188              	.LVL24:
 189              	.L14:
 190              		.cfi_restore_state
 191              		.loc 1 146 0
 192 0046 6978     		ldrb	r1, [r5, #1]	@ zero_extendqisi2
 193              	.LVL25:
 194 0048 2D29     		cmp	r1, #45
 195 004a 03BF     		ittte	eq
 196 004c A978     		ldrbeq	r1, [r5, #2]	@ zero_extendqisi2
 197              		.loc 1 147 0
 198 004e AA1C     		addeq	r2, r5, #2
 199              	.LVL26:
 200              		.loc 1 148 0
 201 0050 4FF0010A 		moveq	r10, #1
 202              		.loc 1 145 0
 203 0054 4FF0000A 		movne	r10, #0
 204              	.LVL27:
 205              		.loc 1 151 0
 206 0058 3029     		cmp	r1, #48
 207 005a 03BF     		ittte	eq
 208 005c 5178     		ldrbeq	r1, [r2, #1]	@ zero_extendqisi2
 209              		.loc 1 152 0
 210 005e 0132     		addeq	r2, r2, #1
 211              	.LVL28:
 212              		.loc 1 153 0
 213 0060 4FF03008 		moveq	r8, #48
 214              		.loc 1 150 0
 215 0064 4FF02008 		movne	r8, #32
 216              	.LVL29:
 217 0068 501C     		adds	r0, r2, #1
 218              		.loc 1 155 0
 219 006a 0027     		movs	r7, #0
 220 006c 05E0     		b	.L20
 221              	.LVL30:
 222              	.L94:
 223              		.loc 1 161 0
 224 006e 3378     		ldrb	r3, [r6]	@ zero_extendqisi2
 225              	.LVL31:
 226 0070 0436     		adds	r6, r6, #4
ARM GAS  /tmp/ccFKdsFU.s 			page 5


 227              	.LVL32:
 228              	.L18:
 229 0072 2978     		ldrb	r1, [r5]	@ zero_extendqisi2
 230              		.loc 1 164 0
 231 0074 03EB4207 		add	r7, r3, r2, lsl #1
 232              	.LVL33:
 233 0078 0130     		adds	r0, r0, #1
 234              	.LVL34:
 235              	.L20:
 236              		.loc 1 158 0
 237 007a A1F13003 		sub	r3, r1, #48
 238 007e DBB2     		uxtb	r3, r3
 239 0080 092B     		cmp	r3, #9
 240              		.loc 1 157 0
 241 0082 0546     		mov	r5, r0
 242              	.LVL35:
 243              		.loc 1 164 0
 244 0084 07EB8702 		add	r2, r7, r7, lsl #2
 245              		.loc 1 158 0
 246 0088 F3D9     		bls	.L18
 247              		.loc 1 160 0
 248 008a 2A29     		cmp	r1, #42
 249 008c EFD0     		beq	.L94
 250              	.LVL36:
 251              		.loc 1 167 0
 252 008e 2E29     		cmp	r1, #46
 253 0090 4FF00000 		mov	r0, #0
 254              	.LVL37:
 255 0094 43D0     		beq	.L23
 256              	.LVL38:
 257              		.loc 1 181 0
 258 0096 01F0DF02 		and	r2, r1, #223
 259 009a 4C2A     		cmp	r2, #76
 260 009c 4ED0     		beq	.L95
 261              	.L84:
 262              		.loc 1 190 0
 263 009e A1F14402 		sub	r2, r1, #68
 264 00a2 342A     		cmp	r2, #52
 265 00a4 00F2F880 		bhi	.L26
 266 00a8 DFE812F0 		tbh	[pc, r2, lsl #1]
 267              	.L35:
 268 00ac ED00     		.2byte	(.L43-.L35)/2
 269 00ae F600     		.2byte	(.L26-.L35)/2
 270 00b0 F600     		.2byte	(.L26-.L35)/2
 271 00b2 F600     		.2byte	(.L26-.L35)/2
 272 00b4 F600     		.2byte	(.L26-.L35)/2
 273 00b6 ED00     		.2byte	(.L43-.L35)/2
 274 00b8 F600     		.2byte	(.L26-.L35)/2
 275 00ba F600     		.2byte	(.L26-.L35)/2
 276 00bc F600     		.2byte	(.L26-.L35)/2
 277 00be F600     		.2byte	(.L26-.L35)/2
 278 00c0 F600     		.2byte	(.L26-.L35)/2
 279 00c2 EB00     		.2byte	(.L29-.L35)/2
 280 00c4 F600     		.2byte	(.L26-.L35)/2
 281 00c6 F600     		.2byte	(.L26-.L35)/2
 282 00c8 F600     		.2byte	(.L26-.L35)/2
 283 00ca F600     		.2byte	(.L26-.L35)/2
ARM GAS  /tmp/ccFKdsFU.s 			page 6


 284 00cc F600     		.2byte	(.L26-.L35)/2
 285 00ce B900     		.2byte	(.L30-.L35)/2
 286 00d0 F600     		.2byte	(.L26-.L35)/2
 287 00d2 F600     		.2byte	(.L26-.L35)/2
 288 00d4 6F00     		.2byte	(.L66-.L35)/2
 289 00d6 F600     		.2byte	(.L26-.L35)/2
 290 00d8 F600     		.2byte	(.L26-.L35)/2
 291 00da F600     		.2byte	(.L26-.L35)/2
 292 00dc F600     		.2byte	(.L26-.L35)/2
 293 00de F600     		.2byte	(.L26-.L35)/2
 294 00e0 F600     		.2byte	(.L26-.L35)/2
 295 00e2 F600     		.2byte	(.L26-.L35)/2
 296 00e4 F600     		.2byte	(.L26-.L35)/2
 297 00e6 F600     		.2byte	(.L26-.L35)/2
 298 00e8 F600     		.2byte	(.L26-.L35)/2
 299 00ea DF00     		.2byte	(.L32-.L35)/2
 300 00ec ED00     		.2byte	(.L43-.L35)/2
 301 00ee F600     		.2byte	(.L26-.L35)/2
 302 00f0 F600     		.2byte	(.L26-.L35)/2
 303 00f2 F600     		.2byte	(.L26-.L35)/2
 304 00f4 F600     		.2byte	(.L26-.L35)/2
 305 00f6 ED00     		.2byte	(.L43-.L35)/2
 306 00f8 F600     		.2byte	(.L26-.L35)/2
 307 00fa F600     		.2byte	(.L26-.L35)/2
 308 00fc F600     		.2byte	(.L26-.L35)/2
 309 00fe F600     		.2byte	(.L26-.L35)/2
 310 0100 F600     		.2byte	(.L26-.L35)/2
 311 0102 EB00     		.2byte	(.L29-.L35)/2
 312 0104 F600     		.2byte	(.L26-.L35)/2
 313 0106 F600     		.2byte	(.L26-.L35)/2
 314 0108 F600     		.2byte	(.L26-.L35)/2
 315 010a BB00     		.2byte	(.L33-.L35)/2
 316 010c F600     		.2byte	(.L26-.L35)/2
 317 010e B900     		.2byte	(.L30-.L35)/2
 318 0110 F600     		.2byte	(.L26-.L35)/2
 319 0112 F600     		.2byte	(.L26-.L35)/2
 320 0114 6F00     		.2byte	(.L66-.L35)/2
 321              	.LVL39:
 322              		.p2align 1
 323              	.L96:
 324              		.loc 1 173 0
 325 0116 3378     		ldrb	r3, [r6]	@ zero_extendqisi2
 326              	.LVL40:
 327 0118 0436     		adds	r6, r6, #4
 328              	.LVL41:
 329              	.L22:
 330              		.loc 1 177 0
 331 011a 03EB4200 		add	r0, r3, r2, lsl #1
 332              	.LVL42:
 333              	.L23:
 334              		.loc 1 169 0
 335 011e 15F8011B 		ldrb	r1, [r5], #1	@ zero_extendqisi2
 336              	.LVL43:
 337              		.loc 1 170 0
 338 0122 A1F13003 		sub	r3, r1, #48
 339 0126 DBB2     		uxtb	r3, r3
 340 0128 092B     		cmp	r3, #9
ARM GAS  /tmp/ccFKdsFU.s 			page 7


 341              		.loc 1 176 0
 342 012a 00EB8002 		add	r2, r0, r0, lsl #2
 343              		.loc 1 170 0
 344 012e F4D9     		bls	.L22
 345              		.loc 1 172 0
 346 0130 2A29     		cmp	r1, #42
 347 0132 F0D0     		beq	.L96
 348              	.LVL44:
 349              		.loc 1 181 0
 350 0134 01F0DF02 		and	r2, r1, #223
 351 0138 4C2A     		cmp	r2, #76
 352 013a B0D1     		bne	.L84
 353              	.L95:
 354              	.LVL45:
 355              		.loc 1 183 0
 356 013c 2C78     		ldrb	r4, [r5]	@ zero_extendqisi2
 357 013e 002C     		cmp	r4, #0
 358 0140 00F0AA80 		beq	.L26
 359              		.loc 1 190 0
 360 0144 A4F14402 		sub	r2, r4, #68
 361              		.loc 1 184 0
 362 0148 0135     		adds	r5, r5, #1
 363              	.LVL46:
 364              		.loc 1 190 0
 365 014a 342A     		cmp	r2, #52
 366 014c 00F2A380 		bhi	.L63
 367 0150 DFE802F0 		tbb	[pc, r2]
 368              	.L28:
 369 0154 99       		.byte	(.L43-.L28)/2
 370 0155 A1       		.byte	(.L63-.L28)/2
 371 0156 A1       		.byte	(.L63-.L28)/2
 372 0157 A1       		.byte	(.L63-.L28)/2
 373 0158 A1       		.byte	(.L63-.L28)/2
 374 0159 99       		.byte	(.L43-.L28)/2
 375 015a A1       		.byte	(.L63-.L28)/2
 376 015b A1       		.byte	(.L63-.L28)/2
 377 015c A1       		.byte	(.L63-.L28)/2
 378 015d A1       		.byte	(.L63-.L28)/2
 379 015e A1       		.byte	(.L63-.L28)/2
 380 015f 97       		.byte	(.L29-.L28)/2
 381 0160 A1       		.byte	(.L63-.L28)/2
 382 0161 A1       		.byte	(.L63-.L28)/2
 383 0162 A1       		.byte	(.L63-.L28)/2
 384 0163 A1       		.byte	(.L63-.L28)/2
 385 0164 A1       		.byte	(.L63-.L28)/2
 386 0165 65       		.byte	(.L30-.L28)/2
 387 0166 A1       		.byte	(.L63-.L28)/2
 388 0167 A1       		.byte	(.L63-.L28)/2
 389 0168 1B       		.byte	(.L66-.L28)/2
 390 0169 A1       		.byte	(.L63-.L28)/2
 391 016a A1       		.byte	(.L63-.L28)/2
 392 016b A1       		.byte	(.L63-.L28)/2
 393 016c A1       		.byte	(.L63-.L28)/2
 394 016d A1       		.byte	(.L63-.L28)/2
 395 016e A1       		.byte	(.L63-.L28)/2
 396 016f A1       		.byte	(.L63-.L28)/2
 397 0170 A1       		.byte	(.L63-.L28)/2
ARM GAS  /tmp/ccFKdsFU.s 			page 8


 398 0171 A1       		.byte	(.L63-.L28)/2
 399 0172 A1       		.byte	(.L63-.L28)/2
 400 0173 8B       		.byte	(.L32-.L28)/2
 401 0174 99       		.byte	(.L43-.L28)/2
 402 0175 A1       		.byte	(.L63-.L28)/2
 403 0176 A1       		.byte	(.L63-.L28)/2
 404 0177 A1       		.byte	(.L63-.L28)/2
 405 0178 A1       		.byte	(.L63-.L28)/2
 406 0179 99       		.byte	(.L43-.L28)/2
 407 017a A1       		.byte	(.L63-.L28)/2
 408 017b A1       		.byte	(.L63-.L28)/2
 409 017c A1       		.byte	(.L63-.L28)/2
 410 017d A1       		.byte	(.L63-.L28)/2
 411 017e A1       		.byte	(.L63-.L28)/2
 412 017f 97       		.byte	(.L29-.L28)/2
 413 0180 A1       		.byte	(.L63-.L28)/2
 414 0181 A1       		.byte	(.L63-.L28)/2
 415 0182 A1       		.byte	(.L63-.L28)/2
 416 0183 67       		.byte	(.L33-.L28)/2
 417 0184 A1       		.byte	(.L63-.L28)/2
 418 0185 65       		.byte	(.L30-.L28)/2
 419 0186 A1       		.byte	(.L63-.L28)/2
 420 0187 A1       		.byte	(.L63-.L28)/2
 421 0188 1B       		.byte	(.L66-.L28)/2
 422              	.L36:
 423              	.LVL47:
 424 0189 00       		.p2align 1
 425              	.L66:
 426 018a 1022     		movs	r2, #16
 427              	.L46:
 428              		.loc 1 243 0
 429 018c 3168     		ldr	r1, [r6]
 430              	.LVL48:
 431              		.loc 1 244 0
 432 018e 03A8     		add	r0, sp, #12
 433              	.LVL49:
 434              		.loc 1 243 0
 435 0190 0436     		adds	r6, r6, #4
 436              	.LVL50:
 437              	.L89:
 438              		.loc 1 244 0
 439 0192 FFF7FEFF 		bl	ch_ltoa
 440              	.LVL51:
 441 0196 03AB     		add	r3, sp, #12
 442              	.LVL52:
 443 0198 C01A     		subs	r0, r0, r3
 444              	.LVL53:
 445 019a 431E     		subs	r3, r0, #1
 446              	.LVL54:
 447 019c 0093     		str	r3, [sp]
 448              		.loc 1 144 0
 449 019e 03AC     		add	r4, sp, #12
 450              	.LVL55:
 451              	.L37:
 452              		.loc 1 251 0
 453 01a0 3F1A     		subs	r7, r7, r0
 454              	.LVL56:
ARM GAS  /tmp/ccFKdsFU.s 			page 9


 455 01a2 27EAE777 		bic	r7, r7, r7, asr #31
 456              	.LVL57:
 457              		.loc 1 253 0
 458 01a6 BAF1000F 		cmp	r10, #0
 459 01aa 5AD1     		bne	.L48
 460              	.LVL58:
 461              	.L59:
 462              		.loc 1 254 0
 463 01ac C7F1000A 		rsb	r10, r7, #0
 464              	.LVL59:
 465              		.loc 1 255 0
 466 01b0 BAF1000F 		cmp	r10, #0
 467 01b4 78D0     		beq	.L49
 468              		.loc 1 256 0
 469 01b6 2178     		ldrb	r1, [r4]	@ zero_extendqisi2
 470 01b8 2D29     		cmp	r1, #45
 471 01ba 7BD0     		beq	.L97
 472              	.L50:
 473              		.loc 1 258 0 discriminator 1
 474 01bc 5746     		mov	r7, r10
 475              	.LVL60:
 476              	.L51:
 477              		.loc 1 262 0 discriminator 1
 478 01be DBF80030 		ldr	r3, [fp]
 479 01c2 4146     		mov	r1, r8
 480 01c4 9B68     		ldr	r3, [r3, #8]
 481 01c6 5846     		mov	r0, fp
 482 01c8 9847     		blx	r3
 483              	.LVL61:
 484              		.loc 1 264 0 discriminator 1
 485 01ca 0137     		adds	r7, r7, #1
 486              	.LVL62:
 487 01cc F7D1     		bne	.L51
 488              		.loc 1 266 0
 489 01ce 009B     		ldr	r3, [sp]
 490 01d0 002B     		cmp	r3, #0
 491 01d2 CAEB0909 		rsb	r9, r10, r9
 492              	.LVL63:
 493 01d6 FFF621AF 		blt	.L12
 494              	.LVL64:
 495              	.L58:
 496 01da DDF800A0 		ldr	r10, [sp]
 497              	.LVL65:
 498              	.L54:
 499              		.loc 1 267 0
 500 01de DBF80030 		ldr	r3, [fp]
 501 01e2 14F8011B 		ldrb	r1, [r4], #1	@ zero_extendqisi2
 502              	.LVL66:
 503 01e6 9B68     		ldr	r3, [r3, #8]
 504              		.loc 1 266 0
 505 01e8 0AF1FF3A 		add	r10, r10, #-1
 506              	.LVL67:
 507              		.loc 1 267 0
 508 01ec 5846     		mov	r0, fp
 509 01ee 9847     		blx	r3
 510              	.LVL68:
 511              		.loc 1 266 0
ARM GAS  /tmp/ccFKdsFU.s 			page 10


 512 01f0 BAF1FF3F 		cmp	r10, #-1
 513 01f4 F3D1     		bne	.L54
 514 01f6 009B     		ldr	r3, [sp]
 515 01f8 09F10109 		add	r9, r9, #1
 516 01fc 002B     		cmp	r3, #0
 517 01fe A8BF     		it	ge
 518 0200 9944     		addge	r9, r9, r3
 519              	.LVL69:
 520              	.L53:
 521              		.loc 1 271 0
 522 0202 002F     		cmp	r7, #0
 523 0204 3FF40AAF 		beq	.L12
 524 0208 3C46     		mov	r4, r7
 525              	.LVL70:
 526              	.L55:
 527              		.loc 1 272 0
 528 020a DBF80030 		ldr	r3, [fp]
 529 020e 4146     		mov	r1, r8
 530 0210 9B68     		ldr	r3, [r3, #8]
 531 0212 5846     		mov	r0, fp
 532 0214 9847     		blx	r3
 533              	.LVL71:
 534              		.loc 1 271 0
 535 0216 013C     		subs	r4, r4, #1
 536              	.LVL72:
 537 0218 F7D1     		bne	.L55
 538 021a B944     		add	r9, r9, r7
 539 021c FEE6     		b	.L12
 540              	.LVL73:
 541              	.L30:
 542              		.loc 1 235 0
 543 021e 0A22     		movs	r2, #10
 544 0220 B4E7     		b	.L46
 545              	.LVL74:
 546              	.L33:
 547              		.loc 1 197 0
 548 0222 3468     		ldr	r4, [r6]
 549              		.loc 1 198 0
 550 0224 374A     		ldr	r2, .L100
 551 0226 002C     		cmp	r4, #0
 552 0228 08BF     		it	eq
 553 022a 1446     		moveq	r4, r2
 554              		.loc 1 197 0
 555 022c 0436     		adds	r6, r6, #4
 556              	.LVL75:
 557              		.loc 1 201 0
 558 022e 2278     		ldrb	r2, [r4]	@ zero_extendqisi2
 559              		.loc 1 199 0
 560 0230 0028     		cmp	r0, #0
 561 0232 4ED0     		beq	.L39
 562              	.LVL76:
 563              		.loc 1 201 0 discriminator 1
 564 0234 002A     		cmp	r2, #0
 565 0236 50D0     		beq	.L40
 566              		.loc 1 201 0 is_stmt 0
 567 0238 0138     		subs	r0, r0, #1
 568              	.LVL77:
ARM GAS  /tmp/ccFKdsFU.s 			page 11


 569              	.L57:
 570              		.loc 1 201 0 discriminator 4
 571 023a 2246     		mov	r2, r4
 572 023c 01E0     		b	.L42
 573              	.LVL78:
 574              	.L98:
 575              		.loc 1 201 0 discriminator 3
 576 023e 431C     		adds	r3, r0, #1
 577 0240 04D0     		beq	.L88
 578              	.LVL79:
 579              	.L42:
 580              		.loc 1 201 0 discriminator 4
 581 0242 12F8013F 		ldrb	r3, [r2, #1]!	@ zero_extendqisi2
 582              	.LVL80:
 583 0246 0138     		subs	r0, r0, #1
 584              	.LVL81:
 585 0248 002B     		cmp	r3, #0
 586 024a F8D1     		bne	.L98
 587              	.L88:
 588 024c 101B     		subs	r0, r2, r4
 589              	.LVL82:
 590 024e 431E     		subs	r3, r0, #1
 591              		.loc 1 251 0 is_stmt 1
 592 0250 3F1A     		subs	r7, r7, r0
 593              	.LVL83:
 594 0252 0093     		str	r3, [sp]
 595              		.loc 1 196 0
 596 0254 4FF02008 		mov	r8, #32
 597              	.LVL84:
 598 0258 27EAE777 		bic	r7, r7, r7, asr #31
 599              	.LVL85:
 600              		.loc 1 253 0
 601 025c BAF1000F 		cmp	r10, #0
 602 0260 A4D0     		beq	.L59
 603              	.L48:
 604              		.loc 1 266 0
 605 0262 009B     		ldr	r3, [sp]
 606 0264 002B     		cmp	r3, #0
 607 0266 B8DA     		bge	.L58
 608 0268 CBE7     		b	.L53
 609              	.LVL86:
 610              	.L32:
 611 026a 019B     		ldr	r3, [sp, #4]
 612              		.loc 1 193 0
 613 026c 3268     		ldr	r2, [r6]
 614 026e 8DF80C20 		strb	r2, [sp, #12]
 615 0272 1846     		mov	r0, r3
 616              	.LVL87:
 617 0274 013B     		subs	r3, r3, #1
 618 0276 0436     		adds	r6, r6, #4
 619 0278 0093     		str	r3, [sp]
 620              		.loc 1 192 0
 621 027a 4FF02008 		mov	r8, #32
 622              		.loc 1 144 0
 623 027e 03AC     		add	r4, sp, #12
 624              	.LVL88:
 625              		.loc 1 194 0
ARM GAS  /tmp/ccFKdsFU.s 			page 12


 626 0280 8EE7     		b	.L37
 627              	.LVL89:
 628              	.L29:
 629 0282 0822     		movs	r2, #8
 630 0284 82E7     		b	.L46
 631              	.LVL90:
 632              	.L43:
 633              		.loc 1 211 0
 634 0286 3168     		ldr	r1, [r6]
 635              	.LVL91:
 636              		.loc 1 212 0
 637 0288 0029     		cmp	r1, #0
 638              		.loc 1 211 0
 639 028a 06F10406 		add	r6, r6, #4
 640              		.loc 1 212 0
 641 028e 2FDB     		blt	.L99
 642              		.loc 1 143 0
 643 0290 03A8     		add	r0, sp, #12
 644              	.LVL92:
 645              	.L45:
 646              		.loc 1 216 0
 647 0292 0A22     		movs	r2, #10
 648 0294 7DE7     		b	.L89
 649              	.LVL93:
 650              	.L63:
 651              		.loc 1 190 0
 652 0296 2146     		mov	r1, r4
 653              	.LVL94:
 654              	.L26:
 655 0298 019B     		ldr	r3, [sp, #4]
 656              		.loc 1 247 0
 657 029a 8DF80C10 		strb	r1, [sp, #12]
 658 029e 1846     		mov	r0, r3
 659              	.LVL95:
 660 02a0 013B     		subs	r3, r3, #1
 661 02a2 0093     		str	r3, [sp]
 662              		.loc 1 144 0
 663 02a4 03AC     		add	r4, sp, #12
 664              	.LVL96:
 665              		.loc 1 248 0
 666 02a6 7BE7     		b	.L37
 667              	.LVL97:
 668              	.L49:
 669              		.loc 1 266 0
 670 02a8 009B     		ldr	r3, [sp]
 671 02aa 002B     		cmp	r3, #0
 672 02ac A8BF     		it	ge
 673 02ae 5746     		movge	r7, r10
 674 02b0 93DA     		bge	.L58
 675 02b2 B3E6     		b	.L12
 676              	.LVL98:
 677              	.L97:
 678              		.loc 1 256 0 discriminator 1
 679 02b4 B8F1300F 		cmp	r8, #48
 680 02b8 80D1     		bne	.L50
 681              		.loc 1 257 0
 682 02ba DBF80020 		ldr	r2, [fp]
ARM GAS  /tmp/ccFKdsFU.s 			page 13


 683 02be 5846     		mov	r0, fp
 684 02c0 9268     		ldr	r2, [r2, #8]
 685 02c2 9047     		blx	r2
 686              	.LVL99:
 687 02c4 009B     		ldr	r3, [sp]
 688 02c6 013B     		subs	r3, r3, #1
 689 02c8 0134     		adds	r4, r4, #1
 690              	.LVL100:
 691              		.loc 1 258 0
 692 02ca 09F10109 		add	r9, r9, #1
 693              	.LVL101:
 694 02ce 0093     		str	r3, [sp]
 695 02d0 74E7     		b	.L50
 696              	.LVL102:
 697              	.L39:
 698              		.loc 1 201 0
 699 02d2 47F6FE70 		movw	r0, #32766
 700 02d6 002A     		cmp	r2, #0
 701 02d8 AFD1     		bne	.L57
 702              	.LVL103:
 703              	.L40:
 704 02da 27EAE777 		bic	r7, r7, r7, asr #31
 705              	.LVL104:
 706              		.loc 1 253 0
 707 02de BAF1000F 		cmp	r10, #0
 708 02e2 0CD1     		bne	.L71
 709 02e4 4FF0FF33 		mov	r3, #-1
 710 02e8 0093     		str	r3, [sp]
 711 02ea 4FF02008 		mov	r8, #32
 712 02ee 5DE7     		b	.L59
 713              	.LVL105:
 714              	.L99:
 715              		.loc 1 213 0
 716 02f0 2D22     		movs	r2, #45
 717              		.loc 1 214 0
 718 02f2 4942     		negs	r1, r1
 719              	.LVL106:
 720              		.loc 1 213 0
 721 02f4 8DF80C20 		strb	r2, [sp, #12]
 722 02f8 0DF10D00 		add	r0, sp, #13
 723              	.LVL107:
 724 02fc C9E7     		b	.L45
 725              	.LVL108:
 726              	.L71:
 727              		.loc 1 253 0
 728 02fe 4FF02008 		mov	r8, #32
 729 0302 7EE7     		b	.L53
 730              	.L101:
 731              		.align	2
 732              	.L100:
 733 0304 00000000 		.word	.LC0
 734              		.cfi_endproc
 735              	.LFE263:
 736              		.size	chvprintf, .-chvprintf
 737 0308 AFF30080 		.section	.text.chsnprintf,"ax",%progbits
 737      AFF30080 
 738              		.align	2
ARM GAS  /tmp/ccFKdsFU.s 			page 14


 739              		.p2align 4,,15
 740              		.global	chsnprintf
 741              		.thumb
 742              		.thumb_func
 743              		.type	chsnprintf, %function
 744              	chsnprintf:
 745              	.LFB264:
 746              		.loc 1 307 0
 747              		.cfi_startproc
 748              		@ args = 4, pretend = 8, frame = 24
 749              		@ frame_needed = 0, uses_anonymous_args = 1
 750              	.LVL109:
 751 0000 0CB4     		push	{r2, r3}
 752              		.cfi_def_cfa_offset 8
 753              		.cfi_offset 2, -8
 754              		.cfi_offset 3, -4
 755 0002 30B5     		push	{r4, r5, lr}
 756              		.cfi_def_cfa_offset 20
 757              		.cfi_offset 4, -20
 758              		.cfi_offset 5, -16
 759              		.cfi_offset 14, -12
 760 0004 0546     		mov	r5, r0
 761 0006 87B0     		sub	sp, sp, #28
 762              		.cfi_def_cfa_offset 48
 763              		.loc 1 314 0
 764 0008 0C46     		mov	r4, r1
 765 000a B1B1     		cbz	r1, .L103
 766              	.LVL110:
 767              		.loc 1 321 0
 768 000c 4A1E     		subs	r2, r1, #1
 769              	.LVL111:
 770 000e 01A8     		add	r0, sp, #4
 771              	.LVL112:
 772 0010 0023     		movs	r3, #0
 773 0012 2946     		mov	r1, r5
 774              	.LVL113:
 775 0014 FFF7FEFF 		bl	msObjectInit
 776              	.LVL114:
 777              		.loc 1 325 0
 778 0018 0BAB     		add	r3, sp, #44
 779              		.loc 1 326 0
 780 001a 1A46     		mov	r2, r3
 781 001c 01A8     		add	r0, sp, #4
 782              	.LVL115:
 783 001e 0A99     		ldr	r1, [sp, #40]
 784              		.loc 1 325 0
 785 0020 0093     		str	r3, [sp]
 786              		.loc 1 326 0
 787 0022 FFF7FEFF 		bl	chvprintf
 788              	.LVL116:
 789              		.loc 1 330 0
 790 0026 049B     		ldr	r3, [sp, #16]
 791 0028 9C42     		cmp	r4, r3
 792 002a 01D9     		bls	.L105
 793              		.loc 1 331 0
 794 002c 0022     		movs	r2, #0
 795 002e EA54     		strb	r2, [r5, r3]
ARM GAS  /tmp/ccFKdsFU.s 			page 15


 796              	.L105:
 797              		.loc 1 335 0
 798 0030 07B0     		add	sp, sp, #28
 799              		.cfi_remember_state
 800              		.cfi_def_cfa_offset 20
 801              		@ sp needed
 802 0032 BDE83040 		pop	{r4, r5, lr}
 803              		.cfi_restore 14
 804              		.cfi_restore 5
 805              		.cfi_restore 4
 806              		.cfi_def_cfa_offset 8
 807              	.LVL117:
 808 0036 02B0     		add	sp, sp, #8
 809              		.cfi_restore 3
 810              		.cfi_restore 2
 811              		.cfi_def_cfa_offset 0
 812 0038 7047     		bx	lr
 813              	.LVL118:
 814              	.L103:
 815              		.cfi_restore_state
 816              		.loc 1 321 0
 817 003a 0146     		mov	r1, r0
 818              	.LVL119:
 819 003c 2346     		mov	r3, r4
 820 003e 01A8     		add	r0, sp, #4
 821              	.LVL120:
 822 0040 2246     		mov	r2, r4
 823 0042 FFF7FEFF 		bl	msObjectInit
 824              	.LVL121:
 825              		.loc 1 325 0
 826 0046 0BAB     		add	r3, sp, #44
 827              		.loc 1 326 0
 828 0048 01A8     		add	r0, sp, #4
 829              	.LVL122:
 830 004a 1A46     		mov	r2, r3
 831 004c 0A99     		ldr	r1, [sp, #40]
 832              		.loc 1 325 0
 833 004e 0093     		str	r3, [sp]
 834              		.loc 1 326 0
 835 0050 FFF7FEFF 		bl	chvprintf
 836              	.LVL123:
 837              		.loc 1 335 0
 838 0054 07B0     		add	sp, sp, #28
 839              		.cfi_def_cfa_offset 20
 840              		@ sp needed
 841 0056 BDE83040 		pop	{r4, r5, lr}
 842              		.cfi_restore 4
 843              		.cfi_restore 5
 844              		.cfi_restore 14
 845              		.cfi_def_cfa_offset 8
 846              	.LVL124:
 847 005a 02B0     		add	sp, sp, #8
 848              		.cfi_restore 2
 849              		.cfi_restore 3
 850              		.cfi_def_cfa_offset 0
 851 005c 7047     		bx	lr
 852              		.cfi_endproc
ARM GAS  /tmp/ccFKdsFU.s 			page 16


 853              	.LFE264:
 854              		.size	chsnprintf, .-chsnprintf
 855 005e 00BF     		.section	.rodata.str1.4,"aMS",%progbits,1
 856              		.align	2
 857              	.LC0:
 858 0000 286E756C 		.ascii	"(null)\000"
 858      6C2900
 859 0007 00       		.text
 860              	.Letext0:
 861              		.file 2 "/usr/lib/gcc/arm-none-eabi/5.2.0/include/stddef.h"
 862              		.file 3 "/usr/arm-none-eabi/include/machine/_default_types.h"
 863              		.file 4 "/usr/arm-none-eabi/include/stdint.h"
 864              		.file 5 "../../os/rt/ports/ARMCMx/compilers/GCC/chtypes.h"
 865              		.file 6 "../../os/rt/include/chsystypes.h"
 866              		.file 7 "../../os/rt/include/chschd.h"
 867              		.file 8 "../../os/rt/ports/ARMCMx/chcore.h"
 868              		.file 9 "../../os/rt/ports/ARMCMx/chcore_v7m.h"
 869              		.file 10 "../../os/rt/include/chtm.h"
 870              		.file 11 "../../os/rt/include/chsem.h"
 871              		.file 12 "../../os/rt/include/chmtx.h"
 872              		.file 13 "../../os/rt/include/chstreams.h"
 873              		.file 14 "/usr/lib/gcc/arm-none-eabi/5.2.0/include/stdarg.h"
 874              		.file 15 "<built-in>"
 875              		.file 16 "../../os/hal/lib/streams/memstreams.h"
 876              		.file 17 "../../os/ext/CMSIS/include/core_cm4.h"