ARM GAS  /tmp/ccVgHsbd.s 			page 1


   1              		.syntax unified
   2              		.cpu cortex-m4
   3              		.eabi_attribute 27, 1
   4              		.eabi_attribute 28, 1
   5              		.fpu fpv4-sp-d16
   6              		.eabi_attribute 20, 1
   7              		.eabi_attribute 21, 1
   8              		.eabi_attribute 23, 3
   9              		.eabi_attribute 24, 1
  10              		.eabi_attribute 25, 1
  11              		.eabi_attribute 26, 1
  12              		.eabi_attribute 30, 2
  13              		.eabi_attribute 34, 1
  14              		.eabi_attribute 18, 4
  15              		.thumb
  16              		.syntax unified
  17              		.file	"stm32_dma.c"
  18              		.text
  19              	.Ltext0:
  20              		.cfi_sections	.debug_frame
  21              		.section	.text.Vector6C,"ax",%progbits
  22              		.align	2
  23              		.p2align 4,,15
  24              		.global	Vector6C
  25              		.thumb
  26              		.thumb_func
  27              		.type	Vector6C, %function
  28              	Vector6C:
  29              	.LFB260:
  30              		.file 1 "../../os/hal/ports/STM32/STM32F4xx/stm32_dma.c"
  31              		.loc 1 127 0
  32              		.cfi_startproc
  33              		@ args = 0, pretend = 0, frame = 0
  34              		@ frame_needed = 0, uses_anonymous_args = 0
  35 0000 08B5     		push	{r3, lr}
  36              		.cfi_def_cfa_offset 8
  37              		.cfi_offset 3, -8
  38              		.cfi_offset 14, -4
  39              		.loc 1 132 0
  40 0002 074B     		ldr	r3, .L8
  41              		.loc 1 134 0
  42 0004 074A     		ldr	r2, .L8+4
  43              		.loc 1 132 0
  44 0006 1968     		ldr	r1, [r3]
  45 0008 01F03D01 		and	r1, r1, #61
  46              	.LVL0:
  47              		.loc 1 133 0
  48 000c 9960     		str	r1, [r3, #8]
  49              		.loc 1 134 0
  50 000e 1368     		ldr	r3, [r2]
  51 0010 0BB1     		cbz	r3, .L2
  52              		.loc 1 135 0
  53 0012 5068     		ldr	r0, [r2, #4]
  54 0014 9847     		blx	r3
  55              	.LVL1:
  56              	.L2:
  57              		.loc 1 138 0
ARM GAS  /tmp/ccVgHsbd.s 			page 2


  58 0016 BDE80840 		pop	{r3, lr}
  59              		.cfi_restore 14
  60              		.cfi_restore 3
  61              		.cfi_def_cfa_offset 0
  62              		.loc 1 137 0
  63 001a FFF7FEBF 		b	_port_irq_epilogue
  64              	.LVL2:
  65              	.L9:
  66 001e 00BF     		.align	2
  67              	.L8:
  68 0020 00600240 		.word	1073897472
  69 0024 00000000 		.word	.LANCHOR0
  70              		.cfi_endproc
  71              	.LFE260:
  72              		.size	Vector6C, .-Vector6C
  73 0028 AFF30080 		.section	.text.Vector70,"ax",%progbits
  73      AFF30080 
  74              		.align	2
  75              		.p2align 4,,15
  76              		.global	Vector70
  77              		.thumb
  78              		.thumb_func
  79              		.type	Vector70, %function
  80              	Vector70:
  81              	.LFB261:
  82              		.loc 1 145 0
  83              		.cfi_startproc
  84              		@ args = 0, pretend = 0, frame = 0
  85              		@ frame_needed = 0, uses_anonymous_args = 0
  86              		.loc 1 150 0
  87 0000 084B     		ldr	r3, .L16
  88              		.loc 1 152 0
  89 0002 0948     		ldr	r0, .L16+4
  90              		.loc 1 150 0
  91 0004 1968     		ldr	r1, [r3]
  92              		.loc 1 152 0
  93 0006 8268     		ldr	r2, [r0, #8]
  94              		.loc 1 150 0
  95 0008 8909     		lsrs	r1, r1, #6
  96 000a 01F03D01 		and	r1, r1, #61
  97              	.LVL3:
  98              		.loc 1 145 0
  99 000e 10B5     		push	{r4, lr}
 100              		.cfi_def_cfa_offset 8
 101              		.cfi_offset 4, -8
 102              		.cfi_offset 14, -4
 103              		.loc 1 151 0
 104 0010 8C01     		lsls	r4, r1, #6
 105 0012 9C60     		str	r4, [r3, #8]
 106              		.loc 1 152 0
 107 0014 0AB1     		cbz	r2, .L11
 108              		.loc 1 153 0
 109 0016 C068     		ldr	r0, [r0, #12]
 110 0018 9047     		blx	r2
 111              	.LVL4:
 112              	.L11:
 113              		.loc 1 156 0
ARM GAS  /tmp/ccVgHsbd.s 			page 3


 114 001a BDE81040 		pop	{r4, lr}
 115              		.cfi_restore 14
 116              		.cfi_restore 4
 117              		.cfi_def_cfa_offset 0
 118              		.loc 1 155 0
 119 001e FFF7FEBF 		b	_port_irq_epilogue
 120              	.LVL5:
 121              	.L17:
 122 0022 00BF     		.align	2
 123              	.L16:
 124 0024 00600240 		.word	1073897472
 125 0028 00000000 		.word	.LANCHOR0
 126              		.cfi_endproc
 127              	.LFE261:
 128              		.size	Vector70, .-Vector70
 129 002c AFF30080 		.section	.text.Vector74,"ax",%progbits
 130              		.align	2
 131              		.p2align 4,,15
 132              		.global	Vector74
 133              		.thumb
 134              		.thumb_func
 135              		.type	Vector74, %function
 136              	Vector74:
 137              	.LFB262:
 138              		.loc 1 163 0
 139              		.cfi_startproc
 140              		@ args = 0, pretend = 0, frame = 0
 141              		@ frame_needed = 0, uses_anonymous_args = 0
 142              		.loc 1 168 0
 143 0000 084B     		ldr	r3, .L24
 144              		.loc 1 170 0
 145 0002 0948     		ldr	r0, .L24+4
 146              		.loc 1 168 0
 147 0004 1968     		ldr	r1, [r3]
 148              		.loc 1 170 0
 149 0006 0269     		ldr	r2, [r0, #16]
 150              		.loc 1 168 0
 151 0008 090C     		lsrs	r1, r1, #16
 152 000a 01F03D01 		and	r1, r1, #61
 153              	.LVL6:
 154              		.loc 1 163 0
 155 000e 10B5     		push	{r4, lr}
 156              		.cfi_def_cfa_offset 8
 157              		.cfi_offset 4, -8
 158              		.cfi_offset 14, -4
 159              		.loc 1 169 0
 160 0010 0C04     		lsls	r4, r1, #16
 161 0012 9C60     		str	r4, [r3, #8]
 162              		.loc 1 170 0
 163 0014 0AB1     		cbz	r2, .L19
 164              		.loc 1 171 0
 165 0016 4069     		ldr	r0, [r0, #20]
 166 0018 9047     		blx	r2
 167              	.LVL7:
 168              	.L19:
 169              		.loc 1 174 0
 170 001a BDE81040 		pop	{r4, lr}
ARM GAS  /tmp/ccVgHsbd.s 			page 4


 171              		.cfi_restore 14
 172              		.cfi_restore 4
 173              		.cfi_def_cfa_offset 0
 174              		.loc 1 173 0
 175 001e FFF7FEBF 		b	_port_irq_epilogue
 176              	.LVL8:
 177              	.L25:
 178 0022 00BF     		.align	2
 179              	.L24:
 180 0024 00600240 		.word	1073897472
 181 0028 00000000 		.word	.LANCHOR0
 182              		.cfi_endproc
 183              	.LFE262:
 184              		.size	Vector74, .-Vector74
 185 002c AFF30080 		.section	.text.Vector78,"ax",%progbits
 186              		.align	2
 187              		.p2align 4,,15
 188              		.global	Vector78
 189              		.thumb
 190              		.thumb_func
 191              		.type	Vector78, %function
 192              	Vector78:
 193              	.LFB263:
 194              		.loc 1 181 0
 195              		.cfi_startproc
 196              		@ args = 0, pretend = 0, frame = 0
 197              		@ frame_needed = 0, uses_anonymous_args = 0
 198              		.loc 1 186 0
 199 0000 084B     		ldr	r3, .L32
 200              		.loc 1 188 0
 201 0002 0948     		ldr	r0, .L32+4
 202              		.loc 1 186 0
 203 0004 1968     		ldr	r1, [r3]
 204              		.loc 1 188 0
 205 0006 8269     		ldr	r2, [r0, #24]
 206              		.loc 1 186 0
 207 0008 890D     		lsrs	r1, r1, #22
 208 000a 01F03D01 		and	r1, r1, #61
 209              	.LVL9:
 210              		.loc 1 181 0
 211 000e 10B5     		push	{r4, lr}
 212              		.cfi_def_cfa_offset 8
 213              		.cfi_offset 4, -8
 214              		.cfi_offset 14, -4
 215              		.loc 1 187 0
 216 0010 8C05     		lsls	r4, r1, #22
 217 0012 9C60     		str	r4, [r3, #8]
 218              		.loc 1 188 0
 219 0014 0AB1     		cbz	r2, .L27
 220              		.loc 1 189 0
 221 0016 C069     		ldr	r0, [r0, #28]
 222 0018 9047     		blx	r2
 223              	.LVL10:
 224              	.L27:
 225              		.loc 1 192 0
 226 001a BDE81040 		pop	{r4, lr}
 227              		.cfi_restore 14
ARM GAS  /tmp/ccVgHsbd.s 			page 5


 228              		.cfi_restore 4
 229              		.cfi_def_cfa_offset 0
 230              		.loc 1 191 0
 231 001e FFF7FEBF 		b	_port_irq_epilogue
 232              	.LVL11:
 233              	.L33:
 234 0022 00BF     		.align	2
 235              	.L32:
 236 0024 00600240 		.word	1073897472
 237 0028 00000000 		.word	.LANCHOR0
 238              		.cfi_endproc
 239              	.LFE263:
 240              		.size	Vector78, .-Vector78
 241 002c AFF30080 		.section	.text.Vector7C,"ax",%progbits
 242              		.align	2
 243              		.p2align 4,,15
 244              		.global	Vector7C
 245              		.thumb
 246              		.thumb_func
 247              		.type	Vector7C, %function
 248              	Vector7C:
 249              	.LFB264:
 250              		.loc 1 199 0
 251              		.cfi_startproc
 252              		@ args = 0, pretend = 0, frame = 0
 253              		@ frame_needed = 0, uses_anonymous_args = 0
 254 0000 08B5     		push	{r3, lr}
 255              		.cfi_def_cfa_offset 8
 256              		.cfi_offset 3, -8
 257              		.cfi_offset 14, -4
 258              		.loc 1 204 0
 259 0002 074B     		ldr	r3, .L40
 260              		.loc 1 206 0
 261 0004 0748     		ldr	r0, .L40+4
 262              		.loc 1 204 0
 263 0006 5968     		ldr	r1, [r3, #4]
 264              		.loc 1 206 0
 265 0008 026A     		ldr	r2, [r0, #32]
 266              		.loc 1 204 0
 267 000a 01F03D01 		and	r1, r1, #61
 268              	.LVL12:
 269              		.loc 1 205 0
 270 000e D960     		str	r1, [r3, #12]
 271              		.loc 1 206 0
 272 0010 0AB1     		cbz	r2, .L35
 273              		.loc 1 207 0
 274 0012 406A     		ldr	r0, [r0, #36]
 275 0014 9047     		blx	r2
 276              	.LVL13:
 277              	.L35:
 278              		.loc 1 210 0
 279 0016 BDE80840 		pop	{r3, lr}
 280              		.cfi_restore 14
 281              		.cfi_restore 3
 282              		.cfi_def_cfa_offset 0
 283              		.loc 1 209 0
 284 001a FFF7FEBF 		b	_port_irq_epilogue
ARM GAS  /tmp/ccVgHsbd.s 			page 6


 285              	.LVL14:
 286              	.L41:
 287 001e 00BF     		.align	2
 288              	.L40:
 289 0020 00600240 		.word	1073897472
 290 0024 00000000 		.word	.LANCHOR0
 291              		.cfi_endproc
 292              	.LFE264:
 293              		.size	Vector7C, .-Vector7C
 294 0028 AFF30080 		.section	.text.Vector80,"ax",%progbits
 294      AFF30080 
 295              		.align	2
 296              		.p2align 4,,15
 297              		.global	Vector80
 298              		.thumb
 299              		.thumb_func
 300              		.type	Vector80, %function
 301              	Vector80:
 302              	.LFB265:
 303              		.loc 1 217 0
 304              		.cfi_startproc
 305              		@ args = 0, pretend = 0, frame = 0
 306              		@ frame_needed = 0, uses_anonymous_args = 0
 307              		.loc 1 222 0
 308 0000 084B     		ldr	r3, .L48
 309              		.loc 1 224 0
 310 0002 0948     		ldr	r0, .L48+4
 311              		.loc 1 222 0
 312 0004 5968     		ldr	r1, [r3, #4]
 313              		.loc 1 224 0
 314 0006 826A     		ldr	r2, [r0, #40]
 315              		.loc 1 222 0
 316 0008 8909     		lsrs	r1, r1, #6
 317 000a 01F03D01 		and	r1, r1, #61
 318              	.LVL15:
 319              		.loc 1 217 0
 320 000e 10B5     		push	{r4, lr}
 321              		.cfi_def_cfa_offset 8
 322              		.cfi_offset 4, -8
 323              		.cfi_offset 14, -4
 324              		.loc 1 223 0
 325 0010 8C01     		lsls	r4, r1, #6
 326 0012 DC60     		str	r4, [r3, #12]
 327              		.loc 1 224 0
 328 0014 0AB1     		cbz	r2, .L43
 329              		.loc 1 225 0
 330 0016 C06A     		ldr	r0, [r0, #44]
 331 0018 9047     		blx	r2
 332              	.LVL16:
 333              	.L43:
 334              		.loc 1 228 0
 335 001a BDE81040 		pop	{r4, lr}
 336              		.cfi_restore 14
 337              		.cfi_restore 4
 338              		.cfi_def_cfa_offset 0
 339              		.loc 1 227 0
 340 001e FFF7FEBF 		b	_port_irq_epilogue
ARM GAS  /tmp/ccVgHsbd.s 			page 7


 341              	.LVL17:
 342              	.L49:
 343 0022 00BF     		.align	2
 344              	.L48:
 345 0024 00600240 		.word	1073897472
 346 0028 00000000 		.word	.LANCHOR0
 347              		.cfi_endproc
 348              	.LFE265:
 349              		.size	Vector80, .-Vector80
 350 002c AFF30080 		.section	.text.Vector84,"ax",%progbits
 351              		.align	2
 352              		.p2align 4,,15
 353              		.global	Vector84
 354              		.thumb
 355              		.thumb_func
 356              		.type	Vector84, %function
 357              	Vector84:
 358              	.LFB266:
 359              		.loc 1 235 0
 360              		.cfi_startproc
 361              		@ args = 0, pretend = 0, frame = 0
 362              		@ frame_needed = 0, uses_anonymous_args = 0
 363              		.loc 1 240 0
 364 0000 084B     		ldr	r3, .L56
 365              		.loc 1 242 0
 366 0002 0948     		ldr	r0, .L56+4
 367              		.loc 1 240 0
 368 0004 5968     		ldr	r1, [r3, #4]
 369              		.loc 1 242 0
 370 0006 026B     		ldr	r2, [r0, #48]
 371              		.loc 1 240 0
 372 0008 090C     		lsrs	r1, r1, #16
 373 000a 01F03D01 		and	r1, r1, #61
 374              	.LVL18:
 375              		.loc 1 235 0
 376 000e 10B5     		push	{r4, lr}
 377              		.cfi_def_cfa_offset 8
 378              		.cfi_offset 4, -8
 379              		.cfi_offset 14, -4
 380              		.loc 1 241 0
 381 0010 0C04     		lsls	r4, r1, #16
 382 0012 DC60     		str	r4, [r3, #12]
 383              		.loc 1 242 0
 384 0014 0AB1     		cbz	r2, .L51
 385              		.loc 1 243 0
 386 0016 406B     		ldr	r0, [r0, #52]
 387 0018 9047     		blx	r2
 388              	.LVL19:
 389              	.L51:
 390              		.loc 1 246 0
 391 001a BDE81040 		pop	{r4, lr}
 392              		.cfi_restore 14
 393              		.cfi_restore 4
 394              		.cfi_def_cfa_offset 0
 395              		.loc 1 245 0
 396 001e FFF7FEBF 		b	_port_irq_epilogue
 397              	.LVL20:
ARM GAS  /tmp/ccVgHsbd.s 			page 8


 398              	.L57:
 399 0022 00BF     		.align	2
 400              	.L56:
 401 0024 00600240 		.word	1073897472
 402 0028 00000000 		.word	.LANCHOR0
 403              		.cfi_endproc
 404              	.LFE266:
 405              		.size	Vector84, .-Vector84
 406 002c AFF30080 		.section	.text.VectorFC,"ax",%progbits
 407              		.align	2
 408              		.p2align 4,,15
 409              		.global	VectorFC
 410              		.thumb
 411              		.thumb_func
 412              		.type	VectorFC, %function
 413              	VectorFC:
 414              	.LFB267:
 415              		.loc 1 253 0
 416              		.cfi_startproc
 417              		@ args = 0, pretend = 0, frame = 0
 418              		@ frame_needed = 0, uses_anonymous_args = 0
 419              		.loc 1 258 0
 420 0000 084B     		ldr	r3, .L64
 421              		.loc 1 260 0
 422 0002 0948     		ldr	r0, .L64+4
 423              		.loc 1 258 0
 424 0004 5968     		ldr	r1, [r3, #4]
 425              		.loc 1 260 0
 426 0006 826B     		ldr	r2, [r0, #56]
 427              		.loc 1 258 0
 428 0008 890D     		lsrs	r1, r1, #22
 429 000a 01F03D01 		and	r1, r1, #61
 430              	.LVL21:
 431              		.loc 1 253 0
 432 000e 10B5     		push	{r4, lr}
 433              		.cfi_def_cfa_offset 8
 434              		.cfi_offset 4, -8
 435              		.cfi_offset 14, -4
 436              		.loc 1 259 0
 437 0010 8C05     		lsls	r4, r1, #22
 438 0012 DC60     		str	r4, [r3, #12]
 439              		.loc 1 260 0
 440 0014 0AB1     		cbz	r2, .L59
 441              		.loc 1 261 0
 442 0016 C06B     		ldr	r0, [r0, #60]
 443 0018 9047     		blx	r2
 444              	.LVL22:
 445              	.L59:
 446              		.loc 1 264 0
 447 001a BDE81040 		pop	{r4, lr}
 448              		.cfi_restore 14
 449              		.cfi_restore 4
 450              		.cfi_def_cfa_offset 0
 451              		.loc 1 263 0
 452 001e FFF7FEBF 		b	_port_irq_epilogue
 453              	.LVL23:
 454              	.L65:
ARM GAS  /tmp/ccVgHsbd.s 			page 9


 455 0022 00BF     		.align	2
 456              	.L64:
 457 0024 00600240 		.word	1073897472
 458 0028 00000000 		.word	.LANCHOR0
 459              		.cfi_endproc
 460              	.LFE267:
 461              		.size	VectorFC, .-VectorFC
 462 002c AFF30080 		.section	.text.Vector120,"ax",%progbits
 463              		.align	2
 464              		.p2align 4,,15
 465              		.global	Vector120
 466              		.thumb
 467              		.thumb_func
 468              		.type	Vector120, %function
 469              	Vector120:
 470              	.LFB268:
 471              		.loc 1 271 0
 472              		.cfi_startproc
 473              		@ args = 0, pretend = 0, frame = 0
 474              		@ frame_needed = 0, uses_anonymous_args = 0
 475 0000 08B5     		push	{r3, lr}
 476              		.cfi_def_cfa_offset 8
 477              		.cfi_offset 3, -8
 478              		.cfi_offset 14, -4
 479              		.loc 1 276 0
 480 0002 074B     		ldr	r3, .L72
 481              		.loc 1 278 0
 482 0004 0748     		ldr	r0, .L72+4
 483              		.loc 1 276 0
 484 0006 1968     		ldr	r1, [r3]
 485              		.loc 1 278 0
 486 0008 026C     		ldr	r2, [r0, #64]
 487              		.loc 1 276 0
 488 000a 01F03D01 		and	r1, r1, #61
 489              	.LVL24:
 490              		.loc 1 277 0
 491 000e 9960     		str	r1, [r3, #8]
 492              		.loc 1 278 0
 493 0010 0AB1     		cbz	r2, .L67
 494              		.loc 1 279 0
 495 0012 406C     		ldr	r0, [r0, #68]
 496 0014 9047     		blx	r2
 497              	.LVL25:
 498              	.L67:
 499              		.loc 1 282 0
 500 0016 BDE80840 		pop	{r3, lr}
 501              		.cfi_restore 14
 502              		.cfi_restore 3
 503              		.cfi_def_cfa_offset 0
 504              		.loc 1 281 0
 505 001a FFF7FEBF 		b	_port_irq_epilogue
 506              	.LVL26:
 507              	.L73:
 508 001e 00BF     		.align	2
 509              	.L72:
 510 0020 00640240 		.word	1073898496
 511 0024 00000000 		.word	.LANCHOR0
ARM GAS  /tmp/ccVgHsbd.s 			page 10


 512              		.cfi_endproc
 513              	.LFE268:
 514              		.size	Vector120, .-Vector120
 515 0028 AFF30080 		.section	.text.Vector124,"ax",%progbits
 515      AFF30080 
 516              		.align	2
 517              		.p2align 4,,15
 518              		.global	Vector124
 519              		.thumb
 520              		.thumb_func
 521              		.type	Vector124, %function
 522              	Vector124:
 523              	.LFB269:
 524              		.loc 1 289 0
 525              		.cfi_startproc
 526              		@ args = 0, pretend = 0, frame = 0
 527              		@ frame_needed = 0, uses_anonymous_args = 0
 528              		.loc 1 294 0
 529 0000 084B     		ldr	r3, .L80
 530              		.loc 1 296 0
 531 0002 0948     		ldr	r0, .L80+4
 532              		.loc 1 294 0
 533 0004 1968     		ldr	r1, [r3]
 534              		.loc 1 296 0
 535 0006 826C     		ldr	r2, [r0, #72]
 536              		.loc 1 294 0
 537 0008 8909     		lsrs	r1, r1, #6
 538 000a 01F03D01 		and	r1, r1, #61
 539              	.LVL27:
 540              		.loc 1 289 0
 541 000e 10B5     		push	{r4, lr}
 542              		.cfi_def_cfa_offset 8
 543              		.cfi_offset 4, -8
 544              		.cfi_offset 14, -4
 545              		.loc 1 295 0
 546 0010 8C01     		lsls	r4, r1, #6
 547 0012 9C60     		str	r4, [r3, #8]
 548              		.loc 1 296 0
 549 0014 0AB1     		cbz	r2, .L75
 550              		.loc 1 297 0
 551 0016 C06C     		ldr	r0, [r0, #76]
 552 0018 9047     		blx	r2
 553              	.LVL28:
 554              	.L75:
 555              		.loc 1 300 0
 556 001a BDE81040 		pop	{r4, lr}
 557              		.cfi_restore 14
 558              		.cfi_restore 4
 559              		.cfi_def_cfa_offset 0
 560              		.loc 1 299 0
 561 001e FFF7FEBF 		b	_port_irq_epilogue
 562              	.LVL29:
 563              	.L81:
 564 0022 00BF     		.align	2
 565              	.L80:
 566 0024 00640240 		.word	1073898496
 567 0028 00000000 		.word	.LANCHOR0
ARM GAS  /tmp/ccVgHsbd.s 			page 11


 568              		.cfi_endproc
 569              	.LFE269:
 570              		.size	Vector124, .-Vector124
 571 002c AFF30080 		.section	.text.Vector128,"ax",%progbits
 572              		.align	2
 573              		.p2align 4,,15
 574              		.global	Vector128
 575              		.thumb
 576              		.thumb_func
 577              		.type	Vector128, %function
 578              	Vector128:
 579              	.LFB270:
 580              		.loc 1 307 0
 581              		.cfi_startproc
 582              		@ args = 0, pretend = 0, frame = 0
 583              		@ frame_needed = 0, uses_anonymous_args = 0
 584              		.loc 1 312 0
 585 0000 084B     		ldr	r3, .L88
 586              		.loc 1 314 0
 587 0002 0948     		ldr	r0, .L88+4
 588              		.loc 1 312 0
 589 0004 1968     		ldr	r1, [r3]
 590              		.loc 1 314 0
 591 0006 026D     		ldr	r2, [r0, #80]
 592              		.loc 1 312 0
 593 0008 090C     		lsrs	r1, r1, #16
 594 000a 01F03D01 		and	r1, r1, #61
 595              	.LVL30:
 596              		.loc 1 307 0
 597 000e 10B5     		push	{r4, lr}
 598              		.cfi_def_cfa_offset 8
 599              		.cfi_offset 4, -8
 600              		.cfi_offset 14, -4
 601              		.loc 1 313 0
 602 0010 0C04     		lsls	r4, r1, #16
 603 0012 9C60     		str	r4, [r3, #8]
 604              		.loc 1 314 0
 605 0014 0AB1     		cbz	r2, .L83
 606              		.loc 1 315 0
 607 0016 406D     		ldr	r0, [r0, #84]
 608 0018 9047     		blx	r2
 609              	.LVL31:
 610              	.L83:
 611              		.loc 1 318 0
 612 001a BDE81040 		pop	{r4, lr}
 613              		.cfi_restore 14
 614              		.cfi_restore 4
 615              		.cfi_def_cfa_offset 0
 616              		.loc 1 317 0
 617 001e FFF7FEBF 		b	_port_irq_epilogue
 618              	.LVL32:
 619              	.L89:
 620 0022 00BF     		.align	2
 621              	.L88:
 622 0024 00640240 		.word	1073898496
 623 0028 00000000 		.word	.LANCHOR0
 624              		.cfi_endproc
ARM GAS  /tmp/ccVgHsbd.s 			page 12


 625              	.LFE270:
 626              		.size	Vector128, .-Vector128
 627 002c AFF30080 		.section	.text.Vector12C,"ax",%progbits
 628              		.align	2
 629              		.p2align 4,,15
 630              		.global	Vector12C
 631              		.thumb
 632              		.thumb_func
 633              		.type	Vector12C, %function
 634              	Vector12C:
 635              	.LFB271:
 636              		.loc 1 325 0
 637              		.cfi_startproc
 638              		@ args = 0, pretend = 0, frame = 0
 639              		@ frame_needed = 0, uses_anonymous_args = 0
 640              		.loc 1 330 0
 641 0000 084B     		ldr	r3, .L96
 642              		.loc 1 332 0
 643 0002 0948     		ldr	r0, .L96+4
 644              		.loc 1 330 0
 645 0004 1968     		ldr	r1, [r3]
 646              		.loc 1 332 0
 647 0006 826D     		ldr	r2, [r0, #88]
 648              		.loc 1 330 0
 649 0008 890D     		lsrs	r1, r1, #22
 650 000a 01F03D01 		and	r1, r1, #61
 651              	.LVL33:
 652              		.loc 1 325 0
 653 000e 10B5     		push	{r4, lr}
 654              		.cfi_def_cfa_offset 8
 655              		.cfi_offset 4, -8
 656              		.cfi_offset 14, -4
 657              		.loc 1 331 0
 658 0010 8C05     		lsls	r4, r1, #22
 659 0012 9C60     		str	r4, [r3, #8]
 660              		.loc 1 332 0
 661 0014 0AB1     		cbz	r2, .L91
 662              		.loc 1 333 0
 663 0016 C06D     		ldr	r0, [r0, #92]
 664 0018 9047     		blx	r2
 665              	.LVL34:
 666              	.L91:
 667              		.loc 1 336 0
 668 001a BDE81040 		pop	{r4, lr}
 669              		.cfi_restore 14
 670              		.cfi_restore 4
 671              		.cfi_def_cfa_offset 0
 672              		.loc 1 335 0
 673 001e FFF7FEBF 		b	_port_irq_epilogue
 674              	.LVL35:
 675              	.L97:
 676 0022 00BF     		.align	2
 677              	.L96:
 678 0024 00640240 		.word	1073898496
 679 0028 00000000 		.word	.LANCHOR0
 680              		.cfi_endproc
 681              	.LFE271:
ARM GAS  /tmp/ccVgHsbd.s 			page 13


 682              		.size	Vector12C, .-Vector12C
 683 002c AFF30080 		.section	.text.Vector130,"ax",%progbits
 684              		.align	2
 685              		.p2align 4,,15
 686              		.global	Vector130
 687              		.thumb
 688              		.thumb_func
 689              		.type	Vector130, %function
 690              	Vector130:
 691              	.LFB272:
 692              		.loc 1 343 0
 693              		.cfi_startproc
 694              		@ args = 0, pretend = 0, frame = 0
 695              		@ frame_needed = 0, uses_anonymous_args = 0
 696 0000 08B5     		push	{r3, lr}
 697              		.cfi_def_cfa_offset 8
 698              		.cfi_offset 3, -8
 699              		.cfi_offset 14, -4
 700              		.loc 1 348 0
 701 0002 074B     		ldr	r3, .L104
 702              		.loc 1 350 0
 703 0004 0748     		ldr	r0, .L104+4
 704              		.loc 1 348 0
 705 0006 5968     		ldr	r1, [r3, #4]
 706              		.loc 1 350 0
 707 0008 026E     		ldr	r2, [r0, #96]
 708              		.loc 1 348 0
 709 000a 01F03D01 		and	r1, r1, #61
 710              	.LVL36:
 711              		.loc 1 349 0
 712 000e D960     		str	r1, [r3, #12]
 713              		.loc 1 350 0
 714 0010 0AB1     		cbz	r2, .L99
 715              		.loc 1 351 0
 716 0012 406E     		ldr	r0, [r0, #100]
 717 0014 9047     		blx	r2
 718              	.LVL37:
 719              	.L99:
 720              		.loc 1 354 0
 721 0016 BDE80840 		pop	{r3, lr}
 722              		.cfi_restore 14
 723              		.cfi_restore 3
 724              		.cfi_def_cfa_offset 0
 725              		.loc 1 353 0
 726 001a FFF7FEBF 		b	_port_irq_epilogue
 727              	.LVL38:
 728              	.L105:
 729 001e 00BF     		.align	2
 730              	.L104:
 731 0020 00640240 		.word	1073898496
 732 0024 00000000 		.word	.LANCHOR0
 733              		.cfi_endproc
 734              	.LFE272:
 735              		.size	Vector130, .-Vector130
 736 0028 AFF30080 		.section	.text.Vector150,"ax",%progbits
 736      AFF30080 
 737              		.align	2
ARM GAS  /tmp/ccVgHsbd.s 			page 14


 738              		.p2align 4,,15
 739              		.global	Vector150
 740              		.thumb
 741              		.thumb_func
 742              		.type	Vector150, %function
 743              	Vector150:
 744              	.LFB273:
 745              		.loc 1 361 0
 746              		.cfi_startproc
 747              		@ args = 0, pretend = 0, frame = 0
 748              		@ frame_needed = 0, uses_anonymous_args = 0
 749              		.loc 1 366 0
 750 0000 084B     		ldr	r3, .L112
 751              		.loc 1 368 0
 752 0002 0948     		ldr	r0, .L112+4
 753              		.loc 1 366 0
 754 0004 5968     		ldr	r1, [r3, #4]
 755              		.loc 1 368 0
 756 0006 826E     		ldr	r2, [r0, #104]
 757              		.loc 1 366 0
 758 0008 8909     		lsrs	r1, r1, #6
 759 000a 01F03D01 		and	r1, r1, #61
 760              	.LVL39:
 761              		.loc 1 361 0
 762 000e 10B5     		push	{r4, lr}
 763              		.cfi_def_cfa_offset 8
 764              		.cfi_offset 4, -8
 765              		.cfi_offset 14, -4
 766              		.loc 1 367 0
 767 0010 8C01     		lsls	r4, r1, #6
 768 0012 DC60     		str	r4, [r3, #12]
 769              		.loc 1 368 0
 770 0014 0AB1     		cbz	r2, .L107
 771              		.loc 1 369 0
 772 0016 C06E     		ldr	r0, [r0, #108]
 773 0018 9047     		blx	r2
 774              	.LVL40:
 775              	.L107:
 776              		.loc 1 372 0
 777 001a BDE81040 		pop	{r4, lr}
 778              		.cfi_restore 14
 779              		.cfi_restore 4
 780              		.cfi_def_cfa_offset 0
 781              		.loc 1 371 0
 782 001e FFF7FEBF 		b	_port_irq_epilogue
 783              	.LVL41:
 784              	.L113:
 785 0022 00BF     		.align	2
 786              	.L112:
 787 0024 00640240 		.word	1073898496
 788 0028 00000000 		.word	.LANCHOR0
 789              		.cfi_endproc
 790              	.LFE273:
 791              		.size	Vector150, .-Vector150
 792 002c AFF30080 		.section	.text.Vector154,"ax",%progbits
 793              		.align	2
 794              		.p2align 4,,15
ARM GAS  /tmp/ccVgHsbd.s 			page 15


 795              		.global	Vector154
 796              		.thumb
 797              		.thumb_func
 798              		.type	Vector154, %function
 799              	Vector154:
 800              	.LFB274:
 801              		.loc 1 379 0
 802              		.cfi_startproc
 803              		@ args = 0, pretend = 0, frame = 0
 804              		@ frame_needed = 0, uses_anonymous_args = 0
 805              		.loc 1 384 0
 806 0000 084B     		ldr	r3, .L120
 807              		.loc 1 386 0
 808 0002 0948     		ldr	r0, .L120+4
 809              		.loc 1 384 0
 810 0004 5968     		ldr	r1, [r3, #4]
 811              		.loc 1 386 0
 812 0006 026F     		ldr	r2, [r0, #112]
 813              		.loc 1 384 0
 814 0008 090C     		lsrs	r1, r1, #16
 815 000a 01F03D01 		and	r1, r1, #61
 816              	.LVL42:
 817              		.loc 1 379 0
 818 000e 10B5     		push	{r4, lr}
 819              		.cfi_def_cfa_offset 8
 820              		.cfi_offset 4, -8
 821              		.cfi_offset 14, -4
 822              		.loc 1 385 0
 823 0010 0C04     		lsls	r4, r1, #16
 824 0012 DC60     		str	r4, [r3, #12]
 825              		.loc 1 386 0
 826 0014 0AB1     		cbz	r2, .L115
 827              		.loc 1 387 0
 828 0016 406F     		ldr	r0, [r0, #116]
 829 0018 9047     		blx	r2
 830              	.LVL43:
 831              	.L115:
 832              		.loc 1 390 0
 833 001a BDE81040 		pop	{r4, lr}
 834              		.cfi_restore 14
 835              		.cfi_restore 4
 836              		.cfi_def_cfa_offset 0
 837              		.loc 1 389 0
 838 001e FFF7FEBF 		b	_port_irq_epilogue
 839              	.LVL44:
 840              	.L121:
 841 0022 00BF     		.align	2
 842              	.L120:
 843 0024 00640240 		.word	1073898496
 844 0028 00000000 		.word	.LANCHOR0
 845              		.cfi_endproc
 846              	.LFE274:
 847              		.size	Vector154, .-Vector154
 848 002c AFF30080 		.section	.text.Vector158,"ax",%progbits
 849              		.align	2
 850              		.p2align 4,,15
 851              		.global	Vector158
ARM GAS  /tmp/ccVgHsbd.s 			page 16


 852              		.thumb
 853              		.thumb_func
 854              		.type	Vector158, %function
 855              	Vector158:
 856              	.LFB275:
 857              		.loc 1 397 0
 858              		.cfi_startproc
 859              		@ args = 0, pretend = 0, frame = 0
 860              		@ frame_needed = 0, uses_anonymous_args = 0
 861              		.loc 1 402 0
 862 0000 084B     		ldr	r3, .L128
 863              		.loc 1 404 0
 864 0002 0948     		ldr	r0, .L128+4
 865              		.loc 1 402 0
 866 0004 5968     		ldr	r1, [r3, #4]
 867              		.loc 1 404 0
 868 0006 826F     		ldr	r2, [r0, #120]
 869              		.loc 1 402 0
 870 0008 890D     		lsrs	r1, r1, #22
 871 000a 01F03D01 		and	r1, r1, #61
 872              	.LVL45:
 873              		.loc 1 397 0
 874 000e 10B5     		push	{r4, lr}
 875              		.cfi_def_cfa_offset 8
 876              		.cfi_offset 4, -8
 877              		.cfi_offset 14, -4
 878              		.loc 1 403 0
 879 0010 8C05     		lsls	r4, r1, #22
 880 0012 DC60     		str	r4, [r3, #12]
 881              		.loc 1 404 0
 882 0014 0AB1     		cbz	r2, .L123
 883              		.loc 1 405 0
 884 0016 C06F     		ldr	r0, [r0, #124]
 885 0018 9047     		blx	r2
 886              	.LVL46:
 887              	.L123:
 888              		.loc 1 408 0
 889 001a BDE81040 		pop	{r4, lr}
 890              		.cfi_restore 14
 891              		.cfi_restore 4
 892              		.cfi_def_cfa_offset 0
 893              		.loc 1 407 0
 894 001e FFF7FEBF 		b	_port_irq_epilogue
 895              	.LVL47:
 896              	.L129:
 897 0022 00BF     		.align	2
 898              	.L128:
 899 0024 00640240 		.word	1073898496
 900 0028 00000000 		.word	.LANCHOR0
 901              		.cfi_endproc
 902              	.LFE275:
 903              		.size	Vector158, .-Vector158
 904 002c AFF30080 		.section	.text.dmaInit,"ax",%progbits
 905              		.align	2
 906              		.p2align 4,,15
 907              		.global	dmaInit
 908              		.thumb
ARM GAS  /tmp/ccVgHsbd.s 			page 17


 909              		.thumb_func
 910              		.type	dmaInit, %function
 911              	dmaInit:
 912              	.LFB276:
 913              		.loc 1 419 0
 914              		.cfi_startproc
 915              		@ args = 0, pretend = 0, frame = 0
 916              		@ frame_needed = 0, uses_anonymous_args = 0
 917              		@ link register save eliminated.
 918              		.loc 1 422 0
 919 0000 0E49     		ldr	r1, .L136
 920 0002 0F4A     		ldr	r2, .L136+4
 921 0004 0F48     		ldr	r0, .L136+8
 922 0006 0023     		movs	r3, #0
 923              		.loc 1 419 0
 924 0008 10B4     		push	{r4}
 925              		.cfi_def_cfa_offset 4
 926              		.cfi_offset 4, -4
 927              		.loc 1 422 0
 928 000a 0B60     		str	r3, [r1]
 929              	.LVL48:
 930 000c 0E4C     		ldr	r4, .L136+12
 931              		.loc 1 424 0
 932 000e 1946     		mov	r1, r3
 933 0010 01E0     		b	.L132
 934              	.LVL49:
 935              	.L135:
 936 0012 52F80C0C 		ldr	r0, [r2, #-12]
 937              	.LVL50:
 938              	.L132:
 939              		.loc 1 424 0 is_stmt 0 discriminator 3
 940 0016 0160     		str	r1, [r0]
 941              		.loc 1 425 0 is_stmt 1 discriminator 3
 942 0018 44F83310 		str	r1, [r4, r3, lsl #3]
 943              		.loc 1 423 0 discriminator 3
 944 001c 0133     		adds	r3, r3, #1
 945              	.LVL51:
 946 001e 102B     		cmp	r3, #16
 947 0020 02F10C02 		add	r2, r2, #12
 948 0024 F5D1     		bne	.L135
 949              		.loc 1 427 0
 950 0026 0949     		ldr	r1, .L136+16
 951              		.loc 1 429 0
 952 0028 094A     		ldr	r2, .L136+20
 953              		.loc 1 431 0
 954 002a 5DF8044B 		ldr	r4, [sp], #4
 955              		.cfi_restore 4
 956              		.cfi_def_cfa_offset 0
 957              		.loc 1 427 0
 958 002e 4FF0FF33 		mov	r3, #-1
 959              	.LVL52:
 960 0032 8B60     		str	r3, [r1, #8]
 961              		.loc 1 428 0
 962 0034 CB60     		str	r3, [r1, #12]
 963              		.loc 1 429 0
 964 0036 9360     		str	r3, [r2, #8]
 965              		.loc 1 430 0
ARM GAS  /tmp/ccVgHsbd.s 			page 18


 966 0038 D360     		str	r3, [r2, #12]
 967              		.loc 1 431 0
 968 003a 7047     		bx	lr
 969              	.L137:
 970              		.align	2
 971              	.L136:
 972 003c 00000000 		.word	.LANCHOR1
 973 0040 0C000000 		.word	.LANCHOR2+12
 974 0044 10600240 		.word	1073897488
 975 0048 00000000 		.word	.LANCHOR0
 976 004c 00600240 		.word	1073897472
 977 0050 00640240 		.word	1073898496
 978              		.cfi_endproc
 979              	.LFE276:
 980              		.size	dmaInit, .-dmaInit
 981 0054 AFF30080 		.section	.text.dmaStreamAllocate,"ax",%progbits
 981      AFF30080 
 981      AFF30080 
 982              		.align	2
 983              		.p2align 4,,15
 984              		.global	dmaStreamAllocate
 985              		.thumb
 986              		.thumb_func
 987              		.type	dmaStreamAllocate, %function
 988              	dmaStreamAllocate:
 989              	.LFB277:
 990              		.loc 1 460 0
 991              		.cfi_startproc
 992              		@ args = 0, pretend = 0, frame = 0
 993              		@ frame_needed = 0, uses_anonymous_args = 0
 994              	.LVL53:
 995 0000 F8B5     		push	{r3, r4, r5, r6, r7, lr}
 996              		.cfi_def_cfa_offset 24
 997              		.cfi_offset 3, -24
 998              		.cfi_offset 4, -20
 999              		.cfi_offset 5, -16
 1000              		.cfi_offset 6, -12
 1001              		.cfi_offset 7, -8
 1002              		.cfi_offset 14, -4
 1003              		.loc 1 465 0
 1004 0002 1F4F     		ldr	r7, .L154
 1005 0004 467A     		ldrb	r6, [r0, #9]	@ zero_extendqisi2
 1006 0006 3D68     		ldr	r5, [r7]
 1007 0008 0124     		movs	r4, #1
 1008 000a 04FA06FE 		lsl	lr, r4, r6
 1009 000e 1EEA050F 		tst	lr, r5
 1010 0012 31D1     		bne	.L143
 1011              		.loc 1 469 0
 1012 0014 1B4C     		ldr	r4, .L154+4
 1013              		.loc 1 471 0
 1014 0016 4EEA0505 		orr	r5, lr, r5
 1015              		.loc 1 470 0
 1016 001a 04EBC60E 		add	lr, r4, r6, lsl #3
 1017              		.loc 1 474 0
 1018 001e 15F0FF0F 		tst	r5, #255
 1019              		.loc 1 471 0
 1020 0022 3D60     		str	r5, [r7]
ARM GAS  /tmp/ccVgHsbd.s 			page 19


 1021              		.loc 1 469 0
 1022 0024 44F83620 		str	r2, [r4, r6, lsl #3]
 1023              		.loc 1 470 0
 1024 0028 CEF80430 		str	r3, [lr, #4]
 1025              		.loc 1 474 0
 1026 002c 04D0     		beq	.L140
 1027              		.loc 1 475 0
 1028 002e 164C     		ldr	r4, .L154+8
 1029 0030 236B     		ldr	r3, [r4, #48]
 1030              	.LVL54:
 1031 0032 43F40013 		orr	r3, r3, #2097152
 1032 0036 2363     		str	r3, [r4, #48]
 1033              	.L140:
 1034              		.loc 1 476 0
 1035 0038 15F47F4F 		tst	r5, #65280
 1036 003c 16D1     		bne	.L153
 1037              	.L141:
 1038              		.loc 1 480 0
 1039 003e 0568     		ldr	r5, [r0]
 1040 0040 2B68     		ldr	r3, [r5]
 1041 0042 23F01F03 		bic	r3, r3, #31
 1042 0046 2B60     		str	r3, [r5]
 1043              	.L142:
 1044              		.loc 1 480 0 is_stmt 0 discriminator 2
 1045 0048 2B68     		ldr	r3, [r5]
 1046 004a 13F00104 		ands	r4, r3, #1
 1047 004e FBD1     		bne	.L142
 1048              		.loc 1 480 0 discriminator 3
 1049 0050 077A     		ldrb	r7, [r0, #8]	@ zero_extendqisi2
 1050 0052 4668     		ldr	r6, [r0, #4]
 1051 0054 3D23     		movs	r3, #61
 1052 0056 BB40     		lsls	r3, r3, r7
 1053              		.loc 1 482 0 is_stmt 1 discriminator 3
 1054 0058 2127     		movs	r7, #33
 1055              		.loc 1 480 0 discriminator 3
 1056 005a 3360     		str	r3, [r6]
 1057              		.loc 1 481 0 discriminator 3
 1058 005c 2C60     		str	r4, [r5]
 1059              		.loc 1 482 0 discriminator 3
 1060 005e 6F61     		str	r7, [r5, #20]
 1061              		.loc 1 485 0 discriminator 3
 1062 0060 62B1     		cbz	r2, .L144
 1063              		.loc 1 486 0
 1064 0062 807A     		ldrb	r0, [r0, #10]	@ zero_extendqisi2
 1065              	.LVL55:
 1066 0064 FFF7FEFF 		bl	nvicEnableVector
 1067              	.LVL56:
 1068              		.loc 1 488 0
 1069 0068 2046     		mov	r0, r4
 1070 006a F8BD     		pop	{r3, r4, r5, r6, r7, pc}
 1071              	.LVL57:
 1072              	.L153:
 1073              		.loc 1 477 0
 1074 006c 064C     		ldr	r4, .L154+8
 1075 006e 236B     		ldr	r3, [r4, #48]
 1076 0070 43F48003 		orr	r3, r3, #4194304
 1077 0074 2363     		str	r3, [r4, #48]
ARM GAS  /tmp/ccVgHsbd.s 			page 20


 1078 0076 E2E7     		b	.L141
 1079              	.LVL58:
 1080              	.L143:
 1081              		.loc 1 466 0
 1082 0078 2046     		mov	r0, r4
 1083              	.LVL59:
 1084 007a F8BD     		pop	{r3, r4, r5, r6, r7, pc}
 1085              	.LVL60:
 1086              	.L144:
 1087              		.loc 1 488 0
 1088 007c 1046     		mov	r0, r2
 1089              	.LVL61:
 1090              		.loc 1 489 0
 1091 007e F8BD     		pop	{r3, r4, r5, r6, r7, pc}
 1092              	.L155:
 1093              		.align	2
 1094              	.L154:
 1095 0080 00000000 		.word	.LANCHOR1
 1096 0084 00000000 		.word	.LANCHOR0
 1097 0088 00380240 		.word	1073887232
 1098              		.cfi_endproc
 1099              	.LFE277:
 1100              		.size	dmaStreamAllocate, .-dmaStreamAllocate
 1101 008c AFF30080 		.section	.text.dmaStreamRelease,"ax",%progbits
 1102              		.align	2
 1103              		.p2align 4,,15
 1104              		.global	dmaStreamRelease
 1105              		.thumb
 1106              		.thumb_func
 1107              		.type	dmaStreamRelease, %function
 1108              	dmaStreamRelease:
 1109              	.LFB278:
 1110              		.loc 1 504 0
 1111              		.cfi_startproc
 1112              		@ args = 0, pretend = 0, frame = 0
 1113              		@ frame_needed = 0, uses_anonymous_args = 0
 1114              	.LVL62:
 1115 0000 10B5     		push	{r4, lr}
 1116              		.cfi_def_cfa_offset 8
 1117              		.cfi_offset 4, -8
 1118              		.cfi_offset 14, -4
 1119              		.loc 1 504 0
 1120 0002 0446     		mov	r4, r0
 1121              		.loc 1 513 0
 1122 0004 807A     		ldrb	r0, [r0, #10]	@ zero_extendqisi2
 1123              	.LVL63:
 1124 0006 FFF7FEFF 		bl	nvicDisableVector
 1125              	.LVL64:
 1126              		.loc 1 516 0
 1127 000a 0C49     		ldr	r1, .L160
 1128 000c 607A     		ldrb	r0, [r4, #9]	@ zero_extendqisi2
 1129 000e 0A68     		ldr	r2, [r1]
 1130 0010 0123     		movs	r3, #1
 1131 0012 8340     		lsls	r3, r3, r0
 1132 0014 22EA0303 		bic	r3, r2, r3
 1133              		.loc 1 519 0
 1134 0018 13F0FF0F 		tst	r3, #255
ARM GAS  /tmp/ccVgHsbd.s 			page 21


 1135              		.loc 1 516 0
 1136 001c 0B60     		str	r3, [r1]
 1137              		.loc 1 519 0
 1138 001e 04D1     		bne	.L157
 1139              		.loc 1 520 0
 1140 0020 0749     		ldr	r1, .L160+4
 1141 0022 0A6B     		ldr	r2, [r1, #48]
 1142 0024 22F40012 		bic	r2, r2, #2097152
 1143 0028 0A63     		str	r2, [r1, #48]
 1144              	.L157:
 1145              		.loc 1 521 0
 1146 002a 13F47F4F 		tst	r3, #65280
 1147 002e 04D1     		bne	.L156
 1148              		.loc 1 522 0
 1149 0030 034A     		ldr	r2, .L160+4
 1150 0032 136B     		ldr	r3, [r2, #48]
 1151 0034 23F48003 		bic	r3, r3, #4194304
 1152 0038 1363     		str	r3, [r2, #48]
 1153              	.L156:
 1154 003a 10BD     		pop	{r4, pc}
 1155              	.LVL65:
 1156              	.L161:
 1157              		.align	2
 1158              	.L160:
 1159 003c 00000000 		.word	.LANCHOR1
 1160 0040 00380240 		.word	1073887232
 1161              		.cfi_endproc
 1162              	.LFE278:
 1163              		.size	dmaStreamRelease, .-dmaStreamRelease
 1164              		.global	_stm32_dma_streams
 1165 0044 AFF30080 		.section	.bss.dma_isr_redir,"aw",%nobits
 1165      AFF30080 
 1165      AFF30080 
 1166              		.align	2
 1167              		.set	.LANCHOR0,. + 0
 1168              		.type	dma_isr_redir, %object
 1169              		.size	dma_isr_redir, 128
 1170              	dma_isr_redir:
 1171 0000 00000000 		.space	128
 1171      00000000 
 1171      00000000 
 1171      00000000 
 1171      00000000 
 1172              		.section	.rodata._stm32_dma_streams,"a",%progbits
 1173              		.align	2
 1174              		.set	.LANCHOR2,. + 0
 1175              		.type	_stm32_dma_streams, %object
 1176              		.size	_stm32_dma_streams, 192
 1177              	_stm32_dma_streams:
 1178 0000 10600240 		.word	1073897488
 1179 0004 08600240 		.word	1073897480
 1180 0008 00       		.byte	0
 1181 0009 00       		.byte	0
 1182 000a 0B       		.byte	11
 1183 000b 00       		.space	1
 1184 000c 28600240 		.word	1073897512
 1185 0010 08600240 		.word	1073897480
ARM GAS  /tmp/ccVgHsbd.s 			page 22


 1186 0014 06       		.byte	6
 1187 0015 01       		.byte	1
 1188 0016 0C       		.byte	12
 1189 0017 00       		.space	1
 1190 0018 40600240 		.word	1073897536
 1191 001c 08600240 		.word	1073897480
 1192 0020 10       		.byte	16
 1193 0021 02       		.byte	2
 1194 0022 0D       		.byte	13
 1195 0023 00       		.space	1
 1196 0024 58600240 		.word	1073897560
 1197 0028 08600240 		.word	1073897480
 1198 002c 16       		.byte	22
 1199 002d 03       		.byte	3
 1200 002e 0E       		.byte	14
 1201 002f 00       		.space	1
 1202 0030 70600240 		.word	1073897584
 1203 0034 0C600240 		.word	1073897484
 1204 0038 00       		.byte	0
 1205 0039 04       		.byte	4
 1206 003a 0F       		.byte	15
 1207 003b 00       		.space	1
 1208 003c 88600240 		.word	1073897608
 1209 0040 0C600240 		.word	1073897484
 1210 0044 06       		.byte	6
 1211 0045 05       		.byte	5
 1212 0046 10       		.byte	16
 1213 0047 00       		.space	1
 1214 0048 A0600240 		.word	1073897632
 1215 004c 0C600240 		.word	1073897484
 1216 0050 10       		.byte	16
 1217 0051 06       		.byte	6
 1218 0052 11       		.byte	17
 1219 0053 00       		.space	1
 1220 0054 B8600240 		.word	1073897656
 1221 0058 0C600240 		.word	1073897484
 1222 005c 16       		.byte	22
 1223 005d 07       		.byte	7
 1224 005e 2F       		.byte	47
 1225 005f 00       		.space	1
 1226 0060 10640240 		.word	1073898512
 1227 0064 08640240 		.word	1073898504
 1228 0068 00       		.byte	0
 1229 0069 08       		.byte	8
 1230 006a 38       		.byte	56
 1231 006b 00       		.space	1
 1232 006c 28640240 		.word	1073898536
 1233 0070 08640240 		.word	1073898504
 1234 0074 06       		.byte	6
 1235 0075 09       		.byte	9
 1236 0076 39       		.byte	57
 1237 0077 00       		.space	1
 1238 0078 40640240 		.word	1073898560
 1239 007c 08640240 		.word	1073898504
 1240 0080 10       		.byte	16
 1241 0081 0A       		.byte	10
 1242 0082 3A       		.byte	58
ARM GAS  /tmp/ccVgHsbd.s 			page 23


 1243 0083 00       		.space	1
 1244 0084 58640240 		.word	1073898584
 1245 0088 08640240 		.word	1073898504
 1246 008c 16       		.byte	22
 1247 008d 0B       		.byte	11
 1248 008e 3B       		.byte	59
 1249 008f 00       		.space	1
 1250 0090 70640240 		.word	1073898608
 1251 0094 0C640240 		.word	1073898508
 1252 0098 00       		.byte	0
 1253 0099 0C       		.byte	12
 1254 009a 3C       		.byte	60
 1255 009b 00       		.space	1
 1256 009c 88640240 		.word	1073898632
 1257 00a0 0C640240 		.word	1073898508
 1258 00a4 06       		.byte	6
 1259 00a5 0D       		.byte	13
 1260 00a6 44       		.byte	68
 1261 00a7 00       		.space	1
 1262 00a8 A0640240 		.word	1073898656
 1263 00ac 0C640240 		.word	1073898508
 1264 00b0 10       		.byte	16
 1265 00b1 0E       		.byte	14
 1266 00b2 45       		.byte	69
 1267 00b3 00       		.space	1
 1268 00b4 B8640240 		.word	1073898680
 1269 00b8 0C640240 		.word	1073898508
 1270 00bc 16       		.byte	22
 1271 00bd 0F       		.byte	15
 1272 00be 46       		.byte	70
 1273 00bf 00       		.space	1
 1274              		.section	.bss.dma_streams_mask,"aw",%nobits
 1275              		.align	2
 1276              		.set	.LANCHOR1,. + 0
 1277              		.type	dma_streams_mask, %object
 1278              		.size	dma_streams_mask, 4
 1279              	dma_streams_mask:
 1280 0000 00000000 		.space	4
 1281              		.text
 1282              	.Letext0:
 1283              		.file 2 "/usr/lib/gcc/arm-none-eabi/5.2.0/include/stddef.h"
 1284              		.file 3 "/usr/arm-none-eabi/include/machine/_default_types.h"
 1285              		.file 4 "/usr/arm-none-eabi/include/stdint.h"
 1286              		.file 5 "../../os/rt/ports/ARMCMx/compilers/GCC/chtypes.h"
 1287              		.file 6 "../../os/rt/include/chsystypes.h"
 1288              		.file 7 "../../os/rt/include/chschd.h"
 1289              		.file 8 "../../os/ext/CMSIS/ST/stm32f401xc.h"
 1290              		.file 9 "../../os/rt/ports/ARMCMx/chcore.h"
 1291              		.file 10 "../../os/rt/ports/ARMCMx/chcore_v7m.h"
 1292              		.file 11 "../../os/rt/include/chtm.h"
 1293              		.file 12 "../../os/rt/include/chsem.h"
 1294              		.file 13 "../../os/rt/include/chmtx.h"
 1295              		.file 14 "../../os/hal/ports/STM32/STM32F4xx/stm32_dma.h"
 1296              		.file 15 "../../os/ext/CMSIS/include/core_cm4.h"
 1297              		.file 16 "../../os/hal/ports/common/ARMCMx/nvic.h"
 1298              		.section	.debug_info,"",%progbits
 1299              	.Ldebug_info0:
ARM GAS  /tmp/ccVgHsbd.s 			page 24


 1300 0000 FD0F0000 		.4byte	0xffd
 1301 0004 0400     		.2byte	0x4
 1302 0006 00000000 		.4byte	.Ldebug_abbrev0
 1303 000a 04       		.byte	0x4
 1304 000b 01       		.uleb128 0x1
 1305 000c 64010000 		.4byte	.LASF246
 1306 0010 0C       		.byte	0xc
 1307 0011 E2030000 		.4byte	.LASF247
 1308 0015 520A0000 		.4byte	.LASF248
 1309 0019 00000000 		.4byte	.Ldebug_ranges0+0
 1310 001d 00000000 		.4byte	0
 1311 0021 00000000 		.4byte	.Ldebug_line0
 1312 0025 02       		.uleb128 0x2
 1313 0026 04       		.byte	0x4
 1314 0027 05       		.byte	0x5
 1315 0028 696E7400 		.ascii	"int\000"
 1316 002c 03       		.uleb128 0x3
 1317 002d 31000000 		.4byte	.LASF4
 1318 0031 02       		.byte	0x2
 1319 0032 D8       		.byte	0xd8
 1320 0033 37000000 		.4byte	0x37
 1321 0037 04       		.uleb128 0x4
 1322 0038 04       		.byte	0x4
 1323 0039 07       		.byte	0x7
 1324 003a 21070000 		.4byte	.LASF0
 1325 003e 04       		.uleb128 0x4
 1326 003f 08       		.byte	0x8
 1327 0040 05       		.byte	0x5
 1328 0041 7F060000 		.4byte	.LASF1
 1329 0045 04       		.uleb128 0x4
 1330 0046 08       		.byte	0x8
 1331 0047 04       		.byte	0x4
 1332 0048 0E080000 		.4byte	.LASF2
 1333 004c 04       		.uleb128 0x4
 1334 004d 01       		.byte	0x1
 1335 004e 06       		.byte	0x6
 1336 004f BE020000 		.4byte	.LASF3
 1337 0053 03       		.uleb128 0x3
 1338 0054 2E010000 		.4byte	.LASF5
 1339 0058 03       		.byte	0x3
 1340 0059 1D       		.byte	0x1d
 1341 005a 5E000000 		.4byte	0x5e
 1342 005e 04       		.uleb128 0x4
 1343 005f 01       		.byte	0x1
 1344 0060 08       		.byte	0x8
 1345 0061 1E030000 		.4byte	.LASF6
 1346 0065 04       		.uleb128 0x4
 1347 0066 02       		.byte	0x2
 1348 0067 05       		.byte	0x5
 1349 0068 3F0A0000 		.4byte	.LASF7
 1350 006c 04       		.uleb128 0x4
 1351 006d 02       		.byte	0x2
 1352 006e 07       		.byte	0x7
 1353 006f 690B0000 		.4byte	.LASF8
 1354 0073 03       		.uleb128 0x3
 1355 0074 BB0B0000 		.4byte	.LASF9
 1356 0078 03       		.byte	0x3
ARM GAS  /tmp/ccVgHsbd.s 			page 25


 1357 0079 3F       		.byte	0x3f
 1358 007a 7E000000 		.4byte	0x7e
 1359 007e 04       		.uleb128 0x4
 1360 007f 04       		.byte	0x4
 1361 0080 05       		.byte	0x5
 1362 0081 54010000 		.4byte	.LASF10
 1363 0085 03       		.uleb128 0x3
 1364 0086 74060000 		.4byte	.LASF11
 1365 008a 03       		.byte	0x3
 1366 008b 41       		.byte	0x41
 1367 008c 90000000 		.4byte	0x90
 1368 0090 04       		.uleb128 0x4
 1369 0091 04       		.byte	0x4
 1370 0092 07       		.byte	0x7
 1371 0093 44050000 		.4byte	.LASF12
 1372 0097 03       		.uleb128 0x3
 1373 0098 2F050000 		.4byte	.LASF13
 1374 009c 03       		.byte	0x3
 1375 009d 5B       		.byte	0x5b
 1376 009e A2000000 		.4byte	0xa2
 1377 00a2 04       		.uleb128 0x4
 1378 00a3 08       		.byte	0x8
 1379 00a4 07       		.byte	0x7
 1380 00a5 CE080000 		.4byte	.LASF14
 1381 00a9 03       		.uleb128 0x3
 1382 00aa D1020000 		.4byte	.LASF15
 1383 00ae 04       		.byte	0x4
 1384 00af 15       		.byte	0x15
 1385 00b0 53000000 		.4byte	0x53
 1386 00b4 03       		.uleb128 0x3
 1387 00b5 7C000000 		.4byte	.LASF16
 1388 00b9 04       		.byte	0x4
 1389 00ba 2C       		.byte	0x2c
 1390 00bb 73000000 		.4byte	0x73
 1391 00bf 03       		.uleb128 0x3
 1392 00c0 360B0000 		.4byte	.LASF17
 1393 00c4 04       		.byte	0x4
 1394 00c5 2D       		.byte	0x2d
 1395 00c6 85000000 		.4byte	0x85
 1396 00ca 03       		.uleb128 0x3
 1397 00cb 490A0000 		.4byte	.LASF18
 1398 00cf 04       		.byte	0x4
 1399 00d0 39       		.byte	0x39
 1400 00d1 97000000 		.4byte	0x97
 1401 00d5 05       		.uleb128 0x5
 1402 00d6 B4000000 		.4byte	0xb4
 1403 00da 05       		.uleb128 0x5
 1404 00db BF000000 		.4byte	0xbf
 1405 00df 03       		.uleb128 0x3
 1406 00e0 2E070000 		.4byte	.LASF19
 1407 00e4 05       		.byte	0x5
 1408 00e5 45       		.byte	0x45
 1409 00e6 BF000000 		.4byte	0xbf
 1410 00ea 03       		.uleb128 0x3
 1411 00eb 93090000 		.4byte	.LASF20
 1412 00ef 05       		.byte	0x5
 1413 00f0 48       		.byte	0x48
ARM GAS  /tmp/ccVgHsbd.s 			page 26


 1414 00f1 A9000000 		.4byte	0xa9
 1415 00f5 03       		.uleb128 0x3
 1416 00f6 5B020000 		.4byte	.LASF21
 1417 00fa 05       		.byte	0x5
 1418 00fb 49       		.byte	0x49
 1419 00fc A9000000 		.4byte	0xa9
 1420 0100 03       		.uleb128 0x3
 1421 0101 040B0000 		.4byte	.LASF22
 1422 0105 05       		.byte	0x5
 1423 0106 4A       		.byte	0x4a
 1424 0107 A9000000 		.4byte	0xa9
 1425 010b 03       		.uleb128 0x3
 1426 010c 63000000 		.4byte	.LASF23
 1427 0110 05       		.byte	0x5
 1428 0111 4C       		.byte	0x4c
 1429 0112 BF000000 		.4byte	0xbf
 1430 0116 03       		.uleb128 0x3
 1431 0117 ED080000 		.4byte	.LASF24
 1432 011b 05       		.byte	0x5
 1433 011c 4D       		.byte	0x4d
 1434 011d B4000000 		.4byte	0xb4
 1435 0121 03       		.uleb128 0x3
 1436 0122 DE020000 		.4byte	.LASF25
 1437 0126 05       		.byte	0x5
 1438 0127 4F       		.byte	0x4f
 1439 0128 BF000000 		.4byte	0xbf
 1440 012c 03       		.uleb128 0x3
 1441 012d 8B040000 		.4byte	.LASF26
 1442 0131 05       		.byte	0x5
 1443 0132 51       		.byte	0x51
 1444 0133 B4000000 		.4byte	0xb4
 1445 0137 03       		.uleb128 0x3
 1446 0138 48000000 		.4byte	.LASF27
 1447 013c 06       		.byte	0x6
 1448 013d 33       		.byte	0x33
 1449 013e BF000000 		.4byte	0xbf
 1450 0142 03       		.uleb128 0x3
 1451 0143 05080000 		.4byte	.LASF28
 1452 0147 06       		.byte	0x6
 1453 0148 3F       		.byte	0x3f
 1454 0149 4D010000 		.4byte	0x14d
 1455 014d 06       		.uleb128 0x6
 1456 014e 96050000 		.4byte	.LASF48
 1457 0152 44       		.byte	0x44
 1458 0153 07       		.byte	0x7
 1459 0154 C2       		.byte	0xc2
 1460 0155 3A020000 		.4byte	0x23a
 1461 0159 07       		.uleb128 0x7
 1462 015a 5D010000 		.4byte	.LASF29
 1463 015e 07       		.byte	0x7
 1464 015f C3       		.byte	0xc3
 1465 0160 45020000 		.4byte	0x245
 1466 0164 00       		.byte	0
 1467 0165 07       		.uleb128 0x7
 1468 0166 42020000 		.4byte	.LASF30
 1469 016a 07       		.byte	0x7
 1470 016b C5       		.byte	0xc5
ARM GAS  /tmp/ccVgHsbd.s 			page 27


 1471 016c 45020000 		.4byte	0x245
 1472 0170 04       		.byte	0x4
 1473 0171 07       		.uleb128 0x7
 1474 0172 1A040000 		.4byte	.LASF31
 1475 0176 07       		.byte	0x7
 1476 0177 C7       		.byte	0xc7
 1477 0178 0B010000 		.4byte	0x10b
 1478 017c 08       		.byte	0x8
 1479 017d 07       		.uleb128 0x7
 1480 017e 5D000000 		.4byte	.LASF32
 1481 0182 07       		.byte	0x7
 1482 0183 C8       		.byte	0xc8
 1483 0184 4C080000 		.4byte	0x84c
 1484 0188 0C       		.byte	0xc
 1485 0189 07       		.uleb128 0x7
 1486 018a 4C010000 		.4byte	.LASF33
 1487 018e 07       		.byte	0x7
 1488 018f CA       		.byte	0xca
 1489 0190 45020000 		.4byte	0x245
 1490 0194 10       		.byte	0x10
 1491 0195 07       		.uleb128 0x7
 1492 0196 E5080000 		.4byte	.LASF34
 1493 019a 07       		.byte	0x7
 1494 019b CB       		.byte	0xcb
 1495 019c 45020000 		.4byte	0x245
 1496 01a0 14       		.byte	0x14
 1497 01a1 07       		.uleb128 0x7
 1498 01a2 CF0B0000 		.4byte	.LASF35
 1499 01a6 07       		.byte	0x7
 1500 01a7 D2       		.byte	0xd2
 1501 01a8 910A0000 		.4byte	0xa91
 1502 01ac 18       		.byte	0x18
 1503 01ad 07       		.uleb128 0x7
 1504 01ae FE0B0000 		.4byte	.LASF36
 1505 01b2 07       		.byte	0x7
 1506 01b3 DD       		.byte	0xdd
 1507 01b4 F5000000 		.4byte	0xf5
 1508 01b8 1C       		.byte	0x1c
 1509 01b9 07       		.uleb128 0x7
 1510 01ba 0A070000 		.4byte	.LASF37
 1511 01be 07       		.byte	0x7
 1512 01bf E1       		.byte	0xe1
 1513 01c0 EA000000 		.4byte	0xea
 1514 01c4 1D       		.byte	0x1d
 1515 01c5 07       		.uleb128 0x7
 1516 01c6 68070000 		.4byte	.LASF38
 1517 01ca 07       		.byte	0x7
 1518 01cb E6       		.byte	0xe6
 1519 01cc 00010000 		.4byte	0x100
 1520 01d0 1E       		.byte	0x1e
 1521 01d1 08       		.uleb128 0x8
 1522 01d2 705F7500 		.ascii	"p_u\000"
 1523 01d6 07       		.byte	0x7
 1524 01d7 3101     		.2byte	0x131
 1525 01d9 CC090000 		.4byte	0x9cc
 1526 01dd 20       		.byte	0x20
 1527 01de 09       		.uleb128 0x9
ARM GAS  /tmp/ccVgHsbd.s 			page 28


 1528 01df EF060000 		.4byte	.LASF39
 1529 01e3 07       		.byte	0x7
 1530 01e4 3601     		.2byte	0x136
 1531 01e6 4B020000 		.4byte	0x24b
 1532 01ea 24       		.byte	0x24
 1533 01eb 09       		.uleb128 0x9
 1534 01ec 6B000000 		.4byte	.LASF40
 1535 01f0 07       		.byte	0x7
 1536 01f1 3C01     		.2byte	0x13c
 1537 01f3 6F020000 		.4byte	0x26f
 1538 01f7 28       		.byte	0x28
 1539 01f8 09       		.uleb128 0x9
 1540 01f9 F80B0000 		.4byte	.LASF41
 1541 01fd 07       		.byte	0x7
 1542 01fe 4001     		.2byte	0x140
 1543 0200 16010000 		.4byte	0x116
 1544 0204 30       		.byte	0x30
 1545 0205 09       		.uleb128 0x9
 1546 0206 A6040000 		.4byte	.LASF42
 1547 020a 07       		.byte	0x7
 1548 020b 4601     		.2byte	0x146
 1549 020d 21010000 		.4byte	0x121
 1550 0211 34       		.byte	0x34
 1551 0212 09       		.uleb128 0x9
 1552 0213 74020000 		.4byte	.LASF43
 1553 0217 07       		.byte	0x7
 1554 0218 4D01     		.2byte	0x14d
 1555 021a 8B0A0000 		.4byte	0xa8b
 1556 021e 38       		.byte	0x38
 1557 021f 09       		.uleb128 0x9
 1558 0220 3F080000 		.4byte	.LASF44
 1559 0224 07       		.byte	0x7
 1560 0225 5101     		.2byte	0x151
 1561 0227 0B010000 		.4byte	0x10b
 1562 022b 3C       		.byte	0x3c
 1563 022c 09       		.uleb128 0x9
 1564 022d 36070000 		.4byte	.LASF45
 1565 0231 07       		.byte	0x7
 1566 0232 5801     		.2byte	0x158
 1567 0234 22030000 		.4byte	0x322
 1568 0238 40       		.byte	0x40
 1569 0239 00       		.byte	0
 1570 023a 03       		.uleb128 0x3
 1571 023b 2C080000 		.4byte	.LASF46
 1572 023f 06       		.byte	0x6
 1573 0240 44       		.byte	0x44
 1574 0241 45020000 		.4byte	0x245
 1575 0245 0A       		.uleb128 0xa
 1576 0246 04       		.byte	0x4
 1577 0247 42010000 		.4byte	0x142
 1578 024b 03       		.uleb128 0x3
 1579 024c 0C0B0000 		.4byte	.LASF47
 1580 0250 06       		.byte	0x6
 1581 0251 49       		.byte	0x49
 1582 0252 56020000 		.4byte	0x256
 1583 0256 06       		.uleb128 0x6
 1584 0257 0E060000 		.4byte	.LASF49
ARM GAS  /tmp/ccVgHsbd.s 			page 29


 1585 025b 04       		.byte	0x4
 1586 025c 07       		.byte	0x7
 1587 025d B0       		.byte	0xb0
 1588 025e 6F020000 		.4byte	0x26f
 1589 0262 07       		.uleb128 0x7
 1590 0263 5D010000 		.4byte	.LASF29
 1591 0267 07       		.byte	0x7
 1592 0268 B1       		.byte	0xb1
 1593 0269 45020000 		.4byte	0x245
 1594 026d 00       		.byte	0
 1595 026e 00       		.byte	0
 1596 026f 03       		.uleb128 0x3
 1597 0270 64020000 		.4byte	.LASF50
 1598 0274 06       		.byte	0x6
 1599 0275 50       		.byte	0x50
 1600 0276 7A020000 		.4byte	0x27a
 1601 027a 06       		.uleb128 0x6
 1602 027b F3080000 		.4byte	.LASF51
 1603 027f 08       		.byte	0x8
 1604 0280 07       		.byte	0x7
 1605 0281 B7       		.byte	0xb7
 1606 0282 9F020000 		.4byte	0x29f
 1607 0286 07       		.uleb128 0x7
 1608 0287 5D010000 		.4byte	.LASF29
 1609 028b 07       		.byte	0x7
 1610 028c B8       		.byte	0xb8
 1611 028d 45020000 		.4byte	0x245
 1612 0291 00       		.byte	0
 1613 0292 07       		.uleb128 0x7
 1614 0293 42020000 		.4byte	.LASF30
 1615 0297 07       		.byte	0x7
 1616 0298 B9       		.byte	0xb9
 1617 0299 45020000 		.4byte	0x245
 1618 029d 04       		.byte	0x4
 1619 029e 00       		.byte	0
 1620 029f 03       		.uleb128 0x3
 1621 02a0 EB050000 		.4byte	.LASF52
 1622 02a4 06       		.byte	0x6
 1623 02a5 57       		.byte	0x57
 1624 02a6 AA020000 		.4byte	0x2aa
 1625 02aa 0B       		.uleb128 0xb
 1626 02ab B8040000 		.4byte	.LASF53
 1627 02af 1C       		.byte	0x1c
 1628 02b0 07       		.byte	0x7
 1629 02b1 9001     		.2byte	0x190
 1630 02b3 06030000 		.4byte	0x306
 1631 02b7 09       		.uleb128 0x9
 1632 02b8 71090000 		.4byte	.LASF54
 1633 02bc 07       		.byte	0x7
 1634 02bd 9101     		.2byte	0x191
 1635 02bf 6F020000 		.4byte	0x26f
 1636 02c3 00       		.byte	0
 1637 02c4 09       		.uleb128 0x9
 1638 02c5 A20A0000 		.4byte	.LASF55
 1639 02c9 07       		.byte	0x7
 1640 02ca 9201     		.2byte	0x192
 1641 02cc 0B010000 		.4byte	0x10b
ARM GAS  /tmp/ccVgHsbd.s 			page 30


 1642 02d0 08       		.byte	0x8
 1643 02d1 09       		.uleb128 0x9
 1644 02d2 76000000 		.4byte	.LASF56
 1645 02d6 07       		.byte	0x7
 1646 02d7 9401     		.2byte	0x194
 1647 02d9 4C080000 		.4byte	0x84c
 1648 02dd 0C       		.byte	0xc
 1649 02de 09       		.uleb128 0x9
 1650 02df 7F030000 		.4byte	.LASF57
 1651 02e3 07       		.byte	0x7
 1652 02e4 9701     		.2byte	0x197
 1653 02e6 45020000 		.4byte	0x245
 1654 02ea 10       		.byte	0x10
 1655 02eb 09       		.uleb128 0x9
 1656 02ec E6090000 		.4byte	.LASF58
 1657 02f0 07       		.byte	0x7
 1658 02f1 9801     		.2byte	0x198
 1659 02f3 45020000 		.4byte	0x245
 1660 02f7 14       		.byte	0x14
 1661 02f8 09       		.uleb128 0x9
 1662 02f9 38090000 		.4byte	.LASF59
 1663 02fd 07       		.byte	0x7
 1664 02fe 9B01     		.2byte	0x19b
 1665 0300 45020000 		.4byte	0x245
 1666 0304 18       		.byte	0x18
 1667 0305 00       		.byte	0
 1668 0306 03       		.uleb128 0x3
 1669 0307 84000000 		.4byte	.LASF60
 1670 030b 06       		.byte	0x6
 1671 030c 5C       		.byte	0x5c
 1672 030d 11030000 		.4byte	0x311
 1673 0311 0A       		.uleb128 0xa
 1674 0312 04       		.byte	0x4
 1675 0313 17030000 		.4byte	0x317
 1676 0317 0C       		.uleb128 0xc
 1677 0318 22030000 		.4byte	0x322
 1678 031c 0D       		.uleb128 0xd
 1679 031d 22030000 		.4byte	0x322
 1680 0321 00       		.byte	0
 1681 0322 0E       		.uleb128 0xe
 1682 0323 04       		.byte	0x4
 1683 0324 03       		.uleb128 0x3
 1684 0325 DB050000 		.4byte	.LASF61
 1685 0329 06       		.byte	0x6
 1686 032a 61       		.byte	0x61
 1687 032b 2F030000 		.4byte	0x32f
 1688 032f 0B       		.uleb128 0xb
 1689 0330 7A080000 		.4byte	.LASF62
 1690 0334 14       		.byte	0x14
 1691 0335 07       		.byte	0x7
 1692 0336 6B01     		.2byte	0x16b
 1693 0338 7E030000 		.4byte	0x37e
 1694 033c 09       		.uleb128 0x9
 1695 033d 9B060000 		.4byte	.LASF63
 1696 0341 07       		.byte	0x7
 1697 0342 6C01     		.2byte	0x16c
 1698 0344 A30A0000 		.4byte	0xaa3
ARM GAS  /tmp/ccVgHsbd.s 			page 31


 1699 0348 00       		.byte	0
 1700 0349 09       		.uleb128 0x9
 1701 034a BF060000 		.4byte	.LASF64
 1702 034e 07       		.byte	0x7
 1703 034f 6D01     		.2byte	0x16d
 1704 0351 A30A0000 		.4byte	0xaa3
 1705 0355 04       		.byte	0x4
 1706 0356 09       		.uleb128 0x9
 1707 0357 56080000 		.4byte	.LASF65
 1708 035b 07       		.byte	0x7
 1709 035c 6E01     		.2byte	0x16e
 1710 035e 37010000 		.4byte	0x137
 1711 0362 08       		.byte	0x8
 1712 0363 09       		.uleb128 0x9
 1713 0364 9E040000 		.4byte	.LASF66
 1714 0368 07       		.byte	0x7
 1715 0369 6F01     		.2byte	0x16f
 1716 036b 06030000 		.4byte	0x306
 1717 036f 0C       		.byte	0xc
 1718 0370 09       		.uleb128 0x9
 1719 0371 14010000 		.4byte	.LASF67
 1720 0375 07       		.byte	0x7
 1721 0376 7101     		.2byte	0x171
 1722 0378 22030000 		.4byte	0x322
 1723 037c 10       		.byte	0x10
 1724 037d 00       		.byte	0
 1725 037e 03       		.uleb128 0x3
 1726 037f A0050000 		.4byte	.LASF68
 1727 0383 06       		.byte	0x6
 1728 0384 66       		.byte	0x66
 1729 0385 89030000 		.4byte	0x389
 1730 0389 0B       		.uleb128 0xb
 1731 038a 9E000000 		.4byte	.LASF69
 1732 038e 10       		.byte	0x10
 1733 038f 07       		.byte	0x7
 1734 0390 7B01     		.2byte	0x17b
 1735 0392 CB030000 		.4byte	0x3cb
 1736 0396 09       		.uleb128 0x9
 1737 0397 9B060000 		.4byte	.LASF63
 1738 039b 07       		.byte	0x7
 1739 039c 7C01     		.2byte	0x17c
 1740 039e A30A0000 		.4byte	0xaa3
 1741 03a2 00       		.byte	0
 1742 03a3 09       		.uleb128 0x9
 1743 03a4 BF060000 		.4byte	.LASF64
 1744 03a8 07       		.byte	0x7
 1745 03a9 7E01     		.2byte	0x17e
 1746 03ab A30A0000 		.4byte	0xaa3
 1747 03af 04       		.byte	0x4
 1748 03b0 09       		.uleb128 0x9
 1749 03b1 56080000 		.4byte	.LASF65
 1750 03b5 07       		.byte	0x7
 1751 03b6 8001     		.2byte	0x180
 1752 03b8 37010000 		.4byte	0x137
 1753 03bc 08       		.byte	0x8
 1754 03bd 09       		.uleb128 0x9
 1755 03be 5D0B0000 		.4byte	.LASF70
ARM GAS  /tmp/ccVgHsbd.s 			page 32


 1756 03c2 07       		.byte	0x7
 1757 03c3 8801     		.2byte	0x188
 1758 03c5 37010000 		.4byte	0x137
 1759 03c9 0C       		.byte	0xc
 1760 03ca 00       		.byte	0
 1761 03cb 03       		.uleb128 0x3
 1762 03cc 87030000 		.4byte	.LASF71
 1763 03d0 06       		.byte	0x6
 1764 03d1 6B       		.byte	0x6b
 1765 03d2 D6030000 		.4byte	0x3d6
 1766 03d6 0B       		.uleb128 0xb
 1767 03d7 BB0A0000 		.4byte	.LASF72
 1768 03db 04       		.byte	0x4
 1769 03dc 07       		.byte	0x7
 1770 03dd A201     		.2byte	0x1a2
 1771 03df F1030000 		.4byte	0x3f1
 1772 03e3 09       		.uleb128 0x9
 1773 03e4 68030000 		.4byte	.LASF73
 1774 03e8 07       		.byte	0x7
 1775 03e9 AA01     		.2byte	0x1aa
 1776 03eb A90A0000 		.4byte	0xaa9
 1777 03ef 00       		.byte	0
 1778 03f0 00       		.byte	0
 1779 03f1 03       		.uleb128 0x3
 1780 03f2 860B0000 		.4byte	.LASF74
 1781 03f6 06       		.byte	0x6
 1782 03f7 70       		.byte	0x70
 1783 03f8 FC030000 		.4byte	0x3fc
 1784 03fc 0F       		.uleb128 0xf
 1785 03fd 1B0B0000 		.4byte	.LASF75
 1786 0401 D801     		.2byte	0x1d8
 1787 0403 07       		.byte	0x7
 1788 0404 C201     		.2byte	0x1c2
 1789 0406 58040000 		.4byte	0x458
 1790 040a 09       		.uleb128 0x9
 1791 040b 8D090000 		.4byte	.LASF76
 1792 040f 07       		.byte	0x7
 1793 0410 C601     		.2byte	0x1c6
 1794 0412 9F020000 		.4byte	0x29f
 1795 0416 00       		.byte	0
 1796 0417 09       		.uleb128 0x9
 1797 0418 F50A0000 		.4byte	.LASF77
 1798 041c 07       		.byte	0x7
 1799 041d CA01     		.2byte	0x1ca
 1800 041f 7E030000 		.4byte	0x37e
 1801 0423 1C       		.byte	0x1c
 1802 0424 08       		.uleb128 0x8
 1803 0425 64626700 		.ascii	"dbg\000"
 1804 0429 07       		.byte	0x7
 1805 042a CE01     		.2byte	0x1ce
 1806 042c CB030000 		.4byte	0x3cb
 1807 0430 2C       		.byte	0x2c
 1808 0431 09       		.uleb128 0x9
 1809 0432 52090000 		.4byte	.LASF78
 1810 0436 07       		.byte	0x7
 1811 0437 D201     		.2byte	0x1d2
 1812 0439 42010000 		.4byte	0x142
ARM GAS  /tmp/ccVgHsbd.s 			page 33


 1813 043d 30       		.byte	0x30
 1814 043e 08       		.uleb128 0x8
 1815 043f 746D00   		.ascii	"tm\000"
 1816 0442 07       		.byte	0x7
 1817 0443 D701     		.2byte	0x1d7
 1818 0445 C1090000 		.4byte	0x9c1
 1819 0449 74       		.byte	0x74
 1820 044a 09       		.uleb128 0x9
 1821 044b 12070000 		.4byte	.LASF79
 1822 044f 07       		.byte	0x7
 1823 0450 E301     		.2byte	0x1e3
 1824 0452 AE0A0000 		.4byte	0xaae
 1825 0456 78       		.byte	0x78
 1826 0457 00       		.byte	0
 1827 0458 10       		.uleb128 0x10
 1828 0459 01       		.byte	0x1
 1829 045a 4C000000 		.4byte	0x4c
 1830 045e 08       		.byte	0x8
 1831 045f 56       		.byte	0x56
 1832 0460 E5050000 		.4byte	0x5e5
 1833 0464 11       		.uleb128 0x11
 1834 0465 1B050000 		.4byte	.LASF80
 1835 0469 72       		.sleb128 -14
 1836 046a 11       		.uleb128 0x11
 1837 046b 5D050000 		.4byte	.LASF81
 1838 046f 74       		.sleb128 -12
 1839 0470 11       		.uleb128 0x11
 1840 0471 1E060000 		.4byte	.LASF82
 1841 0475 75       		.sleb128 -11
 1842 0476 11       		.uleb128 0x11
 1843 0477 C6030000 		.4byte	.LASF83
 1844 047b 76       		.sleb128 -10
 1845 047c 11       		.uleb128 0x11
 1846 047d C7060000 		.4byte	.LASF84
 1847 0481 7B       		.sleb128 -5
 1848 0482 11       		.uleb128 0x11
 1849 0483 C7090000 		.4byte	.LASF85
 1850 0487 7C       		.sleb128 -4
 1851 0488 11       		.uleb128 0x11
 1852 0489 9D0B0000 		.4byte	.LASF86
 1853 048d 7E       		.sleb128 -2
 1854 048e 11       		.uleb128 0x11
 1855 048f B1020000 		.4byte	.LASF87
 1856 0493 7F       		.sleb128 -1
 1857 0494 12       		.uleb128 0x12
 1858 0495 3A050000 		.4byte	.LASF88
 1859 0499 00       		.byte	0
 1860 049a 12       		.uleb128 0x12
 1861 049b 79090000 		.4byte	.LASF89
 1862 049f 01       		.byte	0x1
 1863 04a0 12       		.uleb128 0x12
 1864 04a1 86050000 		.4byte	.LASF90
 1865 04a5 02       		.byte	0x2
 1866 04a6 12       		.uleb128 0x12
 1867 04a7 05000000 		.4byte	.LASF91
 1868 04ab 03       		.byte	0x3
 1869 04ac 12       		.uleb128 0x12
ARM GAS  /tmp/ccVgHsbd.s 			page 34


 1870 04ad DA000000 		.4byte	.LASF92
 1871 04b1 04       		.byte	0x4
 1872 04b2 12       		.uleb128 0x12
 1873 04b3 2C060000 		.4byte	.LASF93
 1874 04b7 05       		.byte	0x5
 1875 04b8 12       		.uleb128 0x12
 1876 04b9 82090000 		.4byte	.LASF94
 1877 04bd 06       		.byte	0x6
 1878 04be 12       		.uleb128 0x12
 1879 04bf D8040000 		.4byte	.LASF95
 1880 04c3 07       		.byte	0x7
 1881 04c4 12       		.uleb128 0x12
 1882 04c5 13000000 		.4byte	.LASF96
 1883 04c9 08       		.byte	0x8
 1884 04ca 12       		.uleb128 0x12
 1885 04cb 920B0000 		.4byte	.LASF97
 1886 04cf 09       		.byte	0x9
 1887 04d0 12       		.uleb128 0x12
 1888 04d1 30040000 		.4byte	.LASF98
 1889 04d5 0A       		.byte	0xa
 1890 04d6 12       		.uleb128 0x12
 1891 04d7 5F080000 		.4byte	.LASF99
 1892 04db 0B       		.byte	0xb
 1893 04dc 12       		.uleb128 0x12
 1894 04dd 93070000 		.4byte	.LASF100
 1895 04e1 0C       		.byte	0xc
 1896 04e2 12       		.uleb128 0x12
 1897 04e3 F8020000 		.4byte	.LASF101
 1898 04e7 0D       		.byte	0xd
 1899 04e8 12       		.uleb128 0x12
 1900 04e9 A90A0000 		.4byte	.LASF102
 1901 04ed 0E       		.byte	0xe
 1902 04ee 12       		.uleb128 0x12
 1903 04ef 9B090000 		.4byte	.LASF103
 1904 04f3 0F       		.byte	0xf
 1905 04f4 12       		.uleb128 0x12
 1906 04f5 EB040000 		.4byte	.LASF104
 1907 04f9 10       		.byte	0x10
 1908 04fa 12       		.uleb128 0x12
 1909 04fb E4070000 		.4byte	.LASF105
 1910 04ff 11       		.byte	0x11
 1911 0500 12       		.uleb128 0x12
 1912 0501 49090000 		.4byte	.LASF106
 1913 0505 12       		.byte	0x12
 1914 0506 12       		.uleb128 0x12
 1915 0507 440B0000 		.4byte	.LASF107
 1916 050b 17       		.byte	0x17
 1917 050c 12       		.uleb128 0x12
 1918 050d 46060000 		.4byte	.LASF108
 1919 0511 18       		.byte	0x18
 1920 0512 12       		.uleb128 0x12
 1921 0513 D50A0000 		.4byte	.LASF109
 1922 0517 19       		.byte	0x19
 1923 0518 12       		.uleb128 0x12
 1924 0519 7E020000 		.4byte	.LASF110
 1925 051d 1A       		.byte	0x1a
 1926 051e 12       		.uleb128 0x12
ARM GAS  /tmp/ccVgHsbd.s 			page 35


 1927 051f CB040000 		.4byte	.LASF111
 1928 0523 1B       		.byte	0x1b
 1929 0524 12       		.uleb128 0x12
 1930 0525 E5000000 		.4byte	.LASF112
 1931 0529 1C       		.byte	0x1c
 1932 052a 12       		.uleb128 0x12
 1933 052b 04090000 		.4byte	.LASF113
 1934 052f 1D       		.byte	0x1d
 1935 0530 12       		.uleb128 0x12
 1936 0531 46040000 		.4byte	.LASF114
 1937 0535 1E       		.byte	0x1e
 1938 0536 12       		.uleb128 0x12
 1939 0537 91040000 		.4byte	.LASF115
 1940 053b 1F       		.byte	0x1f
 1941 053c 12       		.uleb128 0x12
 1942 053d 72030000 		.4byte	.LASF116
 1943 0541 20       		.byte	0x20
 1944 0542 12       		.uleb128 0x12
 1945 0543 3E070000 		.4byte	.LASF117
 1946 0547 21       		.byte	0x21
 1947 0548 12       		.uleb128 0x12
 1948 0549 01060000 		.4byte	.LASF118
 1949 054d 22       		.byte	0x22
 1950 054e 12       		.uleb128 0x12
 1951 054f A3060000 		.4byte	.LASF119
 1952 0553 23       		.byte	0x23
 1953 0554 12       		.uleb128 0x12
 1954 0555 38010000 		.4byte	.LASF120
 1955 0559 24       		.byte	0x24
 1956 055a 12       		.uleb128 0x12
 1957 055b 0E090000 		.4byte	.LASF121
 1958 055f 25       		.byte	0x25
 1959 0560 12       		.uleb128 0x12
 1960 0561 50040000 		.4byte	.LASF122
 1961 0565 26       		.byte	0x26
 1962 0566 12       		.uleb128 0x12
 1963 0567 BF080000 		.4byte	.LASF123
 1964 056b 28       		.byte	0x28
 1965 056c 12       		.uleb128 0x12
 1966 056d 8B080000 		.4byte	.LASF124
 1967 0571 29       		.byte	0x29
 1968 0572 12       		.uleb128 0x12
 1969 0573 F9060000 		.4byte	.LASF125
 1970 0577 2A       		.byte	0x2a
 1971 0578 12       		.uleb128 0x12
 1972 0579 A90B0000 		.4byte	.LASF126
 1973 057d 2F       		.byte	0x2f
 1974 057e 12       		.uleb128 0x12
 1975 057f 7C0B0000 		.4byte	.LASF127
 1976 0583 31       		.byte	0x31
 1977 0584 12       		.uleb128 0x12
 1978 0585 B6030000 		.4byte	.LASF128
 1979 0589 32       		.byte	0x32
 1980 058a 12       		.uleb128 0x12
 1981 058b D0000000 		.4byte	.LASF129
 1982 058f 33       		.byte	0x33
 1983 0590 12       		.uleb128 0x12
ARM GAS  /tmp/ccVgHsbd.s 			page 36


 1984 0591 C9050000 		.4byte	.LASF130
 1985 0595 38       		.byte	0x38
 1986 0596 12       		.uleb128 0x12
 1987 0597 BE000000 		.4byte	.LASF131
 1988 059b 39       		.byte	0x39
 1989 059c 12       		.uleb128 0x12
 1990 059d E60B0000 		.4byte	.LASF132
 1991 05a1 3A       		.byte	0x3a
 1992 05a2 12       		.uleb128 0x12
 1993 05a3 A5070000 		.4byte	.LASF133
 1994 05a7 3B       		.byte	0x3b
 1995 05a8 12       		.uleb128 0x12
 1996 05a9 2C030000 		.4byte	.LASF134
 1997 05ad 3C       		.byte	0x3c
 1998 05ae 12       		.uleb128 0x12
 1999 05af 0F050000 		.4byte	.LASF135
 2000 05b3 43       		.byte	0x43
 2001 05b4 12       		.uleb128 0x12
 2002 05b5 49020000 		.4byte	.LASF136
 2003 05b9 44       		.byte	0x44
 2004 05ba 12       		.uleb128 0x12
 2005 05bb AD090000 		.4byte	.LASF137
 2006 05bf 45       		.byte	0x45
 2007 05c0 12       		.uleb128 0x12
 2008 05c1 FD040000 		.4byte	.LASF138
 2009 05c5 46       		.byte	0x46
 2010 05c6 12       		.uleb128 0x12
 2011 05c7 00010000 		.4byte	.LASF139
 2012 05cb 47       		.byte	0x47
 2013 05cc 12       		.uleb128 0x12
 2014 05cd D9090000 		.4byte	.LASF140
 2015 05d1 48       		.byte	0x48
 2016 05d2 12       		.uleb128 0x12
 2017 05d3 B2080000 		.4byte	.LASF141
 2018 05d7 49       		.byte	0x49
 2019 05d8 12       		.uleb128 0x12
 2020 05d9 DC060000 		.4byte	.LASF142
 2021 05dd 51       		.byte	0x51
 2022 05de 12       		.uleb128 0x12
 2023 05df A8080000 		.4byte	.LASF143
 2024 05e3 54       		.byte	0x54
 2025 05e4 00       		.byte	0
 2026 05e5 04       		.uleb128 0x4
 2027 05e6 04       		.byte	0x4
 2028 05e7 07       		.byte	0x7
 2029 05e8 38000000 		.4byte	.LASF144
 2030 05ec 13       		.uleb128 0x13
 2031 05ed BF000000 		.4byte	0xbf
 2032 05f1 FC050000 		.4byte	0x5fc
 2033 05f5 14       		.uleb128 0x14
 2034 05f6 E5050000 		.4byte	0x5e5
 2035 05fa 01       		.byte	0x1
 2036 05fb 00       		.byte	0
 2037 05fc 15       		.uleb128 0x15
 2038 05fd 18       		.byte	0x18
 2039 05fe 08       		.byte	0x8
 2040 05ff E9       		.byte	0xe9
ARM GAS  /tmp/ccVgHsbd.s 			page 37


 2041 0600 4C060000 		.4byte	0x64c
 2042 0604 16       		.uleb128 0x16
 2043 0605 435200   		.ascii	"CR\000"
 2044 0608 08       		.byte	0x8
 2045 0609 EB       		.byte	0xeb
 2046 060a DA000000 		.4byte	0xda
 2047 060e 00       		.byte	0
 2048 060f 07       		.uleb128 0x7
 2049 0610 C50B0000 		.4byte	.LASF145
 2050 0614 08       		.byte	0x8
 2051 0615 EC       		.byte	0xec
 2052 0616 DA000000 		.4byte	0xda
 2053 061a 04       		.byte	0x4
 2054 061b 16       		.uleb128 0x16
 2055 061c 50415200 		.ascii	"PAR\000"
 2056 0620 08       		.byte	0x8
 2057 0621 ED       		.byte	0xed
 2058 0622 DA000000 		.4byte	0xda
 2059 0626 08       		.byte	0x8
 2060 0627 07       		.uleb128 0x7
 2061 0628 080A0000 		.4byte	.LASF146
 2062 062c 08       		.byte	0x8
 2063 062d EE       		.byte	0xee
 2064 062e DA000000 		.4byte	0xda
 2065 0632 0C       		.byte	0xc
 2066 0633 07       		.uleb128 0x7
 2067 0634 00000000 		.4byte	.LASF147
 2068 0638 08       		.byte	0x8
 2069 0639 EF       		.byte	0xef
 2070 063a DA000000 		.4byte	0xda
 2071 063e 10       		.byte	0x10
 2072 063f 16       		.uleb128 0x16
 2073 0640 46435200 		.ascii	"FCR\000"
 2074 0644 08       		.byte	0x8
 2075 0645 F0       		.byte	0xf0
 2076 0646 DA000000 		.4byte	0xda
 2077 064a 14       		.byte	0x14
 2078 064b 00       		.byte	0
 2079 064c 03       		.uleb128 0x3
 2080 064d B7070000 		.4byte	.LASF148
 2081 0651 08       		.byte	0x8
 2082 0652 F1       		.byte	0xf1
 2083 0653 FC050000 		.4byte	0x5fc
 2084 0657 15       		.uleb128 0x15
 2085 0658 10       		.byte	0x10
 2086 0659 08       		.byte	0x8
 2087 065a F3       		.byte	0xf3
 2088 065b 90060000 		.4byte	0x690
 2089 065f 07       		.uleb128 0x7
 2090 0660 510B0000 		.4byte	.LASF149
 2091 0664 08       		.byte	0x8
 2092 0665 F5       		.byte	0xf5
 2093 0666 DA000000 		.4byte	0xda
 2094 066a 00       		.byte	0
 2095 066b 07       		.uleb128 0x7
 2096 066c 3F0B0000 		.4byte	.LASF150
 2097 0670 08       		.byte	0x8
ARM GAS  /tmp/ccVgHsbd.s 			page 38


 2098 0671 F6       		.byte	0xf6
 2099 0672 DA000000 		.4byte	0xda
 2100 0676 04       		.byte	0x4
 2101 0677 07       		.uleb128 0x7
 2102 0678 C0030000 		.4byte	.LASF151
 2103 067c 08       		.byte	0x8
 2104 067d F7       		.byte	0xf7
 2105 067e DA000000 		.4byte	0xda
 2106 0682 08       		.byte	0x8
 2107 0683 07       		.uleb128 0x7
 2108 0684 F6070000 		.4byte	.LASF152
 2109 0688 08       		.byte	0x8
 2110 0689 F8       		.byte	0xf8
 2111 068a DA000000 		.4byte	0xda
 2112 068e 0C       		.byte	0xc
 2113 068f 00       		.byte	0
 2114 0690 03       		.uleb128 0x3
 2115 0691 5C030000 		.4byte	.LASF153
 2116 0695 08       		.byte	0x8
 2117 0696 F9       		.byte	0xf9
 2118 0697 57060000 		.4byte	0x657
 2119 069b 17       		.uleb128 0x17
 2120 069c 88       		.byte	0x88
 2121 069d 08       		.byte	0x8
 2122 069e 6401     		.2byte	0x164
 2123 06a0 2A080000 		.4byte	0x82a
 2124 06a4 08       		.uleb128 0x8
 2125 06a5 435200   		.ascii	"CR\000"
 2126 06a8 08       		.byte	0x8
 2127 06a9 6601     		.2byte	0x166
 2128 06ab DA000000 		.4byte	0xda
 2129 06af 00       		.byte	0
 2130 06b0 09       		.uleb128 0x9
 2131 06b1 35060000 		.4byte	.LASF154
 2132 06b5 08       		.byte	0x8
 2133 06b6 6701     		.2byte	0x167
 2134 06b8 DA000000 		.4byte	0xda
 2135 06bc 04       		.byte	0x4
 2136 06bd 09       		.uleb128 0x9
 2137 06be C6040000 		.4byte	.LASF155
 2138 06c2 08       		.byte	0x8
 2139 06c3 6801     		.2byte	0x168
 2140 06c5 DA000000 		.4byte	0xda
 2141 06c9 08       		.byte	0x8
 2142 06ca 08       		.uleb128 0x8
 2143 06cb 43495200 		.ascii	"CIR\000"
 2144 06cf 08       		.byte	0x8
 2145 06d0 6901     		.2byte	0x169
 2146 06d2 DA000000 		.4byte	0xda
 2147 06d6 0C       		.byte	0xc
 2148 06d7 09       		.uleb128 0x9
 2149 06d8 11040000 		.4byte	.LASF156
 2150 06dc 08       		.byte	0x8
 2151 06dd 6A01     		.2byte	0x16a
 2152 06df DA000000 		.4byte	0xda
 2153 06e3 10       		.byte	0x10
 2154 06e4 09       		.uleb128 0x9
ARM GAS  /tmp/ccVgHsbd.s 			page 39


 2155 06e5 FF090000 		.4byte	.LASF157
 2156 06e9 08       		.byte	0x8
 2157 06ea 6B01     		.2byte	0x16b
 2158 06ec DA000000 		.4byte	0xda
 2159 06f0 14       		.byte	0x14
 2160 06f1 09       		.uleb128 0x9
 2161 06f2 FC070000 		.4byte	.LASF158
 2162 06f6 08       		.byte	0x8
 2163 06f7 6C01     		.2byte	0x16c
 2164 06f9 DA000000 		.4byte	0xda
 2165 06fd 18       		.byte	0x18
 2166 06fe 09       		.uleb128 0x9
 2167 06ff 0A030000 		.4byte	.LASF159
 2168 0703 08       		.byte	0x8
 2169 0704 6D01     		.2byte	0x16d
 2170 0706 BF000000 		.4byte	0xbf
 2171 070a 1C       		.byte	0x1c
 2172 070b 09       		.uleb128 0x9
 2173 070c 71080000 		.4byte	.LASF160
 2174 0710 08       		.byte	0x8
 2175 0711 6E01     		.2byte	0x16e
 2176 0713 DA000000 		.4byte	0xda
 2177 0717 20       		.byte	0x20
 2178 0718 09       		.uleb128 0x9
 2179 0719 D3060000 		.4byte	.LASF161
 2180 071d 08       		.byte	0x8
 2181 071e 6F01     		.2byte	0x16f
 2182 0720 DA000000 		.4byte	0xda
 2183 0724 24       		.byte	0x24
 2184 0725 09       		.uleb128 0x9
 2185 0726 14030000 		.4byte	.LASF162
 2186 072a 08       		.byte	0x8
 2187 072b 7001     		.2byte	0x170
 2188 072d EC050000 		.4byte	0x5ec
 2189 0731 28       		.byte	0x28
 2190 0732 09       		.uleb128 0x9
 2191 0733 BF090000 		.4byte	.LASF163
 2192 0737 08       		.byte	0x8
 2193 0738 7101     		.2byte	0x171
 2194 073a DA000000 		.4byte	0xda
 2195 073e 30       		.byte	0x30
 2196 073f 09       		.uleb128 0x9
 2197 0740 21040000 		.4byte	.LASF164
 2198 0744 08       		.byte	0x8
 2199 0745 7201     		.2byte	0x172
 2200 0747 DA000000 		.4byte	0xda
 2201 074b 34       		.byte	0x34
 2202 074c 09       		.uleb128 0x9
 2203 074d E3040000 		.4byte	.LASF165
 2204 0751 08       		.byte	0x8
 2205 0752 7301     		.2byte	0x173
 2206 0754 DA000000 		.4byte	0xda
 2207 0758 38       		.byte	0x38
 2208 0759 09       		.uleb128 0x9
 2209 075a 9C030000 		.4byte	.LASF166
 2210 075e 08       		.byte	0x8
 2211 075f 7401     		.2byte	0x174
ARM GAS  /tmp/ccVgHsbd.s 			page 40


 2212 0761 BF000000 		.4byte	0xbf
 2213 0765 3C       		.byte	0x3c
 2214 0766 09       		.uleb128 0x9
 2215 0767 9A080000 		.4byte	.LASF167
 2216 076b 08       		.byte	0x8
 2217 076c 7501     		.2byte	0x175
 2218 076e DA000000 		.4byte	0xda
 2219 0772 40       		.byte	0x40
 2220 0773 09       		.uleb128 0x9
 2221 0774 9F020000 		.4byte	.LASF168
 2222 0778 08       		.byte	0x8
 2223 0779 7601     		.2byte	0x176
 2224 077b DA000000 		.4byte	0xda
 2225 077f 44       		.byte	0x44
 2226 0780 09       		.uleb128 0x9
 2227 0781 A6030000 		.4byte	.LASF169
 2228 0785 08       		.byte	0x8
 2229 0786 7701     		.2byte	0x177
 2230 0788 EC050000 		.4byte	0x5ec
 2231 078c 48       		.byte	0x48
 2232 078d 09       		.uleb128 0x9
 2233 078e A7020000 		.4byte	.LASF170
 2234 0792 08       		.byte	0x8
 2235 0793 7801     		.2byte	0x178
 2236 0795 DA000000 		.4byte	0xda
 2237 0799 50       		.byte	0x50
 2238 079a 09       		.uleb128 0x9
 2239 079b 42010000 		.4byte	.LASF171
 2240 079f 08       		.byte	0x8
 2241 07a0 7901     		.2byte	0x179
 2242 07a2 DA000000 		.4byte	0xda
 2243 07a6 54       		.byte	0x54
 2244 07a7 09       		.uleb128 0x9
 2245 07a8 67090000 		.4byte	.LASF172
 2246 07ac 08       		.byte	0x8
 2247 07ad 7A01     		.2byte	0x17a
 2248 07af DA000000 		.4byte	0xda
 2249 07b3 58       		.byte	0x58
 2250 07b4 09       		.uleb128 0x9
 2251 07b5 3E030000 		.4byte	.LASF173
 2252 07b9 08       		.byte	0x8
 2253 07ba 7B01     		.2byte	0x17b
 2254 07bc BF000000 		.4byte	0xbf
 2255 07c0 5C       		.byte	0x5c
 2256 07c1 09       		.uleb128 0x9
 2257 07c2 89070000 		.4byte	.LASF174
 2258 07c6 08       		.byte	0x8
 2259 07c7 7C01     		.2byte	0x17c
 2260 07c9 DA000000 		.4byte	0xda
 2261 07cd 60       		.byte	0x60
 2262 07ce 09       		.uleb128 0x9
 2263 07cf E5060000 		.4byte	.LASF175
 2264 07d3 08       		.byte	0x8
 2265 07d4 7D01     		.2byte	0x17d
 2266 07d6 DA000000 		.4byte	0xda
 2267 07da 64       		.byte	0x64
 2268 07db 09       		.uleb128 0x9
ARM GAS  /tmp/ccVgHsbd.s 			page 41


 2269 07dc 48030000 		.4byte	.LASF176
 2270 07e0 08       		.byte	0x8
 2271 07e1 7E01     		.2byte	0x17e
 2272 07e3 EC050000 		.4byte	0x5ec
 2273 07e7 68       		.byte	0x68
 2274 07e8 09       		.uleb128 0x9
 2275 07e9 7D040000 		.4byte	.LASF177
 2276 07ed 08       		.byte	0x8
 2277 07ee 7F01     		.2byte	0x17f
 2278 07f0 DA000000 		.4byte	0xda
 2279 07f4 70       		.byte	0x70
 2280 07f5 08       		.uleb128 0x8
 2281 07f6 43535200 		.ascii	"CSR\000"
 2282 07fa 08       		.byte	0x8
 2283 07fb 8001     		.2byte	0x180
 2284 07fd DA000000 		.4byte	0xda
 2285 0801 74       		.byte	0x74
 2286 0802 09       		.uleb128 0x9
 2287 0803 52030000 		.4byte	.LASF178
 2288 0807 08       		.byte	0x8
 2289 0808 8101     		.2byte	0x181
 2290 080a EC050000 		.4byte	0x5ec
 2291 080e 78       		.byte	0x78
 2292 080f 09       		.uleb128 0x9
 2293 0810 95060000 		.4byte	.LASF179
 2294 0814 08       		.byte	0x8
 2295 0815 8201     		.2byte	0x182
 2296 0817 DA000000 		.4byte	0xda
 2297 081b 80       		.byte	0x80
 2298 081c 09       		.uleb128 0x9
 2299 081d 52000000 		.4byte	.LASF180
 2300 0821 08       		.byte	0x8
 2301 0822 8301     		.2byte	0x183
 2302 0824 DA000000 		.4byte	0xda
 2303 0828 84       		.byte	0x84
 2304 0829 00       		.byte	0
 2305 082a 18       		.uleb128 0x18
 2306 082b 330A0000 		.4byte	.LASF181
 2307 082f 08       		.byte	0x8
 2308 0830 8501     		.2byte	0x185
 2309 0832 9B060000 		.4byte	0x69b
 2310 0836 03       		.uleb128 0x3
 2311 0837 96020000 		.4byte	.LASF182
 2312 083b 09       		.byte	0x9
 2313 083c 65       		.byte	0x65
 2314 083d 22030000 		.4byte	0x322
 2315 0841 03       		.uleb128 0x3
 2316 0842 3B040000 		.4byte	.LASF183
 2317 0846 09       		.byte	0x9
 2318 0847 6D       		.byte	0x6d
 2319 0848 CA000000 		.4byte	0xca
 2320 084c 06       		.uleb128 0x6
 2321 084d EA020000 		.4byte	.LASF184
 2322 0851 04       		.byte	0x4
 2323 0852 09       		.byte	0x9
 2324 0853 89       		.byte	0x89
 2325 0854 65080000 		.4byte	0x865
ARM GAS  /tmp/ccVgHsbd.s 			page 42


 2326 0858 16       		.uleb128 0x16
 2327 0859 72313300 		.ascii	"r13\000"
 2328 085d 09       		.byte	0x9
 2329 085e 8A       		.byte	0x8a
 2330 085f A6090000 		.4byte	0x9a6
 2331 0863 00       		.byte	0
 2332 0864 00       		.byte	0
 2333 0865 06       		.uleb128 0x6
 2334 0866 4A080000 		.4byte	.LASF185
 2335 086a 64       		.byte	0x64
 2336 086b 0A       		.byte	0xa
 2337 086c F4       		.byte	0xf4
 2338 086d A6090000 		.4byte	0x9a6
 2339 0871 16       		.uleb128 0x16
 2340 0872 73313600 		.ascii	"s16\000"
 2341 0876 0A       		.byte	0xa
 2342 0877 F6       		.byte	0xf6
 2343 0878 36080000 		.4byte	0x836
 2344 087c 00       		.byte	0
 2345 087d 16       		.uleb128 0x16
 2346 087e 73313700 		.ascii	"s17\000"
 2347 0882 0A       		.byte	0xa
 2348 0883 F7       		.byte	0xf7
 2349 0884 36080000 		.4byte	0x836
 2350 0888 04       		.byte	0x4
 2351 0889 16       		.uleb128 0x16
 2352 088a 73313800 		.ascii	"s18\000"
 2353 088e 0A       		.byte	0xa
 2354 088f F8       		.byte	0xf8
 2355 0890 36080000 		.4byte	0x836
 2356 0894 08       		.byte	0x8
 2357 0895 16       		.uleb128 0x16
 2358 0896 73313900 		.ascii	"s19\000"
 2359 089a 0A       		.byte	0xa
 2360 089b F9       		.byte	0xf9
 2361 089c 36080000 		.4byte	0x836
 2362 08a0 0C       		.byte	0xc
 2363 08a1 16       		.uleb128 0x16
 2364 08a2 73323000 		.ascii	"s20\000"
 2365 08a6 0A       		.byte	0xa
 2366 08a7 FA       		.byte	0xfa
 2367 08a8 36080000 		.4byte	0x836
 2368 08ac 10       		.byte	0x10
 2369 08ad 16       		.uleb128 0x16
 2370 08ae 73323100 		.ascii	"s21\000"
 2371 08b2 0A       		.byte	0xa
 2372 08b3 FB       		.byte	0xfb
 2373 08b4 36080000 		.4byte	0x836
 2374 08b8 14       		.byte	0x14
 2375 08b9 16       		.uleb128 0x16
 2376 08ba 73323200 		.ascii	"s22\000"
 2377 08be 0A       		.byte	0xa
 2378 08bf FC       		.byte	0xfc
 2379 08c0 36080000 		.4byte	0x836
 2380 08c4 18       		.byte	0x18
 2381 08c5 16       		.uleb128 0x16
 2382 08c6 73323300 		.ascii	"s23\000"
ARM GAS  /tmp/ccVgHsbd.s 			page 43


 2383 08ca 0A       		.byte	0xa
 2384 08cb FD       		.byte	0xfd
 2385 08cc 36080000 		.4byte	0x836
 2386 08d0 1C       		.byte	0x1c
 2387 08d1 16       		.uleb128 0x16
 2388 08d2 73323400 		.ascii	"s24\000"
 2389 08d6 0A       		.byte	0xa
 2390 08d7 FE       		.byte	0xfe
 2391 08d8 36080000 		.4byte	0x836
 2392 08dc 20       		.byte	0x20
 2393 08dd 16       		.uleb128 0x16
 2394 08de 73323500 		.ascii	"s25\000"
 2395 08e2 0A       		.byte	0xa
 2396 08e3 FF       		.byte	0xff
 2397 08e4 36080000 		.4byte	0x836
 2398 08e8 24       		.byte	0x24
 2399 08e9 08       		.uleb128 0x8
 2400 08ea 73323600 		.ascii	"s26\000"
 2401 08ee 0A       		.byte	0xa
 2402 08ef 0001     		.2byte	0x100
 2403 08f1 36080000 		.4byte	0x836
 2404 08f5 28       		.byte	0x28
 2405 08f6 08       		.uleb128 0x8
 2406 08f7 73323700 		.ascii	"s27\000"
 2407 08fb 0A       		.byte	0xa
 2408 08fc 0101     		.2byte	0x101
 2409 08fe 36080000 		.4byte	0x836
 2410 0902 2C       		.byte	0x2c
 2411 0903 08       		.uleb128 0x8
 2412 0904 73323800 		.ascii	"s28\000"
 2413 0908 0A       		.byte	0xa
 2414 0909 0201     		.2byte	0x102
 2415 090b 36080000 		.4byte	0x836
 2416 090f 30       		.byte	0x30
 2417 0910 08       		.uleb128 0x8
 2418 0911 73323900 		.ascii	"s29\000"
 2419 0915 0A       		.byte	0xa
 2420 0916 0301     		.2byte	0x103
 2421 0918 36080000 		.4byte	0x836
 2422 091c 34       		.byte	0x34
 2423 091d 08       		.uleb128 0x8
 2424 091e 73333000 		.ascii	"s30\000"
 2425 0922 0A       		.byte	0xa
 2426 0923 0401     		.2byte	0x104
 2427 0925 36080000 		.4byte	0x836
 2428 0929 38       		.byte	0x38
 2429 092a 08       		.uleb128 0x8
 2430 092b 73333100 		.ascii	"s31\000"
 2431 092f 0A       		.byte	0xa
 2432 0930 0501     		.2byte	0x105
 2433 0932 36080000 		.4byte	0x836
 2434 0936 3C       		.byte	0x3c
 2435 0937 08       		.uleb128 0x8
 2436 0938 723400   		.ascii	"r4\000"
 2437 093b 0A       		.byte	0xa
 2438 093c 0701     		.2byte	0x107
 2439 093e 36080000 		.4byte	0x836
ARM GAS  /tmp/ccVgHsbd.s 			page 44


 2440 0942 40       		.byte	0x40
 2441 0943 08       		.uleb128 0x8
 2442 0944 723500   		.ascii	"r5\000"
 2443 0947 0A       		.byte	0xa
 2444 0948 0801     		.2byte	0x108
 2445 094a 36080000 		.4byte	0x836
 2446 094e 44       		.byte	0x44
 2447 094f 08       		.uleb128 0x8
 2448 0950 723600   		.ascii	"r6\000"
 2449 0953 0A       		.byte	0xa
 2450 0954 0901     		.2byte	0x109
 2451 0956 36080000 		.4byte	0x836
 2452 095a 48       		.byte	0x48
 2453 095b 08       		.uleb128 0x8
 2454 095c 723700   		.ascii	"r7\000"
 2455 095f 0A       		.byte	0xa
 2456 0960 0A01     		.2byte	0x10a
 2457 0962 36080000 		.4byte	0x836
 2458 0966 4C       		.byte	0x4c
 2459 0967 08       		.uleb128 0x8
 2460 0968 723800   		.ascii	"r8\000"
 2461 096b 0A       		.byte	0xa
 2462 096c 0B01     		.2byte	0x10b
 2463 096e 36080000 		.4byte	0x836
 2464 0972 50       		.byte	0x50
 2465 0973 08       		.uleb128 0x8
 2466 0974 723900   		.ascii	"r9\000"
 2467 0977 0A       		.byte	0xa
 2468 0978 0C01     		.2byte	0x10c
 2469 097a 36080000 		.4byte	0x836
 2470 097e 54       		.byte	0x54
 2471 097f 08       		.uleb128 0x8
 2472 0980 72313000 		.ascii	"r10\000"
 2473 0984 0A       		.byte	0xa
 2474 0985 0D01     		.2byte	0x10d
 2475 0987 36080000 		.4byte	0x836
 2476 098b 58       		.byte	0x58
 2477 098c 08       		.uleb128 0x8
 2478 098d 72313100 		.ascii	"r11\000"
 2479 0991 0A       		.byte	0xa
 2480 0992 0E01     		.2byte	0x10e
 2481 0994 36080000 		.4byte	0x836
 2482 0998 5C       		.byte	0x5c
 2483 0999 08       		.uleb128 0x8
 2484 099a 6C7200   		.ascii	"lr\000"
 2485 099d 0A       		.byte	0xa
 2486 099e 0F01     		.2byte	0x10f
 2487 09a0 36080000 		.4byte	0x836
 2488 09a4 60       		.byte	0x60
 2489 09a5 00       		.byte	0
 2490 09a6 0A       		.uleb128 0xa
 2491 09a7 04       		.byte	0x4
 2492 09a8 65080000 		.4byte	0x865
 2493 09ac 15       		.uleb128 0x15
 2494 09ad 04       		.byte	0x4
 2495 09ae 0B       		.byte	0xb
 2496 09af 38       		.byte	0x38
ARM GAS  /tmp/ccVgHsbd.s 			page 45


 2497 09b0 C1090000 		.4byte	0x9c1
 2498 09b4 07       		.uleb128 0x7
 2499 09b5 82070000 		.4byte	.LASF186
 2500 09b9 0B       		.byte	0xb
 2501 09ba 3C       		.byte	0x3c
 2502 09bb DF000000 		.4byte	0xdf
 2503 09bf 00       		.byte	0
 2504 09c0 00       		.byte	0
 2505 09c1 03       		.uleb128 0x3
 2506 09c2 EE090000 		.4byte	.LASF187
 2507 09c6 0B       		.byte	0xb
 2508 09c7 3D       		.byte	0x3d
 2509 09c8 AC090000 		.4byte	0x9ac
 2510 09cc 19       		.uleb128 0x19
 2511 09cd 04       		.byte	0x4
 2512 09ce 07       		.byte	0x7
 2513 09cf FA       		.byte	0xfa
 2514 09d0 290A0000 		.4byte	0xa29
 2515 09d4 1A       		.uleb128 0x1a
 2516 09d5 560B0000 		.4byte	.LASF188
 2517 09d9 07       		.byte	0x7
 2518 09da 0101     		.2byte	0x101
 2519 09dc 16010000 		.4byte	0x116
 2520 09e0 1A       		.uleb128 0x1a
 2521 09e1 25010000 		.4byte	.LASF189
 2522 09e5 07       		.byte	0x7
 2523 09e6 0801     		.2byte	0x108
 2524 09e8 16010000 		.4byte	0x116
 2525 09ec 1A       		.uleb128 0x1a
 2526 09ed 29040000 		.4byte	.LASF190
 2527 09f1 07       		.byte	0x7
 2528 09f2 0F01     		.2byte	0x10f
 2529 09f4 22030000 		.4byte	0x322
 2530 09f8 1A       		.uleb128 0x1a
 2531 09f9 F2020000 		.4byte	.LASF191
 2532 09fd 07       		.byte	0x7
 2533 09fe 1601     		.2byte	0x116
 2534 0a00 290A0000 		.4byte	0xa29
 2535 0a04 1A       		.uleb128 0x1a
 2536 0a05 41000000 		.4byte	.LASF192
 2537 0a09 07       		.byte	0x7
 2538 0a0a 1E01     		.2byte	0x11e
 2539 0a0c 540A0000 		.4byte	0xa54
 2540 0a10 1A       		.uleb128 0x1a
 2541 0a11 B1040000 		.4byte	.LASF193
 2542 0a15 07       		.byte	0x7
 2543 0a16 2701     		.2byte	0x127
 2544 0a18 8B0A0000 		.4byte	0xa8b
 2545 0a1c 1A       		.uleb128 0x1a
 2546 0a1d CA020000 		.4byte	.LASF194
 2547 0a21 07       		.byte	0x7
 2548 0a22 2F01     		.2byte	0x12f
 2549 0a24 21010000 		.4byte	0x121
 2550 0a28 00       		.byte	0
 2551 0a29 0A       		.uleb128 0xa
 2552 0a2a 04       		.byte	0x4
 2553 0a2b 3A020000 		.4byte	0x23a
ARM GAS  /tmp/ccVgHsbd.s 			page 46


 2554 0a2f 06       		.uleb128 0x6
 2555 0a30 79050000 		.4byte	.LASF195
 2556 0a34 0C       		.byte	0xc
 2557 0a35 0C       		.byte	0xc
 2558 0a36 34       		.byte	0x34
 2559 0a37 540A0000 		.4byte	0xa54
 2560 0a3b 07       		.uleb128 0x7
 2561 0a3c 0D0A0000 		.4byte	.LASF196
 2562 0a40 0C       		.byte	0xc
 2563 0a41 35       		.byte	0x35
 2564 0a42 6F020000 		.4byte	0x26f
 2565 0a46 00       		.byte	0
 2566 0a47 07       		.uleb128 0x7
 2567 0a48 A2080000 		.4byte	.LASF197
 2568 0a4c 0C       		.byte	0xc
 2569 0a4d 37       		.byte	0x37
 2570 0a4e 2C010000 		.4byte	0x12c
 2571 0a52 08       		.byte	0x8
 2572 0a53 00       		.byte	0
 2573 0a54 0A       		.uleb128 0xa
 2574 0a55 04       		.byte	0x4
 2575 0a56 2F0A0000 		.4byte	0xa2f
 2576 0a5a 06       		.uleb128 0x6
 2577 0a5b 990A0000 		.4byte	.LASF198
 2578 0a5f 10       		.byte	0x10
 2579 0a60 0D       		.byte	0xd
 2580 0a61 39       		.byte	0x39
 2581 0a62 8B0A0000 		.4byte	0xa8b
 2582 0a66 07       		.uleb128 0x7
 2583 0a67 8D060000 		.4byte	.LASF199
 2584 0a6b 0D       		.byte	0xd
 2585 0a6c 3A       		.byte	0x3a
 2586 0a6d 6F020000 		.4byte	0x26f
 2587 0a71 00       		.byte	0
 2588 0a72 07       		.uleb128 0x7
 2589 0a73 0C010000 		.4byte	.LASF200
 2590 0a77 0D       		.byte	0xd
 2591 0a78 3C       		.byte	0x3c
 2592 0a79 45020000 		.4byte	0x245
 2593 0a7d 08       		.byte	0x8
 2594 0a7e 07       		.uleb128 0x7
 2595 0a7f D60B0000 		.4byte	.LASF201
 2596 0a83 0D       		.byte	0xd
 2597 0a84 3E       		.byte	0x3e
 2598 0a85 C90A0000 		.4byte	0xac9
 2599 0a89 0C       		.byte	0xc
 2600 0a8a 00       		.byte	0
 2601 0a8b 0A       		.uleb128 0xa
 2602 0a8c 04       		.byte	0x4
 2603 0a8d 5A0A0000 		.4byte	0xa5a
 2604 0a91 0A       		.uleb128 0xa
 2605 0a92 04       		.byte	0x4
 2606 0a93 9E0A0000 		.4byte	0xa9e
 2607 0a97 04       		.uleb128 0x4
 2608 0a98 01       		.byte	0x1
 2609 0a99 08       		.byte	0x8
 2610 0a9a D6030000 		.4byte	.LASF202
ARM GAS  /tmp/ccVgHsbd.s 			page 47


 2611 0a9e 1B       		.uleb128 0x1b
 2612 0a9f 970A0000 		.4byte	0xa97
 2613 0aa3 0A       		.uleb128 0xa
 2614 0aa4 04       		.byte	0x4
 2615 0aa5 24030000 		.4byte	0x324
 2616 0aa9 05       		.uleb128 0x5
 2617 0aaa 910A0000 		.4byte	0xa91
 2618 0aae 13       		.uleb128 0x13
 2619 0aaf 41080000 		.4byte	0x841
 2620 0ab3 BE0A0000 		.4byte	0xabe
 2621 0ab7 14       		.uleb128 0x14
 2622 0ab8 E5050000 		.4byte	0x5e5
 2623 0abc 2B       		.byte	0x2b
 2624 0abd 00       		.byte	0
 2625 0abe 03       		.uleb128 0x3
 2626 0abf FC0A0000 		.4byte	.LASF203
 2627 0ac3 0D       		.byte	0xd
 2628 0ac4 34       		.byte	0x34
 2629 0ac5 5A0A0000 		.4byte	0xa5a
 2630 0ac9 0A       		.uleb128 0xa
 2631 0aca 04       		.byte	0x4
 2632 0acb BE0A0000 		.4byte	0xabe
 2633 0acf 15       		.uleb128 0x15
 2634 0ad0 0C       		.byte	0xc
 2635 0ad1 0E       		.byte	0xe
 2636 0ad2 DA       		.byte	0xda
 2637 0ad3 140B0000 		.4byte	0xb14
 2638 0ad7 07       		.uleb128 0x7
 2639 0ad8 5C040000 		.4byte	.LASF204
 2640 0adc 0E       		.byte	0xe
 2641 0add DB       		.byte	0xdb
 2642 0ade 140B0000 		.4byte	0xb14
 2643 0ae2 00       		.byte	0
 2644 0ae3 07       		.uleb128 0x7
 2645 0ae4 CA0B0000 		.4byte	.LASF205
 2646 0ae8 0E       		.byte	0xe
 2647 0ae9 DC       		.byte	0xdc
 2648 0aea 1A0B0000 		.4byte	0xb1a
 2649 0aee 04       		.byte	0x4
 2650 0aef 07       		.uleb128 0x7
 2651 0af0 DB030000 		.4byte	.LASF206
 2652 0af4 0E       		.byte	0xe
 2653 0af5 DD       		.byte	0xdd
 2654 0af6 A9000000 		.4byte	0xa9
 2655 0afa 08       		.byte	0x8
 2656 0afb 07       		.uleb128 0x7
 2657 0afc 290A0000 		.4byte	.LASF207
 2658 0b00 0E       		.byte	0xe
 2659 0b01 DF       		.byte	0xdf
 2660 0b02 A9000000 		.4byte	0xa9
 2661 0b06 09       		.byte	0x9
 2662 0b07 07       		.uleb128 0x7
 2663 0b08 42090000 		.4byte	.LASF208
 2664 0b0c 0E       		.byte	0xe
 2665 0b0d E0       		.byte	0xe0
 2666 0b0e A9000000 		.4byte	0xa9
 2667 0b12 0A       		.byte	0xa
ARM GAS  /tmp/ccVgHsbd.s 			page 48


 2668 0b13 00       		.byte	0
 2669 0b14 0A       		.uleb128 0xa
 2670 0b15 04       		.byte	0x4
 2671 0b16 4C060000 		.4byte	0x64c
 2672 0b1a 0A       		.uleb128 0xa
 2673 0b1b 04       		.byte	0x4
 2674 0b1c DA000000 		.4byte	0xda
 2675 0b20 03       		.uleb128 0x3
 2676 0b21 1E000000 		.4byte	.LASF209
 2677 0b25 0E       		.byte	0xe
 2678 0b26 E1       		.byte	0xe1
 2679 0b27 CF0A0000 		.4byte	0xacf
 2680 0b2b 03       		.uleb128 0x3
 2681 0b2c 59070000 		.4byte	.LASF210
 2682 0b30 0E       		.byte	0xe
 2683 0b31 EA       		.byte	0xea
 2684 0b32 360B0000 		.4byte	0xb36
 2685 0b36 0A       		.uleb128 0xa
 2686 0b37 04       		.byte	0x4
 2687 0b38 3C0B0000 		.4byte	0xb3c
 2688 0b3c 0C       		.uleb128 0xc
 2689 0b3d 4C0B0000 		.4byte	0xb4c
 2690 0b41 0D       		.uleb128 0xd
 2691 0b42 22030000 		.4byte	0x322
 2692 0b46 0D       		.uleb128 0xd
 2693 0b47 BF000000 		.4byte	0xbf
 2694 0b4b 00       		.byte	0
 2695 0b4c 04       		.uleb128 0x4
 2696 0b4d 01       		.byte	0x1
 2697 0b4e 02       		.byte	0x2
 2698 0b4f 96030000 		.4byte	.LASF211
 2699 0b53 0A       		.uleb128 0xa
 2700 0b54 04       		.byte	0x4
 2701 0b55 590B0000 		.4byte	0xb59
 2702 0b59 1B       		.uleb128 0x1b
 2703 0b5a 200B0000 		.4byte	0xb20
 2704 0b5e 15       		.uleb128 0x15
 2705 0b5f 08       		.byte	0x8
 2706 0b60 01       		.byte	0x1
 2707 0b61 63       		.byte	0x63
 2708 0b62 7F0B0000 		.4byte	0xb7f
 2709 0b66 07       		.uleb128 0x7
 2710 0b67 82040000 		.4byte	.LASF212
 2711 0b6b 01       		.byte	0x1
 2712 0b6c 64       		.byte	0x64
 2713 0b6d 2B0B0000 		.4byte	0xb2b
 2714 0b71 00       		.byte	0
 2715 0b72 07       		.uleb128 0x7
 2716 0b73 CB0A0000 		.4byte	.LASF213
 2717 0b77 01       		.byte	0x1
 2718 0b78 65       		.byte	0x65
 2719 0b79 22030000 		.4byte	0x322
 2720 0b7d 04       		.byte	0x4
 2721 0b7e 00       		.byte	0
 2722 0b7f 03       		.uleb128 0x3
 2723 0b80 D4070000 		.4byte	.LASF214
 2724 0b84 01       		.byte	0x1
ARM GAS  /tmp/ccVgHsbd.s 			page 49


 2725 0b85 66       		.byte	0x66
 2726 0b86 5E0B0000 		.4byte	0xb5e
 2727 0b8a 1C       		.uleb128 0x1c
 2728 0b8b F8050000 		.4byte	.LASF215
 2729 0b8f 01       		.byte	0x1
 2730 0b90 7F       		.byte	0x7f
 2731 0b91 00000000 		.4byte	.LFB260
 2732 0b95 28000000 		.4byte	.LFE260-.LFB260
 2733 0b99 01       		.uleb128 0x1
 2734 0b9a 9C       		.byte	0x9c
 2735 0b9b B80B0000 		.4byte	0xbb8
 2736 0b9f 1D       		.uleb128 0x1d
 2737 0ba0 B0030000 		.4byte	.LASF217
 2738 0ba4 01       		.byte	0x1
 2739 0ba5 80       		.byte	0x80
 2740 0ba6 BF000000 		.4byte	0xbf
 2741 0baa 00000000 		.4byte	.LLST0
 2742 0bae 1E       		.uleb128 0x1e
 2743 0baf 1E000000 		.4byte	.LVL2
 2744 0bb3 DE0F0000 		.4byte	0xfde
 2745 0bb7 00       		.byte	0
 2746 0bb8 1C       		.uleb128 0x1c
 2747 0bb9 3D060000 		.4byte	.LASF216
 2748 0bbd 01       		.byte	0x1
 2749 0bbe 91       		.byte	0x91
 2750 0bbf 00000000 		.4byte	.LFB261
 2751 0bc3 2C000000 		.4byte	.LFE261-.LFB261
 2752 0bc7 01       		.uleb128 0x1
 2753 0bc8 9C       		.byte	0x9c
 2754 0bc9 E60B0000 		.4byte	0xbe6
 2755 0bcd 1D       		.uleb128 0x1d
 2756 0bce B0030000 		.4byte	.LASF217
 2757 0bd2 01       		.byte	0x1
 2758 0bd3 92       		.byte	0x92
 2759 0bd4 BF000000 		.4byte	0xbf
 2760 0bd8 13000000 		.4byte	.LLST1
 2761 0bdc 1E       		.uleb128 0x1e
 2762 0bdd 22000000 		.4byte	.LVL5
 2763 0be1 DE0F0000 		.4byte	0xfde
 2764 0be5 00       		.byte	0
 2765 0be6 1C       		.uleb128 0x1c
 2766 0be7 59060000 		.4byte	.LASF218
 2767 0beb 01       		.byte	0x1
 2768 0bec A3       		.byte	0xa3
 2769 0bed 00000000 		.4byte	.LFB262
 2770 0bf1 2C000000 		.4byte	.LFE262-.LFB262
 2771 0bf5 01       		.uleb128 0x1
 2772 0bf6 9C       		.byte	0x9c
 2773 0bf7 140C0000 		.4byte	0xc14
 2774 0bfb 1D       		.uleb128 0x1d
 2775 0bfc B0030000 		.4byte	.LASF217
 2776 0c00 01       		.byte	0x1
 2777 0c01 A4       		.byte	0xa4
 2778 0c02 BF000000 		.4byte	0xbf
 2779 0c06 26000000 		.4byte	.LLST2
 2780 0c0a 1E       		.uleb128 0x1e
 2781 0c0b 22000000 		.4byte	.LVL8
ARM GAS  /tmp/ccVgHsbd.s 			page 50


 2782 0c0f DE0F0000 		.4byte	0xfde
 2783 0c13 00       		.byte	0
 2784 0c14 1C       		.uleb128 0x1c
 2785 0c15 62060000 		.4byte	.LASF219
 2786 0c19 01       		.byte	0x1
 2787 0c1a B5       		.byte	0xb5
 2788 0c1b 00000000 		.4byte	.LFB263
 2789 0c1f 2C000000 		.4byte	.LFE263-.LFB263
 2790 0c23 01       		.uleb128 0x1
 2791 0c24 9C       		.byte	0x9c
 2792 0c25 420C0000 		.4byte	0xc42
 2793 0c29 1D       		.uleb128 0x1d
 2794 0c2a B0030000 		.4byte	.LASF217
 2795 0c2e 01       		.byte	0x1
 2796 0c2f B6       		.byte	0xb6
 2797 0c30 BF000000 		.4byte	0xbf
 2798 0c34 39000000 		.4byte	.LLST3
 2799 0c38 1E       		.uleb128 0x1e
 2800 0c39 22000000 		.4byte	.LVL11
 2801 0c3d DE0F0000 		.4byte	0xfde
 2802 0c41 00       		.byte	0
 2803 0c42 1C       		.uleb128 0x1c
 2804 0c43 6B060000 		.4byte	.LASF220
 2805 0c47 01       		.byte	0x1
 2806 0c48 C7       		.byte	0xc7
 2807 0c49 00000000 		.4byte	.LFB264
 2808 0c4d 28000000 		.4byte	.LFE264-.LFB264
 2809 0c51 01       		.uleb128 0x1
 2810 0c52 9C       		.byte	0x9c
 2811 0c53 700C0000 		.4byte	0xc70
 2812 0c57 1D       		.uleb128 0x1d
 2813 0c58 B0030000 		.4byte	.LASF217
 2814 0c5c 01       		.byte	0x1
 2815 0c5d C8       		.byte	0xc8
 2816 0c5e BF000000 		.4byte	0xbf
 2817 0c62 4C000000 		.4byte	.LLST4
 2818 0c66 1E       		.uleb128 0x1e
 2819 0c67 1E000000 		.4byte	.LVL14
 2820 0c6b DE0F0000 		.4byte	0xfde
 2821 0c6f 00       		.byte	0
 2822 0c70 1C       		.uleb128 0x1c
 2823 0c71 AD060000 		.4byte	.LASF221
 2824 0c75 01       		.byte	0x1
 2825 0c76 D9       		.byte	0xd9
 2826 0c77 00000000 		.4byte	.LFB265
 2827 0c7b 2C000000 		.4byte	.LFE265-.LFB265
 2828 0c7f 01       		.uleb128 0x1
 2829 0c80 9C       		.byte	0x9c
 2830 0c81 9E0C0000 		.4byte	0xc9e
 2831 0c85 1D       		.uleb128 0x1d
 2832 0c86 B0030000 		.4byte	.LASF217
 2833 0c8a 01       		.byte	0x1
 2834 0c8b DA       		.byte	0xda
 2835 0c8c BF000000 		.4byte	0xbf
 2836 0c90 5F000000 		.4byte	.LLST5
 2837 0c94 1E       		.uleb128 0x1e
 2838 0c95 22000000 		.4byte	.LVL17
ARM GAS  /tmp/ccVgHsbd.s 			page 51


 2839 0c99 DE0F0000 		.4byte	0xfde
 2840 0c9d 00       		.byte	0
 2841 0c9e 1C       		.uleb128 0x1c
 2842 0c9f B6060000 		.4byte	.LASF222
 2843 0ca3 01       		.byte	0x1
 2844 0ca4 EB       		.byte	0xeb
 2845 0ca5 00000000 		.4byte	.LFB266
 2846 0ca9 2C000000 		.4byte	.LFE266-.LFB266
 2847 0cad 01       		.uleb128 0x1
 2848 0cae 9C       		.byte	0x9c
 2849 0caf CC0C0000 		.4byte	0xccc
 2850 0cb3 1D       		.uleb128 0x1d
 2851 0cb4 B0030000 		.4byte	.LASF217
 2852 0cb8 01       		.byte	0x1
 2853 0cb9 EC       		.byte	0xec
 2854 0cba BF000000 		.4byte	0xbf
 2855 0cbe 72000000 		.4byte	.LLST6
 2856 0cc2 1E       		.uleb128 0x1e
 2857 0cc3 22000000 		.4byte	.LVL20
 2858 0cc7 DE0F0000 		.4byte	0xfde
 2859 0ccb 00       		.byte	0
 2860 0ccc 1C       		.uleb128 0x1c
 2861 0ccd DD0B0000 		.4byte	.LASF223
 2862 0cd1 01       		.byte	0x1
 2863 0cd2 FD       		.byte	0xfd
 2864 0cd3 00000000 		.4byte	.LFB267
 2865 0cd7 2C000000 		.4byte	.LFE267-.LFB267
 2866 0cdb 01       		.uleb128 0x1
 2867 0cdc 9C       		.byte	0x9c
 2868 0cdd FA0C0000 		.4byte	0xcfa
 2869 0ce1 1D       		.uleb128 0x1d
 2870 0ce2 B0030000 		.4byte	.LASF217
 2871 0ce6 01       		.byte	0x1
 2872 0ce7 FE       		.byte	0xfe
 2873 0ce8 BF000000 		.4byte	0xbf
 2874 0cec 85000000 		.4byte	.LLST7
 2875 0cf0 1E       		.uleb128 0x1e
 2876 0cf1 22000000 		.4byte	.LVL23
 2877 0cf5 DE0F0000 		.4byte	0xfde
 2878 0cf9 00       		.byte	0
 2879 0cfa 1F       		.uleb128 0x1f
 2880 0cfb 1B010000 		.4byte	.LASF224
 2881 0cff 01       		.byte	0x1
 2882 0d00 0F01     		.2byte	0x10f
 2883 0d02 00000000 		.4byte	.LFB268
 2884 0d06 28000000 		.4byte	.LFE268-.LFB268
 2885 0d0a 01       		.uleb128 0x1
 2886 0d0b 9C       		.byte	0x9c
 2887 0d0c 2A0D0000 		.4byte	0xd2a
 2888 0d10 20       		.uleb128 0x20
 2889 0d11 B0030000 		.4byte	.LASF217
 2890 0d15 01       		.byte	0x1
 2891 0d16 1001     		.2byte	0x110
 2892 0d18 BF000000 		.4byte	0xbf
 2893 0d1c 98000000 		.4byte	.LLST8
 2894 0d20 1E       		.uleb128 0x1e
 2895 0d21 1E000000 		.4byte	.LVL26
ARM GAS  /tmp/ccVgHsbd.s 			page 52


 2896 0d25 DE0F0000 		.4byte	0xfde
 2897 0d29 00       		.byte	0
 2898 0d2a 1F       		.uleb128 0x1f
 2899 0d2b 1A090000 		.4byte	.LASF225
 2900 0d2f 01       		.byte	0x1
 2901 0d30 2101     		.2byte	0x121
 2902 0d32 00000000 		.4byte	.LFB269
 2903 0d36 2C000000 		.4byte	.LFE269-.LFB269
 2904 0d3a 01       		.uleb128 0x1
 2905 0d3b 9C       		.byte	0x9c
 2906 0d3c 5A0D0000 		.4byte	0xd5a
 2907 0d40 20       		.uleb128 0x20
 2908 0d41 B0030000 		.4byte	.LASF217
 2909 0d45 01       		.byte	0x1
 2910 0d46 2201     		.2byte	0x122
 2911 0d48 BF000000 		.4byte	0xbf
 2912 0d4c AB000000 		.4byte	.LLST9
 2913 0d50 1E       		.uleb128 0x1e
 2914 0d51 22000000 		.4byte	.LVL29
 2915 0d55 DE0F0000 		.4byte	0xfde
 2916 0d59 00       		.byte	0
 2917 0d5a 1F       		.uleb128 0x1f
 2918 0d5b 24090000 		.4byte	.LASF226
 2919 0d5f 01       		.byte	0x1
 2920 0d60 3301     		.2byte	0x133
 2921 0d62 00000000 		.4byte	.LFB270
 2922 0d66 2C000000 		.4byte	.LFE270-.LFB270
 2923 0d6a 01       		.uleb128 0x1
 2924 0d6b 9C       		.byte	0x9c
 2925 0d6c 8A0D0000 		.4byte	0xd8a
 2926 0d70 20       		.uleb128 0x20
 2927 0d71 B0030000 		.4byte	.LASF217
 2928 0d75 01       		.byte	0x1
 2929 0d76 3401     		.2byte	0x134
 2930 0d78 BF000000 		.4byte	0xbf
 2931 0d7c BE000000 		.4byte	.LLST10
 2932 0d80 1E       		.uleb128 0x1e
 2933 0d81 22000000 		.4byte	.LVL32
 2934 0d85 DE0F0000 		.4byte	0xfde
 2935 0d89 00       		.byte	0
 2936 0d8a 1F       		.uleb128 0x1f
 2937 0d8b 2E090000 		.4byte	.LASF227
 2938 0d8f 01       		.byte	0x1
 2939 0d90 4501     		.2byte	0x145
 2940 0d92 00000000 		.4byte	.LFB271
 2941 0d96 2C000000 		.4byte	.LFE271-.LFB271
 2942 0d9a 01       		.uleb128 0x1
 2943 0d9b 9C       		.byte	0x9c
 2944 0d9c BA0D0000 		.4byte	0xdba
 2945 0da0 20       		.uleb128 0x20
 2946 0da1 B0030000 		.4byte	.LASF217
 2947 0da5 01       		.byte	0x1
 2948 0da6 4601     		.2byte	0x146
 2949 0da8 BF000000 		.4byte	0xbf
 2950 0dac D1000000 		.4byte	.LLST11
 2951 0db0 1E       		.uleb128 0x1e
 2952 0db1 22000000 		.4byte	.LVL35
ARM GAS  /tmp/ccVgHsbd.s 			page 53


 2953 0db5 DE0F0000 		.4byte	0xfde
 2954 0db9 00       		.byte	0
 2955 0dba 1F       		.uleb128 0x1f
 2956 0dbb 5D090000 		.4byte	.LASF228
 2957 0dbf 01       		.byte	0x1
 2958 0dc0 5701     		.2byte	0x157
 2959 0dc2 00000000 		.4byte	.LFB272
 2960 0dc6 28000000 		.4byte	.LFE272-.LFB272
 2961 0dca 01       		.uleb128 0x1
 2962 0dcb 9C       		.byte	0x9c
 2963 0dcc EA0D0000 		.4byte	0xdea
 2964 0dd0 20       		.uleb128 0x20
 2965 0dd1 B0030000 		.4byte	.LASF217
 2966 0dd5 01       		.byte	0x1
 2967 0dd6 5801     		.2byte	0x158
 2968 0dd8 BF000000 		.4byte	0xbf
 2969 0ddc E4000000 		.4byte	.LLST12
 2970 0de0 1E       		.uleb128 0x1e
 2971 0de1 1E000000 		.4byte	.LVL38
 2972 0de5 DE0F0000 		.4byte	0xfde
 2973 0de9 00       		.byte	0
 2974 0dea 1F       		.uleb128 0x1f
 2975 0deb 150A0000 		.4byte	.LASF229
 2976 0def 01       		.byte	0x1
 2977 0df0 6901     		.2byte	0x169
 2978 0df2 00000000 		.4byte	.LFB273
 2979 0df6 2C000000 		.4byte	.LFE273-.LFB273
 2980 0dfa 01       		.uleb128 0x1
 2981 0dfb 9C       		.byte	0x9c
 2982 0dfc 1A0E0000 		.4byte	0xe1a
 2983 0e00 20       		.uleb128 0x20
 2984 0e01 B0030000 		.4byte	.LASF217
 2985 0e05 01       		.byte	0x1
 2986 0e06 6A01     		.2byte	0x16a
 2987 0e08 BF000000 		.4byte	0xbf
 2988 0e0c F7000000 		.4byte	.LLST13
 2989 0e10 1E       		.uleb128 0x1e
 2990 0e11 22000000 		.4byte	.LVL41
 2991 0e15 DE0F0000 		.4byte	0xfde
 2992 0e19 00       		.byte	0
 2993 0e1a 1F       		.uleb128 0x1f
 2994 0e1b 1F0A0000 		.4byte	.LASF230
 2995 0e1f 01       		.byte	0x1
 2996 0e20 7B01     		.2byte	0x17b
 2997 0e22 00000000 		.4byte	.LFB274
 2998 0e26 2C000000 		.4byte	.LFE274-.LFB274
 2999 0e2a 01       		.uleb128 0x1
 3000 0e2b 9C       		.byte	0x9c
 3001 0e2c 4A0E0000 		.4byte	0xe4a
 3002 0e30 20       		.uleb128 0x20
 3003 0e31 B0030000 		.4byte	.LASF217
 3004 0e35 01       		.byte	0x1
 3005 0e36 7C01     		.2byte	0x17c
 3006 0e38 BF000000 		.4byte	0xbf
 3007 0e3c 0A010000 		.4byte	.LLST14
 3008 0e40 1E       		.uleb128 0x1e
 3009 0e41 22000000 		.4byte	.LVL44
ARM GAS  /tmp/ccVgHsbd.s 			page 54


 3010 0e45 DE0F0000 		.4byte	0xfde
 3011 0e49 00       		.byte	0
 3012 0e4a 1F       		.uleb128 0x1f
 3013 0e4b CA070000 		.4byte	.LASF231
 3014 0e4f 01       		.byte	0x1
 3015 0e50 8D01     		.2byte	0x18d
 3016 0e52 00000000 		.4byte	.LFB275
 3017 0e56 2C000000 		.4byte	.LFE275-.LFB275
 3018 0e5a 01       		.uleb128 0x1
 3019 0e5b 9C       		.byte	0x9c
 3020 0e5c 7A0E0000 		.4byte	0xe7a
 3021 0e60 20       		.uleb128 0x20
 3022 0e61 B0030000 		.4byte	.LASF217
 3023 0e65 01       		.byte	0x1
 3024 0e66 8E01     		.2byte	0x18e
 3025 0e68 BF000000 		.4byte	0xbf
 3026 0e6c 1D010000 		.4byte	.LLST15
 3027 0e70 1E       		.uleb128 0x1e
 3028 0e71 22000000 		.4byte	.LVL47
 3029 0e75 DE0F0000 		.4byte	0xfde
 3030 0e79 00       		.byte	0
 3031 0e7a 21       		.uleb128 0x21
 3032 0e7b 63040000 		.4byte	.LASF232
 3033 0e7f 01       		.byte	0x1
 3034 0e80 A301     		.2byte	0x1a3
 3035 0e82 00000000 		.4byte	.LFB276
 3036 0e86 54000000 		.4byte	.LFE276-.LFB276
 3037 0e8a 01       		.uleb128 0x1
 3038 0e8b 9C       		.byte	0x9c
 3039 0e8c 9F0E0000 		.4byte	0xe9f
 3040 0e90 22       		.uleb128 0x22
 3041 0e91 6900     		.ascii	"i\000"
 3042 0e93 01       		.byte	0x1
 3043 0e94 A401     		.2byte	0x1a4
 3044 0e96 25000000 		.4byte	0x25
 3045 0e9a 30010000 		.4byte	.LLST16
 3046 0e9e 00       		.byte	0
 3047 0e9f 23       		.uleb128 0x23
 3048 0ea0 6B040000 		.4byte	.LASF249
 3049 0ea4 01       		.byte	0x1
 3050 0ea5 C901     		.2byte	0x1c9
 3051 0ea7 4C0B0000 		.4byte	0xb4c
 3052 0eab 00000000 		.4byte	.LFB277
 3053 0eaf 8C000000 		.4byte	.LFE277-.LFB277
 3054 0eb3 01       		.uleb128 0x1
 3055 0eb4 9C       		.byte	0x9c
 3056 0eb5 0C0F0000 		.4byte	0xf0c
 3057 0eb9 24       		.uleb128 0x24
 3058 0eba 56050000 		.4byte	.LASF233
 3059 0ebe 01       		.byte	0x1
 3060 0ebf C901     		.2byte	0x1c9
 3061 0ec1 530B0000 		.4byte	0xb53
 3062 0ec5 4F010000 		.4byte	.LLST17
 3063 0ec9 24       		.uleb128 0x24
 3064 0eca 900A0000 		.4byte	.LASF234
 3065 0ece 01       		.byte	0x1
 3066 0ecf CA01     		.2byte	0x1ca
ARM GAS  /tmp/ccVgHsbd.s 			page 55


 3067 0ed1 BF000000 		.4byte	0xbf
 3068 0ed5 A2010000 		.4byte	.LLST18
 3069 0ed9 24       		.uleb128 0x24
 3070 0eda D9020000 		.4byte	.LASF235
 3071 0ede 01       		.byte	0x1
 3072 0edf CB01     		.2byte	0x1cb
 3073 0ee1 2B0B0000 		.4byte	0xb2b
 3074 0ee5 CE010000 		.4byte	.LLST19
 3075 0ee9 24       		.uleb128 0x24
 3076 0eea 73050000 		.4byte	.LASF236
 3077 0eee 01       		.byte	0x1
 3078 0eef CC01     		.2byte	0x1cc
 3079 0ef1 22030000 		.4byte	0x322
 3080 0ef5 FA010000 		.4byte	.LLST20
 3081 0ef9 25       		.uleb128 0x25
 3082 0efa B5000000 		.4byte	.LASF238
 3083 0efe 1C0F0000 		.4byte	0xf1c
 3084 0f02 26       		.uleb128 0x26
 3085 0f03 68000000 		.4byte	.LVL56
 3086 0f07 EA0F0000 		.4byte	0xfea
 3087 0f0b 00       		.byte	0
 3088 0f0c 13       		.uleb128 0x13
 3089 0f0d 970A0000 		.4byte	0xa97
 3090 0f11 1C0F0000 		.4byte	0xf1c
 3091 0f15 14       		.uleb128 0x14
 3092 0f16 E5050000 		.4byte	0x5e5
 3093 0f1a 11       		.byte	0x11
 3094 0f1b 00       		.byte	0
 3095 0f1c 1B       		.uleb128 0x1b
 3096 0f1d 0C0F0000 		.4byte	0xf0c
 3097 0f21 21       		.uleb128 0x21
 3098 0f22 8D000000 		.4byte	.LASF237
 3099 0f26 01       		.byte	0x1
 3100 0f27 F801     		.2byte	0x1f8
 3101 0f29 00000000 		.4byte	.LFB278
 3102 0f2d 44000000 		.4byte	.LFE278-.LFB278
 3103 0f31 01       		.uleb128 0x1
 3104 0f32 9C       		.byte	0x9c
 3105 0f33 5A0F0000 		.4byte	0xf5a
 3106 0f37 24       		.uleb128 0x24
 3107 0f38 56050000 		.4byte	.LASF233
 3108 0f3c 01       		.byte	0x1
 3109 0f3d F801     		.2byte	0x1f8
 3110 0f3f 530B0000 		.4byte	0xb53
 3111 0f43 4A020000 		.4byte	.LLST21
 3112 0f47 25       		.uleb128 0x25
 3113 0f48 B5000000 		.4byte	.LASF238
 3114 0f4c 6A0F0000 		.4byte	0xf6a
 3115 0f50 26       		.uleb128 0x26
 3116 0f51 0A000000 		.4byte	.LVL64
 3117 0f55 F50F0000 		.4byte	0xff5
 3118 0f59 00       		.byte	0
 3119 0f5a 13       		.uleb128 0x13
 3120 0f5b 970A0000 		.4byte	0xa97
 3121 0f5f 6A0F0000 		.4byte	0xf6a
 3122 0f63 14       		.uleb128 0x14
 3123 0f64 E5050000 		.4byte	0x5e5
ARM GAS  /tmp/ccVgHsbd.s 			page 56


 3124 0f68 10       		.byte	0x10
 3125 0f69 00       		.byte	0
 3126 0f6a 1B       		.uleb128 0x1b
 3127 0f6b 5A0F0000 		.4byte	0xf5a
 3128 0f6f 27       		.uleb128 0x27
 3129 0f70 EF000000 		.4byte	.LASF239
 3130 0f74 01       		.byte	0x1
 3131 0f75 6B       		.byte	0x6b
 3132 0f76 BF000000 		.4byte	0xbf
 3133 0f7a 05       		.uleb128 0x5
 3134 0f7b 03       		.byte	0x3
 3135 0f7c 00000000 		.4byte	dma_streams_mask
 3136 0f80 13       		.uleb128 0x13
 3137 0f81 7F0B0000 		.4byte	0xb7f
 3138 0f85 900F0000 		.4byte	0xf90
 3139 0f89 14       		.uleb128 0x14
 3140 0f8a E5050000 		.4byte	0x5e5
 3141 0f8e 0F       		.byte	0xf
 3142 0f8f 00       		.byte	0
 3143 0f90 27       		.uleb128 0x27
 3144 0f91 4B070000 		.4byte	.LASF240
 3145 0f95 01       		.byte	0x1
 3146 0f96 70       		.byte	0x70
 3147 0f97 800F0000 		.4byte	0xf80
 3148 0f9b 05       		.uleb128 0x5
 3149 0f9c 03       		.byte	0x3
 3150 0f9d 00000000 		.4byte	dma_isr_redir
 3151 0fa1 28       		.uleb128 0x28
 3152 0fa2 E80A0000 		.4byte	.LASF241
 3153 0fa6 0F       		.byte	0xf
 3154 0fa7 A706     		.2byte	0x6a7
 3155 0fa9 D5000000 		.4byte	0xd5
 3156 0fad 29       		.uleb128 0x29
 3157 0fae 636800   		.ascii	"ch\000"
 3158 0fb1 07       		.byte	0x7
 3159 0fb2 0902     		.2byte	0x209
 3160 0fb4 F1030000 		.4byte	0x3f1
 3161 0fb8 13       		.uleb128 0x13
 3162 0fb9 200B0000 		.4byte	0xb20
 3163 0fbd C80F0000 		.4byte	0xfc8
 3164 0fc1 14       		.uleb128 0x14
 3165 0fc2 E5050000 		.4byte	0x5e5
 3166 0fc6 0F       		.byte	0xf
 3167 0fc7 00       		.byte	0
 3168 0fc8 2A       		.uleb128 0x2a
 3169 0fc9 B6050000 		.4byte	.LASF242
 3170 0fcd 01       		.byte	0x1
 3171 0fce 49       		.byte	0x49
 3172 0fcf D90F0000 		.4byte	0xfd9
 3173 0fd3 05       		.uleb128 0x5
 3174 0fd4 03       		.byte	0x3
 3175 0fd5 00000000 		.4byte	_stm32_dma_streams
 3176 0fd9 1B       		.uleb128 0x1b
 3177 0fda B80F0000 		.4byte	0xfb8
 3178 0fde 2B       		.uleb128 0x2b
 3179 0fdf 6F070000 		.4byte	.LASF243
 3180 0fe3 6F070000 		.4byte	.LASF243
ARM GAS  /tmp/ccVgHsbd.s 			page 57


 3181 0fe7 0A       		.byte	0xa
 3182 0fe8 6601     		.2byte	0x166
 3183 0fea 2C       		.uleb128 0x2c
 3184 0feb 250B0000 		.4byte	.LASF244
 3185 0fef 250B0000 		.4byte	.LASF244
 3186 0ff3 10       		.byte	0x10
 3187 0ff4 4E       		.byte	0x4e
 3188 0ff5 2C       		.uleb128 0x2c
 3189 0ff6 1A080000 		.4byte	.LASF245
 3190 0ffa 1A080000 		.4byte	.LASF245
 3191 0ffe 10       		.byte	0x10
 3192 0fff 4F       		.byte	0x4f
 3193 1000 00       		.byte	0
 3194              		.section	.debug_abbrev,"",%progbits
 3195              	.Ldebug_abbrev0:
 3196 0000 01       		.uleb128 0x1
 3197 0001 11       		.uleb128 0x11
 3198 0002 01       		.byte	0x1
 3199 0003 25       		.uleb128 0x25
 3200 0004 0E       		.uleb128 0xe
 3201 0005 13       		.uleb128 0x13
 3202 0006 0B       		.uleb128 0xb
 3203 0007 03       		.uleb128 0x3
 3204 0008 0E       		.uleb128 0xe
 3205 0009 1B       		.uleb128 0x1b
 3206 000a 0E       		.uleb128 0xe
 3207 000b 55       		.uleb128 0x55
 3208 000c 17       		.uleb128 0x17
 3209 000d 11       		.uleb128 0x11
 3210 000e 01       		.uleb128 0x1
 3211 000f 10       		.uleb128 0x10
 3212 0010 17       		.uleb128 0x17
 3213 0011 00       		.byte	0
 3214 0012 00       		.byte	0
 3215 0013 02       		.uleb128 0x2
 3216 0014 24       		.uleb128 0x24
 3217 0015 00       		.byte	0
 3218 0016 0B       		.uleb128 0xb
 3219 0017 0B       		.uleb128 0xb
 3220 0018 3E       		.uleb128 0x3e
 3221 0019 0B       		.uleb128 0xb
 3222 001a 03       		.uleb128 0x3
 3223 001b 08       		.uleb128 0x8
 3224 001c 00       		.byte	0
 3225 001d 00       		.byte	0
 3226 001e 03       		.uleb128 0x3
 3227 001f 16       		.uleb128 0x16
 3228 0020 00       		.byte	0
 3229 0021 03       		.uleb128 0x3
 3230 0022 0E       		.uleb128 0xe
 3231 0023 3A       		.uleb128 0x3a
 3232 0024 0B       		.uleb128 0xb
 3233 0025 3B       		.uleb128 0x3b
 3234 0026 0B       		.uleb128 0xb
 3235 0027 49       		.uleb128 0x49
 3236 0028 13       		.uleb128 0x13
 3237 0029 00       		.byte	0
ARM GAS  /tmp/ccVgHsbd.s 			page 58


 3238 002a 00       		.byte	0
 3239 002b 04       		.uleb128 0x4
 3240 002c 24       		.uleb128 0x24
 3241 002d 00       		.byte	0
 3242 002e 0B       		.uleb128 0xb
 3243 002f 0B       		.uleb128 0xb
 3244 0030 3E       		.uleb128 0x3e
 3245 0031 0B       		.uleb128 0xb
 3246 0032 03       		.uleb128 0x3
 3247 0033 0E       		.uleb128 0xe
 3248 0034 00       		.byte	0
 3249 0035 00       		.byte	0
 3250 0036 05       		.uleb128 0x5
 3251 0037 35       		.uleb128 0x35
 3252 0038 00       		.byte	0
 3253 0039 49       		.uleb128 0x49
 3254 003a 13       		.uleb128 0x13
 3255 003b 00       		.byte	0
 3256 003c 00       		.byte	0
 3257 003d 06       		.uleb128 0x6
 3258 003e 13       		.uleb128 0x13
 3259 003f 01       		.byte	0x1
 3260 0040 03       		.uleb128 0x3
 3261 0041 0E       		.uleb128 0xe
 3262 0042 0B       		.uleb128 0xb
 3263 0043 0B       		.uleb128 0xb
 3264 0044 3A       		.uleb128 0x3a
 3265 0045 0B       		.uleb128 0xb
 3266 0046 3B       		.uleb128 0x3b
 3267 0047 0B       		.uleb128 0xb
 3268 0048 01       		.uleb128 0x1
 3269 0049 13       		.uleb128 0x13
 3270 004a 00       		.byte	0
 3271 004b 00       		.byte	0
 3272 004c 07       		.uleb128 0x7
 3273 004d 0D       		.uleb128 0xd
 3274 004e 00       		.byte	0
 3275 004f 03       		.uleb128 0x3
 3276 0050 0E       		.uleb128 0xe
 3277 0051 3A       		.uleb128 0x3a
 3278 0052 0B       		.uleb128 0xb
 3279 0053 3B       		.uleb128 0x3b
 3280 0054 0B       		.uleb128 0xb
 3281 0055 49       		.uleb128 0x49
 3282 0056 13       		.uleb128 0x13
 3283 0057 38       		.uleb128 0x38
 3284 0058 0B       		.uleb128 0xb
 3285 0059 00       		.byte	0
 3286 005a 00       		.byte	0
 3287 005b 08       		.uleb128 0x8
 3288 005c 0D       		.uleb128 0xd
 3289 005d 00       		.byte	0
 3290 005e 03       		.uleb128 0x3
 3291 005f 08       		.uleb128 0x8
 3292 0060 3A       		.uleb128 0x3a
 3293 0061 0B       		.uleb128 0xb
 3294 0062 3B       		.uleb128 0x3b
ARM GAS  /tmp/ccVgHsbd.s 			page 59


 3295 0063 05       		.uleb128 0x5
 3296 0064 49       		.uleb128 0x49
 3297 0065 13       		.uleb128 0x13
 3298 0066 38       		.uleb128 0x38
 3299 0067 0B       		.uleb128 0xb
 3300 0068 00       		.byte	0
 3301 0069 00       		.byte	0
 3302 006a 09       		.uleb128 0x9
 3303 006b 0D       		.uleb128 0xd
 3304 006c 00       		.byte	0
 3305 006d 03       		.uleb128 0x3
 3306 006e 0E       		.uleb128 0xe
 3307 006f 3A       		.uleb128 0x3a
 3308 0070 0B       		.uleb128 0xb
 3309 0071 3B       		.uleb128 0x3b
 3310 0072 05       		.uleb128 0x5
 3311 0073 49       		.uleb128 0x49
 3312 0074 13       		.uleb128 0x13
 3313 0075 38       		.uleb128 0x38
 3314 0076 0B       		.uleb128 0xb
 3315 0077 00       		.byte	0
 3316 0078 00       		.byte	0
 3317 0079 0A       		.uleb128 0xa
 3318 007a 0F       		.uleb128 0xf
 3319 007b 00       		.byte	0
 3320 007c 0B       		.uleb128 0xb
 3321 007d 0B       		.uleb128 0xb
 3322 007e 49       		.uleb128 0x49
 3323 007f 13       		.uleb128 0x13
 3324 0080 00       		.byte	0
 3325 0081 00       		.byte	0
 3326 0082 0B       		.uleb128 0xb
 3327 0083 13       		.uleb128 0x13
 3328 0084 01       		.byte	0x1
 3329 0085 03       		.uleb128 0x3
 3330 0086 0E       		.uleb128 0xe
 3331 0087 0B       		.uleb128 0xb
 3332 0088 0B       		.uleb128 0xb
 3333 0089 3A       		.uleb128 0x3a
 3334 008a 0B       		.uleb128 0xb
 3335 008b 3B       		.uleb128 0x3b
 3336 008c 05       		.uleb128 0x5
 3337 008d 01       		.uleb128 0x1
 3338 008e 13       		.uleb128 0x13
 3339 008f 00       		.byte	0
 3340 0090 00       		.byte	0
 3341 0091 0C       		.uleb128 0xc
 3342 0092 15       		.uleb128 0x15
 3343 0093 01       		.byte	0x1
 3344 0094 27       		.uleb128 0x27
 3345 0095 19       		.uleb128 0x19
 3346 0096 01       		.uleb128 0x1
 3347 0097 13       		.uleb128 0x13
 3348 0098 00       		.byte	0
 3349 0099 00       		.byte	0
 3350 009a 0D       		.uleb128 0xd
 3351 009b 05       		.uleb128 0x5
ARM GAS  /tmp/ccVgHsbd.s 			page 60


 3352 009c 00       		.byte	0
 3353 009d 49       		.uleb128 0x49
 3354 009e 13       		.uleb128 0x13
 3355 009f 00       		.byte	0
 3356 00a0 00       		.byte	0
 3357 00a1 0E       		.uleb128 0xe
 3358 00a2 0F       		.uleb128 0xf
 3359 00a3 00       		.byte	0
 3360 00a4 0B       		.uleb128 0xb
 3361 00a5 0B       		.uleb128 0xb
 3362 00a6 00       		.byte	0
 3363 00a7 00       		.byte	0
 3364 00a8 0F       		.uleb128 0xf
 3365 00a9 13       		.uleb128 0x13
 3366 00aa 01       		.byte	0x1
 3367 00ab 03       		.uleb128 0x3
 3368 00ac 0E       		.uleb128 0xe
 3369 00ad 0B       		.uleb128 0xb
 3370 00ae 05       		.uleb128 0x5
 3371 00af 3A       		.uleb128 0x3a
 3372 00b0 0B       		.uleb128 0xb
 3373 00b1 3B       		.uleb128 0x3b
 3374 00b2 05       		.uleb128 0x5
 3375 00b3 01       		.uleb128 0x1
 3376 00b4 13       		.uleb128 0x13
 3377 00b5 00       		.byte	0
 3378 00b6 00       		.byte	0
 3379 00b7 10       		.uleb128 0x10
 3380 00b8 04       		.uleb128 0x4
 3381 00b9 01       		.byte	0x1
 3382 00ba 0B       		.uleb128 0xb
 3383 00bb 0B       		.uleb128 0xb
 3384 00bc 49       		.uleb128 0x49
 3385 00bd 13       		.uleb128 0x13
 3386 00be 3A       		.uleb128 0x3a
 3387 00bf 0B       		.uleb128 0xb
 3388 00c0 3B       		.uleb128 0x3b
 3389 00c1 0B       		.uleb128 0xb
 3390 00c2 01       		.uleb128 0x1
 3391 00c3 13       		.uleb128 0x13
 3392 00c4 00       		.byte	0
 3393 00c5 00       		.byte	0
 3394 00c6 11       		.uleb128 0x11
 3395 00c7 28       		.uleb128 0x28
 3396 00c8 00       		.byte	0
 3397 00c9 03       		.uleb128 0x3
 3398 00ca 0E       		.uleb128 0xe
 3399 00cb 1C       		.uleb128 0x1c
 3400 00cc 0D       		.uleb128 0xd
 3401 00cd 00       		.byte	0
 3402 00ce 00       		.byte	0
 3403 00cf 12       		.uleb128 0x12
 3404 00d0 28       		.uleb128 0x28
 3405 00d1 00       		.byte	0
 3406 00d2 03       		.uleb128 0x3
 3407 00d3 0E       		.uleb128 0xe
 3408 00d4 1C       		.uleb128 0x1c
ARM GAS  /tmp/ccVgHsbd.s 			page 61


 3409 00d5 0B       		.uleb128 0xb
 3410 00d6 00       		.byte	0
 3411 00d7 00       		.byte	0
 3412 00d8 13       		.uleb128 0x13
 3413 00d9 01       		.uleb128 0x1
 3414 00da 01       		.byte	0x1
 3415 00db 49       		.uleb128 0x49
 3416 00dc 13       		.uleb128 0x13
 3417 00dd 01       		.uleb128 0x1
 3418 00de 13       		.uleb128 0x13
 3419 00df 00       		.byte	0
 3420 00e0 00       		.byte	0
 3421 00e1 14       		.uleb128 0x14
 3422 00e2 21       		.uleb128 0x21
 3423 00e3 00       		.byte	0
 3424 00e4 49       		.uleb128 0x49
 3425 00e5 13       		.uleb128 0x13
 3426 00e6 2F       		.uleb128 0x2f
 3427 00e7 0B       		.uleb128 0xb
 3428 00e8 00       		.byte	0
 3429 00e9 00       		.byte	0
 3430 00ea 15       		.uleb128 0x15
 3431 00eb 13       		.uleb128 0x13
 3432 00ec 01       		.byte	0x1
 3433 00ed 0B       		.uleb128 0xb
 3434 00ee 0B       		.uleb128 0xb
 3435 00ef 3A       		.uleb128 0x3a
 3436 00f0 0B       		.uleb128 0xb
 3437 00f1 3B       		.uleb128 0x3b
 3438 00f2 0B       		.uleb128 0xb
 3439 00f3 01       		.uleb128 0x1
 3440 00f4 13       		.uleb128 0x13
 3441 00f5 00       		.byte	0
 3442 00f6 00       		.byte	0
 3443 00f7 16       		.uleb128 0x16
 3444 00f8 0D       		.uleb128 0xd
 3445 00f9 00       		.byte	0
 3446 00fa 03       		.uleb128 0x3
 3447 00fb 08       		.uleb128 0x8
 3448 00fc 3A       		.uleb128 0x3a
 3449 00fd 0B       		.uleb128 0xb
 3450 00fe 3B       		.uleb128 0x3b
 3451 00ff 0B       		.uleb128 0xb
 3452 0100 49       		.uleb128 0x49
 3453 0101 13       		.uleb128 0x13
 3454 0102 38       		.uleb128 0x38
 3455 0103 0B       		.uleb128 0xb
 3456 0104 00       		.byte	0
 3457 0105 00       		.byte	0
 3458 0106 17       		.uleb128 0x17
 3459 0107 13       		.uleb128 0x13
 3460 0108 01       		.byte	0x1
 3461 0109 0B       		.uleb128 0xb
 3462 010a 0B       		.uleb128 0xb
 3463 010b 3A       		.uleb128 0x3a
 3464 010c 0B       		.uleb128 0xb
 3465 010d 3B       		.uleb128 0x3b
ARM GAS  /tmp/ccVgHsbd.s 			page 62


 3466 010e 05       		.uleb128 0x5
 3467 010f 01       		.uleb128 0x1
 3468 0110 13       		.uleb128 0x13
 3469 0111 00       		.byte	0
 3470 0112 00       		.byte	0
 3471 0113 18       		.uleb128 0x18
 3472 0114 16       		.uleb128 0x16
 3473 0115 00       		.byte	0
 3474 0116 03       		.uleb128 0x3
 3475 0117 0E       		.uleb128 0xe
 3476 0118 3A       		.uleb128 0x3a
 3477 0119 0B       		.uleb128 0xb
 3478 011a 3B       		.uleb128 0x3b
 3479 011b 05       		.uleb128 0x5
 3480 011c 49       		.uleb128 0x49
 3481 011d 13       		.uleb128 0x13
 3482 011e 00       		.byte	0
 3483 011f 00       		.byte	0
 3484 0120 19       		.uleb128 0x19
 3485 0121 17       		.uleb128 0x17
 3486 0122 01       		.byte	0x1
 3487 0123 0B       		.uleb128 0xb
 3488 0124 0B       		.uleb128 0xb
 3489 0125 3A       		.uleb128 0x3a
 3490 0126 0B       		.uleb128 0xb
 3491 0127 3B       		.uleb128 0x3b
 3492 0128 0B       		.uleb128 0xb
 3493 0129 01       		.uleb128 0x1
 3494 012a 13       		.uleb128 0x13
 3495 012b 00       		.byte	0
 3496 012c 00       		.byte	0
 3497 012d 1A       		.uleb128 0x1a
 3498 012e 0D       		.uleb128 0xd
 3499 012f 00       		.byte	0
 3500 0130 03       		.uleb128 0x3
 3501 0131 0E       		.uleb128 0xe
 3502 0132 3A       		.uleb128 0x3a
 3503 0133 0B       		.uleb128 0xb
 3504 0134 3B       		.uleb128 0x3b
 3505 0135 05       		.uleb128 0x5
 3506 0136 49       		.uleb128 0x49
 3507 0137 13       		.uleb128 0x13
 3508 0138 00       		.byte	0
 3509 0139 00       		.byte	0
 3510 013a 1B       		.uleb128 0x1b
 3511 013b 26       		.uleb128 0x26
 3512 013c 00       		.byte	0
 3513 013d 49       		.uleb128 0x49
 3514 013e 13       		.uleb128 0x13
 3515 013f 00       		.byte	0
 3516 0140 00       		.byte	0
 3517 0141 1C       		.uleb128 0x1c
 3518 0142 2E       		.uleb128 0x2e
 3519 0143 01       		.byte	0x1
 3520 0144 3F       		.uleb128 0x3f
 3521 0145 19       		.uleb128 0x19
 3522 0146 03       		.uleb128 0x3
ARM GAS  /tmp/ccVgHsbd.s 			page 63


 3523 0147 0E       		.uleb128 0xe
 3524 0148 3A       		.uleb128 0x3a
 3525 0149 0B       		.uleb128 0xb
 3526 014a 3B       		.uleb128 0x3b
 3527 014b 0B       		.uleb128 0xb
 3528 014c 27       		.uleb128 0x27
 3529 014d 19       		.uleb128 0x19
 3530 014e 11       		.uleb128 0x11
 3531 014f 01       		.uleb128 0x1
 3532 0150 12       		.uleb128 0x12
 3533 0151 06       		.uleb128 0x6
 3534 0152 40       		.uleb128 0x40
 3535 0153 18       		.uleb128 0x18
 3536 0154 9642     		.uleb128 0x2116
 3537 0156 19       		.uleb128 0x19
 3538 0157 01       		.uleb128 0x1
 3539 0158 13       		.uleb128 0x13
 3540 0159 00       		.byte	0
 3541 015a 00       		.byte	0
 3542 015b 1D       		.uleb128 0x1d
 3543 015c 34       		.uleb128 0x34
 3544 015d 00       		.byte	0
 3545 015e 03       		.uleb128 0x3
 3546 015f 0E       		.uleb128 0xe
 3547 0160 3A       		.uleb128 0x3a
 3548 0161 0B       		.uleb128 0xb
 3549 0162 3B       		.uleb128 0x3b
 3550 0163 0B       		.uleb128 0xb
 3551 0164 49       		.uleb128 0x49
 3552 0165 13       		.uleb128 0x13
 3553 0166 02       		.uleb128 0x2
 3554 0167 17       		.uleb128 0x17
 3555 0168 00       		.byte	0
 3556 0169 00       		.byte	0
 3557 016a 1E       		.uleb128 0x1e
 3558 016b 898201   		.uleb128 0x4109
 3559 016e 00       		.byte	0
 3560 016f 11       		.uleb128 0x11
 3561 0170 01       		.uleb128 0x1
 3562 0171 9542     		.uleb128 0x2115
 3563 0173 19       		.uleb128 0x19
 3564 0174 31       		.uleb128 0x31
 3565 0175 13       		.uleb128 0x13
 3566 0176 00       		.byte	0
 3567 0177 00       		.byte	0
 3568 0178 1F       		.uleb128 0x1f
 3569 0179 2E       		.uleb128 0x2e
 3570 017a 01       		.byte	0x1
 3571 017b 3F       		.uleb128 0x3f
 3572 017c 19       		.uleb128 0x19
 3573 017d 03       		.uleb128 0x3
 3574 017e 0E       		.uleb128 0xe
 3575 017f 3A       		.uleb128 0x3a
 3576 0180 0B       		.uleb128 0xb
 3577 0181 3B       		.uleb128 0x3b
 3578 0182 05       		.uleb128 0x5
 3579 0183 27       		.uleb128 0x27
ARM GAS  /tmp/ccVgHsbd.s 			page 64


 3580 0184 19       		.uleb128 0x19
 3581 0185 11       		.uleb128 0x11
 3582 0186 01       		.uleb128 0x1
 3583 0187 12       		.uleb128 0x12
 3584 0188 06       		.uleb128 0x6
 3585 0189 40       		.uleb128 0x40
 3586 018a 18       		.uleb128 0x18
 3587 018b 9642     		.uleb128 0x2116
 3588 018d 19       		.uleb128 0x19
 3589 018e 01       		.uleb128 0x1
 3590 018f 13       		.uleb128 0x13
 3591 0190 00       		.byte	0
 3592 0191 00       		.byte	0
 3593 0192 20       		.uleb128 0x20
 3594 0193 34       		.uleb128 0x34
 3595 0194 00       		.byte	0
 3596 0195 03       		.uleb128 0x3
 3597 0196 0E       		.uleb128 0xe
 3598 0197 3A       		.uleb128 0x3a
 3599 0198 0B       		.uleb128 0xb
 3600 0199 3B       		.uleb128 0x3b
 3601 019a 05       		.uleb128 0x5
 3602 019b 49       		.uleb128 0x49
 3603 019c 13       		.uleb128 0x13
 3604 019d 02       		.uleb128 0x2
 3605 019e 17       		.uleb128 0x17
 3606 019f 00       		.byte	0
 3607 01a0 00       		.byte	0
 3608 01a1 21       		.uleb128 0x21
 3609 01a2 2E       		.uleb128 0x2e
 3610 01a3 01       		.byte	0x1
 3611 01a4 3F       		.uleb128 0x3f
 3612 01a5 19       		.uleb128 0x19
 3613 01a6 03       		.uleb128 0x3
 3614 01a7 0E       		.uleb128 0xe
 3615 01a8 3A       		.uleb128 0x3a
 3616 01a9 0B       		.uleb128 0xb
 3617 01aa 3B       		.uleb128 0x3b
 3618 01ab 05       		.uleb128 0x5
 3619 01ac 27       		.uleb128 0x27
 3620 01ad 19       		.uleb128 0x19
 3621 01ae 11       		.uleb128 0x11
 3622 01af 01       		.uleb128 0x1
 3623 01b0 12       		.uleb128 0x12
 3624 01b1 06       		.uleb128 0x6
 3625 01b2 40       		.uleb128 0x40
 3626 01b3 18       		.uleb128 0x18
 3627 01b4 9742     		.uleb128 0x2117
 3628 01b6 19       		.uleb128 0x19
 3629 01b7 01       		.uleb128 0x1
 3630 01b8 13       		.uleb128 0x13
 3631 01b9 00       		.byte	0
 3632 01ba 00       		.byte	0
 3633 01bb 22       		.uleb128 0x22
 3634 01bc 34       		.uleb128 0x34
 3635 01bd 00       		.byte	0
 3636 01be 03       		.uleb128 0x3
ARM GAS  /tmp/ccVgHsbd.s 			page 65


 3637 01bf 08       		.uleb128 0x8
 3638 01c0 3A       		.uleb128 0x3a
 3639 01c1 0B       		.uleb128 0xb
 3640 01c2 3B       		.uleb128 0x3b
 3641 01c3 05       		.uleb128 0x5
 3642 01c4 49       		.uleb128 0x49
 3643 01c5 13       		.uleb128 0x13
 3644 01c6 02       		.uleb128 0x2
 3645 01c7 17       		.uleb128 0x17
 3646 01c8 00       		.byte	0
 3647 01c9 00       		.byte	0
 3648 01ca 23       		.uleb128 0x23
 3649 01cb 2E       		.uleb128 0x2e
 3650 01cc 01       		.byte	0x1
 3651 01cd 3F       		.uleb128 0x3f
 3652 01ce 19       		.uleb128 0x19
 3653 01cf 03       		.uleb128 0x3
 3654 01d0 0E       		.uleb128 0xe
 3655 01d1 3A       		.uleb128 0x3a
 3656 01d2 0B       		.uleb128 0xb
 3657 01d3 3B       		.uleb128 0x3b
 3658 01d4 05       		.uleb128 0x5
 3659 01d5 27       		.uleb128 0x27
 3660 01d6 19       		.uleb128 0x19
 3661 01d7 49       		.uleb128 0x49
 3662 01d8 13       		.uleb128 0x13
 3663 01d9 11       		.uleb128 0x11
 3664 01da 01       		.uleb128 0x1
 3665 01db 12       		.uleb128 0x12
 3666 01dc 06       		.uleb128 0x6
 3667 01dd 40       		.uleb128 0x40
 3668 01de 18       		.uleb128 0x18
 3669 01df 9742     		.uleb128 0x2117
 3670 01e1 19       		.uleb128 0x19
 3671 01e2 01       		.uleb128 0x1
 3672 01e3 13       		.uleb128 0x13
 3673 01e4 00       		.byte	0
 3674 01e5 00       		.byte	0
 3675 01e6 24       		.uleb128 0x24
 3676 01e7 05       		.uleb128 0x5
 3677 01e8 00       		.byte	0
 3678 01e9 03       		.uleb128 0x3
 3679 01ea 0E       		.uleb128 0xe
 3680 01eb 3A       		.uleb128 0x3a
 3681 01ec 0B       		.uleb128 0xb
 3682 01ed 3B       		.uleb128 0x3b
 3683 01ee 05       		.uleb128 0x5
 3684 01ef 49       		.uleb128 0x49
 3685 01f0 13       		.uleb128 0x13
 3686 01f1 02       		.uleb128 0x2
 3687 01f2 17       		.uleb128 0x17
 3688 01f3 00       		.byte	0
 3689 01f4 00       		.byte	0
 3690 01f5 25       		.uleb128 0x25
 3691 01f6 34       		.uleb128 0x34
 3692 01f7 00       		.byte	0
 3693 01f8 03       		.uleb128 0x3
ARM GAS  /tmp/ccVgHsbd.s 			page 66


 3694 01f9 0E       		.uleb128 0xe
 3695 01fa 49       		.uleb128 0x49
 3696 01fb 13       		.uleb128 0x13
 3697 01fc 34       		.uleb128 0x34
 3698 01fd 19       		.uleb128 0x19
 3699 01fe 00       		.byte	0
 3700 01ff 00       		.byte	0
 3701 0200 26       		.uleb128 0x26
 3702 0201 898201   		.uleb128 0x4109
 3703 0204 00       		.byte	0
 3704 0205 11       		.uleb128 0x11
 3705 0206 01       		.uleb128 0x1
 3706 0207 31       		.uleb128 0x31
 3707 0208 13       		.uleb128 0x13
 3708 0209 00       		.byte	0
 3709 020a 00       		.byte	0
 3710 020b 27       		.uleb128 0x27
 3711 020c 34       		.uleb128 0x34
 3712 020d 00       		.byte	0
 3713 020e 03       		.uleb128 0x3
 3714 020f 0E       		.uleb128 0xe
 3715 0210 3A       		.uleb128 0x3a
 3716 0211 0B       		.uleb128 0xb
 3717 0212 3B       		.uleb128 0x3b
 3718 0213 0B       		.uleb128 0xb
 3719 0214 49       		.uleb128 0x49
 3720 0215 13       		.uleb128 0x13
 3721 0216 02       		.uleb128 0x2
 3722 0217 18       		.uleb128 0x18
 3723 0218 00       		.byte	0
 3724 0219 00       		.byte	0
 3725 021a 28       		.uleb128 0x28
 3726 021b 34       		.uleb128 0x34
 3727 021c 00       		.byte	0
 3728 021d 03       		.uleb128 0x3
 3729 021e 0E       		.uleb128 0xe
 3730 021f 3A       		.uleb128 0x3a
 3731 0220 0B       		.uleb128 0xb
 3732 0221 3B       		.uleb128 0x3b
 3733 0222 05       		.uleb128 0x5
 3734 0223 49       		.uleb128 0x49
 3735 0224 13       		.uleb128 0x13
 3736 0225 3F       		.uleb128 0x3f
 3737 0226 19       		.uleb128 0x19
 3738 0227 3C       		.uleb128 0x3c
 3739 0228 19       		.uleb128 0x19
 3740 0229 00       		.byte	0
 3741 022a 00       		.byte	0
 3742 022b 29       		.uleb128 0x29
 3743 022c 34       		.uleb128 0x34
 3744 022d 00       		.byte	0
 3745 022e 03       		.uleb128 0x3
 3746 022f 08       		.uleb128 0x8
 3747 0230 3A       		.uleb128 0x3a
 3748 0231 0B       		.uleb128 0xb
 3749 0232 3B       		.uleb128 0x3b
 3750 0233 05       		.uleb128 0x5
ARM GAS  /tmp/ccVgHsbd.s 			page 67


 3751 0234 49       		.uleb128 0x49
 3752 0235 13       		.uleb128 0x13
 3753 0236 3F       		.uleb128 0x3f
 3754 0237 19       		.uleb128 0x19
 3755 0238 3C       		.uleb128 0x3c
 3756 0239 19       		.uleb128 0x19
 3757 023a 00       		.byte	0
 3758 023b 00       		.byte	0
 3759 023c 2A       		.uleb128 0x2a
 3760 023d 34       		.uleb128 0x34
 3761 023e 00       		.byte	0
 3762 023f 03       		.uleb128 0x3
 3763 0240 0E       		.uleb128 0xe
 3764 0241 3A       		.uleb128 0x3a
 3765 0242 0B       		.uleb128 0xb
 3766 0243 3B       		.uleb128 0x3b
 3767 0244 0B       		.uleb128 0xb
 3768 0245 49       		.uleb128 0x49
 3769 0246 13       		.uleb128 0x13
 3770 0247 3F       		.uleb128 0x3f
 3771 0248 19       		.uleb128 0x19
 3772 0249 02       		.uleb128 0x2
 3773 024a 18       		.uleb128 0x18
 3774 024b 00       		.byte	0
 3775 024c 00       		.byte	0
 3776 024d 2B       		.uleb128 0x2b
 3777 024e 2E       		.uleb128 0x2e
 3778 024f 00       		.byte	0
 3779 0250 3F       		.uleb128 0x3f
 3780 0251 19       		.uleb128 0x19
 3781 0252 3C       		.uleb128 0x3c
 3782 0253 19       		.uleb128 0x19
 3783 0254 6E       		.uleb128 0x6e
 3784 0255 0E       		.uleb128 0xe
 3785 0256 03       		.uleb128 0x3
 3786 0257 0E       		.uleb128 0xe
 3787 0258 3A       		.uleb128 0x3a
 3788 0259 0B       		.uleb128 0xb
 3789 025a 3B       		.uleb128 0x3b
 3790 025b 05       		.uleb128 0x5
 3791 025c 00       		.byte	0
 3792 025d 00       		.byte	0
 3793 025e 2C       		.uleb128 0x2c
 3794 025f 2E       		.uleb128 0x2e
 3795 0260 00       		.byte	0
 3796 0261 3F       		.uleb128 0x3f
 3797 0262 19       		.uleb128 0x19
 3798 0263 3C       		.uleb128 0x3c
 3799 0264 19       		.uleb128 0x19
 3800 0265 6E       		.uleb128 0x6e
 3801 0266 0E       		.uleb128 0xe
 3802 0267 03       		.uleb128 0x3
 3803 0268 0E       		.uleb128 0xe
 3804 0269 3A       		.uleb128 0x3a
 3805 026a 0B       		.uleb128 0xb
 3806 026b 3B       		.uleb128 0x3b
 3807 026c 0B       		.uleb128 0xb
ARM GAS  /tmp/ccVgHsbd.s 			page 68


 3808 026d 00       		.byte	0
 3809 026e 00       		.byte	0
 3810 026f 00       		.byte	0
 3811              		.section	.debug_loc,"",%progbits
 3812              	.Ldebug_loc0:
 3813              	.LLST0:
 3814 0000 0C000000 		.4byte	.LVL0
 3815 0004 15000000 		.4byte	.LVL1-1
 3816 0008 0100     		.2byte	0x1
 3817 000a 51       		.byte	0x51
 3818 000b 00000000 		.4byte	0
 3819 000f 00000000 		.4byte	0
 3820              	.LLST1:
 3821 0013 0E000000 		.4byte	.LVL3
 3822 0017 19000000 		.4byte	.LVL4-1
 3823 001b 0100     		.2byte	0x1
 3824 001d 51       		.byte	0x51
 3825 001e 00000000 		.4byte	0
 3826 0022 00000000 		.4byte	0
 3827              	.LLST2:
 3828 0026 0E000000 		.4byte	.LVL6
 3829 002a 19000000 		.4byte	.LVL7-1
 3830 002e 0100     		.2byte	0x1
 3831 0030 51       		.byte	0x51
 3832 0031 00000000 		.4byte	0
 3833 0035 00000000 		.4byte	0
 3834              	.LLST3:
 3835 0039 0E000000 		.4byte	.LVL9
 3836 003d 19000000 		.4byte	.LVL10-1
 3837 0041 0100     		.2byte	0x1
 3838 0043 51       		.byte	0x51
 3839 0044 00000000 		.4byte	0
 3840 0048 00000000 		.4byte	0
 3841              	.LLST4:
 3842 004c 0E000000 		.4byte	.LVL12
 3843 0050 15000000 		.4byte	.LVL13-1
 3844 0054 0100     		.2byte	0x1
 3845 0056 51       		.byte	0x51
 3846 0057 00000000 		.4byte	0
 3847 005b 00000000 		.4byte	0
 3848              	.LLST5:
 3849 005f 0E000000 		.4byte	.LVL15
 3850 0063 19000000 		.4byte	.LVL16-1
 3851 0067 0100     		.2byte	0x1
 3852 0069 51       		.byte	0x51
 3853 006a 00000000 		.4byte	0
 3854 006e 00000000 		.4byte	0
 3855              	.LLST6:
 3856 0072 0E000000 		.4byte	.LVL18
 3857 0076 19000000 		.4byte	.LVL19-1
 3858 007a 0100     		.2byte	0x1
 3859 007c 51       		.byte	0x51
 3860 007d 00000000 		.4byte	0
 3861 0081 00000000 		.4byte	0
 3862              	.LLST7:
 3863 0085 0E000000 		.4byte	.LVL21
 3864 0089 19000000 		.4byte	.LVL22-1
ARM GAS  /tmp/ccVgHsbd.s 			page 69


 3865 008d 0100     		.2byte	0x1
 3866 008f 51       		.byte	0x51
 3867 0090 00000000 		.4byte	0
 3868 0094 00000000 		.4byte	0
 3869              	.LLST8:
 3870 0098 0E000000 		.4byte	.LVL24
 3871 009c 15000000 		.4byte	.LVL25-1
 3872 00a0 0100     		.2byte	0x1
 3873 00a2 51       		.byte	0x51
 3874 00a3 00000000 		.4byte	0
 3875 00a7 00000000 		.4byte	0
 3876              	.LLST9:
 3877 00ab 0E000000 		.4byte	.LVL27
 3878 00af 19000000 		.4byte	.LVL28-1
 3879 00b3 0100     		.2byte	0x1
 3880 00b5 51       		.byte	0x51
 3881 00b6 00000000 		.4byte	0
 3882 00ba 00000000 		.4byte	0
 3883              	.LLST10:
 3884 00be 0E000000 		.4byte	.LVL30
 3885 00c2 19000000 		.4byte	.LVL31-1
 3886 00c6 0100     		.2byte	0x1
 3887 00c8 51       		.byte	0x51
 3888 00c9 00000000 		.4byte	0
 3889 00cd 00000000 		.4byte	0
 3890              	.LLST11:
 3891 00d1 0E000000 		.4byte	.LVL33
 3892 00d5 19000000 		.4byte	.LVL34-1
 3893 00d9 0100     		.2byte	0x1
 3894 00db 51       		.byte	0x51
 3895 00dc 00000000 		.4byte	0
 3896 00e0 00000000 		.4byte	0
 3897              	.LLST12:
 3898 00e4 0E000000 		.4byte	.LVL36
 3899 00e8 15000000 		.4byte	.LVL37-1
 3900 00ec 0100     		.2byte	0x1
 3901 00ee 51       		.byte	0x51
 3902 00ef 00000000 		.4byte	0
 3903 00f3 00000000 		.4byte	0
 3904              	.LLST13:
 3905 00f7 0E000000 		.4byte	.LVL39
 3906 00fb 19000000 		.4byte	.LVL40-1
 3907 00ff 0100     		.2byte	0x1
 3908 0101 51       		.byte	0x51
 3909 0102 00000000 		.4byte	0
 3910 0106 00000000 		.4byte	0
 3911              	.LLST14:
 3912 010a 0E000000 		.4byte	.LVL42
 3913 010e 19000000 		.4byte	.LVL43-1
 3914 0112 0100     		.2byte	0x1
 3915 0114 51       		.byte	0x51
 3916 0115 00000000 		.4byte	0
 3917 0119 00000000 		.4byte	0
 3918              	.LLST15:
 3919 011d 0E000000 		.4byte	.LVL45
 3920 0121 19000000 		.4byte	.LVL46-1
 3921 0125 0100     		.2byte	0x1
ARM GAS  /tmp/ccVgHsbd.s 			page 70


 3922 0127 51       		.byte	0x51
 3923 0128 00000000 		.4byte	0
 3924 012c 00000000 		.4byte	0
 3925              	.LLST16:
 3926 0130 0C000000 		.4byte	.LVL48
 3927 0134 12000000 		.4byte	.LVL49
 3928 0138 0200     		.2byte	0x2
 3929 013a 30       		.byte	0x30
 3930 013b 9F       		.byte	0x9f
 3931 013c 12000000 		.4byte	.LVL49
 3932 0140 32000000 		.4byte	.LVL52
 3933 0144 0100     		.2byte	0x1
 3934 0146 53       		.byte	0x53
 3935 0147 00000000 		.4byte	0
 3936 014b 00000000 		.4byte	0
 3937              	.LLST17:
 3938 014f 00000000 		.4byte	.LVL53
 3939 0153 64000000 		.4byte	.LVL55
 3940 0157 0100     		.2byte	0x1
 3941 0159 50       		.byte	0x50
 3942 015a 64000000 		.4byte	.LVL55
 3943 015e 6C000000 		.4byte	.LVL57
 3944 0162 0400     		.2byte	0x4
 3945 0164 F3       		.byte	0xf3
 3946 0165 01       		.uleb128 0x1
 3947 0166 50       		.byte	0x50
 3948 0167 9F       		.byte	0x9f
 3949 0168 6C000000 		.4byte	.LVL57
 3950 016c 7A000000 		.4byte	.LVL59
 3951 0170 0100     		.2byte	0x1
 3952 0172 50       		.byte	0x50
 3953 0173 7A000000 		.4byte	.LVL59
 3954 0177 7C000000 		.4byte	.LVL60
 3955 017b 0400     		.2byte	0x4
 3956 017d F3       		.byte	0xf3
 3957 017e 01       		.uleb128 0x1
 3958 017f 50       		.byte	0x50
 3959 0180 9F       		.byte	0x9f
 3960 0181 7C000000 		.4byte	.LVL60
 3961 0185 7E000000 		.4byte	.LVL61
 3962 0189 0100     		.2byte	0x1
 3963 018b 50       		.byte	0x50
 3964 018c 7E000000 		.4byte	.LVL61
 3965 0190 8C000000 		.4byte	.LFE277
 3966 0194 0400     		.2byte	0x4
 3967 0196 F3       		.byte	0xf3
 3968 0197 01       		.uleb128 0x1
 3969 0198 50       		.byte	0x50
 3970 0199 9F       		.byte	0x9f
 3971 019a 00000000 		.4byte	0
 3972 019e 00000000 		.4byte	0
 3973              	.LLST18:
 3974 01a2 00000000 		.4byte	.LVL53
 3975 01a6 67000000 		.4byte	.LVL56-1
 3976 01aa 0100     		.2byte	0x1
 3977 01ac 51       		.byte	0x51
 3978 01ad 67000000 		.4byte	.LVL56-1
ARM GAS  /tmp/ccVgHsbd.s 			page 71


 3979 01b1 6C000000 		.4byte	.LVL57
 3980 01b5 0400     		.2byte	0x4
 3981 01b7 F3       		.byte	0xf3
 3982 01b8 01       		.uleb128 0x1
 3983 01b9 51       		.byte	0x51
 3984 01ba 9F       		.byte	0x9f
 3985 01bb 6C000000 		.4byte	.LVL57
 3986 01bf 8C000000 		.4byte	.LFE277
 3987 01c3 0100     		.2byte	0x1
 3988 01c5 51       		.byte	0x51
 3989 01c6 00000000 		.4byte	0
 3990 01ca 00000000 		.4byte	0
 3991              	.LLST19:
 3992 01ce 00000000 		.4byte	.LVL53
 3993 01d2 67000000 		.4byte	.LVL56-1
 3994 01d6 0100     		.2byte	0x1
 3995 01d8 52       		.byte	0x52
 3996 01d9 67000000 		.4byte	.LVL56-1
 3997 01dd 6C000000 		.4byte	.LVL57
 3998 01e1 0400     		.2byte	0x4
 3999 01e3 F3       		.byte	0xf3
 4000 01e4 01       		.uleb128 0x1
 4001 01e5 52       		.byte	0x52
 4002 01e6 9F       		.byte	0x9f
 4003 01e7 6C000000 		.4byte	.LVL57
 4004 01eb 8C000000 		.4byte	.LFE277
 4005 01ef 0100     		.2byte	0x1
 4006 01f1 52       		.byte	0x52
 4007 01f2 00000000 		.4byte	0
 4008 01f6 00000000 		.4byte	0
 4009              	.LLST20:
 4010 01fa 00000000 		.4byte	.LVL53
 4011 01fe 32000000 		.4byte	.LVL54
 4012 0202 0100     		.2byte	0x1
 4013 0204 53       		.byte	0x53
 4014 0205 32000000 		.4byte	.LVL54
 4015 0209 67000000 		.4byte	.LVL56-1
 4016 020d 0200     		.2byte	0x2
 4017 020f 7E       		.byte	0x7e
 4018 0210 04       		.sleb128 4
 4019 0211 67000000 		.4byte	.LVL56-1
 4020 0215 6C000000 		.4byte	.LVL57
 4021 0219 0400     		.2byte	0x4
 4022 021b F3       		.byte	0xf3
 4023 021c 01       		.uleb128 0x1
 4024 021d 53       		.byte	0x53
 4025 021e 9F       		.byte	0x9f
 4026 021f 6C000000 		.4byte	.LVL57
 4027 0223 78000000 		.4byte	.LVL58
 4028 0227 0200     		.2byte	0x2
 4029 0229 7E       		.byte	0x7e
 4030 022a 04       		.sleb128 4
 4031 022b 78000000 		.4byte	.LVL58
 4032 022f 7C000000 		.4byte	.LVL60
 4033 0233 0100     		.2byte	0x1
 4034 0235 53       		.byte	0x53
 4035 0236 7C000000 		.4byte	.LVL60
ARM GAS  /tmp/ccVgHsbd.s 			page 72


 4036 023a 8C000000 		.4byte	.LFE277
 4037 023e 0200     		.2byte	0x2
 4038 0240 7E       		.byte	0x7e
 4039 0241 04       		.sleb128 4
 4040 0242 00000000 		.4byte	0
 4041 0246 00000000 		.4byte	0
 4042              	.LLST21:
 4043 024a 00000000 		.4byte	.LVL62
 4044 024e 06000000 		.4byte	.LVL63
 4045 0252 0100     		.2byte	0x1
 4046 0254 50       		.byte	0x50
 4047 0255 06000000 		.4byte	.LVL63
 4048 0259 3C000000 		.4byte	.LVL65
 4049 025d 0100     		.2byte	0x1
 4050 025f 54       		.byte	0x54
 4051 0260 3C000000 		.4byte	.LVL65
 4052 0264 44000000 		.4byte	.LFE278
 4053 0268 0400     		.2byte	0x4
 4054 026a F3       		.byte	0xf3
 4055 026b 01       		.uleb128 0x1
 4056 026c 50       		.byte	0x50
 4057 026d 9F       		.byte	0x9f
 4058 026e 00000000 		.4byte	0
 4059 0272 00000000 		.4byte	0
 4060              		.section	.debug_aranges,"",%progbits
 4061 0000 AC000000 		.4byte	0xac
 4062 0004 0200     		.2byte	0x2
 4063 0006 00000000 		.4byte	.Ldebug_info0
 4064 000a 04       		.byte	0x4
 4065 000b 00       		.byte	0
 4066 000c 0000     		.2byte	0
 4067 000e 0000     		.2byte	0
 4068 0010 00000000 		.4byte	.LFB260
 4069 0014 28000000 		.4byte	.LFE260-.LFB260
 4070 0018 00000000 		.4byte	.LFB261
 4071 001c 2C000000 		.4byte	.LFE261-.LFB261
 4072 0020 00000000 		.4byte	.LFB262
 4073 0024 2C000000 		.4byte	.LFE262-.LFB262
 4074 0028 00000000 		.4byte	.LFB263
 4075 002c 2C000000 		.4byte	.LFE263-.LFB263
 4076 0030 00000000 		.4byte	.LFB264
 4077 0034 28000000 		.4byte	.LFE264-.LFB264
 4078 0038 00000000 		.4byte	.LFB265
 4079 003c 2C000000 		.4byte	.LFE265-.LFB265
 4080 0040 00000000 		.4byte	.LFB266
 4081 0044 2C000000 		.4byte	.LFE266-.LFB266
 4082 0048 00000000 		.4byte	.LFB267
 4083 004c 2C000000 		.4byte	.LFE267-.LFB267
 4084 0050 00000000 		.4byte	.LFB268
 4085 0054 28000000 		.4byte	.LFE268-.LFB268
 4086 0058 00000000 		.4byte	.LFB269
 4087 005c 2C000000 		.4byte	.LFE269-.LFB269
 4088 0060 00000000 		.4byte	.LFB270
 4089 0064 2C000000 		.4byte	.LFE270-.LFB270
 4090 0068 00000000 		.4byte	.LFB271
 4091 006c 2C000000 		.4byte	.LFE271-.LFB271
 4092 0070 00000000 		.4byte	.LFB272
ARM GAS  /tmp/ccVgHsbd.s 			page 73


 4093 0074 28000000 		.4byte	.LFE272-.LFB272
 4094 0078 00000000 		.4byte	.LFB273
 4095 007c 2C000000 		.4byte	.LFE273-.LFB273
 4096 0080 00000000 		.4byte	.LFB274
 4097 0084 2C000000 		.4byte	.LFE274-.LFB274
 4098 0088 00000000 		.4byte	.LFB275
 4099 008c 2C000000 		.4byte	.LFE275-.LFB275
 4100 0090 00000000 		.4byte	.LFB276
 4101 0094 54000000 		.4byte	.LFE276-.LFB276
 4102 0098 00000000 		.4byte	.LFB277
 4103 009c 8C000000 		.4byte	.LFE277-.LFB277
 4104 00a0 00000000 		.4byte	.LFB278
 4105 00a4 44000000 		.4byte	.LFE278-.LFB278
 4106 00a8 00000000 		.4byte	0
 4107 00ac 00000000 		.4byte	0
 4108              		.section	.debug_ranges,"",%progbits
 4109              	.Ldebug_ranges0:
 4110 0000 00000000 		.4byte	.LFB260
 4111 0004 28000000 		.4byte	.LFE260
 4112 0008 00000000 		.4byte	.LFB261
 4113 000c 2C000000 		.4byte	.LFE261
 4114 0010 00000000 		.4byte	.LFB262
 4115 0014 2C000000 		.4byte	.LFE262
 4116 0018 00000000 		.4byte	.LFB263
 4117 001c 2C000000 		.4byte	.LFE263
 4118 0020 00000000 		.4byte	.LFB264
 4119 0024 28000000 		.4byte	.LFE264
 4120 0028 00000000 		.4byte	.LFB265
 4121 002c 2C000000 		.4byte	.LFE265
 4122 0030 00000000 		.4byte	.LFB266
 4123 0034 2C000000 		.4byte	.LFE266
 4124 0038 00000000 		.4byte	.LFB267
 4125 003c 2C000000 		.4byte	.LFE267
 4126 0040 00000000 		.4byte	.LFB268
 4127 0044 28000000 		.4byte	.LFE268
 4128 0048 00000000 		.4byte	.LFB269
 4129 004c 2C000000 		.4byte	.LFE269
 4130 0050 00000000 		.4byte	.LFB270
 4131 0054 2C000000 		.4byte	.LFE270
 4132 0058 00000000 		.4byte	.LFB271
 4133 005c 2C000000 		.4byte	.LFE271
 4134 0060 00000000 		.4byte	.LFB272
 4135 0064 28000000 		.4byte	.LFE272
 4136 0068 00000000 		.4byte	.LFB273
 4137 006c 2C000000 		.4byte	.LFE273
 4138 0070 00000000 		.4byte	.LFB274
 4139 0074 2C000000 		.4byte	.LFE274
 4140 0078 00000000 		.4byte	.LFB275
 4141 007c 2C000000 		.4byte	.LFE275
 4142 0080 00000000 		.4byte	.LFB276
 4143 0084 54000000 		.4byte	.LFE276
 4144 0088 00000000 		.4byte	.LFB277
 4145 008c 8C000000 		.4byte	.LFE277
 4146 0090 00000000 		.4byte	.LFB278
 4147 0094 44000000 		.4byte	.LFE278
 4148 0098 00000000 		.4byte	0
 4149 009c 00000000 		.4byte	0
ARM GAS  /tmp/ccVgHsbd.s 			page 74


 4150              		.section	.debug_line,"",%progbits
 4151              	.Ldebug_line0:
 4152 0000 60040000 		.section	.debug_str,"MS",%progbits,1
 4152      02001B02 
 4152      00000201 
 4152      FB0E0D00 
 4152      01010101 
 4153              	.LASF147:
 4154 0000 4D314152 		.ascii	"M1AR\000"
 4154      00
 4155              	.LASF91:
 4156 0005 5254435F 		.ascii	"RTC_WKUP_IRQn\000"
 4156      574B5550 
 4156      5F495251 
 4156      6E00
 4157              	.LASF96:
 4158 0013 45585449 		.ascii	"EXTI2_IRQn\000"
 4158      325F4952 
 4158      516E00
 4159              	.LASF209:
 4160 001e 73746D33 		.ascii	"stm32_dma_stream_t\000"
 4160      325F646D 
 4160      615F7374 
 4160      7265616D 
 4160      5F7400
 4161              	.LASF4:
 4162 0031 73697A65 		.ascii	"size_t\000"
 4162      5F7400
 4163              	.LASF144:
 4164 0038 73697A65 		.ascii	"sizetype\000"
 4164      74797065 
 4164      00
 4165              	.LASF192:
 4166 0041 77747365 		.ascii	"wtsemp\000"
 4166      6D7000
 4167              	.LASF27:
 4168 0048 73797374 		.ascii	"systime_t\000"
 4168      696D655F 
 4168      7400
 4169              	.LASF180:
 4170 0052 504C4C49 		.ascii	"PLLI2SCFGR\000"
 4170      32534346 
 4170      475200
 4171              	.LASF32:
 4172 005d 705F6374 		.ascii	"p_ctx\000"
 4172      7800
 4173              	.LASF23:
 4174 0063 74707269 		.ascii	"tprio_t\000"
 4174      6F5F7400 
 4175              	.LASF40:
 4176 006b 705F6D73 		.ascii	"p_msgqueue\000"
 4176      67717565 
 4176      756500
 4177              	.LASF56:
 4178 0076 725F6374 		.ascii	"r_ctx\000"
 4178      7800
 4179              	.LASF16:
ARM GAS  /tmp/ccVgHsbd.s 			page 75


 4180 007c 696E7433 		.ascii	"int32_t\000"
 4180      325F7400 
 4181              	.LASF60:
 4182 0084 76746675 		.ascii	"vtfunc_t\000"
 4182      6E635F74 
 4182      00
 4183              	.LASF237:
 4184 008d 646D6153 		.ascii	"dmaStreamRelease\000"
 4184      74726561 
 4184      6D52656C 
 4184      65617365 
 4184      00
 4185              	.LASF69:
 4186 009e 63685F76 		.ascii	"ch_virtual_timers_list\000"
 4186      69727475 
 4186      616C5F74 
 4186      696D6572 
 4186      735F6C69 
 4187              	.LASF238:
 4188 00b5 5F5F6675 		.ascii	"__func__\000"
 4188      6E635F5F 
 4188      00
 4189              	.LASF131:
 4190 00be 444D4132 		.ascii	"DMA2_Stream1_IRQn\000"
 4190      5F537472 
 4190      65616D31 
 4190      5F495251 
 4190      6E00
 4191              	.LASF129:
 4192 00d0 53504933 		.ascii	"SPI3_IRQn\000"
 4192      5F495251 
 4192      6E00
 4193              	.LASF92:
 4194 00da 464C4153 		.ascii	"FLASH_IRQn\000"
 4194      485F4952 
 4194      516E00
 4195              	.LASF112:
 4196 00e5 54494D32 		.ascii	"TIM2_IRQn\000"
 4196      5F495251 
 4196      6E00
 4197              	.LASF239:
 4198 00ef 646D615F 		.ascii	"dma_streams_mask\000"
 4198      73747265 
 4198      616D735F 
 4198      6D61736B 
 4198      00
 4199              	.LASF139:
 4200 0100 55534152 		.ascii	"USART6_IRQn\000"
 4200      54365F49 
 4200      52516E00 
 4201              	.LASF200:
 4202 010c 6D5F6F77 		.ascii	"m_owner\000"
 4202      6E657200 
 4203              	.LASF67:
 4204 0114 76745F70 		.ascii	"vt_par\000"
 4204      617200
 4205              	.LASF224:
ARM GAS  /tmp/ccVgHsbd.s 			page 76


 4206 011b 56656374 		.ascii	"Vector120\000"
 4206      6F723132 
 4206      3000
 4207              	.LASF189:
 4208 0125 65786974 		.ascii	"exitcode\000"
 4208      636F6465 
 4208      00
 4209              	.LASF5:
 4210 012e 5F5F7569 		.ascii	"__uint8_t\000"
 4210      6E74385F 
 4210      7400
 4211              	.LASF120:
 4212 0138 53504932 		.ascii	"SPI2_IRQn\000"
 4212      5F495251 
 4212      6E00
 4213              	.LASF171:
 4214 0142 41484232 		.ascii	"AHB2LPENR\000"
 4214      4C50454E 
 4214      5200
 4215              	.LASF33:
 4216 014c 705F6E65 		.ascii	"p_newer\000"
 4216      77657200 
 4217              	.LASF10:
 4218 0154 6C6F6E67 		.ascii	"long int\000"
 4218      20696E74 
 4218      00
 4219              	.LASF29:
 4220 015d 705F6E65 		.ascii	"p_next\000"
 4220      787400
 4221              	.LASF246:
 4222 0164 474E5520 		.ascii	"GNU C11 5.2.0 -mcpu=cortex-m4 -mfloat-abi=hard -mfp"
 4222      43313120 
 4222      352E322E 
 4222      30202D6D 
 4222      6370753D 
 4223 0197 753D6670 		.ascii	"u=fpv4-sp-d16 -mno-thumb-interwork -mthumb -ggdb -O"
 4223      76342D73 
 4223      702D6431 
 4223      36202D6D 
 4223      6E6F2D74 
 4224 01ca 32202D66 		.ascii	"2 -fomit-frame-pointer -falign-functions=16 -ffunct"
 4224      6F6D6974 
 4224      2D667261 
 4224      6D652D70 
 4224      6F696E74 
 4225 01fd 696F6E2D 		.ascii	"ion-sections -fdata-sections -fno-common -fsingle-p"
 4225      73656374 
 4225      696F6E73 
 4225      202D6664 
 4225      6174612D 
 4226 0230 72656369 		.ascii	"recision-constant\000"
 4226      73696F6E 
 4226      2D636F6E 
 4226      7374616E 
 4226      7400
 4227              	.LASF30:
 4228 0242 705F7072 		.ascii	"p_prev\000"
ARM GAS  /tmp/ccVgHsbd.s 			page 77


 4228      657600
 4229              	.LASF136:
 4230 0249 444D4132 		.ascii	"DMA2_Stream5_IRQn\000"
 4230      5F537472 
 4230      65616D35 
 4230      5F495251 
 4230      6E00
 4231              	.LASF21:
 4232 025b 74737461 		.ascii	"tstate_t\000"
 4232      74655F74 
 4232      00
 4233              	.LASF50:
 4234 0264 74687265 		.ascii	"threads_queue_t\000"
 4234      6164735F 
 4234      71756575 
 4234      655F7400 
 4235              	.LASF43:
 4236 0274 705F6D74 		.ascii	"p_mtxlist\000"
 4236      786C6973 
 4236      7400
 4237              	.LASF110:
 4238 027e 54494D31 		.ascii	"TIM1_TRG_COM_TIM11_IRQn\000"
 4238      5F545247 
 4238      5F434F4D 
 4238      5F54494D 
 4238      31315F49 
 4239              	.LASF182:
 4240 0296 72656761 		.ascii	"regarm_t\000"
 4240      726D5F74 
 4240      00
 4241              	.LASF168:
 4242 029f 41504232 		.ascii	"APB2ENR\000"
 4242      454E5200 
 4243              	.LASF170:
 4244 02a7 41484231 		.ascii	"AHB1LPENR\000"
 4244      4C50454E 
 4244      5200
 4245              	.LASF87:
 4246 02b1 53797354 		.ascii	"SysTick_IRQn\000"
 4246      69636B5F 
 4246      4952516E 
 4246      00
 4247              	.LASF3:
 4248 02be 7369676E 		.ascii	"signed char\000"
 4248      65642063 
 4248      68617200 
 4249              	.LASF194:
 4250 02ca 65776D61 		.ascii	"ewmask\000"
 4250      736B00
 4251              	.LASF15:
 4252 02d1 75696E74 		.ascii	"uint8_t\000"
 4252      385F7400 
 4253              	.LASF235:
 4254 02d9 66756E63 		.ascii	"func\000"
 4254      00
 4255              	.LASF25:
 4256 02de 6576656E 		.ascii	"eventmask_t\000"
ARM GAS  /tmp/ccVgHsbd.s 			page 78


 4256      746D6173 
 4256      6B5F7400 
 4257              	.LASF184:
 4258 02ea 636F6E74 		.ascii	"context\000"
 4258      65787400 
 4259              	.LASF191:
 4260 02f2 77747472 		.ascii	"wttrp\000"
 4260      7000
 4261              	.LASF101:
 4262 02f8 444D4131 		.ascii	"DMA1_Stream2_IRQn\000"
 4262      5F537472 
 4262      65616D32 
 4262      5F495251 
 4262      6E00
 4263              	.LASF159:
 4264 030a 52455345 		.ascii	"RESERVED0\000"
 4264      52564544 
 4264      3000
 4265              	.LASF162:
 4266 0314 52455345 		.ascii	"RESERVED1\000"
 4266      52564544 
 4266      3100
 4267              	.LASF6:
 4268 031e 756E7369 		.ascii	"unsigned char\000"
 4268      676E6564 
 4268      20636861 
 4268      7200
 4269              	.LASF134:
 4270 032c 444D4132 		.ascii	"DMA2_Stream4_IRQn\000"
 4270      5F537472 
 4270      65616D34 
 4270      5F495251 
 4270      6E00
 4271              	.LASF173:
 4272 033e 52455345 		.ascii	"RESERVED4\000"
 4272      52564544 
 4272      3400
 4273              	.LASF176:
 4274 0348 52455345 		.ascii	"RESERVED5\000"
 4274      52564544 
 4274      3500
 4275              	.LASF178:
 4276 0352 52455345 		.ascii	"RESERVED6\000"
 4276      52564544 
 4276      3600
 4277              	.LASF153:
 4278 035c 444D415F 		.ascii	"DMA_TypeDef\000"
 4278      54797065 
 4278      44656600 
 4279              	.LASF73:
 4280 0368 70616E69 		.ascii	"panic_msg\000"
 4280      635F6D73 
 4280      6700
 4281              	.LASF116:
 4282 0372 49324331 		.ascii	"I2C1_ER_IRQn\000"
 4282      5F45525F 
 4282      4952516E 
ARM GAS  /tmp/ccVgHsbd.s 			page 79


 4282      00
 4283              	.LASF57:
 4284 037f 725F6E65 		.ascii	"r_newer\000"
 4284      77657200 
 4285              	.LASF71:
 4286 0387 73797374 		.ascii	"system_debug_t\000"
 4286      656D5F64 
 4286      65627567 
 4286      5F7400
 4287              	.LASF211:
 4288 0396 5F426F6F 		.ascii	"_Bool\000"
 4288      6C00
 4289              	.LASF166:
 4290 039c 52455345 		.ascii	"RESERVED2\000"
 4290      52564544 
 4290      3200
 4291              	.LASF169:
 4292 03a6 52455345 		.ascii	"RESERVED3\000"
 4292      52564544 
 4292      3300
 4293              	.LASF217:
 4294 03b0 666C6167 		.ascii	"flags\000"
 4294      7300
 4295              	.LASF128:
 4296 03b6 54494D35 		.ascii	"TIM5_IRQn\000"
 4296      5F495251 
 4296      6E00
 4297              	.LASF151:
 4298 03c0 4C494643 		.ascii	"LIFCR\000"
 4298      5200
 4299              	.LASF83:
 4300 03c6 55736167 		.ascii	"UsageFault_IRQn\000"
 4300      65466175 
 4300      6C745F49 
 4300      52516E00 
 4301              	.LASF202:
 4302 03d6 63686172 		.ascii	"char\000"
 4302      00
 4303              	.LASF206:
 4304 03db 69736869 		.ascii	"ishift\000"
 4304      667400
 4305              	.LASF247:
 4306 03e2 2E2E2F2E 		.ascii	"../../os/hal/ports/STM32/STM32F4xx/stm32_dma.c\000"
 4306      2E2F6F73 
 4306      2F68616C 
 4306      2F706F72 
 4306      74732F53 
 4307              	.LASF156:
 4308 0411 41484231 		.ascii	"AHB1RSTR\000"
 4308      52535452 
 4308      00
 4309              	.LASF31:
 4310 041a 705F7072 		.ascii	"p_prio\000"
 4310      696F00
 4311              	.LASF164:
 4312 0421 41484232 		.ascii	"AHB2ENR\000"
 4312      454E5200 
ARM GAS  /tmp/ccVgHsbd.s 			page 80


 4313              	.LASF190:
 4314 0429 77746F62 		.ascii	"wtobjp\000"
 4314      6A7000
 4315              	.LASF98:
 4316 0430 45585449 		.ascii	"EXTI4_IRQn\000"
 4316      345F4952 
 4316      516E00
 4317              	.LASF183:
 4318 043b 73746B61 		.ascii	"stkalign_t\000"
 4318      6C69676E 
 4318      5F7400
 4319              	.LASF114:
 4320 0446 54494D34 		.ascii	"TIM4_IRQn\000"
 4320      5F495251 
 4320      6E00
 4321              	.LASF122:
 4322 0450 55534152 		.ascii	"USART2_IRQn\000"
 4322      54325F49 
 4322      52516E00 
 4323              	.LASF204:
 4324 045c 73747265 		.ascii	"stream\000"
 4324      616D00
 4325              	.LASF232:
 4326 0463 646D6149 		.ascii	"dmaInit\000"
 4326      6E697400 
 4327              	.LASF249:
 4328 046b 646D6153 		.ascii	"dmaStreamAllocate\000"
 4328      74726561 
 4328      6D416C6C 
 4328      6F636174 
 4328      6500
 4329              	.LASF177:
 4330 047d 42444352 		.ascii	"BDCR\000"
 4330      00
 4331              	.LASF212:
 4332 0482 646D615F 		.ascii	"dma_func\000"
 4332      66756E63 
 4332      00
 4333              	.LASF26:
 4334 048b 636E745F 		.ascii	"cnt_t\000"
 4334      7400
 4335              	.LASF115:
 4336 0491 49324331 		.ascii	"I2C1_EV_IRQn\000"
 4336      5F45565F 
 4336      4952516E 
 4336      00
 4337              	.LASF66:
 4338 049e 76745F66 		.ascii	"vt_func\000"
 4338      756E6300 
 4339              	.LASF42:
 4340 04a6 705F6570 		.ascii	"p_epending\000"
 4340      656E6469 
 4340      6E6700
 4341              	.LASF193:
 4342 04b1 77746D74 		.ascii	"wtmtxp\000"
 4342      787000
 4343              	.LASF53:
ARM GAS  /tmp/ccVgHsbd.s 			page 81


 4344 04b8 63685F72 		.ascii	"ch_ready_list\000"
 4344      65616479 
 4344      5F6C6973 
 4344      7400
 4345              	.LASF155:
 4346 04c6 43464752 		.ascii	"CFGR\000"
 4346      00
 4347              	.LASF111:
 4348 04cb 54494D31 		.ascii	"TIM1_CC_IRQn\000"
 4348      5F43435F 
 4348      4952516E 
 4348      00
 4349              	.LASF95:
 4350 04d8 45585449 		.ascii	"EXTI1_IRQn\000"
 4350      315F4952 
 4350      516E00
 4351              	.LASF165:
 4352 04e3 41484233 		.ascii	"AHB3ENR\000"
 4352      454E5200 
 4353              	.LASF104:
 4354 04eb 444D4131 		.ascii	"DMA1_Stream5_IRQn\000"
 4354      5F537472 
 4354      65616D35 
 4354      5F495251 
 4354      6E00
 4355              	.LASF138:
 4356 04fd 444D4132 		.ascii	"DMA2_Stream7_IRQn\000"
 4356      5F537472 
 4356      65616D37 
 4356      5F495251 
 4356      6E00
 4357              	.LASF135:
 4358 050f 4F54475F 		.ascii	"OTG_FS_IRQn\000"
 4358      46535F49 
 4358      52516E00 
 4359              	.LASF80:
 4360 051b 4E6F6E4D 		.ascii	"NonMaskableInt_IRQn\000"
 4360      61736B61 
 4360      626C6549 
 4360      6E745F49 
 4360      52516E00 
 4361              	.LASF13:
 4362 052f 5F5F7569 		.ascii	"__uint64_t\000"
 4362      6E743634 
 4362      5F7400
 4363              	.LASF88:
 4364 053a 57574447 		.ascii	"WWDG_IRQn\000"
 4364      5F495251 
 4364      6E00
 4365              	.LASF12:
 4366 0544 6C6F6E67 		.ascii	"long unsigned int\000"
 4366      20756E73 
 4366      69676E65 
 4366      6420696E 
 4366      7400
 4367              	.LASF233:
 4368 0556 646D6173 		.ascii	"dmastp\000"
ARM GAS  /tmp/ccVgHsbd.s 			page 82


 4368      747000
 4369              	.LASF81:
 4370 055d 4D656D6F 		.ascii	"MemoryManagement_IRQn\000"
 4370      72794D61 
 4370      6E616765 
 4370      6D656E74 
 4370      5F495251 
 4371              	.LASF236:
 4372 0573 70617261 		.ascii	"param\000"
 4372      6D00
 4373              	.LASF195:
 4374 0579 63685F73 		.ascii	"ch_semaphore\000"
 4374      656D6170 
 4374      686F7265 
 4374      00
 4375              	.LASF90:
 4376 0586 54414D50 		.ascii	"TAMP_STAMP_IRQn\000"
 4376      5F535441 
 4376      4D505F49 
 4376      52516E00 
 4377              	.LASF48:
 4378 0596 63685F74 		.ascii	"ch_thread\000"
 4378      68726561 
 4378      6400
 4379              	.LASF68:
 4380 05a0 76697274 		.ascii	"virtual_timers_list_t\000"
 4380      75616C5F 
 4380      74696D65 
 4380      72735F6C 
 4380      6973745F 
 4381              	.LASF242:
 4382 05b6 5F73746D 		.ascii	"_stm32_dma_streams\000"
 4382      33325F64 
 4382      6D615F73 
 4382      74726561 
 4382      6D7300
 4383              	.LASF130:
 4384 05c9 444D4132 		.ascii	"DMA2_Stream0_IRQn\000"
 4384      5F537472 
 4384      65616D30 
 4384      5F495251 
 4384      6E00
 4385              	.LASF61:
 4386 05db 76697274 		.ascii	"virtual_timer_t\000"
 4386      75616C5F 
 4386      74696D65 
 4386      725F7400 
 4387              	.LASF52:
 4388 05eb 72656164 		.ascii	"ready_list_t\000"
 4388      795F6C69 
 4388      73745F74 
 4388      00
 4389              	.LASF215:
 4390 05f8 56656374 		.ascii	"Vector6C\000"
 4390      6F723643 
 4390      00
 4391              	.LASF118:
ARM GAS  /tmp/ccVgHsbd.s 			page 83


 4392 0601 49324332 		.ascii	"I2C2_ER_IRQn\000"
 4392      5F45525F 
 4392      4952516E 
 4392      00
 4393              	.LASF49:
 4394 060e 63685F74 		.ascii	"ch_threads_list\000"
 4394      68726561 
 4394      64735F6C 
 4394      69737400 
 4395              	.LASF82:
 4396 061e 42757346 		.ascii	"BusFault_IRQn\000"
 4396      61756C74 
 4396      5F495251 
 4396      6E00
 4397              	.LASF93:
 4398 062c 5243435F 		.ascii	"RCC_IRQn\000"
 4398      4952516E 
 4398      00
 4399              	.LASF154:
 4400 0635 504C4C43 		.ascii	"PLLCFGR\000"
 4400      46475200 
 4401              	.LASF216:
 4402 063d 56656374 		.ascii	"Vector70\000"
 4402      6F723730 
 4402      00
 4403              	.LASF108:
 4404 0646 54494D31 		.ascii	"TIM1_BRK_TIM9_IRQn\000"
 4404      5F42524B 
 4404      5F54494D 
 4404      395F4952 
 4404      516E00
 4405              	.LASF218:
 4406 0659 56656374 		.ascii	"Vector74\000"
 4406      6F723734 
 4406      00
 4407              	.LASF219:
 4408 0662 56656374 		.ascii	"Vector78\000"
 4408      6F723738 
 4408      00
 4409              	.LASF220:
 4410 066b 56656374 		.ascii	"Vector7C\000"
 4410      6F723743 
 4410      00
 4411              	.LASF11:
 4412 0674 5F5F7569 		.ascii	"__uint32_t\000"
 4412      6E743332 
 4412      5F7400
 4413              	.LASF1:
 4414 067f 6C6F6E67 		.ascii	"long long int\000"
 4414      206C6F6E 
 4414      6720696E 
 4414      7400
 4415              	.LASF199:
 4416 068d 6D5F7175 		.ascii	"m_queue\000"
 4416      65756500 
 4417              	.LASF179:
 4418 0695 53534347 		.ascii	"SSCGR\000"
ARM GAS  /tmp/ccVgHsbd.s 			page 84


 4418      5200
 4419              	.LASF63:
 4420 069b 76745F6E 		.ascii	"vt_next\000"
 4420      65787400 
 4421              	.LASF119:
 4422 06a3 53504931 		.ascii	"SPI1_IRQn\000"
 4422      5F495251 
 4422      6E00
 4423              	.LASF221:
 4424 06ad 56656374 		.ascii	"Vector80\000"
 4424      6F723830 
 4424      00
 4425              	.LASF222:
 4426 06b6 56656374 		.ascii	"Vector84\000"
 4426      6F723834 
 4426      00
 4427              	.LASF64:
 4428 06bf 76745F70 		.ascii	"vt_prev\000"
 4428      72657600 
 4429              	.LASF84:
 4430 06c7 53564361 		.ascii	"SVCall_IRQn\000"
 4430      6C6C5F49 
 4430      52516E00 
 4431              	.LASF161:
 4432 06d3 41504232 		.ascii	"APB2RSTR\000"
 4432      52535452 
 4432      00
 4433              	.LASF142:
 4434 06dc 4650555F 		.ascii	"FPU_IRQn\000"
 4434      4952516E 
 4434      00
 4435              	.LASF175:
 4436 06e5 41504232 		.ascii	"APB2LPENR\000"
 4436      4C50454E 
 4436      5200
 4437              	.LASF39:
 4438 06ef 705F7761 		.ascii	"p_waiting\000"
 4438      6974696E 
 4438      6700
 4439              	.LASF125:
 4440 06f9 4F54475F 		.ascii	"OTG_FS_WKUP_IRQn\000"
 4440      46535F57 
 4440      4B55505F 
 4440      4952516E 
 4440      00
 4441              	.LASF37:
 4442 070a 705F666C 		.ascii	"p_flags\000"
 4442      61677300 
 4443              	.LASF79:
 4444 0712 69646C65 		.ascii	"idle_thread_wa\000"
 4444      5F746872 
 4444      6561645F 
 4444      776100
 4445              	.LASF0:
 4446 0721 756E7369 		.ascii	"unsigned int\000"
 4446      676E6564 
 4446      20696E74 
ARM GAS  /tmp/ccVgHsbd.s 			page 85


 4446      00
 4447              	.LASF19:
 4448 072e 7274636E 		.ascii	"rtcnt_t\000"
 4448      745F7400 
 4449              	.LASF45:
 4450 0736 705F6D70 		.ascii	"p_mpool\000"
 4450      6F6F6C00 
 4451              	.LASF117:
 4452 073e 49324332 		.ascii	"I2C2_EV_IRQn\000"
 4452      5F45565F 
 4452      4952516E 
 4452      00
 4453              	.LASF240:
 4454 074b 646D615F 		.ascii	"dma_isr_redir\000"
 4454      6973725F 
 4454      72656469 
 4454      7200
 4455              	.LASF210:
 4456 0759 73746D33 		.ascii	"stm32_dmaisr_t\000"
 4456      325F646D 
 4456      61697372 
 4456      5F7400
 4457              	.LASF38:
 4458 0768 705F7265 		.ascii	"p_refs\000"
 4458      667300
 4459              	.LASF243:
 4460 076f 5F706F72 		.ascii	"_port_irq_epilogue\000"
 4460      745F6972 
 4460      715F6570 
 4460      696C6F67 
 4460      756500
 4461              	.LASF186:
 4462 0782 6F666673 		.ascii	"offset\000"
 4462      657400
 4463              	.LASF174:
 4464 0789 41504231 		.ascii	"APB1LPENR\000"
 4464      4C50454E 
 4464      5200
 4465              	.LASF100:
 4466 0793 444D4131 		.ascii	"DMA1_Stream1_IRQn\000"
 4466      5F537472 
 4466      65616D31 
 4466      5F495251 
 4466      6E00
 4467              	.LASF133:
 4468 07a5 444D4132 		.ascii	"DMA2_Stream3_IRQn\000"
 4468      5F537472 
 4468      65616D33 
 4468      5F495251 
 4468      6E00
 4469              	.LASF148:
 4470 07b7 444D415F 		.ascii	"DMA_Stream_TypeDef\000"
 4470      53747265 
 4470      616D5F54 
 4470      79706544 
 4470      656600
 4471              	.LASF231:
ARM GAS  /tmp/ccVgHsbd.s 			page 86


 4472 07ca 56656374 		.ascii	"Vector158\000"
 4472      6F723135 
 4472      3800
 4473              	.LASF214:
 4474 07d4 646D615F 		.ascii	"dma_isr_redir_t\000"
 4474      6973725F 
 4474      72656469 
 4474      725F7400 
 4475              	.LASF105:
 4476 07e4 444D4131 		.ascii	"DMA1_Stream6_IRQn\000"
 4476      5F537472 
 4476      65616D36 
 4476      5F495251 
 4476      6E00
 4477              	.LASF152:
 4478 07f6 48494643 		.ascii	"HIFCR\000"
 4478      5200
 4479              	.LASF158:
 4480 07fc 41484233 		.ascii	"AHB3RSTR\000"
 4480      52535452 
 4480      00
 4481              	.LASF28:
 4482 0805 74687265 		.ascii	"thread_t\000"
 4482      61645F74 
 4482      00
 4483              	.LASF2:
 4484 080e 6C6F6E67 		.ascii	"long double\000"
 4484      20646F75 
 4484      626C6500 
 4485              	.LASF245:
 4486 081a 6E766963 		.ascii	"nvicDisableVector\000"
 4486      44697361 
 4486      626C6556 
 4486      6563746F 
 4486      7200
 4487              	.LASF46:
 4488 082c 74687265 		.ascii	"thread_reference_t\000"
 4488      61645F72 
 4488      65666572 
 4488      656E6365 
 4488      5F7400
 4489              	.LASF44:
 4490 083f 705F7265 		.ascii	"p_realprio\000"
 4490      616C7072 
 4490      696F00
 4491              	.LASF185:
 4492 084a 706F7274 		.ascii	"port_intctx\000"
 4492      5F696E74 
 4492      63747800 
 4493              	.LASF65:
 4494 0856 76745F64 		.ascii	"vt_delta\000"
 4494      656C7461 
 4494      00
 4495              	.LASF99:
 4496 085f 444D4131 		.ascii	"DMA1_Stream0_IRQn\000"
 4496      5F537472 
 4496      65616D30 
ARM GAS  /tmp/ccVgHsbd.s 			page 87


 4496      5F495251 
 4496      6E00
 4497              	.LASF160:
 4498 0871 41504231 		.ascii	"APB1RSTR\000"
 4498      52535452 
 4498      00
 4499              	.LASF62:
 4500 087a 63685F76 		.ascii	"ch_virtual_timer\000"
 4500      69727475 
 4500      616C5F74 
 4500      696D6572 
 4500      00
 4501              	.LASF124:
 4502 088b 5254435F 		.ascii	"RTC_Alarm_IRQn\000"
 4502      416C6172 
 4502      6D5F4952 
 4502      516E00
 4503              	.LASF167:
 4504 089a 41504231 		.ascii	"APB1ENR\000"
 4504      454E5200 
 4505              	.LASF197:
 4506 08a2 735F636E 		.ascii	"s_cnt\000"
 4506      7400
 4507              	.LASF143:
 4508 08a8 53504934 		.ascii	"SPI4_IRQn\000"
 4508      5F495251 
 4508      6E00
 4509              	.LASF141:
 4510 08b2 49324333 		.ascii	"I2C3_ER_IRQn\000"
 4510      5F45525F 
 4510      4952516E 
 4510      00
 4511              	.LASF123:
 4512 08bf 45585449 		.ascii	"EXTI15_10_IRQn\000"
 4512      31355F31 
 4512      305F4952 
 4512      516E00
 4513              	.LASF14:
 4514 08ce 6C6F6E67 		.ascii	"long long unsigned int\000"
 4514      206C6F6E 
 4514      6720756E 
 4514      7369676E 
 4514      65642069 
 4515              	.LASF34:
 4516 08e5 705F6F6C 		.ascii	"p_older\000"
 4516      64657200 
 4517              	.LASF24:
 4518 08ed 6D73675F 		.ascii	"msg_t\000"
 4518      7400
 4519              	.LASF51:
 4520 08f3 63685F74 		.ascii	"ch_threads_queue\000"
 4520      68726561 
 4520      64735F71 
 4520      75657565 
 4520      00
 4521              	.LASF113:
 4522 0904 54494D33 		.ascii	"TIM3_IRQn\000"
ARM GAS  /tmp/ccVgHsbd.s 			page 88


 4522      5F495251 
 4522      6E00
 4523              	.LASF121:
 4524 090e 55534152 		.ascii	"USART1_IRQn\000"
 4524      54315F49 
 4524      52516E00 
 4525              	.LASF225:
 4526 091a 56656374 		.ascii	"Vector124\000"
 4526      6F723132 
 4526      3400
 4527              	.LASF226:
 4528 0924 56656374 		.ascii	"Vector128\000"
 4528      6F723132 
 4528      3800
 4529              	.LASF227:
 4530 092e 56656374 		.ascii	"Vector12C\000"
 4530      6F723132 
 4530      4300
 4531              	.LASF59:
 4532 0938 725F6375 		.ascii	"r_current\000"
 4532      7272656E 
 4532      7400
 4533              	.LASF208:
 4534 0942 76656374 		.ascii	"vector\000"
 4534      6F7200
 4535              	.LASF106:
 4536 0949 4144435F 		.ascii	"ADC_IRQn\000"
 4536      4952516E 
 4536      00
 4537              	.LASF78:
 4538 0952 6D61696E 		.ascii	"mainthread\000"
 4538      74687265 
 4538      616400
 4539              	.LASF228:
 4540 095d 56656374 		.ascii	"Vector130\000"
 4540      6F723133 
 4540      3000
 4541              	.LASF172:
 4542 0967 41484233 		.ascii	"AHB3LPENR\000"
 4542      4C50454E 
 4542      5200
 4543              	.LASF54:
 4544 0971 725F7175 		.ascii	"r_queue\000"
 4544      65756500 
 4545              	.LASF89:
 4546 0979 5056445F 		.ascii	"PVD_IRQn\000"
 4546      4952516E 
 4546      00
 4547              	.LASF94:
 4548 0982 45585449 		.ascii	"EXTI0_IRQn\000"
 4548      305F4952 
 4548      516E00
 4549              	.LASF76:
 4550 098d 726C6973 		.ascii	"rlist\000"
 4550      7400
 4551              	.LASF20:
 4552 0993 746D6F64 		.ascii	"tmode_t\000"
ARM GAS  /tmp/ccVgHsbd.s 			page 89


 4552      655F7400 
 4553              	.LASF103:
 4554 099b 444D4131 		.ascii	"DMA1_Stream4_IRQn\000"
 4554      5F537472 
 4554      65616D34 
 4554      5F495251 
 4554      6E00
 4555              	.LASF137:
 4556 09ad 444D4132 		.ascii	"DMA2_Stream6_IRQn\000"
 4556      5F537472 
 4556      65616D36 
 4556      5F495251 
 4556      6E00
 4557              	.LASF163:
 4558 09bf 41484231 		.ascii	"AHB1ENR\000"
 4558      454E5200 
 4559              	.LASF85:
 4560 09c7 44656275 		.ascii	"DebugMonitor_IRQn\000"
 4560      674D6F6E 
 4560      69746F72 
 4560      5F495251 
 4560      6E00
 4561              	.LASF140:
 4562 09d9 49324333 		.ascii	"I2C3_EV_IRQn\000"
 4562      5F45565F 
 4562      4952516E 
 4562      00
 4563              	.LASF58:
 4564 09e6 725F6F6C 		.ascii	"r_older\000"
 4564      64657200 
 4565              	.LASF187:
 4566 09ee 746D5F63 		.ascii	"tm_calibration_t\000"
 4566      616C6962 
 4566      72617469 
 4566      6F6E5F74 
 4566      00
 4567              	.LASF157:
 4568 09ff 41484232 		.ascii	"AHB2RSTR\000"
 4568      52535452 
 4568      00
 4569              	.LASF146:
 4570 0a08 4D304152 		.ascii	"M0AR\000"
 4570      00
 4571              	.LASF196:
 4572 0a0d 735F7175 		.ascii	"s_queue\000"
 4572      65756500 
 4573              	.LASF229:
 4574 0a15 56656374 		.ascii	"Vector150\000"
 4574      6F723135 
 4574      3000
 4575              	.LASF230:
 4576 0a1f 56656374 		.ascii	"Vector154\000"
 4576      6F723135 
 4576      3400
 4577              	.LASF207:
 4578 0a29 73656C66 		.ascii	"selfindex\000"
 4578      696E6465 
ARM GAS  /tmp/ccVgHsbd.s 			page 90


 4578      7800
 4579              	.LASF181:
 4580 0a33 5243435F 		.ascii	"RCC_TypeDef\000"
 4580      54797065 
 4580      44656600 
 4581              	.LASF7:
 4582 0a3f 73686F72 		.ascii	"short int\000"
 4582      7420696E 
 4582      7400
 4583              	.LASF18:
 4584 0a49 75696E74 		.ascii	"uint64_t\000"
 4584      36345F74 
 4584      00
 4585              	.LASF248:
 4586 0a52 2F686F6D 		.ascii	"/home/sssilvar/Documents/embebidos/ChibiOS/iflab/pr"
 4586      652F7373 
 4586      73696C76 
 4586      61722F44 
 4586      6F63756D 
 4587 0a85 6F6A6563 		.ascii	"ojects/ADC\000"
 4587      74732F41 
 4587      444300
 4588              	.LASF234:
 4589 0a90 7072696F 		.ascii	"priority\000"
 4589      72697479 
 4589      00
 4590              	.LASF198:
 4591 0a99 63685F6D 		.ascii	"ch_mutex\000"
 4591      75746578 
 4591      00
 4592              	.LASF55:
 4593 0aa2 725F7072 		.ascii	"r_prio\000"
 4593      696F00
 4594              	.LASF102:
 4595 0aa9 444D4131 		.ascii	"DMA1_Stream3_IRQn\000"
 4595      5F537472 
 4595      65616D33 
 4595      5F495251 
 4595      6E00
 4596              	.LASF72:
 4597 0abb 63685F73 		.ascii	"ch_system_debug\000"
 4597      79737465 
 4597      6D5F6465 
 4597      62756700 
 4598              	.LASF213:
 4599 0acb 646D615F 		.ascii	"dma_param\000"
 4599      70617261 
 4599      6D00
 4600              	.LASF109:
 4601 0ad5 54494D31 		.ascii	"TIM1_UP_TIM10_IRQn\000"
 4601      5F55505F 
 4601      54494D31 
 4601      305F4952 
 4601      516E00
 4602              	.LASF241:
 4603 0ae8 49544D5F 		.ascii	"ITM_RxBuffer\000"
 4603      52784275 
ARM GAS  /tmp/ccVgHsbd.s 			page 91


 4603      66666572 
 4603      00
 4604              	.LASF77:
 4605 0af5 76746C69 		.ascii	"vtlist\000"
 4605      737400
 4606              	.LASF203:
 4607 0afc 6D757465 		.ascii	"mutex_t\000"
 4607      785F7400 
 4608              	.LASF22:
 4609 0b04 74726566 		.ascii	"trefs_t\000"
 4609      735F7400 
 4610              	.LASF47:
 4611 0b0c 74687265 		.ascii	"threads_list_t\000"
 4611      6164735F 
 4611      6C697374 
 4611      5F7400
 4612              	.LASF75:
 4613 0b1b 63685F73 		.ascii	"ch_system\000"
 4613      79737465 
 4613      6D00
 4614              	.LASF244:
 4615 0b25 6E766963 		.ascii	"nvicEnableVector\000"
 4615      456E6162 
 4615      6C655665 
 4615      63746F72 
 4615      00
 4616              	.LASF17:
 4617 0b36 75696E74 		.ascii	"uint32_t\000"
 4617      33325F74 
 4617      00
 4618              	.LASF150:
 4619 0b3f 48495352 		.ascii	"HISR\000"
 4619      00
 4620              	.LASF107:
 4621 0b44 45585449 		.ascii	"EXTI9_5_IRQn\000"
 4621      395F355F 
 4621      4952516E 
 4621      00
 4622              	.LASF149:
 4623 0b51 4C495352 		.ascii	"LISR\000"
 4623      00
 4624              	.LASF188:
 4625 0b56 7264796D 		.ascii	"rdymsg\000"
 4625      736700
 4626              	.LASF70:
 4627 0b5d 76745F6C 		.ascii	"vt_lasttime\000"
 4627      61737474 
 4627      696D6500 
 4628              	.LASF8:
 4629 0b69 73686F72 		.ascii	"short unsigned int\000"
 4629      7420756E 
 4629      7369676E 
 4629      65642069 
 4629      6E7400
 4630              	.LASF127:
 4631 0b7c 5344494F 		.ascii	"SDIO_IRQn\000"
 4631      5F495251 
ARM GAS  /tmp/ccVgHsbd.s 			page 92


 4631      6E00
 4632              	.LASF74:
 4633 0b86 63685F73 		.ascii	"ch_system_t\000"
 4633      79737465 
 4633      6D5F7400 
 4634              	.LASF97:
 4635 0b92 45585449 		.ascii	"EXTI3_IRQn\000"
 4635      335F4952 
 4635      516E00
 4636              	.LASF86:
 4637 0b9d 50656E64 		.ascii	"PendSV_IRQn\000"
 4637      53565F49 
 4637      52516E00 
 4638              	.LASF126:
 4639 0ba9 444D4131 		.ascii	"DMA1_Stream7_IRQn\000"
 4639      5F537472 
 4639      65616D37 
 4639      5F495251 
 4639      6E00
 4640              	.LASF9:
 4641 0bbb 5F5F696E 		.ascii	"__int32_t\000"
 4641      7433325F 
 4641      7400
 4642              	.LASF145:
 4643 0bc5 4E445452 		.ascii	"NDTR\000"
 4643      00
 4644              	.LASF205:
 4645 0bca 69666372 		.ascii	"ifcr\000"
 4645      00
 4646              	.LASF35:
 4647 0bcf 705F6E61 		.ascii	"p_name\000"
 4647      6D6500
 4648              	.LASF201:
 4649 0bd6 6D5F6E65 		.ascii	"m_next\000"
 4649      787400
 4650              	.LASF223:
 4651 0bdd 56656374 		.ascii	"VectorFC\000"
 4651      6F724643 
 4651      00
 4652              	.LASF132:
 4653 0be6 444D4132 		.ascii	"DMA2_Stream2_IRQn\000"
 4653      5F537472 
 4653      65616D32 
 4653      5F495251 
 4653      6E00
 4654              	.LASF41:
 4655 0bf8 705F6D73 		.ascii	"p_msg\000"
 4655      6700
 4656              	.LASF36:
 4657 0bfe 705F7374 		.ascii	"p_state\000"
 4657      61746500 
 4658              		.ident	"GCC: (Fedora 5.2.0-2.fc22) 5.2.0"
ARM GAS  /tmp/ccVgHsbd.s 			page 93


DEFINED SYMBOLS
                            *ABS*:0000000000000000 stm32_dma.c
     /tmp/ccVgHsbd.s:22     .text.Vector6C:0000000000000000 $t
     /tmp/ccVgHsbd.s:28     .text.Vector6C:0000000000000000 Vector6C
     /tmp/ccVgHsbd.s:68     .text.Vector6C:0000000000000020 $d
     /tmp/ccVgHsbd.s:74     .text.Vector70:0000000000000000 $t
     /tmp/ccVgHsbd.s:80     .text.Vector70:0000000000000000 Vector70
     /tmp/ccVgHsbd.s:124    .text.Vector70:0000000000000024 $d
     /tmp/ccVgHsbd.s:130    .text.Vector74:0000000000000000 $t
     /tmp/ccVgHsbd.s:136    .text.Vector74:0000000000000000 Vector74
     /tmp/ccVgHsbd.s:180    .text.Vector74:0000000000000024 $d
     /tmp/ccVgHsbd.s:186    .text.Vector78:0000000000000000 $t
     /tmp/ccVgHsbd.s:192    .text.Vector78:0000000000000000 Vector78
     /tmp/ccVgHsbd.s:236    .text.Vector78:0000000000000024 $d
     /tmp/ccVgHsbd.s:242    .text.Vector7C:0000000000000000 $t
     /tmp/ccVgHsbd.s:248    .text.Vector7C:0000000000000000 Vector7C
     /tmp/ccVgHsbd.s:289    .text.Vector7C:0000000000000020 $d
     /tmp/ccVgHsbd.s:295    .text.Vector80:0000000000000000 $t
     /tmp/ccVgHsbd.s:301    .text.Vector80:0000000000000000 Vector80
     /tmp/ccVgHsbd.s:345    .text.Vector80:0000000000000024 $d
     /tmp/ccVgHsbd.s:351    .text.Vector84:0000000000000000 $t
     /tmp/ccVgHsbd.s:357    .text.Vector84:0000000000000000 Vector84
     /tmp/ccVgHsbd.s:401    .text.Vector84:0000000000000024 $d
     /tmp/ccVgHsbd.s:407    .text.VectorFC:0000000000000000 $t
     /tmp/ccVgHsbd.s:413    .text.VectorFC:0000000000000000 VectorFC
     /tmp/ccVgHsbd.s:457    .text.VectorFC:0000000000000024 $d
     /tmp/ccVgHsbd.s:463    .text.Vector120:0000000000000000 $t
     /tmp/ccVgHsbd.s:469    .text.Vector120:0000000000000000 Vector120
     /tmp/ccVgHsbd.s:510    .text.Vector120:0000000000000020 $d
     /tmp/ccVgHsbd.s:516    .text.Vector124:0000000000000000 $t
     /tmp/ccVgHsbd.s:522    .text.Vector124:0000000000000000 Vector124
     /tmp/ccVgHsbd.s:566    .text.Vector124:0000000000000024 $d
     /tmp/ccVgHsbd.s:572    .text.Vector128:0000000000000000 $t
     /tmp/ccVgHsbd.s:578    .text.Vector128:0000000000000000 Vector128
     /tmp/ccVgHsbd.s:622    .text.Vector128:0000000000000024 $d
     /tmp/ccVgHsbd.s:628    .text.Vector12C:0000000000000000 $t
     /tmp/ccVgHsbd.s:634    .text.Vector12C:0000000000000000 Vector12C
     /tmp/ccVgHsbd.s:678    .text.Vector12C:0000000000000024 $d
     /tmp/ccVgHsbd.s:684    .text.Vector130:0000000000000000 $t
     /tmp/ccVgHsbd.s:690    .text.Vector130:0000000000000000 Vector130
     /tmp/ccVgHsbd.s:731    .text.Vector130:0000000000000020 $d
     /tmp/ccVgHsbd.s:737    .text.Vector150:0000000000000000 $t
     /tmp/ccVgHsbd.s:743    .text.Vector150:0000000000000000 Vector150
     /tmp/ccVgHsbd.s:787    .text.Vector150:0000000000000024 $d
     /tmp/ccVgHsbd.s:793    .text.Vector154:0000000000000000 $t
     /tmp/ccVgHsbd.s:799    .text.Vector154:0000000000000000 Vector154
     /tmp/ccVgHsbd.s:843    .text.Vector154:0000000000000024 $d
     /tmp/ccVgHsbd.s:849    .text.Vector158:0000000000000000 $t
     /tmp/ccVgHsbd.s:855    .text.Vector158:0000000000000000 Vector158
     /tmp/ccVgHsbd.s:899    .text.Vector158:0000000000000024 $d
     /tmp/ccVgHsbd.s:905    .text.dmaInit:0000000000000000 $t
     /tmp/ccVgHsbd.s:911    .text.dmaInit:0000000000000000 dmaInit
     /tmp/ccVgHsbd.s:972    .text.dmaInit:000000000000003c $d
     /tmp/ccVgHsbd.s:982    .text.dmaStreamAllocate:0000000000000000 $t
     /tmp/ccVgHsbd.s:988    .text.dmaStreamAllocate:0000000000000000 dmaStreamAllocate
     /tmp/ccVgHsbd.s:1095   .text.dmaStreamAllocate:0000000000000080 $d
     /tmp/ccVgHsbd.s:1102   .text.dmaStreamRelease:0000000000000000 $t
ARM GAS  /tmp/ccVgHsbd.s 			page 94


     /tmp/ccVgHsbd.s:1108   .text.dmaStreamRelease:0000000000000000 dmaStreamRelease
     /tmp/ccVgHsbd.s:1159   .text.dmaStreamRelease:000000000000003c $d
     /tmp/ccVgHsbd.s:1177   .rodata._stm32_dma_streams:0000000000000000 _stm32_dma_streams
     /tmp/ccVgHsbd.s:1166   .bss.dma_isr_redir:0000000000000000 $d
     /tmp/ccVgHsbd.s:1170   .bss.dma_isr_redir:0000000000000000 dma_isr_redir
     /tmp/ccVgHsbd.s:1173   .rodata._stm32_dma_streams:0000000000000000 $d
     /tmp/ccVgHsbd.s:1275   .bss.dma_streams_mask:0000000000000000 $d
     /tmp/ccVgHsbd.s:1279   .bss.dma_streams_mask:0000000000000000 dma_streams_mask
                     .debug_frame:0000000000000010 $d
     /tmp/ccVgHsbd.s:73     .text.Vector6C:0000000000000028 $t
     /tmp/ccVgHsbd.s:129    .text.Vector70:000000000000002c $t
     /tmp/ccVgHsbd.s:185    .text.Vector74:000000000000002c $t
     /tmp/ccVgHsbd.s:241    .text.Vector78:000000000000002c $t
     /tmp/ccVgHsbd.s:294    .text.Vector7C:0000000000000028 $t
     /tmp/ccVgHsbd.s:350    .text.Vector80:000000000000002c $t
     /tmp/ccVgHsbd.s:406    .text.Vector84:000000000000002c $t
     /tmp/ccVgHsbd.s:462    .text.VectorFC:000000000000002c $t
     /tmp/ccVgHsbd.s:515    .text.Vector120:0000000000000028 $t
     /tmp/ccVgHsbd.s:571    .text.Vector124:000000000000002c $t
     /tmp/ccVgHsbd.s:627    .text.Vector128:000000000000002c $t
     /tmp/ccVgHsbd.s:683    .text.Vector12C:000000000000002c $t
     /tmp/ccVgHsbd.s:736    .text.Vector130:0000000000000028 $t
     /tmp/ccVgHsbd.s:792    .text.Vector150:000000000000002c $t
     /tmp/ccVgHsbd.s:848    .text.Vector154:000000000000002c $t
     /tmp/ccVgHsbd.s:904    .text.Vector158:000000000000002c $t
     /tmp/ccVgHsbd.s:981    .text.dmaInit:0000000000000054 $t
     /tmp/ccVgHsbd.s:1101   .text.dmaStreamAllocate:000000000000008c $t
     /tmp/ccVgHsbd.s:1165   .text.dmaStreamRelease:0000000000000044 $t

UNDEFINED SYMBOLS
_port_irq_epilogue
nvicEnableVector
nvicDisableVector
