ARM GAS  /tmp/ccDswwlK.s 			page 1


   1              		.syntax unified
   2              		.cpu cortex-m4
   3              		.eabi_attribute 27, 1
   4              		.eabi_attribute 28, 1
   5              		.fpu fpv4-sp-d16
   6              		.eabi_attribute 20, 1
   7              		.eabi_attribute 21, 1
   8              		.eabi_attribute 23, 3
   9              		.eabi_attribute 24, 1
  10              		.eabi_attribute 25, 1
  11              		.eabi_attribute 26, 1
  12              		.eabi_attribute 30, 2
  13              		.eabi_attribute 34, 1
  14              		.eabi_attribute 18, 4
  15              		.thumb
  16              		.syntax unified
  17              		.file	"testbmk.c"
  18              		.text
  19              	.Ltext0:
  20              		.cfi_sections	.debug_frame
  21              		.section	.text.tmo,"ax",%progbits
  22              		.align	2
  23              		.p2align 4,,15
  24              		.thumb
  25              		.thumb_func
  26              		.type	tmo, %function
  27              	tmo:
  28              	.LFB245:
  29              		.file 1 "../../test/rt/testbmk.c"
  30              		.loc 1 505 0
  31              		.cfi_startproc
  32              		@ args = 0, pretend = 0, frame = 0
  33              		@ frame_needed = 0, uses_anonymous_args = 0
  34              		@ link register save eliminated.
  35              	.LVL0:
  36 0000 7047     		bx	lr
  37              		.cfi_endproc
  38              	.LFE245:
  39              		.size	tmo, .-tmo
  40 0002 00BFAFF3 		.section	.text.bmk13_execute,"ax",%progbits
  40      0080AFF3 
  40      0080AFF3 
  40      0080
  41              		.align	2
  42              		.p2align 4,,15
  43              		.thumb
  44              		.thumb_func
  45              		.type	bmk13_execute, %function
  46              	bmk13_execute:
  47              	.LFB251:
  48              		.loc 1 640 0
  49              		.cfi_startproc
  50              		@ args = 0, pretend = 0, frame = 0
  51              		@ frame_needed = 0, uses_anonymous_args = 0
  52              		.loc 1 640 0
  53 0000 10B5     		push	{r4, lr}
  54              		.cfi_def_cfa_offset 8
ARM GAS  /tmp/ccDswwlK.s 			page 2


  55              		.cfi_offset 4, -8
  56              		.cfi_offset 14, -4
  57              		.loc 1 642 0
  58 0002 2F48     		ldr	r0, .L4
  59              		.loc 1 644 0
  60 0004 2F4C     		ldr	r4, .L4+4
  61              		.loc 1 642 0
  62 0006 FFF7FEFF 		bl	test_print
  63              	.LVL1:
  64              		.loc 1 643 0
  65 000a 4FF4EC70 		mov	r0, #472
  66 000e FFF7FEFF 		bl	test_printn
  67              	.LVL2:
  68              		.loc 1 644 0
  69 0012 2046     		mov	r0, r4
  70 0014 FFF7FEFF 		bl	test_println
  71              	.LVL3:
  72              		.loc 1 645 0
  73 0018 2B48     		ldr	r0, .L4+8
  74 001a FFF7FEFF 		bl	test_print
  75              	.LVL4:
  76              		.loc 1 646 0
  77 001e 4420     		movs	r0, #68
  78 0020 FFF7FEFF 		bl	test_printn
  79              	.LVL5:
  80              		.loc 1 647 0
  81 0024 2046     		mov	r0, r4
  82 0026 FFF7FEFF 		bl	test_println
  83              	.LVL6:
  84              		.loc 1 648 0
  85 002a 2848     		ldr	r0, .L4+12
  86 002c FFF7FEFF 		bl	test_print
  87              	.LVL7:
  88              		.loc 1 649 0
  89 0030 1420     		movs	r0, #20
  90 0032 FFF7FEFF 		bl	test_printn
  91              	.LVL8:
  92              		.loc 1 650 0
  93 0036 2046     		mov	r0, r4
  94 0038 FFF7FEFF 		bl	test_println
  95              	.LVL9:
  96              		.loc 1 652 0
  97 003c 2448     		ldr	r0, .L4+16
  98 003e FFF7FEFF 		bl	test_print
  99              	.LVL10:
 100              		.loc 1 653 0
 101 0042 0C20     		movs	r0, #12
 102 0044 FFF7FEFF 		bl	test_printn
 103              	.LVL11:
 104              		.loc 1 654 0
 105 0048 2046     		mov	r0, r4
 106 004a FFF7FEFF 		bl	test_println
 107              	.LVL12:
 108              		.loc 1 657 0
 109 004e 2148     		ldr	r0, .L4+20
 110 0050 FFF7FEFF 		bl	test_print
 111              	.LVL13:
ARM GAS  /tmp/ccDswwlK.s 			page 3


 112              		.loc 1 658 0
 113 0054 0420     		movs	r0, #4
 114 0056 FFF7FEFF 		bl	test_printn
 115              	.LVL14:
 116              		.loc 1 659 0
 117 005a 2046     		mov	r0, r4
 118 005c FFF7FEFF 		bl	test_println
 119              	.LVL15:
 120              		.loc 1 660 0
 121 0060 1D48     		ldr	r0, .L4+24
 122 0062 FFF7FEFF 		bl	test_print
 123              	.LVL16:
 124              		.loc 1 661 0
 125 0066 1420     		movs	r0, #20
 126 0068 FFF7FEFF 		bl	test_printn
 127              	.LVL17:
 128              		.loc 1 662 0
 129 006c 2046     		mov	r0, r4
 130 006e FFF7FEFF 		bl	test_println
 131              	.LVL18:
 132              		.loc 1 665 0
 133 0072 1A48     		ldr	r0, .L4+28
 134 0074 FFF7FEFF 		bl	test_print
 135              	.LVL19:
 136              		.loc 1 666 0
 137 0078 1020     		movs	r0, #16
 138 007a FFF7FEFF 		bl	test_printn
 139              	.LVL20:
 140              		.loc 1 667 0
 141 007e 2046     		mov	r0, r4
 142 0080 FFF7FEFF 		bl	test_println
 143              	.LVL21:
 144              		.loc 1 670 0
 145 0084 1648     		ldr	r0, .L4+32
 146 0086 FFF7FEFF 		bl	test_print
 147              	.LVL22:
 148              		.loc 1 671 0
 149 008a 0820     		movs	r0, #8
 150 008c FFF7FEFF 		bl	test_printn
 151              	.LVL23:
 152              		.loc 1 672 0
 153 0090 2046     		mov	r0, r4
 154 0092 FFF7FEFF 		bl	test_println
 155              	.LVL24:
 156              		.loc 1 675 0
 157 0096 1348     		ldr	r0, .L4+36
 158 0098 FFF7FEFF 		bl	test_print
 159              	.LVL25:
 160              		.loc 1 676 0
 161 009c 2420     		movs	r0, #36
 162 009e FFF7FEFF 		bl	test_printn
 163              	.LVL26:
 164              		.loc 1 677 0
 165 00a2 2046     		mov	r0, r4
 166 00a4 FFF7FEFF 		bl	test_println
 167              	.LVL27:
 168              		.loc 1 680 0
ARM GAS  /tmp/ccDswwlK.s 			page 4


 169 00a8 0F48     		ldr	r0, .L4+40
 170 00aa FFF7FEFF 		bl	test_print
 171              	.LVL28:
 172              		.loc 1 681 0
 173 00ae 2820     		movs	r0, #40
 174 00b0 FFF7FEFF 		bl	test_printn
 175              	.LVL29:
 176              		.loc 1 682 0
 177 00b4 2046     		mov	r0, r4
 178              		.loc 1 684 0
 179 00b6 BDE81040 		pop	{r4, lr}
 180              		.cfi_restore 14
 181              		.cfi_restore 4
 182              		.cfi_def_cfa_offset 0
 183              		.loc 1 682 0
 184 00ba FFF7FEBF 		b	test_println
 185              	.LVL30:
 186              	.L5:
 187 00be 00BF     		.align	2
 188              	.L4:
 189 00c0 00000000 		.word	.LC0
 190 00c4 10000000 		.word	.LC1
 191 00c8 18000000 		.word	.LC2
 192 00cc 28000000 		.word	.LC3
 193 00d0 38000000 		.word	.LC4
 194 00d4 48000000 		.word	.LC5
 195 00d8 58000000 		.word	.LC6
 196 00dc 68000000 		.word	.LC7
 197 00e0 78000000 		.word	.LC8
 198 00e4 88000000 		.word	.LC9
 199 00e8 98000000 		.word	.LC10
 200              		.cfi_endproc
 201              	.LFE251:
 202              		.size	bmk13_execute, .-bmk13_execute
 203 00ec AFF30080 		.section	.text.thread2,"ax",%progbits
 204              		.align	2
 205              		.p2align 4,,15
 206              		.thumb
 207              		.thumb_func
 208              		.type	thread2, %function
 209              	thread2:
 210              	.LFB230:
 211              		.loc 1 72 0
 212              		.cfi_startproc
 213              		@ args = 0, pretend = 0, frame = 0
 214              		@ frame_needed = 0, uses_anonymous_args = 0
 215              	.LVL31:
 216 0000 10B5     		push	{r4, lr}
 217              		.cfi_def_cfa_offset 8
 218              		.cfi_offset 4, -8
 219              		.cfi_offset 14, -4
 220              	.LVL32:
 221              	.L7:
 222              		.loc 1 78 0 discriminator 1
 223 0002 FFF7FEFF 		bl	chMsgWait
 224              	.LVL33:
 225 0006 046B     		ldr	r4, [r0, #48]
ARM GAS  /tmp/ccDswwlK.s 			page 5


 226              	.LVL34:
 227              		.loc 1 80 0 discriminator 1
 228 0008 2146     		mov	r1, r4
 229 000a FFF7FEFF 		bl	chMsgRelease
 230              	.LVL35:
 231              		.loc 1 81 0 discriminator 1
 232 000e 002C     		cmp	r4, #0
 233 0010 F7D1     		bne	.L7
 234              		.loc 1 82 0
 235 0012 10BD     		pop	{r4, pc}
 236              		.cfi_endproc
 237              	.LFE230:
 238              		.size	thread2, .-thread2
 239 0014 AFF30080 		.section	.text.bmk6_execute,"ax",%progbits
 239      AFF30080 
 239      AFF30080 
 240              		.align	2
 241              		.p2align 4,,15
 242              		.thumb
 243              		.thumb_func
 244              		.type	bmk6_execute, %function
 245              	bmk6_execute:
 246              	.LFB238:
 247              		.loc 1 307 0
 248              		.cfi_startproc
 249              		@ args = 0, pretend = 0, frame = 0
 250              		@ frame_needed = 0, uses_anonymous_args = 0
 251              	.LVL36:
 252 0000 2DE9F041 		push	{r4, r5, r6, r7, r8, lr}
 253              		.cfi_def_cfa_offset 24
 254              		.cfi_offset 4, -24
 255              		.cfi_offset 5, -20
 256              		.cfi_offset 6, -16
 257              		.cfi_offset 7, -12
 258              		.cfi_offset 8, -8
 259              		.cfi_offset 14, -4
 260              	.LBB168:
 261              	.LBB169:
 262              	.LBB170:
 263              	.LBB171:
 264              		.file 2 "../../os/rt/include/chthreads.h"
 265              		.loc 2 176 0
 266 0004 144B     		ldr	r3, .L16
 267              	.LBE171:
 268              	.LBE170:
 269              	.LBE169:
 270              	.LBE168:
 271              		.loc 1 310 0
 272 0006 154A     		ldr	r2, .L16+4
 273              	.LBB173:
 274              	.LBB172:
 275              		.loc 2 189 0
 276 0008 9B69     		ldr	r3, [r3, #24]
 277              	.LBE172:
 278              	.LBE173:
 279              		.loc 1 310 0
 280 000a D2F80080 		ldr	r8, [r2]
ARM GAS  /tmp/ccDswwlK.s 			page 6


 281              	.LVL37:
 282              		.loc 1 311 0
 283 000e 9D68     		ldr	r5, [r3, #8]
 284 0010 134F     		ldr	r7, .L16+8
 285              		.loc 1 307 0
 286 0012 82B0     		sub	sp, sp, #8
 287              		.cfi_def_cfa_offset 32
 288              		.loc 1 312 0
 289 0014 FFF7FEFF 		bl	test_wait_tick
 290              	.LVL38:
 291              		.loc 1 313 0
 292 0018 4FF47A70 		mov	r0, #1000
 293 001c FFF7FEFF 		bl	test_start_timer
 294              	.LVL39:
 295              		.loc 1 309 0
 296 0020 0024     		movs	r4, #0
 297              		.loc 1 311 0
 298 0022 0135     		adds	r5, r5, #1
 299              	.LVL40:
 300              		.loc 1 315 0
 301 0024 2646     		mov	r6, r4
 302              	.LVL41:
 303              	.L12:
 304              		.loc 1 315 0 is_stmt 0 discriminator 1
 305 0026 0F4B     		ldr	r3, .L16+12
 306 0028 0096     		str	r6, [sp]
 307 002a 2A46     		mov	r2, r5
 308 002c 4FF4E871 		mov	r1, #464
 309 0030 4046     		mov	r0, r8
 310 0032 FFF7FEFF 		bl	chThdCreateStatic
 311              	.LVL42:
 312              		.loc 1 320 0 is_stmt 1 discriminator 1
 313 0036 3B78     		ldrb	r3, [r7]	@ zero_extendqisi2
 314              		.loc 1 316 0 discriminator 1
 315 0038 0134     		adds	r4, r4, #1
 316              	.LVL43:
 317              		.loc 1 320 0 discriminator 1
 318 003a 002B     		cmp	r3, #0
 319 003c F3D0     		beq	.L12
 320              		.loc 1 321 0
 321 003e 0A48     		ldr	r0, .L16+16
 322 0040 FFF7FEFF 		bl	test_print
 323              	.LVL44:
 324              		.loc 1 322 0
 325 0044 2046     		mov	r0, r4
 326 0046 FFF7FEFF 		bl	test_printn
 327              	.LVL45:
 328              		.loc 1 323 0
 329 004a 0848     		ldr	r0, .L16+20
 330              		.loc 1 324 0
 331 004c 02B0     		add	sp, sp, #8
 332              		.cfi_def_cfa_offset 24
 333              		@ sp needed
 334 004e BDE8F041 		pop	{r4, r5, r6, r7, r8, lr}
 335              		.cfi_restore 14
 336              		.cfi_restore 8
 337              		.cfi_restore 7
ARM GAS  /tmp/ccDswwlK.s 			page 7


 338              		.cfi_restore 6
 339              		.cfi_restore 5
 340              		.cfi_restore 4
 341              		.cfi_def_cfa_offset 0
 342              	.LVL46:
 343              		.loc 1 323 0
 344 0052 FFF7FEBF 		b	test_println
 345              	.LVL47:
 346              	.L17:
 347 0056 00BF     		.align	2
 348              	.L16:
 349 0058 00000000 		.word	ch
 350 005c 00000000 		.word	wa
 351 0060 00000000 		.word	test_timer_done
 352 0064 00000000 		.word	thread1
 353 0068 A8000000 		.word	.LC11
 354 006c B8000000 		.word	.LC12
 355              		.cfi_endproc
 356              	.LFE238:
 357              		.size	bmk6_execute, .-bmk6_execute
 358              		.section	.text.msg_loop_test,"ax",%progbits
 359              		.align	2
 360              		.p2align 4,,15
 361              		.thumb
 362              		.thumb_func
 363              		.type	msg_loop_test, %function
 364              	msg_loop_test:
 365              	.LFB231:
 366              		.loc 1 87 0
 367              		.cfi_startproc
 368              		@ args = 0, pretend = 0, frame = 0
 369              		@ frame_needed = 0, uses_anonymous_args = 0
 370              	.LVL48:
 371 0000 70B5     		push	{r4, r5, r6, lr}
 372              		.cfi_def_cfa_offset 16
 373              		.cfi_offset 4, -16
 374              		.cfi_offset 5, -12
 375              		.cfi_offset 6, -8
 376              		.cfi_offset 14, -4
 377              		.loc 1 87 0
 378 0002 0546     		mov	r5, r0
 379              		.loc 1 90 0
 380 0004 FFF7FEFF 		bl	test_wait_tick
 381              	.LVL49:
 382              		.loc 1 91 0
 383 0008 4FF47A70 		mov	r0, #1000
 384 000c FFF7FEFF 		bl	test_start_timer
 385              	.LVL50:
 386 0010 074E     		ldr	r6, .L23
 387              		.loc 1 89 0
 388 0012 0024     		movs	r4, #0
 389              	.LVL51:
 390              	.L19:
 391              		.loc 1 93 0 discriminator 1
 392 0014 0121     		movs	r1, #1
 393 0016 2846     		mov	r0, r5
 394 0018 FFF7FEFF 		bl	chMsgSend
ARM GAS  /tmp/ccDswwlK.s 			page 8


 395              	.LVL52:
 396              		.loc 1 98 0 discriminator 1
 397 001c 3378     		ldrb	r3, [r6]	@ zero_extendqisi2
 398              		.loc 1 94 0 discriminator 1
 399 001e 0134     		adds	r4, r4, #1
 400              	.LVL53:
 401              		.loc 1 98 0 discriminator 1
 402 0020 002B     		cmp	r3, #0
 403 0022 F7D0     		beq	.L19
 404              		.loc 1 99 0
 405 0024 2846     		mov	r0, r5
 406 0026 0021     		movs	r1, #0
 407 0028 FFF7FEFF 		bl	chMsgSend
 408              	.LVL54:
 409              		.loc 1 101 0
 410 002c 2046     		mov	r0, r4
 411 002e 70BD     		pop	{r4, r5, r6, pc}
 412              	.LVL55:
 413              	.L24:
 414              		.align	2
 415              	.L23:
 416 0030 00000000 		.word	test_timer_done
 417              		.cfi_endproc
 418              	.LFE231:
 419              		.size	msg_loop_test, .-msg_loop_test
 420 0034 AFF30080 		.section	.text.bmk1_execute,"ax",%progbits
 420      AFF30080 
 420      AFF30080 
 421              		.align	2
 422              		.p2align 4,,15
 423              		.thumb
 424              		.thumb_func
 425              		.type	bmk1_execute, %function
 426              	bmk1_execute:
 427              	.LFB232:
 428              		.loc 1 112 0
 429              		.cfi_startproc
 430              		@ args = 0, pretend = 0, frame = 0
 431              		@ frame_needed = 0, uses_anonymous_args = 0
 432 0000 10B5     		push	{r4, lr}
 433              		.cfi_def_cfa_offset 8
 434              		.cfi_offset 4, -8
 435              		.cfi_offset 14, -4
 436              	.LBB174:
 437              	.LBB175:
 438              	.LBB176:
 439              	.LBB177:
 440              		.loc 2 176 0
 441 0002 134B     		ldr	r3, .L27
 442              	.LBE177:
 443              	.LBE176:
 444              	.LBE175:
 445              	.LBE174:
 446              		.loc 1 115 0
 447 0004 134A     		ldr	r2, .L27+4
 448              	.LBB179:
 449              	.LBB178:
ARM GAS  /tmp/ccDswwlK.s 			page 9


 450              		.loc 2 189 0
 451 0006 9B69     		ldr	r3, [r3, #24]
 452              	.LBE178:
 453              	.LBE179:
 454              		.loc 1 115 0
 455 0008 1068     		ldr	r0, [r2]
 456 000a 9A68     		ldr	r2, [r3, #8]
 457 000c 124B     		ldr	r3, .L27+8
 458              		.loc 1 112 0
 459 000e 82B0     		sub	sp, sp, #8
 460              		.cfi_def_cfa_offset 16
 461              		.loc 1 115 0
 462 0010 0021     		movs	r1, #0
 463 0012 013A     		subs	r2, r2, #1
 464 0014 0091     		str	r1, [sp]
 465 0016 4FF4E871 		mov	r1, #464
 466 001a FFF7FEFF 		bl	chThdCreateStatic
 467              	.LVL56:
 468 001e 0F4B     		ldr	r3, .L27+12
 469 0020 1860     		str	r0, [r3]
 470              		.loc 1 116 0
 471 0022 FFF7FEFF 		bl	msg_loop_test
 472              	.LVL57:
 473 0026 0446     		mov	r4, r0
 474              	.LVL58:
 475              		.loc 1 117 0
 476 0028 FFF7FEFF 		bl	test_wait_threads
 477              	.LVL59:
 478              		.loc 1 118 0
 479 002c 0C48     		ldr	r0, .L27+16
 480 002e FFF7FEFF 		bl	test_print
 481              	.LVL60:
 482              		.loc 1 119 0
 483 0032 2046     		mov	r0, r4
 484 0034 FFF7FEFF 		bl	test_printn
 485              	.LVL61:
 486              		.loc 1 120 0
 487 0038 0A48     		ldr	r0, .L27+20
 488 003a FFF7FEFF 		bl	test_print
 489              	.LVL62:
 490              		.loc 1 121 0
 491 003e 6000     		lsls	r0, r4, #1
 492 0040 FFF7FEFF 		bl	test_printn
 493              	.LVL63:
 494              		.loc 1 122 0
 495 0044 0848     		ldr	r0, .L27+24
 496              		.loc 1 123 0
 497 0046 02B0     		add	sp, sp, #8
 498              		.cfi_def_cfa_offset 8
 499              		@ sp needed
 500 0048 BDE81040 		pop	{r4, lr}
 501              		.cfi_restore 14
 502              		.cfi_restore 4
 503              		.cfi_def_cfa_offset 0
 504              	.LVL64:
 505              		.loc 1 122 0
 506 004c FFF7FEBF 		b	test_println
ARM GAS  /tmp/ccDswwlK.s 			page 10


 507              	.LVL65:
 508              	.L28:
 509              		.align	2
 510              	.L27:
 511 0050 00000000 		.word	ch
 512 0054 00000000 		.word	wa
 513 0058 00000000 		.word	thread2
 514 005c 00000000 		.word	threads
 515 0060 A8000000 		.word	.LC11
 516 0064 C4000000 		.word	.LC13
 517 0068 D0000000 		.word	.LC14
 518              		.cfi_endproc
 519              	.LFE232:
 520              		.size	bmk1_execute, .-bmk1_execute
 521 006c AFF30080 		.section	.text.bmk2_execute,"ax",%progbits
 522              		.align	2
 523              		.p2align 4,,15
 524              		.thumb
 525              		.thumb_func
 526              		.type	bmk2_execute, %function
 527              	bmk2_execute:
 528              	.LFB233:
 529              		.loc 1 141 0
 530              		.cfi_startproc
 531              		@ args = 0, pretend = 0, frame = 0
 532              		@ frame_needed = 0, uses_anonymous_args = 0
 533 0000 10B5     		push	{r4, lr}
 534              		.cfi_def_cfa_offset 8
 535              		.cfi_offset 4, -8
 536              		.cfi_offset 14, -4
 537              	.LBB180:
 538              	.LBB181:
 539              	.LBB182:
 540              	.LBB183:
 541              		.loc 2 176 0
 542 0002 134B     		ldr	r3, .L31
 543              	.LBE183:
 544              	.LBE182:
 545              	.LBE181:
 546              	.LBE180:
 547              		.loc 1 144 0
 548 0004 134A     		ldr	r2, .L31+4
 549              	.LBB185:
 550              	.LBB184:
 551              		.loc 2 189 0
 552 0006 9B69     		ldr	r3, [r3, #24]
 553              	.LBE184:
 554              	.LBE185:
 555              		.loc 1 144 0
 556 0008 1068     		ldr	r0, [r2]
 557 000a 9A68     		ldr	r2, [r3, #8]
 558 000c 124B     		ldr	r3, .L31+8
 559              		.loc 1 141 0
 560 000e 82B0     		sub	sp, sp, #8
 561              		.cfi_def_cfa_offset 16
 562              		.loc 1 144 0
 563 0010 0021     		movs	r1, #0
ARM GAS  /tmp/ccDswwlK.s 			page 11


 564 0012 0132     		adds	r2, r2, #1
 565 0014 0091     		str	r1, [sp]
 566 0016 4FF4E871 		mov	r1, #464
 567 001a FFF7FEFF 		bl	chThdCreateStatic
 568              	.LVL66:
 569 001e 0F4B     		ldr	r3, .L31+12
 570 0020 1860     		str	r0, [r3]
 571              		.loc 1 145 0
 572 0022 FFF7FEFF 		bl	msg_loop_test
 573              	.LVL67:
 574 0026 0446     		mov	r4, r0
 575              	.LVL68:
 576              		.loc 1 146 0
 577 0028 FFF7FEFF 		bl	test_wait_threads
 578              	.LVL69:
 579              		.loc 1 147 0
 580 002c 0C48     		ldr	r0, .L31+16
 581 002e FFF7FEFF 		bl	test_print
 582              	.LVL70:
 583              		.loc 1 148 0
 584 0032 2046     		mov	r0, r4
 585 0034 FFF7FEFF 		bl	test_printn
 586              	.LVL71:
 587              		.loc 1 149 0
 588 0038 0A48     		ldr	r0, .L31+20
 589 003a FFF7FEFF 		bl	test_print
 590              	.LVL72:
 591              		.loc 1 150 0
 592 003e 6000     		lsls	r0, r4, #1
 593 0040 FFF7FEFF 		bl	test_printn
 594              	.LVL73:
 595              		.loc 1 151 0
 596 0044 0848     		ldr	r0, .L31+24
 597              		.loc 1 152 0
 598 0046 02B0     		add	sp, sp, #8
 599              		.cfi_def_cfa_offset 8
 600              		@ sp needed
 601 0048 BDE81040 		pop	{r4, lr}
 602              		.cfi_restore 14
 603              		.cfi_restore 4
 604              		.cfi_def_cfa_offset 0
 605              	.LVL74:
 606              		.loc 1 151 0
 607 004c FFF7FEBF 		b	test_println
 608              	.LVL75:
 609              	.L32:
 610              		.align	2
 611              	.L31:
 612 0050 00000000 		.word	ch
 613 0054 00000000 		.word	wa
 614 0058 00000000 		.word	thread2
 615 005c 00000000 		.word	threads
 616 0060 A8000000 		.word	.LC11
 617 0064 C4000000 		.word	.LC13
 618 0068 D0000000 		.word	.LC14
 619              		.cfi_endproc
 620              	.LFE233:
ARM GAS  /tmp/ccDswwlK.s 			page 12


 621              		.size	bmk2_execute, .-bmk2_execute
 622 006c AFF30080 		.section	.text.bmk3_execute,"ax",%progbits
 623              		.align	2
 624              		.p2align 4,,15
 625              		.thumb
 626              		.thumb_func
 627              		.type	bmk3_execute, %function
 628              	bmk3_execute:
 629              	.LFB234:
 630              		.loc 1 171 0
 631              		.cfi_startproc
 632              		@ args = 0, pretend = 0, frame = 0
 633              		@ frame_needed = 0, uses_anonymous_args = 0
 634 0000 2DE9F041 		push	{r4, r5, r6, r7, r8, lr}
 635              		.cfi_def_cfa_offset 24
 636              		.cfi_offset 4, -24
 637              		.cfi_offset 5, -20
 638              		.cfi_offset 6, -16
 639              		.cfi_offset 7, -12
 640              		.cfi_offset 8, -8
 641              		.cfi_offset 14, -4
 642              	.LBB186:
 643              	.LBB187:
 644              	.LBB188:
 645              	.LBB189:
 646              		.loc 2 176 0
 647 0004 2C4F     		ldr	r7, .L35
 648              	.LBE189:
 649              	.LBE188:
 650              	.LBE187:
 651              	.LBE186:
 652              		.loc 1 174 0
 653 0006 2D4E     		ldr	r6, .L35+4
 654              	.LBB191:
 655              	.LBB190:
 656              		.loc 2 189 0
 657 0008 BB69     		ldr	r3, [r7, #24]
 658              	.LBE190:
 659              	.LBE191:
 660              		.loc 1 174 0
 661 000a 3068     		ldr	r0, [r6]
 662 000c 9A68     		ldr	r2, [r3, #8]
 663 000e 2C4B     		ldr	r3, .L35+8
 664 0010 2C4C     		ldr	r4, .L35+12
 665              		.loc 1 175 0
 666 0012 DFF8C080 		ldr	r8, .L35+28
 667              		.loc 1 171 0
 668 0016 82B0     		sub	sp, sp, #8
 669              		.cfi_def_cfa_offset 32
 670              		.loc 1 174 0
 671 0018 0025     		movs	r5, #0
 672 001a 0132     		adds	r2, r2, #1
 673 001c 0095     		str	r5, [sp]
 674 001e 4FF4E871 		mov	r1, #464
 675 0022 FFF7FEFF 		bl	chThdCreateStatic
 676              	.LVL76:
 677              	.LBB192:
ARM GAS  /tmp/ccDswwlK.s 			page 13


 678              	.LBB193:
 679              		.loc 2 189 0
 680 0026 BA69     		ldr	r2, [r7, #24]
 681              	.LBE193:
 682              	.LBE192:
 683              		.loc 1 175 0
 684 0028 7368     		ldr	r3, [r6, #4]
 685 002a 9268     		ldr	r2, [r2, #8]
 686              		.loc 1 174 0
 687 002c 2060     		str	r0, [r4]
 688              		.loc 1 175 0
 689 002e 023A     		subs	r2, r2, #2
 690 0030 0095     		str	r5, [sp]
 691 0032 1846     		mov	r0, r3
 692 0034 4FF4E871 		mov	r1, #464
 693 0038 4346     		mov	r3, r8
 694 003a FFF7FEFF 		bl	chThdCreateStatic
 695              	.LVL77:
 696              	.LBB194:
 697              	.LBB195:
 698              		.loc 2 189 0
 699 003e BA69     		ldr	r2, [r7, #24]
 700              	.LBE195:
 701              	.LBE194:
 702              		.loc 1 176 0
 703 0040 B368     		ldr	r3, [r6, #8]
 704 0042 9268     		ldr	r2, [r2, #8]
 705              		.loc 1 175 0
 706 0044 6060     		str	r0, [r4, #4]
 707              		.loc 1 176 0
 708 0046 033A     		subs	r2, r2, #3
 709 0048 0095     		str	r5, [sp]
 710 004a 1846     		mov	r0, r3
 711 004c 4FF4E871 		mov	r1, #464
 712 0050 4346     		mov	r3, r8
 713 0052 FFF7FEFF 		bl	chThdCreateStatic
 714              	.LVL78:
 715              	.LBB196:
 716              	.LBB197:
 717              		.loc 2 189 0
 718 0056 BA69     		ldr	r2, [r7, #24]
 719              	.LBE197:
 720              	.LBE196:
 721              		.loc 1 177 0
 722 0058 F368     		ldr	r3, [r6, #12]
 723 005a 9268     		ldr	r2, [r2, #8]
 724              		.loc 1 176 0
 725 005c A060     		str	r0, [r4, #8]
 726              		.loc 1 177 0
 727 005e 043A     		subs	r2, r2, #4
 728 0060 0095     		str	r5, [sp]
 729 0062 1846     		mov	r0, r3
 730 0064 4FF4E871 		mov	r1, #464
 731 0068 4346     		mov	r3, r8
 732 006a FFF7FEFF 		bl	chThdCreateStatic
 733              	.LVL79:
 734              	.LBB198:
ARM GAS  /tmp/ccDswwlK.s 			page 14


 735              	.LBB199:
 736              		.loc 2 189 0
 737 006e BA69     		ldr	r2, [r7, #24]
 738              	.LBE199:
 739              	.LBE198:
 740              		.loc 1 178 0
 741 0070 3369     		ldr	r3, [r6, #16]
 742 0072 9268     		ldr	r2, [r2, #8]
 743              		.loc 1 177 0
 744 0074 E060     		str	r0, [r4, #12]
 745              		.loc 1 178 0
 746 0076 053A     		subs	r2, r2, #5
 747 0078 4FF4E871 		mov	r1, #464
 748 007c 1846     		mov	r0, r3
 749 007e 0095     		str	r5, [sp]
 750 0080 4346     		mov	r3, r8
 751 0082 FFF7FEFF 		bl	chThdCreateStatic
 752              	.LVL80:
 753 0086 2061     		str	r0, [r4, #16]
 754              		.loc 1 179 0
 755 0088 2068     		ldr	r0, [r4]
 756 008a FFF7FEFF 		bl	msg_loop_test
 757              	.LVL81:
 758 008e 0446     		mov	r4, r0
 759              	.LVL82:
 760              		.loc 1 180 0
 761 0090 FFF7FEFF 		bl	test_wait_threads
 762              	.LVL83:
 763              		.loc 1 181 0
 764 0094 0C48     		ldr	r0, .L35+16
 765 0096 FFF7FEFF 		bl	test_print
 766              	.LVL84:
 767              		.loc 1 182 0
 768 009a 2046     		mov	r0, r4
 769 009c FFF7FEFF 		bl	test_printn
 770              	.LVL85:
 771              		.loc 1 183 0
 772 00a0 0A48     		ldr	r0, .L35+20
 773 00a2 FFF7FEFF 		bl	test_print
 774              	.LVL86:
 775              		.loc 1 184 0
 776 00a6 6000     		lsls	r0, r4, #1
 777 00a8 FFF7FEFF 		bl	test_printn
 778              	.LVL87:
 779              		.loc 1 185 0
 780 00ac 0848     		ldr	r0, .L35+24
 781              		.loc 1 186 0
 782 00ae 02B0     		add	sp, sp, #8
 783              		.cfi_def_cfa_offset 24
 784              		@ sp needed
 785 00b0 BDE8F041 		pop	{r4, r5, r6, r7, r8, lr}
 786              		.cfi_restore 14
 787              		.cfi_restore 8
 788              		.cfi_restore 7
 789              		.cfi_restore 6
 790              		.cfi_restore 5
 791              		.cfi_restore 4
ARM GAS  /tmp/ccDswwlK.s 			page 15


 792              		.cfi_def_cfa_offset 0
 793              	.LVL88:
 794              		.loc 1 185 0
 795 00b4 FFF7FEBF 		b	test_println
 796              	.LVL89:
 797              	.L36:
 798              		.align	2
 799              	.L35:
 800 00b8 00000000 		.word	ch
 801 00bc 00000000 		.word	wa
 802 00c0 00000000 		.word	thread2
 803 00c4 00000000 		.word	threads
 804 00c8 A8000000 		.word	.LC11
 805 00cc C4000000 		.word	.LC13
 806 00d0 D0000000 		.word	.LC14
 807 00d4 00000000 		.word	thread1
 808              		.cfi_endproc
 809              	.LFE234:
 810              		.size	bmk3_execute, .-bmk3_execute
 811 00d8 AFF30080 		.section	.text.thread1,"ax",%progbits
 811      AFF30080 
 812              		.align	2
 813              		.p2align 4,,15
 814              		.thumb
 815              		.thumb_func
 816              		.type	thread1, %function
 817              	thread1:
 818              	.LFB229:
 819              		.loc 1 66 0
 820              		.cfi_startproc
 821              		@ args = 0, pretend = 0, frame = 0
 822              		@ frame_needed = 0, uses_anonymous_args = 0
 823              		@ link register save eliminated.
 824              	.LVL90:
 825              		.loc 1 68 0
 826 0000 FFF7FEBF 		b	chThdExit
 827              	.LVL91:
 828              		.cfi_endproc
 829              	.LFE229:
 830              		.size	thread1, .-thread1
 831 0004 AFF30080 		.section	.text.bmk4_execute,"ax",%progbits
 831      AFF30080 
 831      AFF30080 
 832              		.align	2
 833              		.p2align 4,,15
 834              		.thumb
 835              		.thumb_func
 836              		.type	bmk4_execute, %function
 837              	bmk4_execute:
 838              	.LFB236:
 839              		.loc 1 219 0
 840              		.cfi_startproc
 841              		@ args = 0, pretend = 0, frame = 0
 842              		@ frame_needed = 0, uses_anonymous_args = 0
 843 0000 2DE9F047 		push	{r4, r5, r6, r7, r8, r9, r10, lr}
 844              		.cfi_def_cfa_offset 32
 845              		.cfi_offset 4, -32
ARM GAS  /tmp/ccDswwlK.s 			page 16


 846              		.cfi_offset 5, -28
 847              		.cfi_offset 6, -24
 848              		.cfi_offset 7, -20
 849              		.cfi_offset 8, -16
 850              		.cfi_offset 9, -12
 851              		.cfi_offset 10, -8
 852              		.cfi_offset 14, -4
 853              	.LBB200:
 854              	.LBB201:
 855              	.LBB202:
 856              	.LBB203:
 857              		.loc 2 176 0
 858 0004 264B     		ldr	r3, .L43
 859              	.LBE203:
 860              	.LBE202:
 861              	.LBE201:
 862              	.LBE200:
 863              		.loc 1 223 0
 864 0006 274A     		ldr	r2, .L43+4
 865              	.LBB205:
 866              	.LBB204:
 867              		.loc 2 189 0
 868 0008 9B69     		ldr	r3, [r3, #24]
 869              	.LBE204:
 870              	.LBE205:
 871              		.loc 1 223 0
 872 000a 1068     		ldr	r0, [r2]
 873 000c 9A68     		ldr	r2, [r3, #8]
 874 000e 264B     		ldr	r3, .L43+8
 875 0010 DFF8A490 		ldr	r9, .L43+24
 876              		.loc 1 219 0
 877 0014 82B0     		sub	sp, sp, #8
 878              		.cfi_def_cfa_offset 40
 879              		.loc 1 223 0
 880 0016 0025     		movs	r5, #0
 881 0018 0132     		adds	r2, r2, #1
 882 001a 4FF4E871 		mov	r1, #464
 883 001e 0095     		str	r5, [sp]
 884 0020 FFF7FEFF 		bl	chThdCreateStatic
 885              	.LVL92:
 886 0024 214B     		ldr	r3, .L43+12
 887 0026 0446     		mov	r4, r0
 888 0028 1860     		str	r0, [r3]
 889              	.LVL93:
 890              		.loc 1 226 0
 891 002a FFF7FEFF 		bl	test_wait_tick
 892              	.LVL94:
 893              		.loc 1 227 0
 894 002e 4FF47A70 		mov	r0, #1000
 895 0032 FFF7FEFF 		bl	test_start_timer
 896              	.LVL95:
 897              		.loc 1 230 0
 898 0036 AA46     		mov	r10, r5
 899              	.LBB206:
 900              	.LBB207:
 901              	.LBB208:
 902              	.LBB209:
ARM GAS  /tmp/ccDswwlK.s 			page 17


 903              		.file 3 "../../os/ext/CMSIS/include/core_cmFunc.h"
 904              		.loc 3 546 0
 905 0038 4FF02008 		mov	r8, #32
 906              	.LVL96:
 907              	.L39:
 908              		.loc 3 546 0 is_stmt 0 discriminator 1
 909 003c 2027     		movs	r7, #32
 910              		.syntax unified
 911              	@ 546 "../../os/ext/CMSIS/include/core_cmFunc.h" 1
 912 003e 88F31188 		MSR basepri, r8
 913              	@ 0 "" 2
 914              		.thumb
 915              		.syntax unified
 916              	.LBE209:
 917              	.LBE208:
 918              	.LBE207:
 919              	.LBE206:
 920              		.loc 1 230 0 is_stmt 1 discriminator 1
 921 0042 0021     		movs	r1, #0
 922 0044 2046     		mov	r0, r4
 923 0046 FFF7FEFF 		bl	chSchWakeupS
 924              	.LVL97:
 925              		.loc 1 231 0 discriminator 1
 926 004a 2046     		mov	r0, r4
 927 004c 0021     		movs	r1, #0
 928 004e FFF7FEFF 		bl	chSchWakeupS
 929              	.LVL98:
 930              		.loc 1 232 0 discriminator 1
 931 0052 2046     		mov	r0, r4
 932 0054 0021     		movs	r1, #0
 933 0056 FFF7FEFF 		bl	chSchWakeupS
 934              	.LVL99:
 935              		.loc 1 233 0 discriminator 1
 936 005a 2046     		mov	r0, r4
 937 005c 0021     		movs	r1, #0
 938 005e FFF7FEFF 		bl	chSchWakeupS
 939              	.LVL100:
 940              	.LBB210:
 941              	.LBB211:
 942              	.LBB212:
 943              	.LBB213:
 944              	.LBB214:
 945              		.loc 3 546 0 discriminator 1
 946 0062 0026     		movs	r6, #0
 947              		.syntax unified
 948              	@ 546 "../../os/ext/CMSIS/include/core_cmFunc.h" 1
 949 0064 8AF31188 		MSR basepri, r10
 950              	@ 0 "" 2
 951              		.thumb
 952              		.syntax unified
 953              	.LBE214:
 954              	.LBE213:
 955              	.LBE212:
 956              	.LBE211:
 957              	.LBE210:
 958              		.loc 1 239 0 discriminator 1
 959 0068 99F80030 		ldrb	r3, [r9]	@ zero_extendqisi2
ARM GAS  /tmp/ccDswwlK.s 			page 18


 960              		.loc 1 235 0 discriminator 1
 961 006c 0435     		adds	r5, r5, #4
 962              	.LVL101:
 963              		.loc 1 239 0 discriminator 1
 964 006e 002B     		cmp	r3, #0
 965 0070 E4D0     		beq	.L39
 966              	.LVL102:
 967              	.LBB215:
 968              	.LBB216:
 969              	.LBB217:
 970              	.LBB218:
 971              		.loc 3 546 0
 972              		.syntax unified
 973              	@ 546 "../../os/ext/CMSIS/include/core_cmFunc.h" 1
 974 0072 87F31188 		MSR basepri, r7
 975              	@ 0 "" 2
 976              		.thumb
 977              		.syntax unified
 978              	.LBE218:
 979              	.LBE217:
 980              	.LBE216:
 981              	.LBE215:
 982              		.loc 1 241 0
 983 0076 4FF0FF31 		mov	r1, #-1
 984 007a 2046     		mov	r0, r4
 985 007c FFF7FEFF 		bl	chSchWakeupS
 986              	.LVL103:
 987              	.LBB219:
 988              	.LBB220:
 989              	.LBB221:
 990              	.LBB222:
 991              	.LBB223:
 992              		.loc 3 546 0
 993              		.syntax unified
 994              	@ 546 "../../os/ext/CMSIS/include/core_cmFunc.h" 1
 995 0080 86F31188 		MSR basepri, r6
 996              	@ 0 "" 2
 997              		.thumb
 998              		.syntax unified
 999              	.LBE223:
 1000              	.LBE222:
 1001              	.LBE221:
 1002              	.LBE220:
 1003              	.LBE219:
 1004              		.loc 1 244 0
 1005 0084 FFF7FEFF 		bl	test_wait_threads
 1006              	.LVL104:
 1007              		.loc 1 245 0
 1008 0088 0948     		ldr	r0, .L43+16
 1009 008a FFF7FEFF 		bl	test_print
 1010              	.LVL105:
 1011              		.loc 1 246 0
 1012 008e 6800     		lsls	r0, r5, #1
 1013 0090 FFF7FEFF 		bl	test_printn
 1014              	.LVL106:
 1015              		.loc 1 247 0
 1016 0094 0748     		ldr	r0, .L43+20
ARM GAS  /tmp/ccDswwlK.s 			page 19


 1017              		.loc 1 248 0
 1018 0096 02B0     		add	sp, sp, #8
 1019              		.cfi_def_cfa_offset 32
 1020              		@ sp needed
 1021 0098 BDE8F047 		pop	{r4, r5, r6, r7, r8, r9, r10, lr}
 1022              		.cfi_restore 14
 1023              		.cfi_restore 10
 1024              		.cfi_restore 9
 1025              		.cfi_restore 8
 1026              		.cfi_restore 7
 1027              		.cfi_restore 6
 1028              		.cfi_restore 5
 1029              		.cfi_restore 4
 1030              		.cfi_def_cfa_offset 0
 1031              	.LVL107:
 1032              		.loc 1 247 0
 1033 009c FFF7FEBF 		b	test_println
 1034              	.LVL108:
 1035              	.L44:
 1036              		.align	2
 1037              	.L43:
 1038 00a0 00000000 		.word	ch
 1039 00a4 00000000 		.word	wa
 1040 00a8 00000000 		.word	thread4
 1041 00ac 00000000 		.word	threads
 1042 00b0 A8000000 		.word	.LC11
 1043 00b4 D0000000 		.word	.LC14
 1044 00b8 00000000 		.word	test_timer_done
 1045              		.cfi_endproc
 1046              	.LFE236:
 1047              		.size	bmk4_execute, .-bmk4_execute
 1048 00bc AFF30080 		.section	.text.thread4,"ax",%progbits
 1049              		.align	2
 1050              		.p2align 4,,15
 1051              		.thumb
 1052              		.thumb_func
 1053              		.type	thread4, %function
 1054              	thread4:
 1055              	.LFB235:
 1056              		.loc 1 206 0
 1057              		.cfi_startproc
 1058              		@ args = 0, pretend = 0, frame = 0
 1059              		@ frame_needed = 0, uses_anonymous_args = 0
 1060              	.LVL109:
 1061              	.LBB224:
 1062              	.LBB225:
 1063              		.loc 2 176 0
 1064 0000 074A     		ldr	r2, .L50
 1065              	.LBE225:
 1066              	.LBE224:
 1067              		.loc 1 206 0
 1068 0002 10B5     		push	{r4, lr}
 1069              		.cfi_def_cfa_offset 8
 1070              		.cfi_offset 4, -8
 1071              		.cfi_offset 14, -4
 1072              	.LBB227:
 1073              	.LBB228:
ARM GAS  /tmp/ccDswwlK.s 			page 20


 1074              	.LBB229:
 1075              	.LBB230:
 1076              		.loc 3 546 0
 1077 0004 2023     		movs	r3, #32
 1078              	.LBE230:
 1079              	.LBE229:
 1080              	.LBE228:
 1081              	.LBE227:
 1082              	.LBB234:
 1083              	.LBB226:
 1084              		.loc 2 176 0
 1085 0006 9469     		ldr	r4, [r2, #24]
 1086              	.LVL110:
 1087              	.LBE226:
 1088              	.LBE234:
 1089              	.LBB235:
 1090              	.LBB233:
 1091              	.LBB232:
 1092              	.LBB231:
 1093              		.loc 3 546 0
 1094              		.syntax unified
 1095              	@ 546 "../../os/ext/CMSIS/include/core_cmFunc.h" 1
 1096 0008 83F31188 		MSR basepri, r3
 1097              	@ 0 "" 2
 1098              	.LVL111:
 1099              		.thumb
 1100              		.syntax unified
 1101              	.L46:
 1102              	.LBE231:
 1103              	.LBE232:
 1104              	.LBE233:
 1105              	.LBE235:
 1106              		.loc 1 213 0 discriminator 1
 1107 000c 0320     		movs	r0, #3
 1108 000e FFF7FEFF 		bl	chSchGoSleepS
 1109              	.LVL112:
 1110              		.loc 1 215 0 discriminator 1
 1111 0012 236A     		ldr	r3, [r4, #32]
 1112 0014 002B     		cmp	r3, #0
 1113 0016 F9D0     		beq	.L46
 1114              	.LVL113:
 1115              	.LBB236:
 1116              	.LBB237:
 1117              	.LBB238:
 1118              	.LBB239:
 1119              	.LBB240:
 1120              		.loc 3 546 0
 1121 0018 0023     		movs	r3, #0
 1122              		.syntax unified
 1123              	@ 546 "../../os/ext/CMSIS/include/core_cmFunc.h" 1
 1124 001a 83F31188 		MSR basepri, r3
 1125              	@ 0 "" 2
 1126              		.thumb
 1127              		.syntax unified
 1128 001e 10BD     		pop	{r4, pc}
 1129              	.LVL114:
 1130              	.L51:
ARM GAS  /tmp/ccDswwlK.s 			page 21


 1131              		.align	2
 1132              	.L50:
 1133 0020 00000000 		.word	ch
 1134              	.LBE240:
 1135              	.LBE239:
 1136              	.LBE238:
 1137              	.LBE237:
 1138              	.LBE236:
 1139              		.cfi_endproc
 1140              	.LFE235:
 1141              		.size	thread4, .-thread4
 1142 0024 AFF30080 		.section	.text.bmk5_execute,"ax",%progbits
 1142      AFF30080 
 1142      AFF30080 
 1143              		.align	2
 1144              		.p2align 4,,15
 1145              		.thumb
 1146              		.thumb_func
 1147              		.type	bmk5_execute, %function
 1148              	bmk5_execute:
 1149              	.LFB237:
 1150              		.loc 1 268 0
 1151              		.cfi_startproc
 1152              		@ args = 0, pretend = 0, frame = 0
 1153              		@ frame_needed = 0, uses_anonymous_args = 0
 1154              	.LVL115:
 1155 0000 2DE9F041 		push	{r4, r5, r6, r7, r8, lr}
 1156              		.cfi_def_cfa_offset 24
 1157              		.cfi_offset 4, -24
 1158              		.cfi_offset 5, -20
 1159              		.cfi_offset 6, -16
 1160              		.cfi_offset 7, -12
 1161              		.cfi_offset 8, -8
 1162              		.cfi_offset 14, -4
 1163              	.LBB241:
 1164              	.LBB242:
 1165              	.LBB243:
 1166              	.LBB244:
 1167              		.loc 2 176 0
 1168 0004 154B     		ldr	r3, .L57
 1169              	.LBE244:
 1170              	.LBE243:
 1171              	.LBE242:
 1172              	.LBE241:
 1173              		.loc 1 271 0
 1174 0006 164A     		ldr	r2, .L57+4
 1175              	.LBB246:
 1176              	.LBB245:
 1177              		.loc 2 189 0
 1178 0008 9B69     		ldr	r3, [r3, #24]
 1179              	.LBE245:
 1180              	.LBE246:
 1181              		.loc 1 271 0
 1182 000a D2F80080 		ldr	r8, [r2]
 1183              	.LVL116:
 1184              		.loc 1 272 0
 1185 000e 9D68     		ldr	r5, [r3, #8]
ARM GAS  /tmp/ccDswwlK.s 			page 22


 1186 0010 144F     		ldr	r7, .L57+8
 1187              		.loc 1 268 0
 1188 0012 82B0     		sub	sp, sp, #8
 1189              		.cfi_def_cfa_offset 32
 1190              		.loc 1 273 0
 1191 0014 FFF7FEFF 		bl	test_wait_tick
 1192              	.LVL117:
 1193              		.loc 1 274 0
 1194 0018 4FF47A70 		mov	r0, #1000
 1195 001c FFF7FEFF 		bl	test_start_timer
 1196              	.LVL118:
 1197              		.loc 1 270 0
 1198 0020 0024     		movs	r4, #0
 1199              		.loc 1 272 0
 1200 0022 013D     		subs	r5, r5, #1
 1201              	.LVL119:
 1202              		.loc 1 276 0
 1203 0024 2646     		mov	r6, r4
 1204              	.LVL120:
 1205              	.L53:
 1206              		.loc 1 276 0 is_stmt 0 discriminator 1
 1207 0026 104B     		ldr	r3, .L57+12
 1208 0028 0096     		str	r6, [sp]
 1209 002a 2A46     		mov	r2, r5
 1210 002c 4FF4E871 		mov	r1, #464
 1211 0030 4046     		mov	r0, r8
 1212 0032 FFF7FEFF 		bl	chThdCreateStatic
 1213              	.LVL121:
 1214 0036 FFF7FEFF 		bl	chThdWait
 1215              	.LVL122:
 1216              		.loc 1 281 0 is_stmt 1 discriminator 1
 1217 003a 3B78     		ldrb	r3, [r7]	@ zero_extendqisi2
 1218              		.loc 1 277 0 discriminator 1
 1219 003c 0134     		adds	r4, r4, #1
 1220              	.LVL123:
 1221              		.loc 1 281 0 discriminator 1
 1222 003e 002B     		cmp	r3, #0
 1223 0040 F1D0     		beq	.L53
 1224              		.loc 1 282 0
 1225 0042 0A48     		ldr	r0, .L57+16
 1226 0044 FFF7FEFF 		bl	test_print
 1227              	.LVL124:
 1228              		.loc 1 283 0
 1229 0048 2046     		mov	r0, r4
 1230 004a FFF7FEFF 		bl	test_printn
 1231              	.LVL125:
 1232              		.loc 1 284 0
 1233 004e 0848     		ldr	r0, .L57+20
 1234              		.loc 1 285 0
 1235 0050 02B0     		add	sp, sp, #8
 1236              		.cfi_def_cfa_offset 24
 1237              		@ sp needed
 1238 0052 BDE8F041 		pop	{r4, r5, r6, r7, r8, lr}
 1239              		.cfi_restore 14
 1240              		.cfi_restore 8
 1241              		.cfi_restore 7
 1242              		.cfi_restore 6
ARM GAS  /tmp/ccDswwlK.s 			page 23


 1243              		.cfi_restore 5
 1244              		.cfi_restore 4
 1245              		.cfi_def_cfa_offset 0
 1246              	.LVL126:
 1247              		.loc 1 284 0
 1248 0056 FFF7FEBF 		b	test_println
 1249              	.LVL127:
 1250              	.L58:
 1251 005a 00BF     		.align	2
 1252              	.L57:
 1253 005c 00000000 		.word	ch
 1254 0060 00000000 		.word	wa
 1255 0064 00000000 		.word	test_timer_done
 1256 0068 00000000 		.word	thread1
 1257 006c A8000000 		.word	.LC11
 1258 0070 B8000000 		.word	.LC12
 1259              		.cfi_endproc
 1260              	.LFE237:
 1261              		.size	bmk5_execute, .-bmk5_execute
 1262 0074 AFF30080 		.section	.text.bmk7_execute,"ax",%progbits
 1262      AFF30080 
 1262      AFF30080 
 1263              		.align	2
 1264              		.p2align 4,,15
 1265              		.thumb
 1266              		.thumb_func
 1267              		.type	bmk7_execute, %function
 1268              	bmk7_execute:
 1269              	.LFB241:
 1270              		.loc 1 357 0
 1271              		.cfi_startproc
 1272              		@ args = 0, pretend = 0, frame = 0
 1273              		@ frame_needed = 0, uses_anonymous_args = 0
 1274 0000 2DE9F041 		push	{r4, r5, r6, r7, r8, lr}
 1275              		.cfi_def_cfa_offset 24
 1276              		.cfi_offset 4, -24
 1277              		.cfi_offset 5, -20
 1278              		.cfi_offset 6, -16
 1279              		.cfi_offset 7, -12
 1280              		.cfi_offset 8, -8
 1281              		.cfi_offset 14, -4
 1282              	.LBB247:
 1283              	.LBB248:
 1284              	.LBB249:
 1285              	.LBB250:
 1286              		.loc 2 176 0
 1287 0004 DFF80081 		ldr	r8, .L64+32
 1288              	.LBE250:
 1289              	.LBE249:
 1290              	.LBE248:
 1291              	.LBE247:
 1292              		.loc 1 360 0
 1293 0008 374F     		ldr	r7, .L64
 1294              	.LBB252:
 1295              	.LBB251:
 1296              		.loc 2 189 0
 1297 000a D8F81830 		ldr	r3, [r8, #24]
ARM GAS  /tmp/ccDswwlK.s 			page 24


 1298              	.LBE251:
 1299              	.LBE252:
 1300              		.loc 1 360 0
 1301 000e 3868     		ldr	r0, [r7]
 1302 0010 9A68     		ldr	r2, [r3, #8]
 1303 0012 364B     		ldr	r3, .L64+4
 1304 0014 364E     		ldr	r6, .L64+8
 1305 0016 374D     		ldr	r5, .L64+12
 1306              		.loc 1 357 0
 1307 0018 82B0     		sub	sp, sp, #8
 1308              		.cfi_def_cfa_offset 32
 1309              		.loc 1 360 0
 1310 001a 0024     		movs	r4, #0
 1311 001c 0532     		adds	r2, r2, #5
 1312 001e 4FF4E871 		mov	r1, #464
 1313 0022 0094     		str	r4, [sp]
 1314 0024 FFF7FEFF 		bl	chThdCreateStatic
 1315              	.LVL128:
 1316              	.LBB253:
 1317              	.LBB254:
 1318              		.loc 2 189 0
 1319 0028 D8F81820 		ldr	r2, [r8, #24]
 1320              	.LBE254:
 1321              	.LBE253:
 1322              		.loc 1 361 0
 1323 002c 7B68     		ldr	r3, [r7, #4]
 1324 002e 9268     		ldr	r2, [r2, #8]
 1325              		.loc 1 360 0
 1326 0030 3060     		str	r0, [r6]
 1327              		.loc 1 361 0
 1328 0032 0432     		adds	r2, r2, #4
 1329 0034 1846     		mov	r0, r3
 1330 0036 4FF4E871 		mov	r1, #464
 1331 003a 2C4B     		ldr	r3, .L64+4
 1332 003c 0094     		str	r4, [sp]
 1333 003e FFF7FEFF 		bl	chThdCreateStatic
 1334              	.LVL129:
 1335              	.LBB255:
 1336              	.LBB256:
 1337              		.loc 2 189 0
 1338 0042 D8F81820 		ldr	r2, [r8, #24]
 1339              	.LBE256:
 1340              	.LBE255:
 1341              		.loc 1 362 0
 1342 0046 BB68     		ldr	r3, [r7, #8]
 1343 0048 9268     		ldr	r2, [r2, #8]
 1344              		.loc 1 361 0
 1345 004a 7060     		str	r0, [r6, #4]
 1346              		.loc 1 362 0
 1347 004c 0332     		adds	r2, r2, #3
 1348 004e 1846     		mov	r0, r3
 1349 0050 4FF4E871 		mov	r1, #464
 1350 0054 254B     		ldr	r3, .L64+4
 1351 0056 0094     		str	r4, [sp]
 1352 0058 FFF7FEFF 		bl	chThdCreateStatic
 1353              	.LVL130:
 1354              	.LBB257:
ARM GAS  /tmp/ccDswwlK.s 			page 25


 1355              	.LBB258:
 1356              		.loc 2 189 0
 1357 005c D8F81820 		ldr	r2, [r8, #24]
 1358              	.LBE258:
 1359              	.LBE257:
 1360              		.loc 1 363 0
 1361 0060 FB68     		ldr	r3, [r7, #12]
 1362 0062 9268     		ldr	r2, [r2, #8]
 1363              		.loc 1 362 0
 1364 0064 B060     		str	r0, [r6, #8]
 1365              		.loc 1 363 0
 1366 0066 0232     		adds	r2, r2, #2
 1367 0068 1846     		mov	r0, r3
 1368 006a 4FF4E871 		mov	r1, #464
 1369 006e 1F4B     		ldr	r3, .L64+4
 1370 0070 0094     		str	r4, [sp]
 1371 0072 FFF7FEFF 		bl	chThdCreateStatic
 1372              	.LVL131:
 1373              	.LBB259:
 1374              	.LBB260:
 1375              		.loc 2 189 0
 1376 0076 D8F81820 		ldr	r2, [r8, #24]
 1377              	.LBE260:
 1378              	.LBE259:
 1379              		.loc 1 364 0
 1380 007a 3B69     		ldr	r3, [r7, #16]
 1381 007c 9268     		ldr	r2, [r2, #8]
 1382              		.loc 1 363 0
 1383 007e F060     		str	r0, [r6, #12]
 1384              		.loc 1 364 0
 1385 0080 0132     		adds	r2, r2, #1
 1386 0082 1846     		mov	r0, r3
 1387 0084 4FF4E871 		mov	r1, #464
 1388 0088 184B     		ldr	r3, .L64+4
 1389 008a 0094     		str	r4, [sp]
 1390 008c FFF7FEFF 		bl	chThdCreateStatic
 1391              	.LVL132:
 1392 0090 3061     		str	r0, [r6, #16]
 1393              	.LVL133:
 1394              		.loc 1 367 0
 1395 0092 FFF7FEFF 		bl	test_wait_tick
 1396              	.LVL134:
 1397              		.loc 1 368 0
 1398 0096 4FF47A70 		mov	r0, #1000
 1399 009a FFF7FEFF 		bl	test_start_timer
 1400              	.LVL135:
 1401              	.L60:
 1402              		.loc 1 370 0 discriminator 1
 1403 009e 0021     		movs	r1, #0
 1404 00a0 1548     		ldr	r0, .L64+16
 1405 00a2 FFF7FEFF 		bl	chSemReset
 1406              	.LVL136:
 1407              		.loc 1 375 0 discriminator 1
 1408 00a6 2B78     		ldrb	r3, [r5]	@ zero_extendqisi2
 1409              		.loc 1 371 0 discriminator 1
 1410 00a8 0134     		adds	r4, r4, #1
 1411              	.LVL137:
ARM GAS  /tmp/ccDswwlK.s 			page 26


 1412              		.loc 1 375 0 discriminator 1
 1413 00aa 002B     		cmp	r3, #0
 1414 00ac F7D0     		beq	.L60
 1415              		.loc 1 376 0
 1416 00ae FFF7FEFF 		bl	test_terminate_threads
 1417              	.LVL138:
 1418              		.loc 1 377 0
 1419 00b2 0021     		movs	r1, #0
 1420 00b4 1048     		ldr	r0, .L64+16
 1421 00b6 FFF7FEFF 		bl	chSemReset
 1422              	.LVL139:
 1423              		.loc 1 378 0
 1424 00ba FFF7FEFF 		bl	test_wait_threads
 1425              	.LVL140:
 1426              		.loc 1 380 0
 1427 00be 0F48     		ldr	r0, .L64+20
 1428 00c0 FFF7FEFF 		bl	test_print
 1429              	.LVL141:
 1430              		.loc 1 381 0
 1431 00c4 2046     		mov	r0, r4
 1432 00c6 FFF7FEFF 		bl	test_printn
 1433              	.LVL142:
 1434              		.loc 1 382 0
 1435 00ca 0D48     		ldr	r0, .L64+24
 1436 00cc FFF7FEFF 		bl	test_print
 1437              	.LVL143:
 1438              		.loc 1 383 0
 1439 00d0 04EB4400 		add	r0, r4, r4, lsl #1
 1440 00d4 4000     		lsls	r0, r0, #1
 1441 00d6 FFF7FEFF 		bl	test_printn
 1442              	.LVL144:
 1443              		.loc 1 384 0
 1444 00da 0A48     		ldr	r0, .L64+28
 1445              		.loc 1 385 0
 1446 00dc 02B0     		add	sp, sp, #8
 1447              		.cfi_def_cfa_offset 24
 1448              		@ sp needed
 1449 00de BDE8F041 		pop	{r4, r5, r6, r7, r8, lr}
 1450              		.cfi_restore 14
 1451              		.cfi_restore 8
 1452              		.cfi_restore 7
 1453              		.cfi_restore 6
 1454              		.cfi_restore 5
 1455              		.cfi_restore 4
 1456              		.cfi_def_cfa_offset 0
 1457              	.LVL145:
 1458              		.loc 1 384 0
 1459 00e2 FFF7FEBF 		b	test_println
 1460              	.LVL146:
 1461              	.L65:
 1462 00e6 00BF     		.align	2
 1463              	.L64:
 1464 00e8 00000000 		.word	wa
 1465 00ec 00000000 		.word	thread3
 1466 00f0 00000000 		.word	threads
 1467 00f4 00000000 		.word	test_timer_done
 1468 00f8 00000000 		.word	.LANCHOR0
ARM GAS  /tmp/ccDswwlK.s 			page 27


 1469 00fc A8000000 		.word	.LC11
 1470 0100 DC000000 		.word	.LC15
 1471 0104 D0000000 		.word	.LC14
 1472 0108 00000000 		.word	ch
 1473              		.cfi_endproc
 1474              	.LFE241:
 1475              		.size	bmk7_execute, .-bmk7_execute
 1476 010c AFF30080 		.section	.text.thread3,"ax",%progbits
 1477              		.align	2
 1478              		.p2align 4,,15
 1479              		.thumb
 1480              		.thumb_func
 1481              		.type	thread3, %function
 1482              	thread3:
 1483              	.LFB239:
 1484              		.loc 1 345 0
 1485              		.cfi_startproc
 1486              		@ args = 0, pretend = 0, frame = 0
 1487              		@ frame_needed = 0, uses_anonymous_args = 0
 1488              	.LVL147:
 1489 0000 10B5     		push	{r4, lr}
 1490              		.cfi_def_cfa_offset 8
 1491              		.cfi_offset 4, -8
 1492              		.cfi_offset 14, -4
 1493              	.LBB261:
 1494              	.LBB262:
 1495              	.LBB263:
 1496              	.LBB264:
 1497              		.loc 2 176 0
 1498 0002 064C     		ldr	r4, .L73
 1499              	.LBE264:
 1500              	.LBE263:
 1501              		.loc 2 233 0
 1502 0004 A369     		ldr	r3, [r4, #24]
 1503              	.LBE262:
 1504              	.LBE261:
 1505              		.loc 1 348 0
 1506 0006 5B7F     		ldrb	r3, [r3, #29]	@ zero_extendqisi2
 1507 0008 5A07     		lsls	r2, r3, #29
 1508 000a 06D4     		bmi	.L66
 1509              	.LVL148:
 1510              	.L67:
 1511              		.loc 1 349 0
 1512 000c 0448     		ldr	r0, .L73+4
 1513 000e FFF7FEFF 		bl	chSemWait
 1514              	.LVL149:
 1515              	.LBB266:
 1516              	.LBB265:
 1517              		.loc 2 233 0
 1518 0012 A369     		ldr	r3, [r4, #24]
 1519              	.LBE265:
 1520              	.LBE266:
 1521              		.loc 1 348 0
 1522 0014 5B7F     		ldrb	r3, [r3, #29]	@ zero_extendqisi2
 1523 0016 5B07     		lsls	r3, r3, #29
 1524 0018 F8D5     		bpl	.L67
 1525              	.L66:
ARM GAS  /tmp/ccDswwlK.s 			page 28


 1526 001a 10BD     		pop	{r4, pc}
 1527              	.L74:
 1528              		.align	2
 1529              	.L73:
 1530 001c 00000000 		.word	ch
 1531 0020 00000000 		.word	.LANCHOR0
 1532              		.cfi_endproc
 1533              	.LFE239:
 1534              		.size	thread3, .-thread3
 1535 0024 AFF30080 		.section	.text.bmk7_setup,"ax",%progbits
 1535      AFF30080 
 1535      AFF30080 
 1536              		.align	2
 1537              		.p2align 4,,15
 1538              		.thumb
 1539              		.thumb_func
 1540              		.type	bmk7_setup, %function
 1541              	bmk7_setup:
 1542              	.LFB240:
 1543              		.loc 1 352 0
 1544              		.cfi_startproc
 1545              		@ args = 0, pretend = 0, frame = 0
 1546              		@ frame_needed = 0, uses_anonymous_args = 0
 1547              		@ link register save eliminated.
 1548              		.loc 1 354 0
 1549 0000 0021     		movs	r1, #0
 1550 0002 0148     		ldr	r0, .L76
 1551 0004 FFF7FEBF 		b	chSemObjectInit
 1552              	.LVL150:
 1553              	.L77:
 1554              		.align	2
 1555              	.L76:
 1556 0008 00000000 		.word	.LANCHOR0
 1557              		.cfi_endproc
 1558              	.LFE240:
 1559              		.size	bmk7_setup, .-bmk7_setup
 1560 000c AFF30080 		.section	.text.bmk11_setup,"ax",%progbits
 1561              		.align	2
 1562              		.p2align 4,,15
 1563              		.thumb
 1564              		.thumb_func
 1565              		.type	bmk11_setup, %function
 1566              	bmk11_setup:
 1567              	.LFB247:
 1568              		.loc 1 548 0
 1569              		.cfi_startproc
 1570              		@ args = 0, pretend = 0, frame = 0
 1571              		@ frame_needed = 0, uses_anonymous_args = 0
 1572              		@ link register save eliminated.
 1573              		.loc 1 550 0
 1574 0000 0121     		movs	r1, #1
 1575 0002 0148     		ldr	r0, .L79
 1576 0004 FFF7FEBF 		b	chSemObjectInit
 1577              	.LVL151:
 1578              	.L80:
 1579              		.align	2
 1580              	.L79:
ARM GAS  /tmp/ccDswwlK.s 			page 29


 1581 0008 00000000 		.word	.LANCHOR0
 1582              		.cfi_endproc
 1583              	.LFE247:
 1584              		.size	bmk11_setup, .-bmk11_setup
 1585 000c AFF30080 		.section	.text.bmk8_execute,"ax",%progbits
 1586              		.align	2
 1587              		.p2align 4,,15
 1588              		.thumb
 1589              		.thumb_func
 1590              		.type	bmk8_execute, %function
 1591              	bmk8_execute:
 1592              	.LFB243:
 1593              		.loc 1 419 0
 1594              		.cfi_startproc
 1595              		@ args = 0, pretend = 0, frame = 8
 1596              		@ frame_needed = 0, uses_anonymous_args = 0
 1597 0000 2DE9F041 		push	{r4, r5, r6, r7, r8, lr}
 1598              		.cfi_def_cfa_offset 24
 1599              		.cfi_offset 4, -24
 1600              		.cfi_offset 5, -20
 1601              		.cfi_offset 6, -16
 1602              		.cfi_offset 7, -12
 1603              		.cfi_offset 8, -8
 1604              		.cfi_offset 14, -4
 1605 0004 84B0     		sub	sp, sp, #16
 1606              		.cfi_def_cfa_offset 40
 1607              		.loc 1 422 0
 1608 0006 04AC     		add	r4, sp, #16
 1609              	.LBB267:
 1610              	.LBB268:
 1611              	.LBB269:
 1612              	.LBB270:
 1613              		.loc 2 176 0
 1614 0008 DFF8CC80 		ldr	r8, .L83+20
 1615              	.LBE270:
 1616              	.LBE269:
 1617              	.LBE268:
 1618              	.LBE267:
 1619              		.loc 1 425 0
 1620 000c 2D4F     		ldr	r7, .L83
 1621 000e 2E4E     		ldr	r6, .L83+4
 1622 0010 2E4D     		ldr	r5, .L83+8
 1623              		.loc 1 422 0
 1624 0012 0023     		movs	r3, #0
 1625 0014 44F8043D 		str	r3, [r4, #-4]!
 1626              		.loc 1 423 0
 1627 0018 FFF7FEFF 		bl	test_wait_tick
 1628              	.LVL152:
 1629              	.LBB272:
 1630              	.LBB271:
 1631              		.loc 2 189 0
 1632 001c D8F81830 		ldr	r3, [r8, #24]
 1633              	.LBE271:
 1634              	.LBE272:
 1635              		.loc 1 425 0
 1636 0020 3868     		ldr	r0, [r7]
 1637 0022 9A68     		ldr	r2, [r3, #8]
ARM GAS  /tmp/ccDswwlK.s 			page 30


 1638 0024 0094     		str	r4, [sp]
 1639 0026 3346     		mov	r3, r6
 1640 0028 013A     		subs	r2, r2, #1
 1641 002a 4FF4E871 		mov	r1, #464
 1642 002e FFF7FEFF 		bl	chThdCreateStatic
 1643              	.LVL153:
 1644              	.LBB273:
 1645              	.LBB274:
 1646              		.loc 2 189 0
 1647 0032 D8F81820 		ldr	r2, [r8, #24]
 1648              	.LBE274:
 1649              	.LBE273:
 1650              		.loc 1 426 0
 1651 0036 7B68     		ldr	r3, [r7, #4]
 1652 0038 9268     		ldr	r2, [r2, #8]
 1653              		.loc 1 425 0
 1654 003a 2860     		str	r0, [r5]
 1655              		.loc 1 426 0
 1656 003c 013A     		subs	r2, r2, #1
 1657 003e 0094     		str	r4, [sp]
 1658 0040 1846     		mov	r0, r3
 1659 0042 4FF4E871 		mov	r1, #464
 1660 0046 3346     		mov	r3, r6
 1661 0048 FFF7FEFF 		bl	chThdCreateStatic
 1662              	.LVL154:
 1663              	.LBB275:
 1664              	.LBB276:
 1665              		.loc 2 189 0
 1666 004c D8F81820 		ldr	r2, [r8, #24]
 1667              	.LBE276:
 1668              	.LBE275:
 1669              		.loc 1 427 0
 1670 0050 BB68     		ldr	r3, [r7, #8]
 1671 0052 9268     		ldr	r2, [r2, #8]
 1672              		.loc 1 426 0
 1673 0054 6860     		str	r0, [r5, #4]
 1674              		.loc 1 427 0
 1675 0056 013A     		subs	r2, r2, #1
 1676 0058 0094     		str	r4, [sp]
 1677 005a 1846     		mov	r0, r3
 1678 005c 4FF4E871 		mov	r1, #464
 1679 0060 3346     		mov	r3, r6
 1680 0062 FFF7FEFF 		bl	chThdCreateStatic
 1681              	.LVL155:
 1682              	.LBB277:
 1683              	.LBB278:
 1684              		.loc 2 189 0
 1685 0066 D8F81820 		ldr	r2, [r8, #24]
 1686              	.LBE278:
 1687              	.LBE277:
 1688              		.loc 1 428 0
 1689 006a FB68     		ldr	r3, [r7, #12]
 1690 006c 9268     		ldr	r2, [r2, #8]
 1691              		.loc 1 427 0
 1692 006e A860     		str	r0, [r5, #8]
 1693              		.loc 1 428 0
 1694 0070 013A     		subs	r2, r2, #1
ARM GAS  /tmp/ccDswwlK.s 			page 31


 1695 0072 0094     		str	r4, [sp]
 1696 0074 1846     		mov	r0, r3
 1697 0076 4FF4E871 		mov	r1, #464
 1698 007a 3346     		mov	r3, r6
 1699 007c FFF7FEFF 		bl	chThdCreateStatic
 1700              	.LVL156:
 1701              	.LBB279:
 1702              	.LBB280:
 1703              		.loc 2 189 0
 1704 0080 D8F81820 		ldr	r2, [r8, #24]
 1705              	.LBE280:
 1706              	.LBE279:
 1707              		.loc 1 429 0
 1708 0084 3B69     		ldr	r3, [r7, #16]
 1709 0086 9268     		ldr	r2, [r2, #8]
 1710              		.loc 1 428 0
 1711 0088 E860     		str	r0, [r5, #12]
 1712              		.loc 1 429 0
 1713 008a 013A     		subs	r2, r2, #1
 1714 008c 4FF4E871 		mov	r1, #464
 1715 0090 0094     		str	r4, [sp]
 1716 0092 1846     		mov	r0, r3
 1717 0094 3346     		mov	r3, r6
 1718 0096 FFF7FEFF 		bl	chThdCreateStatic
 1719              	.LVL157:
 1720 009a 2861     		str	r0, [r5, #16]
 1721              		.loc 1 431 0
 1722 009c 42F21070 		movw	r0, #10000
 1723 00a0 FFF7FEFF 		bl	chThdSleep
 1724              	.LVL158:
 1725              		.loc 1 432 0
 1726 00a4 FFF7FEFF 		bl	test_terminate_threads
 1727              	.LVL159:
 1728              		.loc 1 433 0
 1729 00a8 FFF7FEFF 		bl	test_wait_threads
 1730              	.LVL160:
 1731              		.loc 1 435 0
 1732 00ac 0848     		ldr	r0, .L83+12
 1733 00ae FFF7FEFF 		bl	test_print
 1734              	.LVL161:
 1735              		.loc 1 436 0
 1736 00b2 0398     		ldr	r0, [sp, #12]
 1737 00b4 FFF7FEFF 		bl	test_printn
 1738              	.LVL162:
 1739              		.loc 1 437 0
 1740 00b8 0648     		ldr	r0, .L83+16
 1741 00ba FFF7FEFF 		bl	test_println
 1742              	.LVL163:
 1743              		.loc 1 438 0
 1744 00be 04B0     		add	sp, sp, #16
 1745              		.cfi_def_cfa_offset 24
 1746              		@ sp needed
 1747 00c0 BDE8F081 		pop	{r4, r5, r6, r7, r8, pc}
 1748              	.L84:
 1749              		.align	2
 1750              	.L83:
 1751 00c4 00000000 		.word	wa
ARM GAS  /tmp/ccDswwlK.s 			page 32


 1752 00c8 00000000 		.word	thread8
 1753 00cc 00000000 		.word	threads
 1754 00d0 A8000000 		.word	.LC11
 1755 00d4 D0000000 		.word	.LC14
 1756 00d8 00000000 		.word	ch
 1757              		.cfi_endproc
 1758              	.LFE243:
 1759              		.size	bmk8_execute, .-bmk8_execute
 1760 00dc AFF30080 		.section	.text.thread8,"ax",%progbits
 1761              		.align	2
 1762              		.p2align 4,,15
 1763              		.thumb
 1764              		.thumb_func
 1765              		.type	thread8, %function
 1766              	thread8:
 1767              	.LFB242:
 1768              		.loc 1 405 0
 1769              		.cfi_startproc
 1770              		@ args = 0, pretend = 0, frame = 0
 1771              		@ frame_needed = 0, uses_anonymous_args = 0
 1772              	.LVL164:
 1773 0000 38B5     		push	{r3, r4, r5, lr}
 1774              		.cfi_def_cfa_offset 16
 1775              		.cfi_offset 3, -16
 1776              		.cfi_offset 4, -12
 1777              		.cfi_offset 5, -8
 1778              		.cfi_offset 14, -4
 1779 0002 094D     		ldr	r5, .L90
 1780              		.loc 1 405 0
 1781 0004 0446     		mov	r4, r0
 1782              	.LVL165:
 1783              	.L86:
 1784              		.loc 1 408 0 discriminator 1
 1785 0006 FFF7FEFF 		bl	chThdYield
 1786              	.LVL166:
 1787              		.loc 1 409 0 discriminator 1
 1788 000a FFF7FEFF 		bl	chThdYield
 1789              	.LVL167:
 1790              		.loc 1 410 0 discriminator 1
 1791 000e FFF7FEFF 		bl	chThdYield
 1792              	.LVL168:
 1793              		.loc 1 411 0 discriminator 1
 1794 0012 FFF7FEFF 		bl	chThdYield
 1795              	.LVL169:
 1796              		.loc 1 412 0 discriminator 1
 1797 0016 2368     		ldr	r3, [r4]
 1798              	.LBB281:
 1799              	.LBB282:
 1800              		.loc 2 233 0 discriminator 1
 1801 0018 AA69     		ldr	r2, [r5, #24]
 1802              	.LBE282:
 1803              	.LBE281:
 1804              		.loc 1 412 0 discriminator 1
 1805 001a 0433     		adds	r3, r3, #4
 1806 001c 2360     		str	r3, [r4]
 1807              		.loc 1 416 0 discriminator 1
 1808 001e 537F     		ldrb	r3, [r2, #29]	@ zero_extendqisi2
ARM GAS  /tmp/ccDswwlK.s 			page 33


 1809 0020 5B07     		lsls	r3, r3, #29
 1810 0022 F0D5     		bpl	.L86
 1811              		.loc 1 417 0
 1812 0024 38BD     		pop	{r3, r4, r5, pc}
 1813              	.LVL170:
 1814              	.L91:
 1815 0026 00BF     		.align	2
 1816              	.L90:
 1817 0028 00000000 		.word	ch
 1818              		.cfi_endproc
 1819              	.LFE242:
 1820              		.size	thread8, .-thread8
 1821 002c AFF30080 		.section	.text.bmk9_execute,"ax",%progbits
 1822              		.align	2
 1823              		.p2align 4,,15
 1824              		.thumb
 1825              		.thumb_func
 1826              		.type	bmk9_execute, %function
 1827              	bmk9_execute:
 1828              	.LFB244:
 1829              		.loc 1 458 0
 1830              		.cfi_startproc
 1831              		@ args = 0, pretend = 0, frame = 0
 1832              		@ frame_needed = 0, uses_anonymous_args = 0
 1833 0000 70B5     		push	{r4, r5, r6, lr}
 1834              		.cfi_def_cfa_offset 16
 1835              		.cfi_offset 4, -16
 1836              		.cfi_offset 5, -12
 1837              		.cfi_offset 6, -8
 1838              		.cfi_offset 14, -4
 1839 0002 82B0     		sub	sp, sp, #8
 1840              		.cfi_def_cfa_offset 24
 1841              		.loc 1 463 0
 1842 0004 0024     		movs	r4, #0
 1843 0006 2346     		mov	r3, r4
 1844 0008 1022     		movs	r2, #16
 1845 000a 2349     		ldr	r1, .L97
 1846 000c 2348     		ldr	r0, .L97+4
 1847 000e 0094     		str	r4, [sp]
 1848 0010 FFF7FEFF 		bl	chIQObjectInit
 1849              	.LVL171:
 1850              		.loc 1 465 0
 1851 0014 FFF7FEFF 		bl	test_wait_tick
 1852              	.LVL172:
 1853              		.loc 1 466 0
 1854 0018 4FF47A70 		mov	r0, #1000
 1855 001c FFF7FEFF 		bl	test_start_timer
 1856              	.LVL173:
 1857 0020 1F4E     		ldr	r6, .L97+8
 1858              		.loc 1 469 0
 1859 0022 2546     		mov	r5, r4
 1860              	.LVL174:
 1861              	.L93:
 1862              	.LBB283:
 1863              	.LBB284:
 1864              	.LBB285:
 1865              	.LBB286:
ARM GAS  /tmp/ccDswwlK.s 			page 34


 1866              		.loc 3 546 0 discriminator 1
 1867 0024 2023     		movs	r3, #32
 1868              		.syntax unified
 1869              	@ 546 "../../os/ext/CMSIS/include/core_cmFunc.h" 1
 1870 0026 83F31188 		MSR basepri, r3
 1871              	@ 0 "" 2
 1872              		.thumb
 1873              		.syntax unified
 1874              	.LBE286:
 1875              	.LBE285:
 1876              	.LBE284:
 1877              	.LBE283:
 1878              		.loc 1 469 0 discriminator 1
 1879 002a 0021     		movs	r1, #0
 1880 002c 1B48     		ldr	r0, .L97+4
 1881 002e FFF7FEFF 		bl	chIQPutI
 1882              	.LVL175:
 1883              		.loc 1 470 0 discriminator 1
 1884 0032 0121     		movs	r1, #1
 1885 0034 1948     		ldr	r0, .L97+4
 1886 0036 FFF7FEFF 		bl	chIQPutI
 1887              	.LVL176:
 1888              		.loc 1 471 0 discriminator 1
 1889 003a 0221     		movs	r1, #2
 1890 003c 1748     		ldr	r0, .L97+4
 1891 003e FFF7FEFF 		bl	chIQPutI
 1892              	.LVL177:
 1893              		.loc 1 472 0 discriminator 1
 1894 0042 0321     		movs	r1, #3
 1895 0044 1548     		ldr	r0, .L97+4
 1896 0046 FFF7FEFF 		bl	chIQPutI
 1897              	.LVL178:
 1898              	.LBB287:
 1899              	.LBB288:
 1900              	.LBB289:
 1901              	.LBB290:
 1902              	.LBB291:
 1903              		.loc 3 546 0 discriminator 1
 1904              		.syntax unified
 1905              	@ 546 "../../os/ext/CMSIS/include/core_cmFunc.h" 1
 1906 004a 85F31188 		MSR basepri, r5
 1907              	@ 0 "" 2
 1908              	.LVL179:
 1909              		.thumb
 1910              		.syntax unified
 1911              	.LBE291:
 1912              	.LBE290:
 1913              	.LBE289:
 1914              	.LBE288:
 1915              	.LBE287:
 1916              	.LBB292:
 1917              	.LBB293:
 1918              		.file 4 "../../os/rt/include/chqueues.h"
 1919              		.loc 4 341 0 discriminator 1
 1920 004e 4FF0FF31 		mov	r1, #-1
 1921 0052 1248     		ldr	r0, .L97+4
 1922 0054 FFF7FEFF 		bl	chIQGetTimeout
ARM GAS  /tmp/ccDswwlK.s 			page 35


 1923              	.LVL180:
 1924              	.LBE293:
 1925              	.LBE292:
 1926              	.LBB294:
 1927              	.LBB295:
 1928 0058 4FF0FF31 		mov	r1, #-1
 1929 005c 0F48     		ldr	r0, .L97+4
 1930 005e FFF7FEFF 		bl	chIQGetTimeout
 1931              	.LVL181:
 1932              	.LBE295:
 1933              	.LBE294:
 1934              	.LBB296:
 1935              	.LBB297:
 1936 0062 4FF0FF31 		mov	r1, #-1
 1937 0066 0D48     		ldr	r0, .L97+4
 1938 0068 FFF7FEFF 		bl	chIQGetTimeout
 1939              	.LVL182:
 1940              	.LBE297:
 1941              	.LBE296:
 1942              	.LBB298:
 1943              	.LBB299:
 1944 006c 4FF0FF31 		mov	r1, #-1
 1945 0070 0A48     		ldr	r0, .L97+4
 1946 0072 FFF7FEFF 		bl	chIQGetTimeout
 1947              	.LVL183:
 1948              	.LBE299:
 1949              	.LBE298:
 1950              		.loc 1 482 0 discriminator 1
 1951 0076 3378     		ldrb	r3, [r6]	@ zero_extendqisi2
 1952              		.loc 1 478 0 discriminator 1
 1953 0078 0134     		adds	r4, r4, #1
 1954              	.LVL184:
 1955              		.loc 1 482 0 discriminator 1
 1956 007a 002B     		cmp	r3, #0
 1957 007c D2D0     		beq	.L93
 1958              		.loc 1 483 0
 1959 007e 0948     		ldr	r0, .L97+12
 1960 0080 FFF7FEFF 		bl	test_print
 1961              	.LVL185:
 1962              		.loc 1 484 0
 1963 0084 A000     		lsls	r0, r4, #2
 1964 0086 FFF7FEFF 		bl	test_printn
 1965              	.LVL186:
 1966              		.loc 1 485 0
 1967 008a 0748     		ldr	r0, .L97+16
 1968              		.loc 1 486 0
 1969 008c 02B0     		add	sp, sp, #8
 1970              		.cfi_def_cfa_offset 16
 1971              		@ sp needed
 1972 008e BDE87040 		pop	{r4, r5, r6, lr}
 1973              		.cfi_restore 14
 1974              		.cfi_restore 6
 1975              		.cfi_restore 5
 1976              		.cfi_restore 4
 1977              		.cfi_def_cfa_offset 0
 1978              	.LVL187:
 1979              		.loc 1 485 0
ARM GAS  /tmp/ccDswwlK.s 			page 36


 1980 0092 FFF7FEBF 		b	test_println
 1981              	.LVL188:
 1982              	.L98:
 1983 0096 00BF     		.align	2
 1984              	.L97:
 1985 0098 00000000 		.word	.LANCHOR1
 1986 009c 00000000 		.word	.LANCHOR2
 1987 00a0 00000000 		.word	test_timer_done
 1988 00a4 A8000000 		.word	.LC11
 1989 00a8 F0000000 		.word	.LC16
 1990              		.cfi_endproc
 1991              	.LFE244:
 1992              		.size	bmk9_execute, .-bmk9_execute
 1993 00ac AFF30080 		.section	.text.bmk10_execute,"ax",%progbits
 1994              		.align	2
 1995              		.p2align 4,,15
 1996              		.thumb
 1997              		.thumb_func
 1998              		.type	bmk10_execute, %function
 1999              	bmk10_execute:
 2000              	.LFB246:
 2001              		.loc 1 507 0
 2002              		.cfi_startproc
 2003              		@ args = 0, pretend = 0, frame = 0
 2004              		@ frame_needed = 0, uses_anonymous_args = 0
 2005              	.LVL189:
 2006 0000 F8B5     		push	{r3, r4, r5, r6, r7, lr}
 2007              		.cfi_def_cfa_offset 24
 2008              		.cfi_offset 3, -24
 2009              		.cfi_offset 4, -20
 2010              		.cfi_offset 5, -16
 2011              		.cfi_offset 6, -12
 2012              		.cfi_offset 7, -8
 2013              		.cfi_offset 14, -4
 2014              		.loc 1 511 0
 2015 0002 FFF7FEFF 		bl	test_wait_tick
 2016              	.LVL190:
 2017              		.loc 1 512 0
 2018 0006 4FF47A70 		mov	r0, #1000
 2019 000a FFF7FEFF 		bl	test_start_timer
 2020              	.LVL191:
 2021              		.loc 1 509 0
 2022 000e 0024     		movs	r4, #0
 2023 0010 144F     		ldr	r7, .L104
 2024              		.loc 1 515 0
 2025 0012 2646     		mov	r6, r4
 2026              	.LBB300:
 2027              	.LBB301:
 2028              	.LBB302:
 2029              	.LBB303:
 2030              		.loc 3 546 0
 2031 0014 2025     		movs	r5, #32
 2032              	.LVL192:
 2033              	.L100:
 2034              		.loc 3 546 0 is_stmt 0 discriminator 1
 2035              		.syntax unified
 2036              	@ 546 "../../os/ext/CMSIS/include/core_cmFunc.h" 1
ARM GAS  /tmp/ccDswwlK.s 			page 37


 2037 0016 85F31188 		MSR basepri, r5
 2038              	@ 0 "" 2
 2039              		.thumb
 2040              		.syntax unified
 2041              	.LBE303:
 2042              	.LBE302:
 2043              	.LBE301:
 2044              	.LBE300:
 2045              		.loc 1 515 0 is_stmt 1 discriminator 1
 2046 001a 0023     		movs	r3, #0
 2047 001c 124A     		ldr	r2, .L104+4
 2048 001e 1348     		ldr	r0, .L104+8
 2049 0020 0121     		movs	r1, #1
 2050 0022 FFF7FEFF 		bl	chVTDoSetI
 2051              	.LVL193:
 2052              		.loc 1 516 0 discriminator 1
 2053 0026 0023     		movs	r3, #0
 2054 0028 0F4A     		ldr	r2, .L104+4
 2055 002a 1148     		ldr	r0, .L104+12
 2056 002c 42F21071 		movw	r1, #10000
 2057 0030 FFF7FEFF 		bl	chVTDoSetI
 2058              	.LVL194:
 2059              		.loc 1 517 0 discriminator 1
 2060 0034 0D48     		ldr	r0, .L104+8
 2061 0036 FFF7FEFF 		bl	chVTDoResetI
 2062              	.LVL195:
 2063              		.loc 1 518 0 discriminator 1
 2064 003a 0D48     		ldr	r0, .L104+12
 2065 003c FFF7FEFF 		bl	chVTDoResetI
 2066              	.LVL196:
 2067              	.LBB304:
 2068              	.LBB305:
 2069              	.LBB306:
 2070              	.LBB307:
 2071              	.LBB308:
 2072              		.loc 3 546 0 discriminator 1
 2073              		.syntax unified
 2074              	@ 546 "../../os/ext/CMSIS/include/core_cmFunc.h" 1
 2075 0040 86F31188 		MSR basepri, r6
 2076              	@ 0 "" 2
 2077              		.thumb
 2078              		.syntax unified
 2079              	.LBE308:
 2080              	.LBE307:
 2081              	.LBE306:
 2082              	.LBE305:
 2083              	.LBE304:
 2084              		.loc 1 524 0 discriminator 1
 2085 0044 3B78     		ldrb	r3, [r7]	@ zero_extendqisi2
 2086              		.loc 1 520 0 discriminator 1
 2087 0046 0134     		adds	r4, r4, #1
 2088              	.LVL197:
 2089              		.loc 1 524 0 discriminator 1
 2090 0048 002B     		cmp	r3, #0
 2091 004a E4D0     		beq	.L100
 2092              		.loc 1 525 0
 2093 004c 0948     		ldr	r0, .L104+16
ARM GAS  /tmp/ccDswwlK.s 			page 38


 2094 004e FFF7FEFF 		bl	test_print
 2095              	.LVL198:
 2096              		.loc 1 526 0
 2097 0052 6000     		lsls	r0, r4, #1
 2098 0054 FFF7FEFF 		bl	test_printn
 2099              	.LVL199:
 2100              		.loc 1 527 0
 2101 0058 0748     		ldr	r0, .L104+20
 2102              		.loc 1 528 0
 2103 005a BDE8F840 		pop	{r3, r4, r5, r6, r7, lr}
 2104              		.cfi_restore 14
 2105              		.cfi_restore 7
 2106              		.cfi_restore 6
 2107              		.cfi_restore 5
 2108              		.cfi_restore 4
 2109              		.cfi_restore 3
 2110              		.cfi_def_cfa_offset 0
 2111              	.LVL200:
 2112              		.loc 1 527 0
 2113 005e FFF7FEBF 		b	test_println
 2114              	.LVL201:
 2115              	.L105:
 2116 0062 00BF     		.align	2
 2117              	.L104:
 2118 0064 00000000 		.word	test_timer_done
 2119 0068 00000000 		.word	tmo
 2120 006c 00000000 		.word	.LANCHOR3
 2121 0070 00000000 		.word	.LANCHOR4
 2122 0074 A8000000 		.word	.LC11
 2123 0078 FC000000 		.word	.LC17
 2124              		.cfi_endproc
 2125              	.LFE246:
 2126              		.size	bmk10_execute, .-bmk10_execute
 2127 007c AFF30080 		.section	.text.bmk11_execute,"ax",%progbits
 2128              		.align	2
 2129              		.p2align 4,,15
 2130              		.thumb
 2131              		.thumb_func
 2132              		.type	bmk11_execute, %function
 2133              	bmk11_execute:
 2134              	.LFB248:
 2135              		.loc 1 553 0
 2136              		.cfi_startproc
 2137              		@ args = 0, pretend = 0, frame = 0
 2138              		@ frame_needed = 0, uses_anonymous_args = 0
 2139              	.LVL202:
 2140 0000 38B5     		push	{r3, r4, r5, lr}
 2141              		.cfi_def_cfa_offset 16
 2142              		.cfi_offset 3, -16
 2143              		.cfi_offset 4, -12
 2144              		.cfi_offset 5, -8
 2145              		.cfi_offset 14, -4
 2146              		.loc 1 556 0
 2147 0002 FFF7FEFF 		bl	test_wait_tick
 2148              	.LVL203:
 2149              		.loc 1 557 0
 2150 0006 4FF47A70 		mov	r0, #1000
ARM GAS  /tmp/ccDswwlK.s 			page 39


 2151 000a FFF7FEFF 		bl	test_start_timer
 2152              	.LVL204:
 2153 000e 144D     		ldr	r5, .L111
 2154              		.loc 1 554 0
 2155 0010 0024     		movs	r4, #0
 2156              	.LVL205:
 2157              	.L107:
 2158              		.loc 1 559 0 discriminator 1
 2159 0012 1448     		ldr	r0, .L111+4
 2160 0014 FFF7FEFF 		bl	chSemWait
 2161              	.LVL206:
 2162              		.loc 1 560 0 discriminator 1
 2163 0018 1248     		ldr	r0, .L111+4
 2164 001a FFF7FEFF 		bl	chSemSignal
 2165              	.LVL207:
 2166              		.loc 1 561 0 discriminator 1
 2167 001e 1148     		ldr	r0, .L111+4
 2168 0020 FFF7FEFF 		bl	chSemWait
 2169              	.LVL208:
 2170              		.loc 1 562 0 discriminator 1
 2171 0024 0F48     		ldr	r0, .L111+4
 2172 0026 FFF7FEFF 		bl	chSemSignal
 2173              	.LVL209:
 2174              		.loc 1 563 0 discriminator 1
 2175 002a 0E48     		ldr	r0, .L111+4
 2176 002c FFF7FEFF 		bl	chSemWait
 2177              	.LVL210:
 2178              		.loc 1 564 0 discriminator 1
 2179 0030 0C48     		ldr	r0, .L111+4
 2180 0032 FFF7FEFF 		bl	chSemSignal
 2181              	.LVL211:
 2182              		.loc 1 565 0 discriminator 1
 2183 0036 0B48     		ldr	r0, .L111+4
 2184 0038 FFF7FEFF 		bl	chSemWait
 2185              	.LVL212:
 2186              		.loc 1 566 0 discriminator 1
 2187 003c 0948     		ldr	r0, .L111+4
 2188 003e FFF7FEFF 		bl	chSemSignal
 2189              	.LVL213:
 2190              		.loc 1 571 0 discriminator 1
 2191 0042 2B78     		ldrb	r3, [r5]	@ zero_extendqisi2
 2192              		.loc 1 567 0 discriminator 1
 2193 0044 0134     		adds	r4, r4, #1
 2194              	.LVL214:
 2195              		.loc 1 571 0 discriminator 1
 2196 0046 002B     		cmp	r3, #0
 2197 0048 E3D0     		beq	.L107
 2198              		.loc 1 572 0
 2199 004a 0748     		ldr	r0, .L111+8
 2200 004c FFF7FEFF 		bl	test_print
 2201              	.LVL215:
 2202              		.loc 1 573 0
 2203 0050 A000     		lsls	r0, r4, #2
 2204 0052 FFF7FEFF 		bl	test_printn
 2205              	.LVL216:
 2206              		.loc 1 574 0
 2207 0056 0548     		ldr	r0, .L111+12
ARM GAS  /tmp/ccDswwlK.s 			page 40


 2208              		.loc 1 575 0
 2209 0058 BDE83840 		pop	{r3, r4, r5, lr}
 2210              		.cfi_restore 14
 2211              		.cfi_restore 5
 2212              		.cfi_restore 4
 2213              		.cfi_restore 3
 2214              		.cfi_def_cfa_offset 0
 2215              	.LVL217:
 2216              		.loc 1 574 0
 2217 005c FFF7FEBF 		b	test_println
 2218              	.LVL218:
 2219              	.L112:
 2220              		.align	2
 2221              	.L111:
 2222 0060 00000000 		.word	test_timer_done
 2223 0064 00000000 		.word	.LANCHOR0
 2224 0068 A8000000 		.word	.LC11
 2225 006c 08010000 		.word	.LC18
 2226              		.cfi_endproc
 2227              	.LFE248:
 2228              		.size	bmk11_execute, .-bmk11_execute
 2229              		.section	.text.bmk12_execute,"ax",%progbits
 2230              		.align	2
 2231              		.p2align 4,,15
 2232              		.thumb
 2233              		.thumb_func
 2234              		.type	bmk12_execute, %function
 2235              	bmk12_execute:
 2236              	.LFB250:
 2237              		.loc 1 601 0
 2238              		.cfi_startproc
 2239              		@ args = 0, pretend = 0, frame = 0
 2240              		@ frame_needed = 0, uses_anonymous_args = 0
 2241              	.LVL219:
 2242 0000 38B5     		push	{r3, r4, r5, lr}
 2243              		.cfi_def_cfa_offset 16
 2244              		.cfi_offset 3, -16
 2245              		.cfi_offset 4, -12
 2246              		.cfi_offset 5, -8
 2247              		.cfi_offset 14, -4
 2248              		.loc 1 604 0
 2249 0002 FFF7FEFF 		bl	test_wait_tick
 2250              	.LVL220:
 2251              		.loc 1 605 0
 2252 0006 4FF47A70 		mov	r0, #1000
 2253 000a FFF7FEFF 		bl	test_start_timer
 2254              	.LVL221:
 2255 000e 144D     		ldr	r5, .L118
 2256              		.loc 1 602 0
 2257 0010 0024     		movs	r4, #0
 2258              	.LVL222:
 2259              	.L114:
 2260              		.loc 1 607 0 discriminator 1
 2261 0012 1448     		ldr	r0, .L118+4
 2262 0014 FFF7FEFF 		bl	chMtxLock
 2263              	.LVL223:
 2264              		.loc 1 608 0 discriminator 1
ARM GAS  /tmp/ccDswwlK.s 			page 41


 2265 0018 1248     		ldr	r0, .L118+4
 2266 001a FFF7FEFF 		bl	chMtxUnlock
 2267              	.LVL224:
 2268              		.loc 1 609 0 discriminator 1
 2269 001e 1148     		ldr	r0, .L118+4
 2270 0020 FFF7FEFF 		bl	chMtxLock
 2271              	.LVL225:
 2272              		.loc 1 610 0 discriminator 1
 2273 0024 0F48     		ldr	r0, .L118+4
 2274 0026 FFF7FEFF 		bl	chMtxUnlock
 2275              	.LVL226:
 2276              		.loc 1 611 0 discriminator 1
 2277 002a 0E48     		ldr	r0, .L118+4
 2278 002c FFF7FEFF 		bl	chMtxLock
 2279              	.LVL227:
 2280              		.loc 1 612 0 discriminator 1
 2281 0030 0C48     		ldr	r0, .L118+4
 2282 0032 FFF7FEFF 		bl	chMtxUnlock
 2283              	.LVL228:
 2284              		.loc 1 613 0 discriminator 1
 2285 0036 0B48     		ldr	r0, .L118+4
 2286 0038 FFF7FEFF 		bl	chMtxLock
 2287              	.LVL229:
 2288              		.loc 1 614 0 discriminator 1
 2289 003c 0948     		ldr	r0, .L118+4
 2290 003e FFF7FEFF 		bl	chMtxUnlock
 2291              	.LVL230:
 2292              		.loc 1 619 0 discriminator 1
 2293 0042 2B78     		ldrb	r3, [r5]	@ zero_extendqisi2
 2294              		.loc 1 615 0 discriminator 1
 2295 0044 0134     		adds	r4, r4, #1
 2296              	.LVL231:
 2297              		.loc 1 619 0 discriminator 1
 2298 0046 002B     		cmp	r3, #0
 2299 0048 E3D0     		beq	.L114
 2300              		.loc 1 620 0
 2301 004a 0748     		ldr	r0, .L118+8
 2302 004c FFF7FEFF 		bl	test_print
 2303              	.LVL232:
 2304              		.loc 1 621 0
 2305 0050 A000     		lsls	r0, r4, #2
 2306 0052 FFF7FEFF 		bl	test_printn
 2307              	.LVL233:
 2308              		.loc 1 622 0
 2309 0056 0548     		ldr	r0, .L118+12
 2310              		.loc 1 623 0
 2311 0058 BDE83840 		pop	{r3, r4, r5, lr}
 2312              		.cfi_restore 14
 2313              		.cfi_restore 5
 2314              		.cfi_restore 4
 2315              		.cfi_restore 3
 2316              		.cfi_def_cfa_offset 0
 2317              	.LVL234:
 2318              		.loc 1 622 0
 2319 005c FFF7FEBF 		b	test_println
 2320              	.LVL235:
 2321              	.L119:
ARM GAS  /tmp/ccDswwlK.s 			page 42


 2322              		.align	2
 2323              	.L118:
 2324 0060 00000000 		.word	test_timer_done
 2325 0064 00000000 		.word	.LANCHOR5
 2326 0068 A8000000 		.word	.LC11
 2327 006c 18010000 		.word	.LC19
 2328              		.cfi_endproc
 2329              	.LFE250:
 2330              		.size	bmk12_execute, .-bmk12_execute
 2331              		.section	.text.bmk12_setup,"ax",%progbits
 2332              		.align	2
 2333              		.p2align 4,,15
 2334              		.thumb
 2335              		.thumb_func
 2336              		.type	bmk12_setup, %function
 2337              	bmk12_setup:
 2338              	.LFB249:
 2339              		.loc 1 596 0
 2340              		.cfi_startproc
 2341              		@ args = 0, pretend = 0, frame = 0
 2342              		@ frame_needed = 0, uses_anonymous_args = 0
 2343              		@ link register save eliminated.
 2344              		.loc 1 598 0
 2345 0000 0148     		ldr	r0, .L121
 2346 0002 FFF7FEBF 		b	chMtxObjectInit
 2347              	.LVL236:
 2348              	.L122:
 2349 0006 00BF     		.align	2
 2350              	.L121:
 2351 0008 00000000 		.word	.LANCHOR5
 2352              		.cfi_endproc
 2353              	.LFE249:
 2354              		.size	bmk12_setup, .-bmk12_setup
 2355              		.global	patternbmk
 2356              		.global	testbmk13
 2357              		.global	testbmk12
 2358              		.global	testbmk11
 2359              		.global	testbmk10
 2360              		.global	testbmk9
 2361              		.global	testbmk8
 2362              		.global	testbmk7
 2363              		.global	testbmk6
 2364              		.global	testbmk5
 2365              		.global	testbmk4
 2366              		.global	testbmk3
 2367              		.global	testbmk2
 2368              		.global	testbmk1
 2369 000c AFF30080 		.section	.rodata.testbmk8,"a",%progbits
 2370              		.align	2
 2371              		.type	testbmk8, %object
 2372              		.size	testbmk8, 16
 2373              	testbmk8:
 2374 0000 D0010000 		.word	.LC25
 2375 0004 00000000 		.word	0
 2376 0008 00000000 		.word	0
 2377 000c 00000000 		.word	bmk8_execute
 2378              		.section	.bss.iq.6583,"aw",%nobits
ARM GAS  /tmp/ccDswwlK.s 			page 43


 2379              		.align	2
 2380              		.set	.LANCHOR2,. + 0
 2381              		.type	iq.6583, %object
 2382              		.size	iq.6583, 36
 2383              	iq.6583:
 2384 0000 00000000 		.space	36
 2384      00000000 
 2384      00000000 
 2384      00000000 
 2384      00000000 
 2385              		.section	.rodata.testbmk1,"a",%progbits
 2386              		.align	2
 2387              		.type	testbmk1, %object
 2388              		.size	testbmk1, 16
 2389              	testbmk1:
 2390 0000 B0020000 		.word	.LC32
 2391 0004 00000000 		.word	0
 2392 0008 00000000 		.word	0
 2393 000c 00000000 		.word	bmk1_execute
 2394              		.section	.rodata.testbmk2,"a",%progbits
 2395              		.align	2
 2396              		.type	testbmk2, %object
 2397              		.size	testbmk2, 16
 2398              	testbmk2:
 2399 0000 98020000 		.word	.LC31
 2400 0004 00000000 		.word	0
 2401 0008 00000000 		.word	0
 2402 000c 00000000 		.word	bmk2_execute
 2403              		.section	.rodata.testbmk3,"a",%progbits
 2404              		.align	2
 2405              		.type	testbmk3, %object
 2406              		.size	testbmk3, 16
 2407              	testbmk3:
 2408 0000 80020000 		.word	.LC30
 2409 0004 00000000 		.word	0
 2410 0008 00000000 		.word	0
 2411 000c 00000000 		.word	bmk3_execute
 2412              		.section	.bss.ib.6582,"aw",%nobits
 2413              		.align	2
 2414              		.set	.LANCHOR1,. + 0
 2415              		.type	ib.6582, %object
 2416              		.size	ib.6582, 16
 2417              	ib.6582:
 2418 0000 00000000 		.space	16
 2418      00000000 
 2418      00000000 
 2418      00000000 
 2419              		.section	.rodata.testbmk4,"a",%progbits
 2420              		.align	2
 2421              		.type	testbmk4, %object
 2422              		.size	testbmk4, 16
 2423              	testbmk4:
 2424 0000 64020000 		.word	.LC29
 2425 0004 00000000 		.word	0
 2426 0008 00000000 		.word	0
 2427 000c 00000000 		.word	bmk4_execute
 2428              		.section	.bss.mtx1,"aw",%nobits
ARM GAS  /tmp/ccDswwlK.s 			page 44


 2429              		.align	2
 2430              		.set	.LANCHOR5,. + 0
 2431              		.type	mtx1, %object
 2432              		.size	mtx1, 16
 2433              	mtx1:
 2434 0000 00000000 		.space	16
 2434      00000000 
 2434      00000000 
 2434      00000000 
 2435              		.section	.rodata.testbmk13,"a",%progbits
 2436              		.align	2
 2437              		.type	testbmk13, %object
 2438              		.size	testbmk13, 16
 2439              	testbmk13:
 2440 0000 28010000 		.word	.LC20
 2441 0004 00000000 		.word	0
 2442 0008 00000000 		.word	0
 2443 000c 00000000 		.word	bmk13_execute
 2444              		.section	.rodata.str1.4,"aMS",%progbits,1
 2445              		.align	2
 2446              	.LC0:
 2447 0000 2D2D2D20 		.ascii	"--- System: \000"
 2447      53797374 
 2447      656D3A20 
 2447      00
 2448 000d 000000   		.space	3
 2449              	.LC1:
 2450 0010 20627974 		.ascii	" bytes\000"
 2450      657300
 2451 0017 00       		.space	1
 2452              	.LC2:
 2453 0018 2D2D2D20 		.ascii	"--- Thread: \000"
 2453      54687265 
 2453      61643A20 
 2453      00
 2454 0025 000000   		.space	3
 2455              	.LC3:
 2456 0028 2D2D2D20 		.ascii	"--- Timer : \000"
 2456      54696D65 
 2456      72203A20 
 2456      00
 2457 0035 000000   		.space	3
 2458              	.LC4:
 2459 0038 2D2D2D20 		.ascii	"--- Semaph: \000"
 2459      53656D61 
 2459      70683A20 
 2459      00
 2460 0045 000000   		.space	3
 2461              	.LC5:
 2462 0048 2D2D2D20 		.ascii	"--- EventS: \000"
 2462      4576656E 
 2462      74533A20 
 2462      00
 2463 0055 000000   		.space	3
 2464              	.LC6:
 2465 0058 2D2D2D20 		.ascii	"--- EventL: \000"
 2465      4576656E 
ARM GAS  /tmp/ccDswwlK.s 			page 45


 2465      744C3A20 
 2465      00
 2466 0065 000000   		.space	3
 2467              	.LC7:
 2468 0068 2D2D2D20 		.ascii	"--- Mutex : \000"
 2468      4D757465 
 2468      78203A20 
 2468      00
 2469 0075 000000   		.space	3
 2470              	.LC8:
 2471 0078 2D2D2D20 		.ascii	"--- CondV.: \000"
 2471      436F6E64 
 2471      562E3A20 
 2471      00
 2472 0085 000000   		.space	3
 2473              	.LC9:
 2474 0088 2D2D2D20 		.ascii	"--- Queue : \000"
 2474      51756575 
 2474      65203A20 
 2474      00
 2475 0095 000000   		.space	3
 2476              	.LC10:
 2477 0098 2D2D2D20 		.ascii	"--- MailB.: \000"
 2477      4D61696C 
 2477      422E3A20 
 2477      00
 2478 00a5 000000   		.space	3
 2479              	.LC11:
 2480 00a8 2D2D2D20 		.ascii	"--- Score : \000"
 2480      53636F72 
 2480      65203A20 
 2480      00
 2481 00b5 000000   		.space	3
 2482              	.LC12:
 2483 00b8 20746872 		.ascii	" threads/S\000"
 2483      65616473 
 2483      2F5300
 2484 00c3 00       		.space	1
 2485              	.LC13:
 2486 00c4 206D7367 		.ascii	" msgs/S, \000"
 2486      732F532C 
 2486      2000
 2487 00ce 0000     		.space	2
 2488              	.LC14:
 2489 00d0 20637478 		.ascii	" ctxswc/S\000"
 2489      7377632F 
 2489      5300
 2490 00da 0000     		.space	2
 2491              	.LC15:
 2492 00dc 20726573 		.ascii	" reschedules/S, \000"
 2492      63686564 
 2492      756C6573 
 2492      2F532C20 
 2492      00
 2493 00ed 000000   		.space	3
 2494              	.LC16:
 2495 00f0 20627974 		.ascii	" bytes/S\000"
ARM GAS  /tmp/ccDswwlK.s 			page 46


 2495      65732F53 
 2495      00
 2496 00f9 000000   		.space	3
 2497              	.LC17:
 2498 00fc 2074696D 		.ascii	" timers/S\000"
 2498      6572732F 
 2498      5300
 2499 0106 0000     		.space	2
 2500              	.LC18:
 2501 0108 20776169 		.ascii	" wait+signal/S\000"
 2501      742B7369 
 2501      676E616C 
 2501      2F5300
 2502 0117 00       		.space	1
 2503              	.LC19:
 2504 0118 206C6F63 		.ascii	" lock+unlock/S\000"
 2504      6B2B756E 
 2504      6C6F636B 
 2504      2F5300
 2505 0127 00       		.space	1
 2506              	.LC20:
 2507 0128 42656E63 		.ascii	"Benchmark, RAM footprint\000"
 2507      686D6172 
 2507      6B2C2052 
 2507      414D2066 
 2507      6F6F7470 
 2508 0141 000000   		.space	3
 2509              	.LC21:
 2510 0144 42656E63 		.ascii	"Benchmark, mutexes lock/unlock\000"
 2510      686D6172 
 2510      6B2C206D 
 2510      75746578 
 2510      6573206C 
 2511 0163 00       		.space	1
 2512              	.LC22:
 2513 0164 42656E63 		.ascii	"Benchmark, semaphores wait/signal\000"
 2513      686D6172 
 2513      6B2C2073 
 2513      656D6170 
 2513      686F7265 
 2514 0186 0000     		.space	2
 2515              	.LC23:
 2516 0188 42656E63 		.ascii	"Benchmark, virtual timers set/reset\000"
 2516      686D6172 
 2516      6B2C2076 
 2516      69727475 
 2516      616C2074 
 2517              	.LC24:
 2518 01ac 42656E63 		.ascii	"Benchmark, I/O Queues throughput\000"
 2518      686D6172 
 2518      6B2C2049 
 2518      2F4F2051 
 2518      75657565 
 2519 01cd 000000   		.space	3
 2520              	.LC25:
 2521 01d0 42656E63 		.ascii	"Benchmark, round robin context switching\000"
 2521      686D6172 
ARM GAS  /tmp/ccDswwlK.s 			page 47


 2521      6B2C2072 
 2521      6F756E64 
 2521      20726F62 
 2522 01f9 000000   		.space	3
 2523              	.LC26:
 2524 01fc 42656E63 		.ascii	"Benchmark, mass reschedule, 5 threads\000"
 2524      686D6172 
 2524      6B2C206D 
 2524      61737320 
 2524      72657363 
 2525 0222 0000     		.space	2
 2526              	.LC27:
 2527 0224 42656E63 		.ascii	"Benchmark, threads, create only\000"
 2527      686D6172 
 2527      6B2C2074 
 2527      68726561 
 2527      64732C20 
 2528              	.LC28:
 2529 0244 42656E63 		.ascii	"Benchmark, threads, full cycle\000"
 2529      686D6172 
 2529      6B2C2074 
 2529      68726561 
 2529      64732C20 
 2530 0263 00       		.space	1
 2531              	.LC29:
 2532 0264 42656E63 		.ascii	"Benchmark, context switch\000"
 2532      686D6172 
 2532      6B2C2063 
 2532      6F6E7465 
 2532      78742073 
 2533 027e 0000     		.space	2
 2534              	.LC30:
 2535 0280 42656E63 		.ascii	"Benchmark, messages #3\000"
 2535      686D6172 
 2535      6B2C206D 
 2535      65737361 
 2535      67657320 
 2536 0297 00       		.space	1
 2537              	.LC31:
 2538 0298 42656E63 		.ascii	"Benchmark, messages #2\000"
 2538      686D6172 
 2538      6B2C206D 
 2538      65737361 
 2538      67657320 
 2539 02af 00       		.space	1
 2540              	.LC32:
 2541 02b0 42656E63 		.ascii	"Benchmark, messages #1\000"
 2541      686D6172 
 2541      6B2C206D 
 2541      65737361 
 2541      67657320 
 2542 02c7 00       		.section	.rodata.testbmk9,"a",%progbits
 2543              		.align	2
 2544              		.type	testbmk9, %object
 2545              		.size	testbmk9, 16
 2546              	testbmk9:
 2547 0000 AC010000 		.word	.LC24
ARM GAS  /tmp/ccDswwlK.s 			page 48


 2548 0004 00000000 		.word	0
 2549 0008 00000000 		.word	0
 2550 000c 00000000 		.word	bmk9_execute
 2551              		.section	.bss.vt2.6594,"aw",%nobits
 2552              		.align	2
 2553              		.set	.LANCHOR4,. + 0
 2554              		.type	vt2.6594, %object
 2555              		.size	vt2.6594, 20
 2556              	vt2.6594:
 2557 0000 00000000 		.space	20
 2557      00000000 
 2557      00000000 
 2557      00000000 
 2557      00000000 
 2558              		.section	.bss.sem1,"aw",%nobits
 2559              		.align	2
 2560              		.set	.LANCHOR0,. + 0
 2561              		.type	sem1, %object
 2562              		.size	sem1, 12
 2563              	sem1:
 2564 0000 00000000 		.space	12
 2564      00000000 
 2564      00000000 
 2565              		.section	.bss.vt1.6593,"aw",%nobits
 2566              		.align	2
 2567              		.set	.LANCHOR3,. + 0
 2568              		.type	vt1.6593, %object
 2569              		.size	vt1.6593, 20
 2570              	vt1.6593:
 2571 0000 00000000 		.space	20
 2571      00000000 
 2571      00000000 
 2571      00000000 
 2571      00000000 
 2572              		.section	.rodata.testbmk10,"a",%progbits
 2573              		.align	2
 2574              		.type	testbmk10, %object
 2575              		.size	testbmk10, 16
 2576              	testbmk10:
 2577 0000 88010000 		.word	.LC23
 2578 0004 00000000 		.word	0
 2579 0008 00000000 		.word	0
 2580 000c 00000000 		.word	bmk10_execute
 2581              		.section	.rodata.testbmk11,"a",%progbits
 2582              		.align	2
 2583              		.type	testbmk11, %object
 2584              		.size	testbmk11, 16
 2585              	testbmk11:
 2586 0000 64010000 		.word	.LC22
 2587 0004 00000000 		.word	bmk11_setup
 2588 0008 00000000 		.word	0
 2589 000c 00000000 		.word	bmk11_execute
 2590              		.section	.rodata.testbmk12,"a",%progbits
 2591              		.align	2
 2592              		.type	testbmk12, %object
 2593              		.size	testbmk12, 16
 2594              	testbmk12:
ARM GAS  /tmp/ccDswwlK.s 			page 49


 2595 0000 44010000 		.word	.LC21
 2596 0004 00000000 		.word	bmk12_setup
 2597 0008 00000000 		.word	0
 2598 000c 00000000 		.word	bmk12_execute
 2599              		.section	.rodata.patternbmk,"a",%progbits
 2600              		.align	2
 2601              		.type	patternbmk, %object
 2602              		.size	patternbmk, 56
 2603              	patternbmk:
 2604 0000 00000000 		.word	testbmk1
 2605 0004 00000000 		.word	testbmk2
 2606 0008 00000000 		.word	testbmk3
 2607 000c 00000000 		.word	testbmk4
 2608 0010 00000000 		.word	testbmk5
 2609 0014 00000000 		.word	testbmk6
 2610 0018 00000000 		.word	testbmk7
 2611 001c 00000000 		.word	testbmk8
 2612 0020 00000000 		.word	testbmk9
 2613 0024 00000000 		.word	testbmk10
 2614 0028 00000000 		.word	testbmk11
 2615 002c 00000000 		.word	testbmk12
 2616 0030 00000000 		.word	testbmk13
 2617 0034 00000000 		.word	0
 2618              		.section	.rodata.testbmk5,"a",%progbits
 2619              		.align	2
 2620              		.type	testbmk5, %object
 2621              		.size	testbmk5, 16
 2622              	testbmk5:
 2623 0000 44020000 		.word	.LC28
 2624 0004 00000000 		.word	0
 2625 0008 00000000 		.word	0
 2626 000c 00000000 		.word	bmk5_execute
 2627              		.section	.rodata.testbmk6,"a",%progbits
 2628              		.align	2
 2629              		.type	testbmk6, %object
 2630              		.size	testbmk6, 16
 2631              	testbmk6:
 2632 0000 24020000 		.word	.LC27
 2633 0004 00000000 		.word	0
 2634 0008 00000000 		.word	0
 2635 000c 00000000 		.word	bmk6_execute
 2636              		.section	.rodata.testbmk7,"a",%progbits
 2637              		.align	2
 2638              		.type	testbmk7, %object
 2639              		.size	testbmk7, 16
 2640              	testbmk7:
 2641 0000 FC010000 		.word	.LC26
 2642 0004 00000000 		.word	bmk7_setup
 2643 0008 00000000 		.word	0
 2644 000c 00000000 		.word	bmk7_execute
 2645              		.text
 2646              	.Letext0:
 2647              		.file 5 "/usr/lib/gcc/arm-none-eabi/5.2.0/include/stddef.h"
 2648              		.file 6 "/usr/arm-none-eabi/include/machine/_default_types.h"
 2649              		.file 7 "/usr/arm-none-eabi/include/stdint.h"
 2650              		.file 8 "../../os/rt/ports/ARMCMx/compilers/GCC/chtypes.h"
 2651              		.file 9 "../../os/rt/include/chsystypes.h"
ARM GAS  /tmp/ccDswwlK.s 			page 50


 2652              		.file 10 "../../os/rt/include/chschd.h"
 2653              		.file 11 "../../os/rt/ports/ARMCMx/chcore.h"
 2654              		.file 12 "../../os/rt/ports/ARMCMx/chcore_v7m.h"
 2655              		.file 13 "../../os/rt/include/chtm.h"
 2656              		.file 14 "../../os/rt/include/chsem.h"
 2657              		.file 15 "../../os/rt/include/chmtx.h"
 2658              		.file 16 "../../test/rt/test.h"
 2659              		.file 17 "../../os/rt/include/chsys.h"
 2660              		.file 18 "../../os/rt/include/chmsg.h"
 2661              		.file 19 "../../os/ext/CMSIS/include/core_cm4.h"
 2662              		.file 20 "../../os/rt/include/chvt.h"