ARM GAS  /tmp/ccTUPkNQ.s 			page 1


   1              		.syntax unified
   2              		.cpu cortex-m4
   3              		.eabi_attribute 27, 1
   4              		.eabi_attribute 28, 1
   5              		.fpu fpv4-sp-d16
   6              		.eabi_attribute 20, 1
   7              		.eabi_attribute 21, 1
   8              		.eabi_attribute 23, 3
   9              		.eabi_attribute 24, 1
  10              		.eabi_attribute 25, 1
  11              		.eabi_attribute 26, 1
  12              		.eabi_attribute 30, 2
  13              		.eabi_attribute 34, 1
  14              		.eabi_attribute 18, 4
  15              		.thumb
  16              		.syntax unified
  17              		.file	"test.c"
  18              		.text
  19              	.Ltext0:
  20              		.cfi_sections	.debug_frame
  21              		.section	.text.tmr,"ax",%progbits
  22              		.align	2
  23              		.p2align 4,,15
  24              		.thumb
  25              		.thumb_func
  26              		.type	tmr, %function
  27              	tmr:
  28              	.LFB273:
  29              		.file 1 "../../test/rt/test.c"
  30              		.loc 1 264 0
  31              		.cfi_startproc
  32              		@ args = 0, pretend = 0, frame = 0
  33              		@ frame_needed = 0, uses_anonymous_args = 0
  34              		@ link register save eliminated.
  35              	.LVL0:
  36              		.loc 1 267 0
  37 0000 014B     		ldr	r3, .L2
  38 0002 0122     		movs	r2, #1
  39 0004 1A70     		strb	r2, [r3]
  40 0006 7047     		bx	lr
  41              	.L3:
  42              		.align	2
  43              	.L2:
  44 0008 00000000 		.word	.LANCHOR0
  45              		.cfi_endproc
  46              	.LFE273:
  47              		.size	tmr, .-tmr
  48 000c AFF30080 		.section	.text.print_line,"ax",%progbits
  49              		.align	2
  50              		.p2align 4,,15
  51              		.thumb
  52              		.thumb_func
  53              		.type	print_line, %function
  54              	print_line:
  55              	.LFB276:
  56              		.loc 1 303 0
  57              		.cfi_startproc
ARM GAS  /tmp/ccTUPkNQ.s 			page 2


  58              		@ args = 0, pretend = 0, frame = 0
  59              		@ frame_needed = 0, uses_anonymous_args = 0
  60              	.LVL1:
  61 0000 70B5     		push	{r4, r5, r6, lr}
  62              		.cfi_def_cfa_offset 16
  63              		.cfi_offset 4, -16
  64              		.cfi_offset 5, -12
  65              		.cfi_offset 6, -8
  66              		.cfi_offset 14, -4
  67 0002 094E     		ldr	r6, .L9
  68              		.loc 1 303 0
  69 0004 4C24     		movs	r4, #76
  70              	.LVL2:
  71              	.L5:
  72              		.loc 1 307 0 discriminator 3
  73 0006 3068     		ldr	r0, [r6]
  74 0008 074D     		ldr	r5, .L9
  75 000a 0368     		ldr	r3, [r0]
  76 000c 2D21     		movs	r1, #45
  77 000e 9B68     		ldr	r3, [r3, #8]
  78 0010 9847     		blx	r3
  79              	.LVL3:
  80              		.loc 1 306 0 discriminator 3
  81 0012 013C     		subs	r4, r4, #1
  82              	.LVL4:
  83 0014 F7D1     		bne	.L5
  84              		.loc 1 308 0
  85 0016 2868     		ldr	r0, [r5]
  86 0018 0449     		ldr	r1, .L9+4
  87 001a 0368     		ldr	r3, [r0]
  88 001c 0222     		movs	r2, #2
  89 001e 1B68     		ldr	r3, [r3]
  90              		.loc 1 309 0
  91 0020 BDE87040 		pop	{r4, r5, r6, lr}
  92              		.cfi_restore 14
  93              		.cfi_restore 6
  94              		.cfi_restore 5
  95              		.cfi_restore 4
  96              		.cfi_def_cfa_offset 0
  97              	.LVL5:
  98              		.loc 1 308 0
  99 0024 1847     		bx	r3
 100              	.LVL6:
 101              	.L10:
 102 0026 00BF     		.align	2
 103              	.L9:
 104 0028 00000000 		.word	.LANCHOR1
 105 002c 00000000 		.word	.LC0
 106              		.cfi_endproc
 107              	.LFE276:
 108              		.size	print_line, .-print_line
 109              		.section	.text.test_printn,"ax",%progbits
 110              		.align	2
 111              		.p2align 4,,15
 112              		.global	test_printn
 113              		.thumb
 114              		.thumb_func
ARM GAS  /tmp/ccTUPkNQ.s 			page 3


 115              		.type	test_printn, %function
 116              	test_printn:
 117              	.LFB260:
 118              		.loc 1 94 0
 119              		.cfi_startproc
 120              		@ args = 0, pretend = 0, frame = 16
 121              		@ frame_needed = 0, uses_anonymous_args = 0
 122              	.LVL7:
 123              		.loc 1 97 0
 124 0000 10B3     		cbz	r0, .L19
 125              		.loc 1 94 0
 126 0002 70B5     		push	{r4, r5, r6, lr}
 127              		.cfi_def_cfa_offset 16
 128              		.cfi_offset 4, -16
 129              		.cfi_offset 5, -12
 130              		.cfi_offset 6, -8
 131              		.cfi_offset 14, -4
 132              		.loc 1 102 0
 133 0004 134A     		ldr	r2, .L21
 134              		.loc 1 94 0
 135 0006 84B0     		sub	sp, sp, #16
 136              		.cfi_def_cfa_offset 32
 137 0008 6D46     		mov	r5, sp
 138 000a 6C46     		mov	r4, sp
 139              	.L13:
 140              	.LVL8:
 141              		.loc 1 102 0
 142 000c A2FB0013 		umull	r1, r3, r2, r0
 143 0010 DB08     		lsrs	r3, r3, #3
 144 0012 03EB8301 		add	r1, r3, r3, lsl #2
 145 0016 A0EB4100 		sub	r0, r0, r1, lsl #1
 146              	.LVL9:
 147 001a 00F13001 		add	r1, r0, #48
 148 001e C9B2     		uxtb	r1, r1
 149 0020 04F8011B 		strb	r1, [r4], #1
 150              	.LVL10:
 151              		.loc 1 101 0
 152 0024 1846     		mov	r0, r3
 153 0026 002B     		cmp	r3, #0
 154 0028 F0D1     		bne	.L13
 155              		.loc 1 103 0
 156 002a AC42     		cmp	r4, r5
 157 002c 0AD9     		bls	.L11
 158 002e 0A4E     		ldr	r6, .L21+4
 159 0030 013C     		subs	r4, r4, #1
 160              	.LVL11:
 161 0032 01E0     		b	.L15
 162              	.LVL12:
 163              	.L20:
 164 0034 14F8011D 		ldrb	r1, [r4, #-1]!	@ zero_extendqisi2
 165              	.LVL13:
 166              	.L15:
 167              		.loc 1 104 0
 168 0038 3068     		ldr	r0, [r6]
 169              	.LVL14:
 170 003a 0368     		ldr	r3, [r0]
 171 003c 9B68     		ldr	r3, [r3, #8]
ARM GAS  /tmp/ccTUPkNQ.s 			page 4


 172 003e 9847     		blx	r3
 173              	.LVL15:
 174              		.loc 1 103 0
 175 0040 AC42     		cmp	r4, r5
 176 0042 F7D1     		bne	.L20
 177              	.LVL16:
 178              	.L11:
 179              		.loc 1 106 0
 180 0044 04B0     		add	sp, sp, #16
 181              		.cfi_def_cfa_offset 16
 182              		@ sp needed
 183 0046 70BD     		pop	{r4, r5, r6, pc}
 184              	.LVL17:
 185              	.L19:
 186              		.cfi_def_cfa_offset 0
 187              		.cfi_restore 4
 188              		.cfi_restore 5
 189              		.cfi_restore 6
 190              		.cfi_restore 14
 191              	.LBB173:
 192              	.LBB174:
 193              		.loc 1 98 0
 194 0048 034B     		ldr	r3, .L21+4
 195 004a 1868     		ldr	r0, [r3]
 196              	.LVL18:
 197 004c 0368     		ldr	r3, [r0]
 198 004e 3021     		movs	r1, #48
 199 0050 9B68     		ldr	r3, [r3, #8]
 200 0052 1847     		bx	r3
 201              	.LVL19:
 202              	.L22:
 203              		.align	2
 204              	.L21:
 205 0054 CDCCCCCC 		.word	-858993459
 206 0058 00000000 		.word	.LANCHOR1
 207              	.LBE174:
 208              	.LBE173:
 209              		.cfi_endproc
 210              	.LFE260:
 211              		.size	test_printn, .-test_printn
 212 005c AFF30080 		.section	.text.test_print,"ax",%progbits
 213              		.align	2
 214              		.p2align 4,,15
 215              		.global	test_print
 216              		.thumb
 217              		.thumb_func
 218              		.type	test_print, %function
 219              	test_print:
 220              	.LFB261:
 221              		.loc 1 113 0
 222              		.cfi_startproc
 223              		@ args = 0, pretend = 0, frame = 0
 224              		@ frame_needed = 0, uses_anonymous_args = 0
 225              	.LVL20:
 226              		.loc 1 115 0
 227 0000 0178     		ldrb	r1, [r0]	@ zero_extendqisi2
 228 0002 59B1     		cbz	r1, .L29
ARM GAS  /tmp/ccTUPkNQ.s 			page 5


 229              		.loc 1 113 0
 230 0004 38B5     		push	{r3, r4, r5, lr}
 231              		.cfi_def_cfa_offset 16
 232              		.cfi_offset 3, -16
 233              		.cfi_offset 4, -12
 234              		.cfi_offset 5, -8
 235              		.cfi_offset 14, -4
 236 0006 064D     		ldr	r5, .L30
 237 0008 0446     		mov	r4, r0
 238              	.LVL21:
 239              	.L25:
 240              		.loc 1 116 0
 241 000a 2868     		ldr	r0, [r5]
 242 000c 0368     		ldr	r3, [r0]
 243 000e 9B68     		ldr	r3, [r3, #8]
 244 0010 9847     		blx	r3
 245              	.LVL22:
 246              		.loc 1 115 0
 247 0012 14F8011F 		ldrb	r1, [r4, #1]!	@ zero_extendqisi2
 248              	.LVL23:
 249 0016 0029     		cmp	r1, #0
 250 0018 F7D1     		bne	.L25
 251 001a 38BD     		pop	{r3, r4, r5, pc}
 252              	.LVL24:
 253              	.L29:
 254              		.cfi_def_cfa_offset 0
 255              		.cfi_restore 3
 256              		.cfi_restore 4
 257              		.cfi_restore 5
 258              		.cfi_restore 14
 259 001c 7047     		bx	lr
 260              	.L31:
 261 001e 00BF     		.align	2
 262              	.L30:
 263 0020 00000000 		.word	.LANCHOR1
 264              		.cfi_endproc
 265              	.LFE261:
 266              		.size	test_print, .-test_print
 267 0024 AFF30080 		.section	.text.test_println,"ax",%progbits
 267      AFF30080 
 267      AFF30080 
 268              		.align	2
 269              		.p2align 4,,15
 270              		.global	test_println
 271              		.thumb
 272              		.thumb_func
 273              		.type	test_println, %function
 274              	test_println:
 275              	.LFB262:
 276              		.loc 1 124 0
 277              		.cfi_startproc
 278              		@ args = 0, pretend = 0, frame = 0
 279              		@ frame_needed = 0, uses_anonymous_args = 0
 280              	.LVL25:
 281 0000 70B5     		push	{r4, r5, r6, lr}
 282              		.cfi_def_cfa_offset 16
 283              		.cfi_offset 4, -16
ARM GAS  /tmp/ccTUPkNQ.s 			page 6


 284              		.cfi_offset 5, -12
 285              		.cfi_offset 6, -8
 286              		.cfi_offset 14, -4
 287              	.LBB175:
 288              	.LBB176:
 289              		.loc 1 115 0
 290 0002 0178     		ldrb	r1, [r0]	@ zero_extendqisi2
 291 0004 89B1     		cbz	r1, .L38
 292 0006 0A4D     		ldr	r5, .L39
 293 0008 0446     		mov	r4, r0
 294              	.LVL26:
 295              	.L34:
 296              		.loc 1 116 0
 297 000a 2868     		ldr	r0, [r5]
 298 000c 0368     		ldr	r3, [r0]
 299 000e 9B68     		ldr	r3, [r3, #8]
 300 0010 9847     		blx	r3
 301              	.LVL27:
 302              		.loc 1 115 0
 303 0012 14F8011F 		ldrb	r1, [r4, #1]!	@ zero_extendqisi2
 304              	.LVL28:
 305 0016 0029     		cmp	r1, #0
 306 0018 F7D1     		bne	.L34
 307              	.LVL29:
 308              	.L35:
 309              	.LBE176:
 310              	.LBE175:
 311              		.loc 1 127 0
 312 001a 2868     		ldr	r0, [r5]
 313 001c 0549     		ldr	r1, .L39+4
 314 001e 0368     		ldr	r3, [r0]
 315 0020 0222     		movs	r2, #2
 316 0022 1B68     		ldr	r3, [r3]
 317              		.loc 1 128 0
 318 0024 BDE87040 		pop	{r4, r5, r6, lr}
 319              		.cfi_remember_state
 320              		.cfi_restore 14
 321              		.cfi_restore 6
 322              		.cfi_restore 5
 323              		.cfi_restore 4
 324              		.cfi_def_cfa_offset 0
 325              		.loc 1 127 0
 326 0028 1847     		bx	r3
 327              	.LVL30:
 328              	.L38:
 329              		.cfi_restore_state
 330 002a 014D     		ldr	r5, .L39
 331 002c F5E7     		b	.L35
 332              	.L40:
 333 002e 00BF     		.align	2
 334              	.L39:
 335 0030 00000000 		.word	.LANCHOR1
 336 0034 00000000 		.word	.LC0
 337              		.cfi_endproc
 338              	.LFE262:
 339              		.size	test_println, .-test_println
 340 0038 AFF30080 		.section	.text.test_emit_token,"ax",%progbits
ARM GAS  /tmp/ccTUPkNQ.s 			page 7


 340      AFF30080 
 341              		.align	2
 342              		.p2align 4,,15
 343              		.global	test_emit_token
 344              		.thumb
 345              		.thumb_func
 346              		.type	test_emit_token, %function
 347              	test_emit_token:
 348              	.LFB265:
 349              		.loc 1 150 0
 350              		.cfi_startproc
 351              		@ args = 0, pretend = 0, frame = 0
 352              		@ frame_needed = 0, uses_anonymous_args = 0
 353              		@ link register save eliminated.
 354              	.LVL31:
 355              	.LBB177:
 356              	.LBB178:
 357              	.LBB179:
 358              	.LBB180:
 359              		.file 2 "../../os/ext/CMSIS/include/core_cmFunc.h"
 360              		.loc 2 546 0
 361 0000 2023     		movs	r3, #32
 362              		.syntax unified
 363              	@ 546 "../../os/ext/CMSIS/include/core_cmFunc.h" 1
 364 0002 83F31188 		MSR basepri, r3
 365              	@ 0 "" 2
 366              		.thumb
 367              		.syntax unified
 368              	.LBE180:
 369              	.LBE179:
 370              	.LBE178:
 371              	.LBE177:
 372              		.loc 1 153 0
 373 0006 044B     		ldr	r3, .L42
 374 0008 1A68     		ldr	r2, [r3]
 375 000a 511C     		adds	r1, r2, #1
 376 000c 1960     		str	r1, [r3]
 377 000e 1070     		strb	r0, [r2]
 378              	.LVL32:
 379              	.LBB181:
 380              	.LBB182:
 381              	.LBB183:
 382              	.LBB184:
 383              	.LBB185:
 384              		.loc 2 546 0
 385 0010 0023     		movs	r3, #0
 386              		.syntax unified
 387              	@ 546 "../../os/ext/CMSIS/include/core_cmFunc.h" 1
 388 0012 83F31188 		MSR basepri, r3
 389              	@ 0 "" 2
 390              		.thumb
 391              		.syntax unified
 392 0016 7047     		bx	lr
 393              	.L43:
 394              		.align	2
 395              	.L42:
 396 0018 00000000 		.word	.LANCHOR2
ARM GAS  /tmp/ccTUPkNQ.s 			page 8


 397              	.LBE185:
 398              	.LBE184:
 399              	.LBE183:
 400              	.LBE182:
 401              	.LBE181:
 402              		.cfi_endproc
 403              	.LFE265:
 404              		.size	test_emit_token, .-test_emit_token
 405 001c AFF30080 		.section	.text._test_fail,"ax",%progbits
 406              		.align	2
 407              		.p2align 4,,15
 408              		.global	_test_fail
 409              		.thumb
 410              		.thumb_func
 411              		.type	_test_fail, %function
 412              	_test_fail:
 413              	.LFB266:
 414              		.loc 1 160 0
 415              		.cfi_startproc
 416              		@ args = 0, pretend = 0, frame = 0
 417              		@ frame_needed = 0, uses_anonymous_args = 0
 418              		@ link register save eliminated.
 419              	.LVL33:
 420              		.loc 1 164 0
 421 0000 0349     		ldr	r1, .L45
 422              		.loc 1 162 0
 423 0002 044A     		ldr	r2, .L45+4
 424              		.loc 1 163 0
 425 0004 044B     		ldr	r3, .L45+8
 426              		.loc 1 164 0
 427 0006 0860     		str	r0, [r1]
 428              		.loc 1 162 0
 429 0008 0120     		movs	r0, #1
 430              	.LVL34:
 431 000a 1070     		strb	r0, [r2]
 432              		.loc 1 163 0
 433 000c 1870     		strb	r0, [r3]
 434              		.loc 1 166 0
 435 000e 7047     		bx	lr
 436              	.L46:
 437              		.align	2
 438              	.L45:
 439 0010 00000000 		.word	.LANCHOR5
 440 0014 00000000 		.word	.LANCHOR3
 441 0018 00000000 		.word	.LANCHOR4
 442              		.cfi_endproc
 443              	.LFE266:
 444              		.size	_test_fail, .-_test_fail
 445 001c AFF30080 		.section	.text._test_assert,"ax",%progbits
 446              		.align	2
 447              		.p2align 4,,15
 448              		.global	_test_assert
 449              		.thumb
 450              		.thumb_func
 451              		.type	_test_assert, %function
 452              	_test_assert:
 453              	.LFB267:
ARM GAS  /tmp/ccTUPkNQ.s 			page 9


 454              		.loc 1 168 0
 455              		.cfi_startproc
 456              		@ args = 0, pretend = 0, frame = 0
 457              		@ frame_needed = 0, uses_anonymous_args = 0
 458              		@ link register save eliminated.
 459              	.LVL35:
 460              		.loc 1 170 0
 461 0000 59B9     		cbnz	r1, .L49
 462              	.LVL36:
 463              		.loc 1 168 0
 464 0002 10B4     		push	{r4}
 465              		.cfi_def_cfa_offset 4
 466              		.cfi_offset 4, -4
 467              	.LBB186:
 468              	.LBB187:
 469              		.loc 1 163 0
 470 0004 0649     		ldr	r1, .L52
 471              	.LVL37:
 472              		.loc 1 162 0
 473 0006 074C     		ldr	r4, .L52+4
 474              		.loc 1 164 0
 475 0008 074A     		ldr	r2, .L52+8
 476              		.loc 1 162 0
 477 000a 0123     		movs	r3, #1
 478 000c 2370     		strb	r3, [r4]
 479              		.loc 1 164 0
 480 000e 1060     		str	r0, [r2]
 481              		.loc 1 163 0
 482 0010 0B70     		strb	r3, [r1]
 483              	.LBE187:
 484              	.LBE186:
 485              		.loc 1 173 0
 486 0012 1846     		mov	r0, r3
 487              	.LVL38:
 488 0014 5DF8044B 		ldr	r4, [sp], #4
 489              		.cfi_restore 4
 490              		.cfi_def_cfa_offset 0
 491 0018 7047     		bx	lr
 492              	.LVL39:
 493              	.L49:
 494              		.loc 1 172 0
 495 001a 0023     		movs	r3, #0
 496              		.loc 1 173 0
 497 001c 1846     		mov	r0, r3
 498              	.LVL40:
 499 001e 7047     		bx	lr
 500              	.L53:
 501              		.align	2
 502              	.L52:
 503 0020 00000000 		.word	.LANCHOR4
 504 0024 00000000 		.word	.LANCHOR3
 505 0028 00000000 		.word	.LANCHOR5
 506              		.cfi_endproc
 507              	.LFE267:
 508              		.size	_test_assert, .-_test_assert
 509 002c AFF30080 		.section	.text._test_assert_sequence,"ax",%progbits
 510              		.align	2
ARM GAS  /tmp/ccTUPkNQ.s 			page 10


 511              		.p2align 4,,15
 512              		.global	_test_assert_sequence
 513              		.thumb
 514              		.thumb_func
 515              		.type	_test_assert_sequence, %function
 516              	_test_assert_sequence:
 517              	.LFB268:
 518              		.loc 1 175 0
 519              		.cfi_startproc
 520              		@ args = 0, pretend = 0, frame = 0
 521              		@ frame_needed = 0, uses_anonymous_args = 0
 522              		@ link register save eliminated.
 523              	.LVL41:
 524 0000 F0B4     		push	{r4, r5, r6, r7}
 525              		.cfi_def_cfa_offset 16
 526              		.cfi_offset 4, -16
 527              		.cfi_offset 5, -12
 528              		.cfi_offset 6, -8
 529              		.cfi_offset 7, -4
 530 0002 0E4E     		ldr	r6, .L61
 531              		.loc 1 176 0
 532 0004 0E4F     		ldr	r7, .L61+4
 533 0006 3568     		ldr	r5, [r6]
 534 0008 3B46     		mov	r3, r7
 535              		.loc 1 177 0
 536 000a 05E0     		b	.L55
 537              	.LVL42:
 538              	.L57:
 539              		.loc 1 178 0
 540 000c 13F8014B 		ldrb	r4, [r3], #1	@ zero_extendqisi2
 541              	.LVL43:
 542 0010 11F8012B 		ldrb	r2, [r1], #1	@ zero_extendqisi2
 543              	.LVL44:
 544 0014 9442     		cmp	r4, r2
 545 0016 07D1     		bne	.L58
 546              	.LVL45:
 547              	.L55:
 548              		.loc 1 177 0
 549 0018 AB42     		cmp	r3, r5
 550 001a F7D3     		bcc	.L57
 551              		.loc 1 181 0
 552 001c 0B78     		ldrb	r3, [r1]	@ zero_extendqisi2
 553              	.LVL46:
 554 001e 1BB9     		cbnz	r3, .L58
 555              	.LBB188:
 556              	.LBB189:
 557              		.loc 1 135 0
 558 0020 3760     		str	r7, [r6]
 559              	.LBE189:
 560              	.LBE188:
 561              		.loc 1 185 0
 562 0022 1846     		mov	r0, r3
 563              	.LVL47:
 564 0024 F0BC     		pop	{r4, r5, r6, r7}
 565              		.cfi_remember_state
 566              		.cfi_restore 4
 567              		.cfi_restore 5
ARM GAS  /tmp/ccTUPkNQ.s 			page 11


 568              		.cfi_restore 6
 569              		.cfi_restore 7
 570              		.cfi_def_cfa_offset 0
 571 0026 7047     		bx	lr
 572              	.LVL48:
 573              	.L58:
 574              		.cfi_restore_state
 575              	.LBB190:
 576              	.LBB191:
 577              		.loc 1 162 0
 578 0028 064C     		ldr	r4, .L61+8
 579              		.loc 1 163 0
 580 002a 0749     		ldr	r1, .L61+12
 581              		.loc 1 164 0
 582 002c 074A     		ldr	r2, .L61+16
 583              		.loc 1 162 0
 584 002e 0123     		movs	r3, #1
 585 0030 2370     		strb	r3, [r4]
 586              		.loc 1 164 0
 587 0032 1060     		str	r0, [r2]
 588              		.loc 1 163 0
 589 0034 0B70     		strb	r3, [r1]
 590              	.LBE191:
 591              	.LBE190:
 592              		.loc 1 185 0
 593 0036 1846     		mov	r0, r3
 594              	.LVL49:
 595 0038 F0BC     		pop	{r4, r5, r6, r7}
 596              		.cfi_restore 7
 597              		.cfi_restore 6
 598              		.cfi_restore 5
 599              		.cfi_restore 4
 600              		.cfi_def_cfa_offset 0
 601 003a 7047     		bx	lr
 602              	.L62:
 603              		.align	2
 604              	.L61:
 605 003c 00000000 		.word	.LANCHOR2
 606 0040 00000000 		.word	.LANCHOR6
 607 0044 00000000 		.word	.LANCHOR3
 608 0048 00000000 		.word	.LANCHOR4
 609 004c 00000000 		.word	.LANCHOR5
 610              		.cfi_endproc
 611              	.LFE268:
 612              		.size	_test_assert_sequence, .-_test_assert_sequence
 613              		.section	.text._test_assert_time_window,"ax",%progbits
 614              		.align	2
 615              		.p2align 4,,15
 616              		.global	_test_assert_time_window
 617              		.thumb
 618              		.thumb_func
 619              		.type	_test_assert_time_window, %function
 620              	_test_assert_time_window:
 621              	.LFB269:
 622              		.loc 1 187 0
 623              		.cfi_startproc
 624              		@ args = 0, pretend = 0, frame = 0
ARM GAS  /tmp/ccTUPkNQ.s 			page 12


 625              		@ frame_needed = 0, uses_anonymous_args = 0
 626              		@ link register save eliminated.
 627              	.LVL50:
 628 0000 10B4     		push	{r4}
 629              		.cfi_def_cfa_offset 4
 630              		.cfi_offset 4, -4
 631              	.LBB192:
 632              	.LBB193:
 633              	.LBB194:
 634              	.LBB195:
 635              	.LBB196:
 636              	.LBB197:
 637              	.LBB198:
 638              		.loc 2 546 0
 639 0002 2023     		movs	r3, #32
 640              		.syntax unified
 641              	@ 546 "../../os/ext/CMSIS/include/core_cmFunc.h" 1
 642 0004 83F31188 		MSR basepri, r3
 643              	@ 0 "" 2
 644              		.thumb
 645              		.syntax unified
 646              	.LBE198:
 647              	.LBE197:
 648              	.LBE196:
 649              	.LBE195:
 650              	.LBB199:
 651              	.LBB200:
 652              	.LBB201:
 653              	.LBB202:
 654              		.file 3 "../../os/hal/ports/STM32/LLD/TIMv1/st_lld.h"
 655              		.loc 3 129 0
 656 0008 4FF08044 		mov	r4, #1073741824
 657              	.LBE202:
 658              	.LBE201:
 659              	.LBE200:
 660              	.LBE199:
 661              	.LBB206:
 662              	.LBB207:
 663              	.LBB208:
 664              	.LBB209:
 665              	.LBB210:
 666              		.loc 2 546 0
 667 000c 0023     		movs	r3, #0
 668              	.LBE210:
 669              	.LBE209:
 670              	.LBE208:
 671              	.LBE207:
 672              	.LBE206:
 673              	.LBB215:
 674              	.LBB205:
 675              	.LBB204:
 676              	.LBB203:
 677              		.loc 3 129 0
 678 000e 646A     		ldr	r4, [r4, #36]
 679              	.LVL51:
 680              	.LBE203:
 681              	.LBE204:
ARM GAS  /tmp/ccTUPkNQ.s 			page 13


 682              	.LBE205:
 683              	.LBE215:
 684              	.LBB216:
 685              	.LBB214:
 686              	.LBB213:
 687              	.LBB212:
 688              	.LBB211:
 689              		.loc 2 546 0
 690              		.syntax unified
 691              	@ 546 "../../os/ext/CMSIS/include/core_cmFunc.h" 1
 692 0010 83F31188 		MSR basepri, r3
 693              	@ 0 "" 2
 694              	.LVL52:
 695              		.thumb
 696              		.syntax unified
 697              	.LBE211:
 698              	.LBE212:
 699              	.LBE213:
 700              	.LBE214:
 701              	.LBE216:
 702              	.LBE194:
 703              	.LBE193:
 704              	.LBE192:
 705              	.LBB217:
 706              	.LBB218:
 707              		.loc 1 170 0
 708 0014 641A     		subs	r4, r4, r1
 709 0016 521A     		subs	r2, r2, r1
 710              	.LVL53:
 711 0018 9442     		cmp	r4, r2
 712 001a 06D3     		bcc	.L64
 713              	.LVL54:
 714              	.LBB219:
 715              	.LBB220:
 716              		.loc 1 162 0
 717 001c 054C     		ldr	r4, .L67
 718              		.loc 1 163 0
 719 001e 0649     		ldr	r1, .L67+4
 720              	.LVL55:
 721              		.loc 1 164 0
 722 0020 064A     		ldr	r2, .L67+8
 723              		.loc 1 162 0
 724 0022 0123     		movs	r3, #1
 725 0024 2370     		strb	r3, [r4]
 726              		.loc 1 163 0
 727 0026 0B70     		strb	r3, [r1]
 728              		.loc 1 164 0
 729 0028 1060     		str	r0, [r2]
 730              	.LVL56:
 731              	.L64:
 732              	.LBE220:
 733              	.LBE219:
 734              	.LBE218:
 735              	.LBE217:
 736              		.loc 1 190 0
 737 002a 1846     		mov	r0, r3
 738              	.LVL57:
ARM GAS  /tmp/ccTUPkNQ.s 			page 14


 739 002c 5DF8044B 		ldr	r4, [sp], #4
 740              		.cfi_restore 4
 741              		.cfi_def_cfa_offset 0
 742 0030 7047     		bx	lr
 743              	.L68:
 744 0032 00BF     		.align	2
 745              	.L67:
 746 0034 00000000 		.word	.LANCHOR3
 747 0038 00000000 		.word	.LANCHOR4
 748 003c 00000000 		.word	.LANCHOR5
 749              		.cfi_endproc
 750              	.LFE269:
 751              		.size	_test_assert_time_window, .-_test_assert_time_window
 752              		.section	.text.test_terminate_threads,"ax",%progbits
 753              		.align	2
 754              		.p2align 4,,15
 755              		.global	test_terminate_threads
 756              		.thumb
 757              		.thumb_func
 758              		.type	test_terminate_threads, %function
 759              	test_terminate_threads:
 760              	.LFB270:
 761              		.loc 1 199 0
 762              		.cfi_startproc
 763              		@ args = 0, pretend = 0, frame = 0
 764              		@ frame_needed = 0, uses_anonymous_args = 0
 765              	.LVL58:
 766 0000 38B5     		push	{r3, r4, r5, lr}
 767              		.cfi_def_cfa_offset 16
 768              		.cfi_offset 3, -16
 769              		.cfi_offset 4, -12
 770              		.cfi_offset 5, -8
 771              		.cfi_offset 14, -4
 772 0002 064C     		ldr	r4, .L77
 773 0004 04F11405 		add	r5, r4, #20
 774              	.LVL59:
 775              	.L71:
 776              		.loc 1 203 0
 777 0008 54F8043B 		ldr	r3, [r4], #4
 778              		.loc 1 204 0
 779 000c 1846     		mov	r0, r3
 780              		.loc 1 203 0
 781 000e 0BB1     		cbz	r3, .L70
 782              		.loc 1 204 0
 783 0010 FFF7FEFF 		bl	chThdTerminate
 784              	.LVL60:
 785              	.L70:
 786              		.loc 1 202 0 discriminator 2
 787 0014 AC42     		cmp	r4, r5
 788 0016 F7D1     		bne	.L71
 789              		.loc 1 205 0
 790 0018 38BD     		pop	{r3, r4, r5, pc}
 791              	.L78:
 792 001a 00BF     		.align	2
 793              	.L77:
 794 001c 00000000 		.word	.LANCHOR7
 795              		.cfi_endproc
ARM GAS  /tmp/ccTUPkNQ.s 			page 15


 796              	.LFE270:
 797              		.size	test_terminate_threads, .-test_terminate_threads
 798              		.section	.text.test_wait_threads,"ax",%progbits
 799              		.align	2
 800              		.p2align 4,,15
 801              		.global	test_wait_threads
 802              		.thumb
 803              		.thumb_func
 804              		.type	test_wait_threads, %function
 805              	test_wait_threads:
 806              	.LFB271:
 807              		.loc 1 210 0
 808              		.cfi_startproc
 809              		@ args = 0, pretend = 0, frame = 0
 810              		@ frame_needed = 0, uses_anonymous_args = 0
 811              	.LVL61:
 812 0000 70B5     		push	{r4, r5, r6, lr}
 813              		.cfi_def_cfa_offset 16
 814              		.cfi_offset 4, -16
 815              		.cfi_offset 5, -12
 816              		.cfi_offset 6, -8
 817              		.cfi_offset 14, -4
 818 0002 074C     		ldr	r4, .L87
 819              		.loc 1 216 0
 820 0004 0026     		movs	r6, #0
 821 0006 04F11405 		add	r5, r4, #20
 822              	.LVL62:
 823              	.L81:
 824              		.loc 1 214 0
 825 000a 54F8040B 		ldr	r0, [r4], #4
 826 000e 18B1     		cbz	r0, .L80
 827              		.loc 1 215 0
 828 0010 FFF7FEFF 		bl	chThdWait
 829              	.LVL63:
 830              		.loc 1 216 0
 831 0014 44F8046C 		str	r6, [r4, #-4]
 832              	.L80:
 833              		.loc 1 213 0 discriminator 2
 834 0018 AC42     		cmp	r4, r5
 835 001a F6D1     		bne	.L81
 836              		.loc 1 218 0
 837 001c 70BD     		pop	{r4, r5, r6, pc}
 838              	.L88:
 839 001e 00BF     		.align	2
 840              	.L87:
 841 0020 00000000 		.word	.LANCHOR7
 842              		.cfi_endproc
 843              	.LFE271:
 844              		.size	test_wait_threads, .-test_wait_threads
 845 0024 AFF30080 		.section	.text.test_wait_tick,"ax",%progbits
 845      AFF30080 
 845      AFF30080 
 846              		.align	2
 847              		.p2align 4,,15
 848              		.global	test_wait_tick
 849              		.thumb
 850              		.thumb_func
ARM GAS  /tmp/ccTUPkNQ.s 			page 16


 851              		.type	test_wait_tick, %function
 852              	test_wait_tick:
 853              	.LFB272:
 854              		.loc 1 248 0
 855              		.cfi_startproc
 856              		@ args = 0, pretend = 0, frame = 0
 857              		@ frame_needed = 0, uses_anonymous_args = 0
 858 0000 08B5     		push	{r3, lr}
 859              		.cfi_def_cfa_offset 8
 860              		.cfi_offset 3, -8
 861              		.cfi_offset 14, -4
 862              		.loc 1 250 0
 863 0002 0120     		movs	r0, #1
 864 0004 FFF7FEFF 		bl	chThdSleep
 865              	.LVL64:
 866              	.LBB221:
 867              	.LBB222:
 868              	.LBB223:
 869              	.LBB224:
 870              	.LBB225:
 871              	.LBB226:
 872              		.loc 2 546 0
 873 0008 2023     		movs	r3, #32
 874              		.syntax unified
 875              	@ 546 "../../os/ext/CMSIS/include/core_cmFunc.h" 1
 876 000a 83F31188 		MSR basepri, r3
 877              	@ 0 "" 2
 878              		.thumb
 879              		.syntax unified
 880              	.LBE226:
 881              	.LBE225:
 882              	.LBE224:
 883              	.LBE223:
 884              	.LBB227:
 885              	.LBB228:
 886              	.LBB229:
 887              	.LBB230:
 888              		.loc 3 129 0
 889 000e 4FF08042 		mov	r2, #1073741824
 890              	.LBE230:
 891              	.LBE229:
 892              	.LBE228:
 893              	.LBE227:
 894              	.LBB234:
 895              	.LBB235:
 896              	.LBB236:
 897              	.LBB237:
 898              	.LBB238:
 899              		.loc 2 546 0
 900 0012 0023     		movs	r3, #0
 901              	.LBE238:
 902              	.LBE237:
 903              	.LBE236:
 904              	.LBE235:
 905              	.LBE234:
 906              	.LBB243:
 907              	.LBB233:
ARM GAS  /tmp/ccTUPkNQ.s 			page 17


 908              	.LBB232:
 909              	.LBB231:
 910              		.loc 3 129 0
 911 0014 506A     		ldr	r0, [r2, #36]
 912              	.LVL65:
 913              	.LBE231:
 914              	.LBE232:
 915              	.LBE233:
 916              	.LBE243:
 917              	.LBB244:
 918              	.LBB242:
 919              	.LBB241:
 920              	.LBB240:
 921              	.LBB239:
 922              		.loc 2 546 0
 923              		.syntax unified
 924              	@ 546 "../../os/ext/CMSIS/include/core_cmFunc.h" 1
 925 0016 83F31188 		MSR basepri, r3
 926              	@ 0 "" 2
 927              		.thumb
 928              		.syntax unified
 929              	.LBE239:
 930              	.LBE240:
 931              	.LBE241:
 932              	.LBE242:
 933              	.LBE244:
 934              	.LBE222:
 935              	.LBE221:
 936              		.loc 1 252 0
 937 001a 08BD     		pop	{r3, pc}
 938              		.cfi_endproc
 939              	.LFE272:
 940              		.size	test_wait_tick, .-test_wait_tick
 941 001c AFF30080 		.section	.text.test_start_timer,"ax",%progbits
 942              		.align	2
 943              		.p2align 4,,15
 944              		.global	test_start_timer
 945              		.thumb
 946              		.thumb_func
 947              		.type	test_start_timer, %function
 948              	test_start_timer:
 949              	.LFB274:
 950              		.loc 1 275 0
 951              		.cfi_startproc
 952              		@ args = 0, pretend = 0, frame = 0
 953              		@ frame_needed = 0, uses_anonymous_args = 0
 954              	.LVL66:
 955 0000 10B5     		push	{r4, lr}
 956              		.cfi_def_cfa_offset 8
 957              		.cfi_offset 4, -8
 958              		.cfi_offset 14, -4
 959              		.loc 1 277 0
 960 0002 42F21074 		movw	r4, #10000
 961 0006 04FB00F0 		mul	r0, r4, r0
 962              	.LVL67:
 963 000a 0D49     		ldr	r1, .L97
 964              		.loc 1 278 0
ARM GAS  /tmp/ccTUPkNQ.s 			page 18


 965 000c 0D4B     		ldr	r3, .L97+4
 966              		.loc 1 277 0
 967 000e 00F2E734 		addw	r4, r0, #999
 968 0012 A1FB0424 		umull	r2, r4, r1, r4
 969              		.loc 1 278 0
 970 0016 0022     		movs	r2, #0
 971 0018 1A70     		strb	r2, [r3]
 972              		.loc 1 277 0
 973 001a A409     		lsrs	r4, r4, #6
 974              	.LVL68:
 975              	.LBB260:
 976              	.LBB261:
 977              	.LBB262:
 978              	.LBB263:
 979              	.LBB264:
 980              		.loc 2 546 0
 981 001c 2023     		movs	r3, #32
 982              		.syntax unified
 983              	@ 546 "../../os/ext/CMSIS/include/core_cmFunc.h" 1
 984 001e 83F31188 		MSR basepri, r3
 985              	@ 0 "" 2
 986              	.LVL69:
 987              		.thumb
 988              		.syntax unified
 989 0022 0948     		ldr	r0, .L97+8
 990              	.LBE264:
 991              	.LBE263:
 992              	.LBE262:
 993              	.LBE261:
 994              	.LBB265:
 995              	.LBB266:
 996              	.LBB267:
 997              	.LBB268:
 998              		.file 4 "../../os/rt/include/chvt.h"
 999              		.loc 4 376 0
 1000 0024 C368     		ldr	r3, [r0, #12]
 1001 0026 0BB1     		cbz	r3, .L92
 1002              		.loc 4 377 0
 1003 0028 FFF7FEFF 		bl	chVTDoResetI
 1004              	.LVL70:
 1005              	.L92:
 1006              	.LBE268:
 1007              	.LBE267:
 1008              		.loc 4 424 0
 1009 002c 2146     		mov	r1, r4
 1010 002e 0023     		movs	r3, #0
 1011 0030 064A     		ldr	r2, .L97+12
 1012 0032 0548     		ldr	r0, .L97+8
 1013 0034 FFF7FEFF 		bl	chVTDoSetI
 1014              	.LVL71:
 1015              	.LBE266:
 1016              	.LBE265:
 1017              	.LBB269:
 1018              	.LBB270:
 1019              	.LBB271:
 1020              	.LBB272:
 1021              	.LBB273:
ARM GAS  /tmp/ccTUPkNQ.s 			page 19


 1022              		.loc 2 546 0
 1023 0038 0023     		movs	r3, #0
 1024              		.syntax unified
 1025              	@ 546 "../../os/ext/CMSIS/include/core_cmFunc.h" 1
 1026 003a 83F31188 		MSR basepri, r3
 1027              	@ 0 "" 2
 1028              		.thumb
 1029              		.syntax unified
 1030 003e 10BD     		pop	{r4, pc}
 1031              	.LVL72:
 1032              	.L98:
 1033              		.align	2
 1034              	.L97:
 1035 0040 D34D6210 		.word	274877907
 1036 0044 00000000 		.word	.LANCHOR0
 1037 0048 00000000 		.word	.LANCHOR8
 1038 004c 00000000 		.word	tmr
 1039              	.LBE273:
 1040              	.LBE272:
 1041              	.LBE271:
 1042              	.LBE270:
 1043              	.LBE269:
 1044              	.LBE260:
 1045              		.cfi_endproc
 1046              	.LFE274:
 1047              		.size	test_start_timer, .-test_start_timer
 1048              		.section	.text.TestThread,"ax",%progbits
 1049              		.align	2
 1050              		.p2align 4,,15
 1051              		.global	TestThread
 1052              		.thumb
 1053              		.thumb_func
 1054              		.type	TestThread, %function
 1055              	TestThread:
 1056              	.LFB277:
 1057              		.loc 1 316 0
 1058              		.cfi_startproc
 1059              		@ args = 0, pretend = 0, frame = 16
 1060              		@ frame_needed = 0, uses_anonymous_args = 0
 1061              	.LVL73:
 1062 0000 2DE9F04F 		push	{r4, r5, r6, r7, r8, r9, r10, fp, lr}
 1063              		.cfi_def_cfa_offset 36
 1064              		.cfi_offset 4, -36
 1065              		.cfi_offset 5, -32
 1066              		.cfi_offset 6, -28
 1067              		.cfi_offset 7, -24
 1068              		.cfi_offset 8, -20
 1069              		.cfi_offset 9, -16
 1070              		.cfi_offset 10, -12
 1071              		.cfi_offset 11, -8
 1072              		.cfi_offset 14, -4
 1073              		.loc 1 319 0
 1074 0004 9F4C     		ldr	r4, .L186
 1075              		.loc 1 322 0
 1076 0006 A04D     		ldr	r5, .L186+4
 1077              		.loc 1 319 0
 1078 0008 2060     		str	r0, [r4]
ARM GAS  /tmp/ccTUPkNQ.s 			page 20


 1079              		.loc 1 316 0
 1080 000a 85B0     		sub	sp, sp, #20
 1081              		.cfi_def_cfa_offset 56
 1082              		.loc 1 320 0
 1083 000c 9F48     		ldr	r0, .L186+8
 1084              	.LVL74:
 1085 000e FFF7FEFF 		bl	test_println
 1086              	.LVL75:
 1087              		.loc 1 321 0
 1088 0012 9F48     		ldr	r0, .L186+12
 1089 0014 FFF7FEFF 		bl	test_println
 1090              	.LVL76:
 1091              		.loc 1 322 0
 1092 0018 9E48     		ldr	r0, .L186+16
 1093 001a FFF7FEFF 		bl	test_println
 1094              	.LVL77:
 1095 001e 2A21     		movs	r1, #42
 1096              	.LVL78:
 1097              	.L100:
 1098              	.LBB310:
 1099              	.LBB311:
 1100              		.loc 1 116 0
 1101 0020 2068     		ldr	r0, [r4]
 1102 0022 0368     		ldr	r3, [r0]
 1103 0024 9B68     		ldr	r3, [r3, #8]
 1104 0026 9847     		blx	r3
 1105              	.LVL79:
 1106              		.loc 1 115 0
 1107 0028 15F8011F 		ldrb	r1, [r5, #1]!	@ zero_extendqisi2
 1108              	.LVL80:
 1109 002c 0029     		cmp	r1, #0
 1110 002e F7D1     		bne	.L100
 1111              	.LBE311:
 1112              	.LBE310:
 1113              		.loc 1 324 0
 1114 0030 9948     		ldr	r0, .L186+20
 1115 0032 9A4D     		ldr	r5, .L186+24
 1116              	.LVL81:
 1117 0034 FFF7FEFF 		bl	test_println
 1118              	.LVL82:
 1119 0038 2A21     		movs	r1, #42
 1120              	.LVL83:
 1121              	.L102:
 1122              	.LBB312:
 1123              	.LBB313:
 1124              		.loc 1 116 0
 1125 003a 2068     		ldr	r0, [r4]
 1126 003c 0368     		ldr	r3, [r0]
 1127 003e 9B68     		ldr	r3, [r3, #8]
 1128 0040 9847     		blx	r3
 1129              	.LVL84:
 1130              		.loc 1 115 0
 1131 0042 15F8011F 		ldrb	r1, [r5, #1]!	@ zero_extendqisi2
 1132              	.LVL85:
 1133 0046 0029     		cmp	r1, #0
 1134 0048 F7D1     		bne	.L102
 1135              	.LBE313:
ARM GAS  /tmp/ccTUPkNQ.s 			page 21


 1136              	.LBE312:
 1137              		.loc 1 326 0
 1138 004a 9548     		ldr	r0, .L186+28
 1139 004c 954D     		ldr	r5, .L186+32
 1140              	.LVL86:
 1141 004e FFF7FEFF 		bl	test_println
 1142              	.LVL87:
 1143 0052 2A21     		movs	r1, #42
 1144              	.LVL88:
 1145              	.L104:
 1146              	.LBB314:
 1147              	.LBB315:
 1148              		.loc 1 116 0
 1149 0054 2068     		ldr	r0, [r4]
 1150 0056 0368     		ldr	r3, [r0]
 1151 0058 9B68     		ldr	r3, [r3, #8]
 1152 005a 9847     		blx	r3
 1153              	.LVL89:
 1154              		.loc 1 115 0
 1155 005c 15F8011F 		ldrb	r1, [r5, #1]!	@ zero_extendqisi2
 1156              	.LVL90:
 1157 0060 0029     		cmp	r1, #0
 1158 0062 F7D1     		bne	.L104
 1159              	.LBE315:
 1160              	.LBE314:
 1161              		.loc 1 329 0
 1162 0064 9048     		ldr	r0, .L186+36
 1163 0066 914D     		ldr	r5, .L186+40
 1164              	.LVL91:
 1165 0068 FFF7FEFF 		bl	test_println
 1166              	.LVL92:
 1167 006c 2A21     		movs	r1, #42
 1168              	.LVL93:
 1169              	.L106:
 1170              	.LBB316:
 1171              	.LBB317:
 1172              		.loc 1 116 0
 1173 006e 2068     		ldr	r0, [r4]
 1174 0070 0368     		ldr	r3, [r0]
 1175 0072 9B68     		ldr	r3, [r3, #8]
 1176 0074 9847     		blx	r3
 1177              	.LVL94:
 1178              		.loc 1 115 0
 1179 0076 15F8011F 		ldrb	r1, [r5, #1]!	@ zero_extendqisi2
 1180              	.LVL95:
 1181 007a 0029     		cmp	r1, #0
 1182 007c F7D1     		bne	.L106
 1183              	.LBE317:
 1184              	.LBE316:
 1185              		.loc 1 332 0
 1186 007e 8C48     		ldr	r0, .L186+44
 1187 0080 8C4D     		ldr	r5, .L186+48
 1188              	.LVL96:
 1189 0082 FFF7FEFF 		bl	test_println
 1190              	.LVL97:
 1191 0086 2A21     		movs	r1, #42
 1192              	.LVL98:
ARM GAS  /tmp/ccTUPkNQ.s 			page 22


 1193              	.L108:
 1194              	.LBB318:
 1195              	.LBB319:
 1196              		.loc 1 116 0
 1197 0088 2068     		ldr	r0, [r4]
 1198 008a 0368     		ldr	r3, [r0]
 1199 008c 9B68     		ldr	r3, [r3, #8]
 1200 008e 9847     		blx	r3
 1201              	.LVL99:
 1202              		.loc 1 115 0
 1203 0090 15F8011F 		ldrb	r1, [r5, #1]!	@ zero_extendqisi2
 1204              	.LVL100:
 1205 0094 0029     		cmp	r1, #0
 1206 0096 F7D1     		bne	.L108
 1207              	.LBE319:
 1208              	.LBE318:
 1209              		.loc 1 335 0
 1210 0098 8748     		ldr	r0, .L186+52
 1211 009a 884D     		ldr	r5, .L186+56
 1212              	.LVL101:
 1213 009c FFF7FEFF 		bl	test_println
 1214              	.LVL102:
 1215 00a0 2A21     		movs	r1, #42
 1216              	.LVL103:
 1217              	.L110:
 1218              	.LBB320:
 1219              	.LBB321:
 1220              		.loc 1 116 0
 1221 00a2 2068     		ldr	r0, [r4]
 1222 00a4 0368     		ldr	r3, [r0]
 1223 00a6 9B68     		ldr	r3, [r3, #8]
 1224 00a8 9847     		blx	r3
 1225              	.LVL104:
 1226              		.loc 1 115 0
 1227 00aa 15F8011F 		ldrb	r1, [r5, #1]!	@ zero_extendqisi2
 1228              	.LVL105:
 1229 00ae 0029     		cmp	r1, #0
 1230 00b0 F7D1     		bne	.L110
 1231              	.LBE321:
 1232              	.LBE320:
 1233              		.loc 1 339 0
 1234 00b2 8348     		ldr	r0, .L186+60
 1235 00b4 834D     		ldr	r5, .L186+64
 1236              	.LVL106:
 1237 00b6 FFF7FEFF 		bl	test_println
 1238              	.LVL107:
 1239 00ba 2A21     		movs	r1, #42
 1240              	.LVL108:
 1241              	.L112:
 1242              	.LBB322:
 1243              	.LBB323:
 1244              		.loc 1 116 0
 1245 00bc 2068     		ldr	r0, [r4]
 1246 00be 0368     		ldr	r3, [r0]
 1247 00c0 9B68     		ldr	r3, [r3, #8]
 1248 00c2 9847     		blx	r3
 1249              	.LVL109:
ARM GAS  /tmp/ccTUPkNQ.s 			page 23


 1250              		.loc 1 115 0
 1251 00c4 15F8011F 		ldrb	r1, [r5, #1]!	@ zero_extendqisi2
 1252              	.LVL110:
 1253 00c8 0029     		cmp	r1, #0
 1254 00ca F7D1     		bne	.L112
 1255              	.LBE323:
 1256              	.LBE322:
 1257              		.loc 1 343 0
 1258 00cc 7E48     		ldr	r0, .L186+68
 1259 00ce 7F4D     		ldr	r5, .L186+72
 1260              	.LVL111:
 1261 00d0 FFF7FEFF 		bl	test_println
 1262              	.LVL112:
 1263 00d4 2A21     		movs	r1, #42
 1264              	.LVL113:
 1265              	.L114:
 1266              	.LBB324:
 1267              	.LBB325:
 1268              		.loc 1 116 0
 1269 00d6 2068     		ldr	r0, [r4]
 1270 00d8 0368     		ldr	r3, [r0]
 1271 00da 9B68     		ldr	r3, [r3, #8]
 1272 00dc 9847     		blx	r3
 1273              	.LVL114:
 1274              		.loc 1 115 0
 1275 00de 15F8011F 		ldrb	r1, [r5, #1]!	@ zero_extendqisi2
 1276              	.LVL115:
 1277 00e2 0029     		cmp	r1, #0
 1278 00e4 F7D1     		bne	.L114
 1279 00e6 7A4B     		ldr	r3, .L186+76
 1280              	.LBE325:
 1281              	.LBE324:
 1282              		.loc 1 347 0
 1283 00e8 7A48     		ldr	r0, .L186+80
 1284 00ea 0293     		str	r3, [sp, #8]
 1285              		.loc 1 351 0
 1286 00ec 7A4B     		ldr	r3, .L186+84
 1287 00ee 0191     		str	r1, [sp, #4]
 1288 00f0 0393     		str	r3, [sp, #12]
 1289              		.loc 1 347 0
 1290 00f2 FFF7FEFF 		bl	test_println
 1291              	.LVL116:
 1292              		.loc 1 349 0
 1293 00f6 6548     		ldr	r0, .L186+8
 1294              	.LBB326:
 1295              	.LBB327:
 1296              		.loc 1 116 0
 1297 00f8 DFF888B1 		ldr	fp, .L186
 1298              	.LBE327:
 1299              	.LBE326:
 1300              		.loc 1 351 0
 1301 00fc 774F     		ldr	r7, .L186+88
 1302              		.loc 1 349 0
 1303 00fe FFF7FEFF 		bl	test_println
 1304              	.LVL117:
 1305              		.loc 1 351 0
 1306 0102 774B     		ldr	r3, .L186+92
ARM GAS  /tmp/ccTUPkNQ.s 			page 24


 1307 0104 0199     		ldr	r1, [sp, #4]
 1308 0106 1970     		strb	r1, [r3]
 1309              	.LVL118:
 1310              	.L137:
 1311 0108 019B     		ldr	r3, [sp, #4]
 1312 010a 0133     		adds	r3, r3, #1
 1313 010c 0193     		str	r3, [sp, #4]
 1314              	.LVL119:
 1315 010e 043F     		subs	r7, r7, #4
 1316              	.LBB329:
 1317              	.LBB330:
 1318              		.loc 1 141 0
 1319 0110 4FF00008 		mov	r8, #0
 1320              	.LVL120:
 1321              	.L134:
 1322              	.LBE330:
 1323              	.LBE329:
 1324              		.loc 1 355 0
 1325 0114 57F8043F 		ldr	r3, [r7, #4]!
 1326 0118 002B     		cmp	r3, #0
 1327 011a 00F08780 		beq	.L183
 1328              	.L132:
 1329              		.loc 1 356 0
 1330 011e 714D     		ldr	r5, .L186+96
 1331 0120 FFF7FEFF 		bl	print_line
 1332              	.LVL121:
 1333 0124 2D21     		movs	r1, #45
 1334              	.LVL122:
 1335              	.L116:
 1336              	.LBB332:
 1337              	.LBB328:
 1338              		.loc 1 116 0
 1339 0126 2068     		ldr	r0, [r4]
 1340 0128 0368     		ldr	r3, [r0]
 1341 012a 9B68     		ldr	r3, [r3, #8]
 1342 012c 9847     		blx	r3
 1343              	.LVL123:
 1344              		.loc 1 115 0
 1345 012e 15F8011F 		ldrb	r1, [r5, #1]!	@ zero_extendqisi2
 1346              	.LVL124:
 1347 0132 0029     		cmp	r1, #0
 1348 0134 F7D1     		bne	.L116
 1349              	.LBE328:
 1350              	.LBE332:
 1351              		.loc 1 358 0
 1352 0136 0198     		ldr	r0, [sp, #4]
 1353              		.loc 1 360 0
 1354 0138 6B4D     		ldr	r5, .L186+100
 1355              	.LVL125:
 1356              		.loc 1 358 0
 1357 013a FFF7FEFF 		bl	test_printn
 1358              	.LVL126:
 1359              	.LBB333:
 1360              	.LBB334:
 1361              		.loc 1 116 0
 1362 013e DBF80000 		ldr	r0, [fp]
 1363              	.LVL127:
ARM GAS  /tmp/ccTUPkNQ.s 			page 25


 1364 0142 0368     		ldr	r3, [r0]
 1365 0144 2E21     		movs	r1, #46
 1366 0146 9B68     		ldr	r3, [r3, #8]
 1367              	.LBE334:
 1368              	.LBE333:
 1369              		.loc 1 360 0
 1370 0148 08F10108 		add	r8, r8, #1
 1371              	.LVL128:
 1372              	.LBB336:
 1373              	.LBB335:
 1374              		.loc 1 116 0
 1375 014c 9847     		blx	r3
 1376              	.LVL129:
 1377              	.LBE335:
 1378              	.LBE336:
 1379              		.loc 1 360 0
 1380 014e 4046     		mov	r0, r8
 1381 0150 FFF7FEFF 		bl	test_printn
 1382              	.LVL130:
 1383 0154 2021     		movs	r1, #32
 1384              	.LVL131:
 1385              	.L118:
 1386              	.LBB337:
 1387              	.LBB338:
 1388              		.loc 1 116 0
 1389 0156 2068     		ldr	r0, [r4]
 1390 0158 0368     		ldr	r3, [r0]
 1391 015a 9B68     		ldr	r3, [r3, #8]
 1392 015c 9847     		blx	r3
 1393              	.LVL132:
 1394              		.loc 1 115 0
 1395 015e 15F8011F 		ldrb	r1, [r5, #1]!	@ zero_extendqisi2
 1396              	.LVL133:
 1397 0162 0029     		cmp	r1, #0
 1398 0164 F7D1     		bne	.L118
 1399              	.LBE338:
 1400              	.LBE337:
 1401              		.loc 1 362 0
 1402 0166 3B68     		ldr	r3, [r7]
 1403 0168 1D68     		ldr	r5, [r3]
 1404              	.LVL134:
 1405              	.LBB339:
 1406              	.LBB340:
 1407              		.loc 1 115 0
 1408 016a 2978     		ldrb	r1, [r5]	@ zero_extendqisi2
 1409 016c 39B1     		cbz	r1, .L123
 1410              	.LVL135:
 1411              	.L122:
 1412              		.loc 1 116 0
 1413 016e 2068     		ldr	r0, [r4]
 1414 0170 0368     		ldr	r3, [r0]
 1415 0172 9B68     		ldr	r3, [r3, #8]
 1416 0174 9847     		blx	r3
 1417              	.LVL136:
 1418              		.loc 1 115 0
 1419 0176 15F8011F 		ldrb	r1, [r5, #1]!	@ zero_extendqisi2
 1420              	.LVL137:
ARM GAS  /tmp/ccTUPkNQ.s 			page 26


 1421 017a 0029     		cmp	r1, #0
 1422 017c F7D1     		bne	.L122
 1423              	.LVL138:
 1424              	.L123:
 1425              	.LBE340:
 1426              	.LBE339:
 1427              		.loc 1 363 0
 1428 017e 5B48     		ldr	r0, .L186+104
 1429              	.LBB341:
 1430              	.LBB342:
 1431              		.loc 1 290 0
 1432 0180 DFF89091 		ldr	r9, .L186+144
 1433              	.LBB343:
 1434              	.LBB344:
 1435              		.loc 1 135 0
 1436 0184 5A4E     		ldr	r6, .L186+108
 1437 0186 5B4D     		ldr	r5, .L186+112
 1438              	.LBE344:
 1439              	.LBE343:
 1440              	.LBE342:
 1441              	.LBE341:
 1442              		.loc 1 363 0
 1443 0188 FFF7FEFF 		bl	test_println
 1444              	.LVL139:
 1445              		.loc 1 365 0
 1446 018c 4FF4FA60 		mov	r0, #2000
 1447 0190 FFF7FEFF 		bl	chThdSleep
 1448              	.LVL140:
 1449              	.LBB349:
 1450              	.LBB347:
 1451              		.loc 1 292 0
 1452 0194 584A     		ldr	r2, .L186+116
 1453              	.LBE347:
 1454              	.LBE349:
 1455              		.loc 1 367 0
 1456 0196 D7F800A0 		ldr	r10, [r7]
 1457              	.LVL141:
 1458              	.LBB350:
 1459              	.LBB348:
 1460              	.LBB346:
 1461              	.LBB345:
 1462              		.loc 1 135 0
 1463 019a 3560     		str	r5, [r6]
 1464              	.LBE345:
 1465              	.LBE346:
 1466              		.loc 1 290 0
 1467 019c 0023     		movs	r3, #0
 1468              		.loc 1 292 0
 1469 019e 1360     		str	r3, [r2]
 1470 01a0 5360     		str	r3, [r2, #4]
 1471 01a2 9360     		str	r3, [r2, #8]
 1472 01a4 D360     		str	r3, [r2, #12]
 1473 01a6 1361     		str	r3, [r2, #16]
 1474              		.loc 1 294 0
 1475 01a8 DAF80420 		ldr	r2, [r10, #4]
 1476              		.loc 1 290 0
 1477 01ac 89F80030 		strb	r3, [r9]
ARM GAS  /tmp/ccTUPkNQ.s 			page 27


 1478              	.LVL142:
 1479              		.loc 1 294 0
 1480 01b0 02B1     		cbz	r2, .L121
 1481              		.loc 1 295 0
 1482 01b2 9047     		blx	r2
 1483              	.LVL143:
 1484              	.L121:
 1485              		.loc 1 296 0
 1486 01b4 DAF80C30 		ldr	r3, [r10, #12]
 1487 01b8 9847     		blx	r3
 1488              	.LVL144:
 1489              		.loc 1 297 0
 1490 01ba DAF80830 		ldr	r3, [r10, #8]
 1491 01be 03B1     		cbz	r3, .L124
 1492              		.loc 1 298 0
 1493 01c0 9847     		blx	r3
 1494              	.LVL145:
 1495              	.L124:
 1496              		.loc 1 300 0
 1497 01c2 FFF7FEFF 		bl	test_wait_threads
 1498              	.LVL146:
 1499              	.LBE348:
 1500              	.LBE350:
 1501              		.loc 1 368 0
 1502 01c6 99F80030 		ldrb	r3, [r9]	@ zero_extendqisi2
 1503 01ca 002B     		cmp	r3, #0
 1504 01cc 38D0     		beq	.L184
 1505 01ce DFF84891 		ldr	r9, .L186+148
 1506 01d2 2D21     		movs	r1, #45
 1507              	.L125:
 1508              	.LVL147:
 1509              	.LBB351:
 1510              	.LBB352:
 1511              		.loc 1 116 0
 1512 01d4 2068     		ldr	r0, [r4]
 1513 01d6 0368     		ldr	r3, [r0]
 1514 01d8 9B68     		ldr	r3, [r3, #8]
 1515 01da 9847     		blx	r3
 1516              	.LVL148:
 1517              		.loc 1 115 0
 1518 01dc 19F8011F 		ldrb	r1, [r9, #1]!	@ zero_extendqisi2
 1519              	.LVL149:
 1520 01e0 0029     		cmp	r1, #0
 1521 01e2 F7D1     		bne	.L125
 1522              	.LBE352:
 1523              	.LBE351:
 1524              		.loc 1 370 0
 1525 01e4 454B     		ldr	r3, .L186+120
 1526 01e6 DFF83491 		ldr	r9, .L186+152
 1527              	.LVL150:
 1528 01ea 1868     		ldr	r0, [r3]
 1529 01ec FFF7FEFF 		bl	test_printn
 1530              	.LVL151:
 1531 01f0 2021     		movs	r1, #32
 1532              	.LVL152:
 1533              	.L127:
 1534              	.LBB353:
ARM GAS  /tmp/ccTUPkNQ.s 			page 28


 1535              	.LBB354:
 1536              		.loc 1 116 0
 1537 01f2 2068     		ldr	r0, [r4]
 1538 01f4 0368     		ldr	r3, [r0]
 1539 01f6 9B68     		ldr	r3, [r3, #8]
 1540 01f8 9847     		blx	r3
 1541              	.LVL153:
 1542              		.loc 1 115 0
 1543 01fa 19F8011F 		ldrb	r1, [r9, #1]!	@ zero_extendqisi2
 1544              	.LVL154:
 1545 01fe 0029     		cmp	r1, #0
 1546 0200 F7D1     		bne	.L127
 1547              	.LVL155:
 1548              	.LBE354:
 1549              	.LBE353:
 1550              	.LBB355:
 1551              	.LBB331:
 1552              		.loc 1 141 0
 1553 0202 3368     		ldr	r3, [r6]
 1554 0204 AB42     		cmp	r3, r5
 1555 0206 09D9     		bls	.L131
 1556 0208 3A4D     		ldr	r5, .L186+112
 1557              	.LVL156:
 1558              	.L130:
 1559              		.loc 1 142 0
 1560 020a 2068     		ldr	r0, [r4]
 1561 020c 15F8011B 		ldrb	r1, [r5], #1	@ zero_extendqisi2
 1562              	.LVL157:
 1563 0210 0368     		ldr	r3, [r0]
 1564 0212 9B68     		ldr	r3, [r3, #8]
 1565 0214 9847     		blx	r3
 1566              	.LVL158:
 1567              		.loc 1 141 0
 1568 0216 3368     		ldr	r3, [r6]
 1569 0218 9D42     		cmp	r5, r3
 1570 021a F6D3     		bcc	.L130
 1571              	.LVL159:
 1572              	.L131:
 1573              	.LBE331:
 1574              	.LBE355:
 1575              		.loc 1 373 0
 1576 021c 3848     		ldr	r0, .L186+124
 1577 021e FFF7FEFF 		bl	test_println
 1578              	.LVL160:
 1579              		.loc 1 355 0
 1580 0222 57F8043F 		ldr	r3, [r7, #4]!
 1581 0226 002B     		cmp	r3, #0
 1582 0228 7FF479AF 		bne	.L132
 1583              	.LVL161:
 1584              	.L183:
 1585              		.loc 1 353 0
 1586 022c 039B     		ldr	r3, [sp, #12]
 1587 022e 5BB1     		cbz	r3, .L133
 1588 0230 1F46     		mov	r7, r3
 1589 0232 029B     		ldr	r3, [sp, #8]
 1590 0234 1A46     		mov	r2, r3
 1591 0236 52F8043F 		ldr	r3, [r2, #4]!
ARM GAS  /tmp/ccTUPkNQ.s 			page 29


 1592 023a 0393     		str	r3, [sp, #12]
 1593 023c 0292     		str	r2, [sp, #8]
 1594 023e 63E7     		b	.L137
 1595              	.LVL162:
 1596              	.L184:
 1597              		.loc 1 376 0
 1598 0240 3048     		ldr	r0, .L186+128
 1599 0242 FFF7FEFF 		bl	test_println
 1600              	.LVL163:
 1601 0246 65E7     		b	.L134
 1602              	.LVL164:
 1603              	.L133:
 1604              		.loc 1 381 0
 1605 0248 FFF7FEFF 		bl	print_line
 1606              	.LVL165:
 1607              		.loc 1 382 0
 1608 024c 2E4D     		ldr	r5, .L186+132
 1609 024e 0F48     		ldr	r0, .L186+8
 1610 0250 FFF7FEFF 		bl	test_println
 1611              	.LVL166:
 1612 0254 4621     		movs	r1, #70
 1613              	.LVL167:
 1614              	.L135:
 1615              	.LBB356:
 1616              	.LBB357:
 1617              		.loc 1 116 0
 1618 0256 2068     		ldr	r0, [r4]
 1619 0258 0368     		ldr	r3, [r0]
 1620 025a 9B68     		ldr	r3, [r3, #8]
 1621 025c 9847     		blx	r3
 1622              	.LVL168:
 1623              		.loc 1 115 0
 1624 025e 15F8011F 		ldrb	r1, [r5, #1]!	@ zero_extendqisi2
 1625              	.LVL169:
 1626 0262 0029     		cmp	r1, #0
 1627 0264 F7D1     		bne	.L135
 1628              	.LBE357:
 1629              	.LBE356:
 1630              		.loc 1 384 0
 1631 0266 1E4B     		ldr	r3, .L186+92
 1632 0268 1B78     		ldrb	r3, [r3]	@ zero_extendqisi2
 1633 026a 2BB9     		cbnz	r3, .L185
 1634              		.loc 1 387 0
 1635 026c 2748     		ldr	r0, .L186+136
 1636              		.loc 1 388 0
 1637 026e 05B0     		add	sp, sp, #20
 1638              		.cfi_remember_state
 1639              		.cfi_def_cfa_offset 36
 1640              		@ sp needed
 1641 0270 BDE8F04F 		pop	{r4, r5, r6, r7, r8, r9, r10, fp, lr}
 1642              		.cfi_restore 14
 1643              		.cfi_restore 11
 1644              		.cfi_restore 10
 1645              		.cfi_restore 9
 1646              		.cfi_restore 8
 1647              		.cfi_restore 7
 1648              		.cfi_restore 6
ARM GAS  /tmp/ccTUPkNQ.s 			page 30


 1649              		.cfi_restore 5
 1650              		.cfi_restore 4
 1651              		.cfi_def_cfa_offset 0
 1652              	.LVL170:
 1653              		.loc 1 387 0
 1654 0274 FFF7FEBF 		b	test_println
 1655              	.LVL171:
 1656              	.L185:
 1657              		.cfi_restore_state
 1658              		.loc 1 385 0
 1659 0278 2548     		ldr	r0, .L186+140
 1660              		.loc 1 388 0
 1661 027a 05B0     		add	sp, sp, #20
 1662              		.cfi_def_cfa_offset 36
 1663              		@ sp needed
 1664 027c BDE8F04F 		pop	{r4, r5, r6, r7, r8, r9, r10, fp, lr}
 1665              		.cfi_restore 4
 1666              		.cfi_restore 5
 1667              		.cfi_restore 6
 1668              		.cfi_restore 7
 1669              		.cfi_restore 8
 1670              		.cfi_restore 9
 1671              		.cfi_restore 10
 1672              		.cfi_restore 11
 1673              		.cfi_restore 14
 1674              		.cfi_def_cfa_offset 0
 1675              	.LVL172:
 1676              		.loc 1 387 0
 1677 0280 FFF7FEBF 		b	test_println
 1678              	.LVL173:
 1679              	.L187:
 1680              		.align	2
 1681              	.L186:
 1682 0284 00000000 		.word	.LANCHOR1
 1683 0288 04000000 		.word	.LC1
 1684 028c E4000000 		.word	.LC14
 1685 0290 E8000000 		.word	.LC15
 1686 0294 04010000 		.word	.LC16
 1687 0298 34010000 		.word	.LC22
 1688 029c 18000000 		.word	.LC2
 1689 02a0 3C010000 		.word	.LC23
 1690 02a4 2C000000 		.word	.LC3
 1691 02a8 54010000 		.word	.LC24
 1692 02ac 40000000 		.word	.LC4
 1693 02b0 60010000 		.word	.LC25
 1694 02b4 54000000 		.word	.LC5
 1695 02b8 6C010000 		.word	.LC26
 1696 02bc 68000000 		.word	.LC6
 1697 02c0 78010000 		.word	.LC27
 1698 02c4 7C000000 		.word	.LC7
 1699 02c8 90010000 		.word	.LC28
 1700 02cc 90000000 		.word	.LC8
 1701 02d0 04000000 		.word	.LANCHOR9+4
 1702 02d4 C0010000 		.word	.LC29
 1703 02d8 00000000 		.word	patternthd
 1704 02dc 00000000 		.word	patternsys
 1705 02e0 00000000 		.word	.LANCHOR3
ARM GAS  /tmp/ccTUPkNQ.s 			page 31


 1706 02e4 A4000000 		.word	.LC9
 1707 02e8 B4000000 		.word	.LC10
 1708 02ec 08010000 		.word	.LC17
 1709 02f0 00000000 		.word	.LANCHOR2
 1710 02f4 00000000 		.word	.LANCHOR6
 1711 02f8 00000000 		.word	.LANCHOR7
 1712 02fc 00000000 		.word	.LANCHOR5
 1713 0300 0C010000 		.word	.LC18
 1714 0304 10010000 		.word	.LC19
 1715 0308 D4000000 		.word	.LC13
 1716 030c 2C010000 		.word	.LC21
 1717 0310 24010000 		.word	.LC20
 1718 0314 00000000 		.word	.LANCHOR4
 1719 0318 B8000000 		.word	.LC11
 1720 031c D0000000 		.word	.LC12
 1721              		.cfi_endproc
 1722              	.LFE277:
 1723              		.size	TestThread, .-TestThread
 1724              		.global	test_timer_done
 1725              		.global	wa
 1726              		.global	threads
 1727              		.global	test
 1728              		.global	test_global_fail
 1729              		.section	.bss.test,"aw",%nobits
 1730              		.align	3
 1731              		.type	test, %object
 1732              		.size	test, 2320
 1733              	test:
 1734 0000 00000000 		.space	2320
 1734      00000000 
 1734      00000000 
 1734      00000000 
 1734      00000000 
 1735              		.section	.bss.failpoint,"aw",%nobits
 1736              		.align	2
 1737              		.set	.LANCHOR5,. + 0
 1738              		.type	failpoint, %object
 1739              		.size	failpoint, 4
 1740              	failpoint:
 1741 0000 00000000 		.space	4
 1742              		.section	.bss.local_fail,"aw",%nobits
 1743              		.set	.LANCHOR4,. + 0
 1744              		.type	local_fail, %object
 1745              		.size	local_fail, 1
 1746              	local_fail:
 1747 0000 00       		.space	1
 1748              		.section	.bss.test_timer_done,"aw",%nobits
 1749              		.set	.LANCHOR0,. + 0
 1750              		.type	test_timer_done, %object
 1751              		.size	test_timer_done, 1
 1752              	test_timer_done:
 1753 0000 00       		.space	1
 1754              		.section	.rodata.wa,"a",%progbits
 1755              		.align	2
 1756              		.type	wa, %object
 1757              		.size	wa, 20
 1758              	wa:
ARM GAS  /tmp/ccTUPkNQ.s 			page 32


 1759 0000 00000000 		.word	test
 1760 0004 D0010000 		.word	test+464
 1761 0008 A0030000 		.word	test+928
 1762 000c 70050000 		.word	test+1392
 1763 0010 40070000 		.word	test+1856
 1764              		.section	.bss.tokp,"aw",%nobits
 1765              		.align	2
 1766              		.set	.LANCHOR2,. + 0
 1767              		.type	tokp, %object
 1768              		.size	tokp, 4
 1769              	tokp:
 1770 0000 00000000 		.space	4
 1771              		.section	.rodata.patterns,"a",%progbits
 1772              		.align	2
 1773              		.set	.LANCHOR9,. + 0
 1774              		.type	patterns, %object
 1775              		.size	patterns, 52
 1776              	patterns:
 1777 0000 00000000 		.word	patternsys
 1778 0004 00000000 		.word	patternthd
 1779 0008 00000000 		.word	patternsem
 1780 000c 00000000 		.word	patternmtx
 1781 0010 00000000 		.word	patternmsg
 1782 0014 00000000 		.word	patternmbox
 1783 0018 00000000 		.word	patternevt
 1784 001c 00000000 		.word	patternheap
 1785 0020 00000000 		.word	patternpools
 1786 0024 00000000 		.word	patterndyn
 1787 0028 00000000 		.word	patternqueues
 1788 002c 00000000 		.word	patternbmk
 1789 0030 00000000 		.word	0
 1790              		.section	.rodata.str1.4,"aMS",%progbits,1
 1791              		.align	2
 1792              	.LC0:
 1793 0000 0D0A00   		.ascii	"\015\012\000"
 1794 0003 00       		.space	1
 1795              	.LC1:
 1796 0004 2A2A2A20 		.ascii	"*** Kernel:       \000"
 1796      4B65726E 
 1796      656C3A20 
 1796      20202020 
 1796      202000
 1797 0017 00       		.space	1
 1798              	.LC2:
 1799 0018 2A2A2A20 		.ascii	"*** Compiled:     \000"
 1799      436F6D70 
 1799      696C6564 
 1799      3A202020 
 1799      202000
 1800 002b 00       		.space	1
 1801              	.LC3:
 1802 002c 2A2A2A20 		.ascii	"*** Compiler:     \000"
 1802      436F6D70 
 1802      696C6572 
 1802      3A202020 
 1802      202000
 1803 003f 00       		.space	1
ARM GAS  /tmp/ccTUPkNQ.s 			page 33


 1804              	.LC4:
 1805 0040 2A2A2A20 		.ascii	"*** Architecture: \000"
 1805      41726368 
 1805      69746563 
 1805      74757265 
 1805      3A2000
 1806 0053 00       		.space	1
 1807              	.LC5:
 1808 0054 2A2A2A20 		.ascii	"*** Core Variant: \000"
 1808      436F7265 
 1808      20566172 
 1808      69616E74 
 1808      3A2000
 1809 0067 00       		.space	1
 1810              	.LC6:
 1811 0068 2A2A2A20 		.ascii	"*** Port Info:    \000"
 1811      506F7274 
 1811      20496E66 
 1811      6F3A2020 
 1811      202000
 1812 007b 00       		.space	1
 1813              	.LC7:
 1814 007c 2A2A2A20 		.ascii	"*** Platform:     \000"
 1814      506C6174 
 1814      666F726D 
 1814      3A202020 
 1814      202000
 1815 008f 00       		.space	1
 1816              	.LC8:
 1817 0090 2A2A2A20 		.ascii	"*** Test Board:   \000"
 1817      54657374 
 1817      20426F61 
 1817      72643A20 
 1817      202000
 1818 00a3 00       		.space	1
 1819              	.LC9:
 1820 00a4 2D2D2D20 		.ascii	"--- Test Case \000"
 1820      54657374 
 1820      20436173 
 1820      652000
 1821 00b3 00       		.space	1
 1822              	.LC10:
 1823 00b4 202800   		.ascii	" (\000"
 1824 00b7 00       		.space	1
 1825              	.LC11:
 1826 00b8 2D2D2D20 		.ascii	"--- Result: FAILURE (#\000"
 1826      52657375 
 1826      6C743A20 
 1826      4641494C 
 1826      55524520 
 1827 00cf 00       		.space	1
 1828              	.LC12:
 1829 00d0 205B00   		.ascii	" [\000"
 1830 00d3 00       		.space	1
 1831              	.LC13:
 1832 00d4 46696E61 		.ascii	"Final result: \000"
 1832      6C207265 
ARM GAS  /tmp/ccTUPkNQ.s 			page 34


 1832      73756C74 
 1832      3A2000
 1833 00e3 00       		.space	1
 1834              	.LC14:
 1835 00e4 00       		.ascii	"\000"
 1836 00e5 000000   		.space	3
 1837              	.LC15:
 1838 00e8 2A2A2A20 		.ascii	"*** ChibiOS/RT test suite\000"
 1838      43686962 
 1838      694F532F 
 1838      52542074 
 1838      65737420 
 1839 0102 0000     		.space	2
 1840              	.LC16:
 1841 0104 2A2A2A00 		.ascii	"***\000"
 1842              	.LC17:
 1843 0108 2900     		.ascii	")\000"
 1844 010a 0000     		.space	2
 1845              	.LC18:
 1846 010c 5D2900   		.ascii	"])\000"
 1847 010f 00       		.space	1
 1848              	.LC19:
 1849 0110 2D2D2D20 		.ascii	"--- Result: SUCCESS\000"
 1849      52657375 
 1849      6C743A20 
 1849      53554343 
 1849      45535300 
 1850              	.LC20:
 1851 0124 4641494C 		.ascii	"FAILURE\000"
 1851      55524500 
 1852              	.LC21:
 1853 012c 53554343 		.ascii	"SUCCESS\000"
 1853      45535300 
 1854              	.LC22:
 1855 0134 332E302E 		.ascii	"3.0.0\000"
 1855      3000
 1856 013a 0000     		.space	2
 1857              	.LC23:
 1858 013c 4E6F7620 		.ascii	"Nov 20 2015 - 14:31:34\000"
 1858      32302032 
 1858      30313520 
 1858      2D203134 
 1858      3A33313A 
 1859 0153 00       		.space	1
 1860              	.LC24:
 1861 0154 47434320 		.ascii	"GCC 5.2.0\000"
 1861      352E322E 
 1861      3000
 1862 015e 0000     		.space	2
 1863              	.LC25:
 1864 0160 41524D76 		.ascii	"ARMv7-ME\000"
 1864      372D4D45 
 1864      00
 1865 0169 000000   		.space	3
 1866              	.LC26:
 1867 016c 436F7274 		.ascii	"Cortex-M4F\000"
 1867      65782D4D 
ARM GAS  /tmp/ccTUPkNQ.s 			page 35


 1867      344600
 1868 0177 00       		.space	1
 1869              	.LC27:
 1870 0178 41647661 		.ascii	"Advanced kernel mode\000"
 1870      6E636564 
 1870      206B6572 
 1870      6E656C20 
 1870      6D6F6465 
 1871 018d 000000   		.space	3
 1872              	.LC28:
 1873 0190 53544D33 		.ascii	"STM32F401xC High Performance with DSP and FPU\000"
 1873      32463430 
 1873      31784320 
 1873      48696768 
 1873      20506572 
 1874 01be 0000     		.space	2
 1875              	.LC29:
 1876 01c0 53544D69 		.ascii	"STMicroelectronics STM32F401C-Discovery\000"
 1876      63726F65 
 1876      6C656374 
 1876      726F6E69 
 1876      63732053 
 1877              		.section	.bss.vt,"aw",%nobits
 1878              		.align	2
 1879              		.set	.LANCHOR8,. + 0
 1880              		.type	vt, %object
 1881              		.size	vt, 20
 1882              	vt:
 1883 0000 00000000 		.space	20
 1883      00000000 
 1883      00000000 
 1883      00000000 
 1883      00000000 
 1884              		.section	.bss.threads,"aw",%nobits
 1885              		.align	2
 1886              		.set	.LANCHOR7,. + 0
 1887              		.type	threads, %object
 1888              		.size	threads, 20
 1889              	threads:
 1890 0000 00000000 		.space	20
 1890      00000000 
 1890      00000000 
 1890      00000000 
 1890      00000000 
 1891              		.section	.bss.chp,"aw",%nobits
 1892              		.align	2
 1893              		.set	.LANCHOR1,. + 0
 1894              		.type	chp, %object
 1895              		.size	chp, 4
 1896              	chp:
 1897 0000 00000000 		.space	4
 1898              		.section	.bss.tokens_buffer,"aw",%nobits
 1899              		.align	2
 1900              		.set	.LANCHOR6,. + 0
 1901              		.type	tokens_buffer, %object
 1902              		.size	tokens_buffer, 16
 1903              	tokens_buffer:
ARM GAS  /tmp/ccTUPkNQ.s 			page 36


 1904 0000 00000000 		.space	16
 1904      00000000 
 1904      00000000 
 1904      00000000 
 1905              		.section	.bss.test_global_fail,"aw",%nobits
 1906              		.set	.LANCHOR3,. + 0
 1907              		.type	test_global_fail, %object
 1908              		.size	test_global_fail, 1
 1909              	test_global_fail:
 1910 0000 00       		.space	1
 1911              		.text
 1912              	.Letext0:
 1913              		.file 5 "/usr/lib/gcc/arm-none-eabi/5.2.0/include/stddef.h"
 1914              		.file 6 "/usr/arm-none-eabi/include/machine/_default_types.h"
 1915              		.file 7 "/usr/arm-none-eabi/include/stdint.h"
 1916              		.file 8 "../../os/rt/ports/ARMCMx/compilers/GCC/chtypes.h"
 1917              		.file 9 "../../os/rt/include/chsystypes.h"
 1918              		.file 10 "../../os/rt/include/chschd.h"
 1919              		.file 11 "../../os/rt/ports/ARMCMx/chcore.h"
 1920              		.file 12 "../../os/rt/ports/ARMCMx/chcore_v7m.h"
 1921              		.file 13 "../../os/hal/ports/STM32/LLD/TIMv1/stm32_tim.h"
 1922              		.file 14 "../../os/rt/include/chtm.h"
 1923              		.file 15 "../../os/rt/include/chsem.h"
 1924              		.file 16 "../../os/rt/include/chmtx.h"
 1925              		.file 17 "../../os/rt/include/chstreams.h"
 1926              		.file 18 "../../test/rt/test.h"
 1927              		.file 19 "../../os/rt/ports/ARMCMx/chcore_timer.h"
 1928              		.file 20 "../../os/rt/include/chsys.h"
 1929              		.file 21 "../../os/ext/CMSIS/include/core_cm4.h"
 1930              		.file 22 "../../test/rt/testsys.h"
 1931              		.file 23 "../../test/rt/testthd.h"
 1932              		.file 24 "../../test/rt/testsem.h"
 1933              		.file 25 "../../test/rt/testmtx.h"
 1934              		.file 26 "../../test/rt/testmsg.h"
 1935              		.file 27 "../../test/rt/testmbox.h"
 1936              		.file 28 "../../test/rt/testevt.h"
 1937              		.file 29 "../../test/rt/testheap.h"
 1938              		.file 30 "../../test/rt/testpools.h"
 1939              		.file 31 "../../test/rt/testdyn.h"
 1940              		.file 32 "../../test/rt/testqueues.h"
 1941              		.file 33 "../../test/rt/testbmk.h"
 1942              		.file 34 "../../os/rt/include/chthreads.h"