ARM GAS  /tmp/cc71xgtQ.s 			page 1


   1              		.syntax unified
   2              		.cpu cortex-m4
   3              		.eabi_attribute 27, 1
   4              		.eabi_attribute 28, 1
   5              		.fpu fpv4-sp-d16
   6              		.eabi_attribute 20, 1
   7              		.eabi_attribute 21, 1
   8              		.eabi_attribute 23, 3
   9              		.eabi_attribute 24, 1
  10              		.eabi_attribute 25, 1
  11              		.eabi_attribute 26, 1
  12              		.eabi_attribute 30, 2
  13              		.eabi_attribute 34, 1
  14              		.eabi_attribute 18, 4
  15              		.thumb
  16              		.syntax unified
  17              		.file	"adc_lld.c"
  18              		.text
  19              	.Ltext0:
  20              		.cfi_sections	.debug_frame
  21              		.section	.text.adc_lld_serve_rx_interrupt,"ax",%progbits
  22              		.align	2
  23              		.p2align 4,,15
  24              		.thumb
  25              		.thumb_func
  26              		.type	adc_lld_serve_rx_interrupt, %function
  27              	adc_lld_serve_rx_interrupt:
  28              	.LFB260:
  29              		.file 1 "../../os/hal/ports/STM32/STM32F4xx/adc_lld.c"
  30              		.loc 1 75 0
  31              		.cfi_startproc
  32              		@ args = 0, pretend = 0, frame = 0
  33              		@ frame_needed = 0, uses_anonymous_args = 0
  34              	.LVL0:
  35              		.loc 1 78 0
  36 0000 11F00C0F 		tst	r1, #12
  37              		.loc 1 75 0
  38 0004 2DE9F041 		push	{r4, r5, r6, r7, r8, lr}
  39              		.cfi_def_cfa_offset 24
  40              		.cfi_offset 4, -24
  41              		.cfi_offset 5, -20
  42              		.cfi_offset 6, -16
  43              		.cfi_offset 7, -12
  44              		.cfi_offset 8, -8
  45              		.cfi_offset 14, -4
  46              		.loc 1 75 0
  47 0008 0446     		mov	r4, r0
  48              		.loc 1 78 0
  49 000a 2ED0     		beq	.L2
  50              	.LVL1:
  51              	.LBB91:
  52              	.LBB92:
  53              		.loc 1 375 0
  54 000c C06A     		ldr	r0, [r0, #44]
  55              	.LVL2:
  56 000e 0368     		ldr	r3, [r0]
  57 0010 1A68     		ldr	r2, [r3]
ARM GAS  /tmp/cc71xgtQ.s 			page 2


  58 0012 22F01F02 		bic	r2, r2, #31
  59 0016 1A60     		str	r2, [r3]
  60              	.LVL3:
  61              	.L3:
  62 0018 1968     		ldr	r1, [r3]
  63 001a 11F00101 		ands	r1, r1, #1
  64 001e FBD1     		bne	.L3
  65              	.LBE92:
  66              	.LBE91:
  67              		.loc 1 81 0
  68 0020 2269     		ldr	r2, [r4, #16]
  69              	.LBB95:
  70              	.LBB93:
  71              		.loc 1 375 0
  72 0022 077A     		ldrb	r7, [r0, #8]	@ zero_extendqisi2
  73 0024 4668     		ldr	r6, [r0, #4]
  74              	.LBE93:
  75              	.LBE95:
  76              		.loc 1 81 0
  77 0026 9568     		ldr	r5, [r2, #8]
  78              	.LBB96:
  79              	.LBB94:
  80              		.loc 1 376 0
  81 0028 A36A     		ldr	r3, [r4, #40]
  82              		.loc 1 375 0
  83 002a 3D22     		movs	r2, #61
  84 002c BA40     		lsls	r2, r2, r7
  85              		.loc 1 378 0
  86 002e 0120     		movs	r0, #1
  87              		.loc 1 375 0
  88 0030 3260     		str	r2, [r6]
  89              		.loc 1 376 0
  90 0032 5960     		str	r1, [r3, #4]
  91              		.loc 1 377 0
  92 0034 9960     		str	r1, [r3, #8]
  93              		.loc 1 378 0
  94 0036 9860     		str	r0, [r3, #8]
  95              	.LBE94:
  96              	.LBE96:
  97              		.loc 1 81 0
  98 0038 45B1     		cbz	r5, .L5
  99              		.loc 1 81 0 is_stmt 0 discriminator 1
 100 003a 0523     		movs	r3, #5
 101 003c 2370     		strb	r3, [r4]
 102 003e 2046     		mov	r0, r4
 103 0040 A847     		blx	r5
 104              	.LVL4:
 105 0042 2378     		ldrb	r3, [r4]	@ zero_extendqisi2
 106 0044 052B     		cmp	r3, #5
 107 0046 04BF     		itt	eq
 108 0048 0223     		moveq	r3, #2
 109 004a 2370     		strbeq	r3, [r4]
 110              	.L5:
 111              		.loc 1 81 0 discriminator 5
 112 004c 0025     		movs	r5, #0
 113 004e 2561     		str	r5, [r4, #16]
 114              	.LVL5:
ARM GAS  /tmp/cc71xgtQ.s 			page 3


 115              	.LBB97:
 116              	.LBB98:
 117              	.LBB99:
 118              	.LBB100:
 119              	.LBB101:
 120              	.LBB102:
 121              		.file 2 "../../os/ext/CMSIS/include/core_cmFunc.h"
 122              		.loc 2 546 0 is_stmt 1 discriminator 5
 123 0050 2023     		movs	r3, #32
 124              		.syntax unified
 125              	@ 546 "../../os/ext/CMSIS/include/core_cmFunc.h" 1
 126 0052 83F31188 		MSR basepri, r3
 127              	@ 0 "" 2
 128              	.LVL6:
 129              		.thumb
 130              		.syntax unified
 131              	.LBE102:
 132              	.LBE101:
 133              	.LBE100:
 134              	.LBE99:
 135              	.LBE98:
 136              	.LBE97:
 137              	.LBB103:
 138              	.LBB104:
 139              		.file 3 "../../os/hal/osal/rt/osal.h"
 140              		.loc 3 682 0 discriminator 5
 141 0056 4FF0FF31 		mov	r1, #-1
 142 005a 04F11400 		add	r0, r4, #20
 143              	.LVL7:
 144 005e FFF7FEFF 		bl	chThdResumeI
 145              	.LVL8:
 146              	.LBE104:
 147              	.LBE103:
 148              	.LBB105:
 149              	.LBB106:
 150              	.LBB107:
 151              	.LBB108:
 152              	.LBB109:
 153              	.LBB110:
 154              		.loc 2 546 0 discriminator 5
 155              		.syntax unified
 156              	@ 546 "../../os/ext/CMSIS/include/core_cmFunc.h" 1
 157 0062 85F31188 		MSR basepri, r5
 158              	@ 0 "" 2
 159              		.thumb
 160              		.syntax unified
 161 0066 BDE8F081 		pop	{r4, r5, r6, r7, r8, pc}
 162              	.LVL9:
 163              	.L2:
 164              	.LBE110:
 165              	.LBE109:
 166              	.LBE108:
 167              	.LBE107:
 168              	.LBE106:
 169              	.LBE105:
 170              		.loc 1 86 0
 171 006a 0569     		ldr	r5, [r0, #16]
ARM GAS  /tmp/cc71xgtQ.s 			page 4


 172 006c A5B1     		cbz	r5, .L1
 173              		.loc 1 87 0
 174 006e 8A06     		lsls	r2, r1, #26
 175 0070 10D5     		bpl	.L8
 176              		.loc 1 89 0
 177 0072 2B78     		ldrb	r3, [r5]	@ zero_extendqisi2
 178 0074 DBB1     		cbz	r3, .L9
 179              		.loc 1 89 0 is_stmt 0 discriminator 1
 180 0076 6B68     		ldr	r3, [r5, #4]
 181 0078 73B1     		cbz	r3, .L1
 182              		.loc 1 89 0 discriminator 3
 183 007a C268     		ldr	r2, [r0, #12]
 184 007c 012A     		cmp	r2, #1
 185 007e 47D9     		bls	.L10
 186              	.LBB111:
 187              		.loc 1 89 0 discriminator 4
 188 0080 6988     		ldrh	r1, [r5, #2]
 189              	.LVL10:
 190 0082 8468     		ldr	r4, [r0, #8]
 191 0084 5208     		lsrs	r2, r2, #1
 192              	.LVL11:
 193 0086 02FB01F1 		mul	r1, r2, r1
 194 008a 04EB4101 		add	r1, r4, r1, lsl #1
 195              	.LBE111:
 196              		.loc 1 97 0 is_stmt 1 discriminator 4
 197 008e BDE8F041 		pop	{r4, r5, r6, r7, r8, lr}
 198              		.cfi_remember_state
 199              		.cfi_restore 14
 200              		.cfi_restore 8
 201              		.cfi_restore 7
 202              		.cfi_restore 6
 203              		.cfi_restore 5
 204              		.cfi_restore 4
 205              		.cfi_def_cfa_offset 0
 206              	.LVL12:
 207              	.LBB112:
 208              		.loc 1 89 0 discriminator 4
 209 0092 1847     		bx	r3	@ indirect register sibling call
 210              	.LVL13:
 211              	.L8:
 212              		.cfi_restore_state
 213              	.LBE112:
 214              		.loc 1 91 0
 215 0094 CB06     		lsls	r3, r1, #27
 216 0096 01D4     		bmi	.L33
 217              	.L1:
 218 0098 BDE8F081 		pop	{r4, r5, r6, r7, r8, pc}
 219              	.L33:
 220              		.loc 1 93 0
 221 009c 6B68     		ldr	r3, [r5, #4]
 222 009e 002B     		cmp	r3, #0
 223 00a0 FAD0     		beq	.L1
 224              		.loc 1 93 0 is_stmt 0 discriminator 1
 225 00a2 C268     		ldr	r2, [r0, #12]
 226 00a4 8168     		ldr	r1, [r0, #8]
 227              	.LVL14:
 228 00a6 5208     		lsrs	r2, r2, #1
ARM GAS  /tmp/cc71xgtQ.s 			page 5


 229              		.loc 1 97 0 is_stmt 1 discriminator 1
 230 00a8 BDE8F041 		pop	{r4, r5, r6, r7, r8, lr}
 231              		.cfi_remember_state
 232              		.cfi_restore 14
 233              		.cfi_restore 8
 234              		.cfi_restore 7
 235              		.cfi_restore 6
 236              		.cfi_restore 5
 237              		.cfi_restore 4
 238              		.cfi_def_cfa_offset 0
 239              		.loc 1 93 0 discriminator 1
 240 00ac 1847     		bx	r3	@ indirect register sibling call
 241              	.LVL15:
 242              	.L9:
 243              		.cfi_restore_state
 244              	.LBB113:
 245              	.LBB114:
 246              		.loc 1 375 0
 247 00ae C06A     		ldr	r0, [r0, #44]
 248              	.LVL16:
 249 00b0 0268     		ldr	r2, [r0]
 250 00b2 1368     		ldr	r3, [r2]
 251 00b4 23F01F03 		bic	r3, r3, #31
 252 00b8 1360     		str	r3, [r2]
 253              	.L11:
 254 00ba 1368     		ldr	r3, [r2]
 255 00bc 13F00103 		ands	r3, r3, #1
 256 00c0 FBD1     		bne	.L11
 257 00c2 077A     		ldrb	r7, [r0, #8]	@ zero_extendqisi2
 258 00c4 4668     		ldr	r6, [r0, #4]
 259              	.LBE114:
 260              	.LBE113:
 261              		.loc 1 89 0
 262 00c6 6D68     		ldr	r5, [r5, #4]
 263              	.LBB116:
 264              	.LBB115:
 265              		.loc 1 376 0
 266 00c8 A26A     		ldr	r2, [r4, #40]
 267              		.loc 1 375 0
 268 00ca 3D21     		movs	r1, #61
 269              	.LVL17:
 270 00cc B940     		lsls	r1, r1, r7
 271              		.loc 1 378 0
 272 00ce 0120     		movs	r0, #1
 273              		.loc 1 375 0
 274 00d0 3160     		str	r1, [r6]
 275              		.loc 1 376 0
 276 00d2 5360     		str	r3, [r2, #4]
 277              		.loc 1 377 0
 278 00d4 9360     		str	r3, [r2, #8]
 279              		.loc 1 378 0
 280 00d6 9060     		str	r0, [r2, #8]
 281              	.LBE115:
 282              	.LBE116:
 283              		.loc 1 89 0
 284 00d8 ADB1     		cbz	r5, .L12
 285              		.loc 1 89 0 is_stmt 0 discriminator 6
ARM GAS  /tmp/cc71xgtQ.s 			page 6


 286 00da 0423     		movs	r3, #4
 287 00dc 2370     		strb	r3, [r4]
 288 00de E268     		ldr	r2, [r4, #12]
 289 00e0 A168     		ldr	r1, [r4, #8]
 290 00e2 2046     		mov	r0, r4
 291 00e4 A847     		blx	r5
 292              	.LVL18:
 293 00e6 2378     		ldrb	r3, [r4]	@ zero_extendqisi2
 294 00e8 042B     		cmp	r3, #4
 295 00ea 0CD0     		beq	.L12
 296              	.L13:
 297              	.LVL19:
 298              	.LBB117:
 299              	.LBB118:
 300              	.LBB119:
 301              	.LBB120:
 302              	.LBB121:
 303              	.LBB122:
 304              		.loc 2 546 0 is_stmt 1 discriminator 9
 305 00ec 2023     		movs	r3, #32
 306              		.syntax unified
 307              	@ 546 "../../os/ext/CMSIS/include/core_cmFunc.h" 1
 308 00ee 83F31188 		MSR basepri, r3
 309              	@ 0 "" 2
 310              	.LVL20:
 311              		.thumb
 312              		.syntax unified
 313              	.LBE122:
 314              	.LBE121:
 315              	.LBE120:
 316              	.LBE119:
 317              	.LBE118:
 318              	.LBE117:
 319              	.LBB123:
 320              	.LBB124:
 321              		.loc 3 682 0 discriminator 9
 322 00f2 0021     		movs	r1, #0
 323 00f4 04F11400 		add	r0, r4, #20
 324              	.LVL21:
 325 00f8 FFF7FEFF 		bl	chThdResumeI
 326              	.LVL22:
 327              	.LBE124:
 328              	.LBE123:
 329              	.LBB125:
 330              	.LBB126:
 331              	.LBB127:
 332              	.LBB128:
 333              	.LBB129:
 334              	.LBB130:
 335              		.loc 2 546 0 discriminator 9
 336 00fc 0023     		movs	r3, #0
 337              		.syntax unified
 338              	@ 546 "../../os/ext/CMSIS/include/core_cmFunc.h" 1
 339 00fe 83F31188 		MSR basepri, r3
 340              	@ 0 "" 2
 341              		.thumb
 342              		.syntax unified
ARM GAS  /tmp/cc71xgtQ.s 			page 7


 343 0102 BDE8F081 		pop	{r4, r5, r6, r7, r8, pc}
 344              	.LVL23:
 345              	.L12:
 346              	.LBE130:
 347              	.LBE129:
 348              	.LBE128:
 349              	.LBE127:
 350              	.LBE126:
 351              	.LBE125:
 352              		.loc 1 89 0 discriminator 8
 353 0106 0222     		movs	r2, #2
 354 0108 0023     		movs	r3, #0
 355 010a 2270     		strb	r2, [r4]
 356 010c 2361     		str	r3, [r4, #16]
 357 010e EDE7     		b	.L13
 358              	.LVL24:
 359              	.L10:
 360              		.loc 1 89 0 is_stmt 0 discriminator 5
 361 0110 8168     		ldr	r1, [r0, #8]
 362              	.LVL25:
 363              		.loc 1 97 0 is_stmt 1 discriminator 5
 364 0112 BDE8F041 		pop	{r4, r5, r6, r7, r8, lr}
 365              		.cfi_restore 14
 366              		.cfi_restore 8
 367              		.cfi_restore 7
 368              		.cfi_restore 6
 369              		.cfi_restore 5
 370              		.cfi_restore 4
 371              		.cfi_def_cfa_offset 0
 372              		.loc 1 89 0 discriminator 5
 373 0116 1847     		bx	r3	@ indirect register sibling call
 374              	.LVL26:
 375              		.cfi_endproc
 376              	.LFE260:
 377              		.size	adc_lld_serve_rx_interrupt, .-adc_lld_serve_rx_interrupt
 378 0118 AFF30080 		.section	.text.Vector88,"ax",%progbits
 378      AFF30080 
 379              		.align	2
 380              		.p2align 4,,15
 381              		.global	Vector88
 382              		.thumb
 383              		.thumb_func
 384              		.type	Vector88, %function
 385              	Vector88:
 386              	.LFB261:
 387              		.loc 1 110 0
 388              		.cfi_startproc
 389              		@ args = 0, pretend = 0, frame = 0
 390              		@ frame_needed = 0, uses_anonymous_args = 0
 391 0000 F8B5     		push	{r3, r4, r5, r6, r7, lr}
 392              		.cfi_def_cfa_offset 24
 393              		.cfi_offset 3, -24
 394              		.cfi_offset 4, -20
 395              		.cfi_offset 5, -16
 396              		.cfi_offset 6, -12
 397              		.cfi_offset 7, -8
 398              		.cfi_offset 14, -4
ARM GAS  /tmp/cc71xgtQ.s 			page 8


 399              		.loc 1 116 0
 400 0002 1E4B     		ldr	r3, .L51
 401 0004 1A68     		ldr	r2, [r3]
 402              	.LVL27:
 403              		.loc 1 117 0
 404 0006 0021     		movs	r1, #0
 405 0008 1960     		str	r1, [r3]
 406              		.loc 1 120 0
 407 000a 9306     		lsls	r3, r2, #26
 408 000c 31D5     		bpl	.L35
 409              		.loc 1 120 0 is_stmt 0 discriminator 1
 410 000e 1C4C     		ldr	r4, .L51+4
 411 0010 E16A     		ldr	r1, [r4, #44]
 412 0012 0A68     		ldr	r2, [r1]
 413              	.LVL28:
 414 0014 5368     		ldr	r3, [r2, #4]
 415 0016 63B3     		cbz	r3, .L35
 416              		.loc 1 123 0 is_stmt 1
 417 0018 2569     		ldr	r5, [r4, #16]
 418 001a 55B3     		cbz	r5, .L35
 419              	.LVL29:
 420              	.LBB131:
 421              	.LBB132:
 422              		.loc 1 375 0
 423 001c 1368     		ldr	r3, [r2]
 424 001e 23F01F03 		bic	r3, r3, #31
 425 0022 1360     		str	r3, [r2]
 426              	.L36:
 427 0024 1368     		ldr	r3, [r2]
 428 0026 13F00103 		ands	r3, r3, #1
 429 002a FBD1     		bne	.L36
 430 002c 087A     		ldrb	r0, [r1, #8]	@ zero_extendqisi2
 431              	.LBE132:
 432              	.LBE131:
 433              		.loc 1 124 0
 434 002e AE68     		ldr	r6, [r5, #8]
 435              	.LBB134:
 436              	.LBB133:
 437              		.loc 1 375 0
 438 0030 4F68     		ldr	r7, [r1, #4]
 439              		.loc 1 376 0
 440 0032 A26A     		ldr	r2, [r4, #40]
 441 0034 124D     		ldr	r5, .L51+4
 442              		.loc 1 375 0
 443 0036 3D21     		movs	r1, #61
 444 0038 01FA00F0 		lsl	r0, r1, r0
 445              		.loc 1 378 0
 446 003c 0121     		movs	r1, #1
 447              		.loc 1 375 0
 448 003e 3860     		str	r0, [r7]
 449              		.loc 1 376 0
 450 0040 5360     		str	r3, [r2, #4]
 451              		.loc 1 377 0
 452 0042 9360     		str	r3, [r2, #8]
 453              		.loc 1 378 0
 454 0044 9160     		str	r1, [r2, #8]
 455              	.LBE133:
ARM GAS  /tmp/cc71xgtQ.s 			page 9


 456              	.LBE134:
 457              		.loc 1 124 0
 458 0046 46B1     		cbz	r6, .L38
 459              		.loc 1 124 0 is_stmt 0 discriminator 1
 460 0048 0523     		movs	r3, #5
 461 004a 2B70     		strb	r3, [r5]
 462 004c 2846     		mov	r0, r5
 463 004e B047     		blx	r6
 464              	.LVL30:
 465 0050 2B78     		ldrb	r3, [r5]	@ zero_extendqisi2
 466 0052 052B     		cmp	r3, #5
 467 0054 04BF     		itt	eq
 468 0056 0223     		moveq	r3, #2
 469 0058 2B70     		strbeq	r3, [r5]
 470              	.L38:
 471              		.loc 1 124 0 discriminator 5
 472 005a 0025     		movs	r5, #0
 473 005c 2561     		str	r5, [r4, #16]
 474              	.LVL31:
 475              	.LBB135:
 476              	.LBB136:
 477              	.LBB137:
 478              	.LBB138:
 479              	.LBB139:
 480              	.LBB140:
 481              		.loc 2 546 0 is_stmt 1 discriminator 5
 482 005e 2023     		movs	r3, #32
 483              		.syntax unified
 484              	@ 546 "../../os/ext/CMSIS/include/core_cmFunc.h" 1
 485 0060 83F31188 		MSR basepri, r3
 486              	@ 0 "" 2
 487              	.LVL32:
 488              		.thumb
 489              		.syntax unified
 490              	.LBE140:
 491              	.LBE139:
 492              	.LBE138:
 493              	.LBE137:
 494              	.LBE136:
 495              	.LBE135:
 496              	.LBB141:
 497              	.LBB142:
 498              		.loc 3 682 0 discriminator 5
 499 0064 4FF0FF31 		mov	r1, #-1
 500 0068 0648     		ldr	r0, .L51+8
 501 006a FFF7FEFF 		bl	chThdResumeI
 502              	.LVL33:
 503              	.LBE142:
 504              	.LBE141:
 505              	.LBB143:
 506              	.LBB144:
 507              	.LBB145:
 508              	.LBB146:
 509              	.LBB147:
 510              	.LBB148:
 511              		.loc 2 546 0 discriminator 5
 512              		.syntax unified
ARM GAS  /tmp/cc71xgtQ.s 			page 10


 513              	@ 546 "../../os/ext/CMSIS/include/core_cmFunc.h" 1
 514 006e 85F31188 		MSR basepri, r5
 515              	@ 0 "" 2
 516              	.LVL34:
 517              		.thumb
 518              		.syntax unified
 519              	.L35:
 520              	.LBE148:
 521              	.LBE147:
 522              	.LBE146:
 523              	.LBE145:
 524              	.LBE144:
 525              	.LBE143:
 526              		.loc 1 158 0
 527 0072 BDE8F840 		pop	{r3, r4, r5, r6, r7, lr}
 528              		.cfi_restore 14
 529              		.cfi_restore 7
 530              		.cfi_restore 6
 531              		.cfi_restore 5
 532              		.cfi_restore 4
 533              		.cfi_restore 3
 534              		.cfi_def_cfa_offset 0
 535              		.loc 1 157 0
 536 0076 FFF7FEBF 		b	_port_irq_epilogue
 537              	.LVL35:
 538              	.L52:
 539 007a 00BF     		.align	2
 540              	.L51:
 541 007c 00200140 		.word	1073815552
 542 0080 00000000 		.word	.LANCHOR0
 543 0084 14000000 		.word	.LANCHOR0+20
 544              		.cfi_endproc
 545              	.LFE261:
 546              		.size	Vector88, .-Vector88
 547 0088 AFF30080 		.section	.text.adc_lld_init,"ax",%progbits
 547      AFF30080 
 548              		.align	2
 549              		.p2align 4,,15
 550              		.global	adc_lld_init
 551              		.thumb
 552              		.thumb_func
 553              		.type	adc_lld_init, %function
 554              	adc_lld_init:
 555              	.LFB262:
 556              		.loc 1 170 0
 557              		.cfi_startproc
 558              		@ args = 0, pretend = 0, frame = 0
 559              		@ frame_needed = 0, uses_anonymous_args = 0
 560 0000 10B5     		push	{r4, lr}
 561              		.cfi_def_cfa_offset 8
 562              		.cfi_offset 4, -8
 563              		.cfi_offset 14, -4
 564              		.loc 1 174 0
 565 0002 084C     		ldr	r4, .L55
 566 0004 2046     		mov	r0, r4
 567 0006 FFF7FEFF 		bl	adcObjectInit
 568              	.LVL36:
ARM GAS  /tmp/cc71xgtQ.s 			page 11


 569              		.loc 1 175 0
 570 000a 0749     		ldr	r1, .L55+4
 571              		.loc 1 176 0
 572 000c 074A     		ldr	r2, .L55+8
 573              		.loc 1 177 0
 574 000e 084B     		ldr	r3, .L55+12
 575              		.loc 1 175 0
 576 0010 A162     		str	r1, [r4, #40]
 577              		.loc 1 176 0
 578 0012 E262     		str	r2, [r4, #44]
 579              		.loc 1 177 0
 580 0014 2363     		str	r3, [r4, #48]
 581              		.loc 1 213 0
 582 0016 0621     		movs	r1, #6
 583 0018 1220     		movs	r0, #18
 584              		.loc 1 214 0
 585 001a BDE81040 		pop	{r4, lr}
 586              		.cfi_restore 14
 587              		.cfi_restore 4
 588              		.cfi_def_cfa_offset 0
 589              		.loc 1 213 0
 590 001e FFF7FEBF 		b	nvicEnableVector
 591              	.LVL37:
 592              	.L56:
 593 0022 00BF     		.align	2
 594              	.L55:
 595 0024 00000000 		.word	.LANCHOR0
 596 0028 00200140 		.word	1073815552
 597 002c 90000000 		.word	_stm32_dma_streams+144
 598 0030 162C0200 		.word	142358
 599              		.cfi_endproc
 600              	.LFE262:
 601              		.size	adc_lld_init, .-adc_lld_init
 602 0034 AFF30080 		.section	.text.adc_lld_start,"ax",%progbits
 602      AFF30080 
 602      AFF30080 
 603              		.align	2
 604              		.p2align 4,,15
 605              		.global	adc_lld_start
 606              		.thumb
 607              		.thumb_func
 608              		.type	adc_lld_start, %function
 609              	adc_lld_start:
 610              	.LFB263:
 611              		.loc 1 223 0
 612              		.cfi_startproc
 613              		@ args = 0, pretend = 0, frame = 0
 614              		@ frame_needed = 0, uses_anonymous_args = 0
 615              	.LVL38:
 616              		.loc 1 226 0
 617 0000 0378     		ldrb	r3, [r0]	@ zero_extendqisi2
 618 0002 012B     		cmp	r3, #1
 619 0004 00D0     		beq	.L62
 620 0006 7047     		bx	lr
 621              	.L62:
 622              		.loc 1 228 0
 623 0008 114B     		ldr	r3, .L64
ARM GAS  /tmp/cc71xgtQ.s 			page 12


 624 000a 9842     		cmp	r0, r3
 625              		.loc 1 223 0
 626 000c 10B5     		push	{r4, lr}
 627              		.cfi_def_cfa_offset 8
 628              		.cfi_offset 4, -8
 629              		.cfi_offset 14, -4
 630 000e 0446     		mov	r4, r0
 631              		.loc 1 228 0
 632 0010 0DD0     		beq	.L63
 633              	.LVL39:
 634              	.L59:
 635              		.loc 1 268 0
 636 0012 1048     		ldr	r0, .L64+4
 637              		.loc 1 273 0
 638 0014 A26A     		ldr	r2, [r4, #40]
 639              		.loc 1 268 0
 640 0016 4368     		ldr	r3, [r0, #4]
 641 0018 03F44003 		and	r3, r3, #12582912
 642              		.loc 1 273 0
 643 001c 0021     		movs	r1, #0
 644              		.loc 1 268 0
 645 001e 43F48033 		orr	r3, r3, #65536
 646              		.loc 1 275 0
 647 0022 0124     		movs	r4, #1
 648              	.LVL40:
 649              		.loc 1 268 0
 650 0024 4360     		str	r3, [r0, #4]
 651              		.loc 1 273 0
 652 0026 5160     		str	r1, [r2, #4]
 653              		.loc 1 274 0
 654 0028 9160     		str	r1, [r2, #8]
 655              		.loc 1 275 0
 656 002a 9460     		str	r4, [r2, #8]
 657 002c 10BD     		pop	{r4, pc}
 658              	.LVL41:
 659              	.L63:
 660              	.LBB149:
 661              		.loc 1 230 0
 662 002e 0346     		mov	r3, r0
 663 0030 094A     		ldr	r2, .L64+8
 664 0032 C06A     		ldr	r0, [r0, #44]
 665              	.LVL42:
 666 0034 0621     		movs	r1, #6
 667 0036 FFF7FEFF 		bl	dmaStreamAllocate
 668              	.LVL43:
 669              		.loc 1 235 0
 670 003a E36A     		ldr	r3, [r4, #44]
 671              		.loc 1 236 0
 672 003c 074A     		ldr	r2, .L64+12
 673              		.loc 1 235 0
 674 003e 1B68     		ldr	r3, [r3]
 675 0040 0749     		ldr	r1, .L64+16
 676 0042 9960     		str	r1, [r3, #8]
 677              		.loc 1 236 0
 678 0044 536C     		ldr	r3, [r2, #68]
 679 0046 43F48073 		orr	r3, r3, #256
 680 004a 5364     		str	r3, [r2, #68]
ARM GAS  /tmp/cc71xgtQ.s 			page 13


 681 004c E1E7     		b	.L59
 682              	.L65:
 683 004e 00BF     		.align	2
 684              	.L64:
 685 0050 00000000 		.word	.LANCHOR0
 686 0054 00230140 		.word	1073816320
 687 0058 00000000 		.word	adc_lld_serve_rx_interrupt
 688 005c 00380240 		.word	1073887232
 689 0060 4C200140 		.word	1073815628
 690              	.LBE149:
 691              		.cfi_endproc
 692              	.LFE263:
 693              		.size	adc_lld_start, .-adc_lld_start
 694 0064 AFF30080 		.section	.text.adc_lld_stop,"ax",%progbits
 694      AFF30080 
 694      AFF30080 
 695              		.align	2
 696              		.p2align 4,,15
 697              		.global	adc_lld_stop
 698              		.thumb
 699              		.thumb_func
 700              		.type	adc_lld_stop, %function
 701              	adc_lld_stop:
 702              	.LFB264:
 703              		.loc 1 286 0
 704              		.cfi_startproc
 705              		@ args = 0, pretend = 0, frame = 0
 706              		@ frame_needed = 0, uses_anonymous_args = 0
 707              	.LVL44:
 708              		.loc 1 289 0
 709 0000 0378     		ldrb	r3, [r0]	@ zero_extendqisi2
 710 0002 022B     		cmp	r3, #2
 711 0004 00D0     		beq	.L72
 712 0006 7047     		bx	lr
 713              	.L72:
 714              		.loc 1 286 0
 715 0008 10B5     		push	{r4, lr}
 716              		.cfi_def_cfa_offset 8
 717              		.cfi_offset 4, -8
 718              		.cfi_offset 14, -4
 719 000a 0446     		mov	r4, r0
 720              		.loc 1 290 0
 721 000c C06A     		ldr	r0, [r0, #44]
 722              	.LVL45:
 723 000e FFF7FEFF 		bl	dmaStreamRelease
 724              	.LVL46:
 725              		.loc 1 295 0
 726 0012 0749     		ldr	r1, .L74
 727              		.loc 1 291 0
 728 0014 A36A     		ldr	r3, [r4, #40]
 729 0016 0022     		movs	r2, #0
 730              		.loc 1 295 0
 731 0018 8C42     		cmp	r4, r1
 732              		.loc 1 291 0
 733 001a 5A60     		str	r2, [r3, #4]
 734              		.loc 1 292 0
 735 001c 9A60     		str	r2, [r3, #8]
ARM GAS  /tmp/cc71xgtQ.s 			page 14


 736              		.loc 1 295 0
 737 001e 00D0     		beq	.L73
 738              	.L66:
 739 0020 10BD     		pop	{r4, pc}
 740              	.LVL47:
 741              	.L73:
 742              		.loc 1 296 0
 743 0022 044A     		ldr	r2, .L74+4
 744 0024 536C     		ldr	r3, [r2, #68]
 745 0026 23F48073 		bic	r3, r3, #256
 746 002a 5364     		str	r3, [r2, #68]
 747              		.loc 1 309 0
 748 002c F8E7     		b	.L66
 749              	.L75:
 750 002e 00BF     		.align	2
 751              	.L74:
 752 0030 00000000 		.word	.LANCHOR0
 753 0034 00380240 		.word	1073887232
 754              		.cfi_endproc
 755              	.LFE264:
 756              		.size	adc_lld_stop, .-adc_lld_stop
 757 0038 AFF30080 		.section	.text.adc_lld_start_conversion,"ax",%progbits
 757      AFF30080 
 758              		.align	2
 759              		.p2align 4,,15
 760              		.global	adc_lld_start_conversion
 761              		.thumb
 762              		.thumb_func
 763              		.type	adc_lld_start_conversion, %function
 764              	adc_lld_start_conversion:
 765              	.LFB265:
 766              		.loc 1 318 0
 767              		.cfi_startproc
 768              		@ args = 0, pretend = 0, frame = 0
 769              		@ frame_needed = 0, uses_anonymous_args = 0
 770              	.LVL48:
 771              		.loc 1 321 0
 772 0000 0369     		ldr	r3, [r0, #16]
 773              	.LVL49:
 774              		.loc 1 324 0
 775 0002 016B     		ldr	r1, [r0, #48]
 776              	.LVL50:
 777              		.loc 1 325 0
 778 0004 1A78     		ldrb	r2, [r3]	@ zero_extendqisi2
 779              		.loc 1 318 0
 780 0006 F0B5     		push	{r4, r5, r6, r7, lr}
 781              		.cfi_def_cfa_offset 20
 782              		.cfi_offset 4, -20
 783              		.cfi_offset 5, -16
 784              		.cfi_offset 6, -12
 785              		.cfi_offset 7, -8
 786              		.cfi_offset 14, -4
 787              		.loc 1 325 0
 788 0008 002A     		cmp	r2, #0
 789 000a 2BD1     		bne	.L77
 790 000c C268     		ldr	r2, [r0, #12]
 791              	.L78:
ARM GAS  /tmp/cc71xgtQ.s 			page 15


 792              		.loc 1 333 0
 793 000e C56A     		ldr	r5, [r0, #44]
 794              		.loc 1 334 0
 795 0010 5C88     		ldrh	r4, [r3, #2]
 796              		.loc 1 333 0
 797 0012 2D68     		ldr	r5, [r5]
 798 0014 8668     		ldr	r6, [r0, #8]
 799 0016 EE60     		str	r6, [r5, #12]
 800              		.loc 1 334 0
 801 0018 02FB04F2 		mul	r2, r2, r4
 802 001c 6A60     		str	r2, [r5, #4]
 803              		.loc 1 348 0
 804 001e DC68     		ldr	r4, [r3, #12]
 805              		.loc 1 336 0
 806 0020 2960     		str	r1, [r5]
 807              		.loc 1 337 0
 808 0022 2E68     		ldr	r6, [r5]
 809              		.loc 1 340 0
 810 0024 826A     		ldr	r2, [r0, #40]
 811              		.loc 1 351 0
 812 0026 1969     		ldr	r1, [r3, #16]
 813              	.LVL51:
 814              		.loc 1 341 0
 815 0028 D3F814E0 		ldr	lr, [r3, #20]
 816              		.loc 1 342 0
 817 002c 9F69     		ldr	r7, [r3, #24]
 818              		.loc 1 348 0
 819 002e 44F08060 		orr	r0, r4, #67108864
 820              	.LVL52:
 821              		.loc 1 337 0
 822 0032 46F00104 		orr	r4, r6, #1
 823 0036 2C60     		str	r4, [r5]
 824              	.LVL53:
 825              		.loc 1 340 0
 826 0038 0024     		movs	r4, #0
 827              		.loc 1 343 0
 828 003a DD69     		ldr	r5, [r3, #28]
 829              		.loc 1 340 0
 830 003c 1460     		str	r4, [r2]
 831              		.loc 1 344 0
 832 003e 1C6A     		ldr	r4, [r3, #32]
 833              		.loc 1 345 0
 834 0040 5B6A     		ldr	r3, [r3, #36]
 835              	.LVL54:
 836              		.loc 1 341 0
 837 0042 C2F80CE0 		str	lr, [r2, #12]
 838              		.loc 1 348 0
 839 0046 40F48070 		orr	r0, r0, #256
 840              		.loc 1 342 0
 841 004a 1761     		str	r7, [r2, #16]
 842              		.loc 1 343 0
 843 004c D562     		str	r5, [r2, #44]
 844              		.loc 1 344 0
 845 004e 1463     		str	r4, [r2, #48]
 846              		.loc 1 345 0
 847 0050 5363     		str	r3, [r2, #52]
 848              		.loc 1 355 0
ARM GAS  /tmp/cc71xgtQ.s 			page 16


 849 0052 4B00     		lsls	r3, r1, #1
 850              		.loc 1 348 0
 851 0054 5060     		str	r0, [r2, #4]
 852              		.loc 1 355 0
 853 0056 0DD4     		bmi	.L83
 854              		.loc 1 351 0
 855 0058 41F44071 		orr	r1, r1, #768
 856              	.LVL55:
 857 005c 41F00101 		orr	r1, r1, #1
 858              		.loc 1 363 0
 859 0060 9160     		str	r1, [r2, #8]
 860              	.LVL56:
 861 0062 F0BD     		pop	{r4, r5, r6, r7, pc}
 862              	.LVL57:
 863              	.L77:
 864              		.loc 1 327 0
 865 0064 C268     		ldr	r2, [r0, #12]
 866 0066 012A     		cmp	r2, #1
 867              		.loc 1 326 0
 868 0068 94BF     		ite	ls
 869 006a 41F48071 		orrls	r1, r1, #256
 870              	.LVL58:
 871              		.loc 1 330 0
 872 006e 41F48471 		orrhi	r1, r1, #264
 873              	.LVL59:
 874 0072 CCE7     		b	.L78
 875              	.LVL60:
 876              	.L83:
 877              		.loc 1 357 0
 878 0074 21F08043 		bic	r3, r1, #1073741824
 879 0078 23F00203 		bic	r3, r3, #2
 880 007c 43F44073 		orr	r3, r3, #768
 881              		.loc 1 360 0
 882 0080 41F44071 		orr	r1, r1, #768
 883              	.LVL61:
 884              		.loc 1 357 0
 885 0084 43F00303 		orr	r3, r3, #3
 886              		.loc 1 360 0
 887 0088 41F00301 		orr	r1, r1, #3
 888              		.loc 1 357 0
 889 008c 9360     		str	r3, [r2, #8]
 890              		.loc 1 360 0
 891 008e 9160     		str	r1, [r2, #8]
 892              	.LVL62:
 893 0090 F0BD     		pop	{r4, r5, r6, r7, pc}
 894              		.cfi_endproc
 895              	.LFE265:
 896              		.size	adc_lld_start_conversion, .-adc_lld_start_conversion
 897 0092 00BFAFF3 		.section	.text.adc_lld_stop_conversion,"ax",%progbits
 897      0080AFF3 
 897      0080AFF3 
 897      0080
 898              		.align	2
 899              		.p2align 4,,15
 900              		.global	adc_lld_stop_conversion
 901              		.thumb
 902              		.thumb_func
ARM GAS  /tmp/cc71xgtQ.s 			page 17


 903              		.type	adc_lld_stop_conversion, %function
 904              	adc_lld_stop_conversion:
 905              	.LFB266:
 906              		.loc 1 373 0
 907              		.cfi_startproc
 908              		@ args = 0, pretend = 0, frame = 0
 909              		@ frame_needed = 0, uses_anonymous_args = 0
 910              		@ link register save eliminated.
 911              	.LVL63:
 912 0000 30B4     		push	{r4, r5}
 913              		.cfi_def_cfa_offset 8
 914              		.cfi_offset 4, -8
 915              		.cfi_offset 5, -4
 916              		.loc 1 375 0
 917 0002 C46A     		ldr	r4, [r0, #44]
 918 0004 2268     		ldr	r2, [r4]
 919 0006 1368     		ldr	r3, [r2]
 920 0008 23F01F03 		bic	r3, r3, #31
 921 000c 1360     		str	r3, [r2]
 922              	.L85:
 923              		.loc 1 375 0 is_stmt 0 discriminator 2
 924 000e 1368     		ldr	r3, [r2]
 925 0010 13F00103 		ands	r3, r3, #1
 926 0014 FBD1     		bne	.L85
 927              		.loc 1 375 0 discriminator 3
 928 0016 257A     		ldrb	r5, [r4, #8]	@ zero_extendqisi2
 929              		.loc 1 376 0 is_stmt 1 discriminator 3
 930 0018 826A     		ldr	r2, [r0, #40]
 931              		.loc 1 375 0 discriminator 3
 932 001a 6468     		ldr	r4, [r4, #4]
 933 001c 3D21     		movs	r1, #61
 934 001e A940     		lsls	r1, r1, r5
 935              		.loc 1 378 0 discriminator 3
 936 0020 0120     		movs	r0, #1
 937              	.LVL64:
 938              		.loc 1 375 0 discriminator 3
 939 0022 2160     		str	r1, [r4]
 940              		.loc 1 376 0 discriminator 3
 941 0024 5360     		str	r3, [r2, #4]
 942              		.loc 1 379 0 discriminator 3
 943 0026 30BC     		pop	{r4, r5}
 944              		.cfi_restore 5
 945              		.cfi_restore 4
 946              		.cfi_def_cfa_offset 0
 947              		.loc 1 377 0 discriminator 3
 948 0028 9360     		str	r3, [r2, #8]
 949              		.loc 1 378 0 discriminator 3
 950 002a 9060     		str	r0, [r2, #8]
 951              		.loc 1 379 0 discriminator 3
 952 002c 7047     		bx	lr
 953              		.cfi_endproc
 954              	.LFE266:
 955              		.size	adc_lld_stop_conversion, .-adc_lld_stop_conversion
 956 002e 00BF     		.section	.text.adcSTM32EnableTSVREFE,"ax",%progbits
 957              		.align	2
 958              		.p2align 4,,15
 959              		.global	adcSTM32EnableTSVREFE
ARM GAS  /tmp/cc71xgtQ.s 			page 18


 960              		.thumb
 961              		.thumb_func
 962              		.type	adcSTM32EnableTSVREFE, %function
 963              	adcSTM32EnableTSVREFE:
 964              	.LFB267:
 965              		.loc 1 387 0
 966              		.cfi_startproc
 967              		@ args = 0, pretend = 0, frame = 0
 968              		@ frame_needed = 0, uses_anonymous_args = 0
 969              		@ link register save eliminated.
 970              		.loc 1 389 0
 971 0000 024A     		ldr	r2, .L89
 972 0002 5368     		ldr	r3, [r2, #4]
 973 0004 43F40003 		orr	r3, r3, #8388608
 974 0008 5360     		str	r3, [r2, #4]
 975 000a 7047     		bx	lr
 976              	.L90:
 977              		.align	2
 978              	.L89:
 979 000c 00230140 		.word	1073816320
 980              		.cfi_endproc
 981              	.LFE267:
 982              		.size	adcSTM32EnableTSVREFE, .-adcSTM32EnableTSVREFE
 983              		.section	.text.adcSTM32DisableTSVREFE,"ax",%progbits
 984              		.align	2
 985              		.p2align 4,,15
 986              		.global	adcSTM32DisableTSVREFE
 987              		.thumb
 988              		.thumb_func
 989              		.type	adcSTM32DisableTSVREFE, %function
 990              	adcSTM32DisableTSVREFE:
 991              	.LFB268:
 992              		.loc 1 398 0
 993              		.cfi_startproc
 994              		@ args = 0, pretend = 0, frame = 0
 995              		@ frame_needed = 0, uses_anonymous_args = 0
 996              		@ link register save eliminated.
 997              		.loc 1 400 0
 998 0000 024A     		ldr	r2, .L92
 999 0002 5368     		ldr	r3, [r2, #4]
 1000 0004 23F40003 		bic	r3, r3, #8388608
 1001 0008 5360     		str	r3, [r2, #4]
 1002 000a 7047     		bx	lr
 1003              	.L93:
 1004              		.align	2
 1005              	.L92:
 1006 000c 00230140 		.word	1073816320
 1007              		.cfi_endproc
 1008              	.LFE268:
 1009              		.size	adcSTM32DisableTSVREFE, .-adcSTM32DisableTSVREFE
 1010              		.section	.text.adcSTM32EnableVBATE,"ax",%progbits
 1011              		.align	2
 1012              		.p2align 4,,15
 1013              		.global	adcSTM32EnableVBATE
 1014              		.thumb
 1015              		.thumb_func
 1016              		.type	adcSTM32EnableVBATE, %function
ARM GAS  /tmp/cc71xgtQ.s 			page 19


 1017              	adcSTM32EnableVBATE:
 1018              	.LFB269:
 1019              		.loc 1 409 0
 1020              		.cfi_startproc
 1021              		@ args = 0, pretend = 0, frame = 0
 1022              		@ frame_needed = 0, uses_anonymous_args = 0
 1023              		@ link register save eliminated.
 1024              		.loc 1 411 0
 1025 0000 024A     		ldr	r2, .L95
 1026 0002 5368     		ldr	r3, [r2, #4]
 1027 0004 43F48003 		orr	r3, r3, #4194304
 1028 0008 5360     		str	r3, [r2, #4]
 1029 000a 7047     		bx	lr
 1030              	.L96:
 1031              		.align	2
 1032              	.L95:
 1033 000c 00230140 		.word	1073816320
 1034              		.cfi_endproc
 1035              	.LFE269:
 1036              		.size	adcSTM32EnableVBATE, .-adcSTM32EnableVBATE
 1037              		.section	.text.adcSTM32DisableVBATE,"ax",%progbits
 1038              		.align	2
 1039              		.p2align 4,,15
 1040              		.global	adcSTM32DisableVBATE
 1041              		.thumb
 1042              		.thumb_func
 1043              		.type	adcSTM32DisableVBATE, %function
 1044              	adcSTM32DisableVBATE:
 1045              	.LFB270:
 1046              		.loc 1 420 0
 1047              		.cfi_startproc
 1048              		@ args = 0, pretend = 0, frame = 0
 1049              		@ frame_needed = 0, uses_anonymous_args = 0
 1050              		@ link register save eliminated.
 1051              		.loc 1 422 0
 1052 0000 024A     		ldr	r2, .L98
 1053 0002 5368     		ldr	r3, [r2, #4]
 1054 0004 23F48003 		bic	r3, r3, #4194304
 1055 0008 5360     		str	r3, [r2, #4]
 1056 000a 7047     		bx	lr
 1057              	.L99:
 1058              		.align	2
 1059              	.L98:
 1060 000c 00230140 		.word	1073816320
 1061              		.cfi_endproc
 1062              	.LFE270:
 1063              		.size	adcSTM32DisableVBATE, .-adcSTM32DisableVBATE
 1064              		.global	ADCD1
 1065              		.section	.bss.ADCD1,"aw",%nobits
 1066              		.align	2
 1067              		.set	.LANCHOR0,. + 0
 1068              		.type	ADCD1, %object
 1069              		.size	ADCD1, 52
 1070              	ADCD1:
 1071 0000 00000000 		.space	52
 1071      00000000 
 1071      00000000 
ARM GAS  /tmp/cc71xgtQ.s 			page 20


 1071      00000000 
 1071      00000000 
 1072              		.text
 1073              	.Letext0:
 1074              		.file 4 "/usr/lib/gcc/arm-none-eabi/5.2.0/include/stddef.h"
 1075              		.file 5 "/usr/arm-none-eabi/include/machine/_default_types.h"
 1076              		.file 6 "/usr/arm-none-eabi/include/stdint.h"
 1077              		.file 7 "../../os/rt/ports/ARMCMx/compilers/GCC/chtypes.h"
 1078              		.file 8 "../../os/rt/include/chsystypes.h"
 1079              		.file 9 "../../os/rt/include/chschd.h"
 1080              		.file 10 "../../os/ext/CMSIS/ST/stm32f401xc.h"
 1081              		.file 11 "../../os/rt/ports/ARMCMx/chcore.h"
 1082              		.file 12 "../../os/rt/ports/ARMCMx/chcore_v7m.h"
 1083              		.file 13 "../../os/rt/include/chtm.h"
 1084              		.file 14 "../../os/rt/include/chsem.h"
 1085              		.file 15 "../../os/rt/include/chmtx.h"
 1086              		.file 16 "../../os/hal/ports/STM32/STM32F4xx/stm32_dma.h"
 1087              		.file 17 "../../os/hal/include/adc.h"
 1088              		.file 18 "../../os/hal/ports/STM32/STM32F4xx/adc_lld.h"
 1089              		.file 19 "../../os/rt/include/chsys.h"
 1090              		.file 20 "../../os/ext/CMSIS/include/core_cm4.h"
 1091              		.file 21 "../../os/rt/include/chthreads.h"
 1092              		.file 22 "../../os/hal/ports/common/ARMCMx/nvic.h"