ARM GAS  /tmp/ccGAvQPp.s 			page 1


   1              		.syntax unified
   2              		.cpu cortex-m4
   3              		.eabi_attribute 27, 1
   4              		.eabi_attribute 28, 1
   5              		.fpu fpv4-sp-d16
   6              		.eabi_attribute 20, 1
   7              		.eabi_attribute 21, 1
   8              		.eabi_attribute 23, 3
   9              		.eabi_attribute 24, 1
  10              		.eabi_attribute 25, 1
  11              		.eabi_attribute 26, 1
  12              		.eabi_attribute 30, 2
  13              		.eabi_attribute 34, 1
  14              		.eabi_attribute 18, 4
  15              		.thumb
  16              		.syntax unified
  17              		.file	"chevents.c"
  18              		.text
  19              	.Ltext0:
  20              		.cfi_sections	.debug_frame
  21              		.section	.text.chEvtRegisterMaskWithFlags,"ax",%progbits
  22              		.align	2
  23              		.p2align 4,,15
  24              		.global	chEvtRegisterMaskWithFlags
  25              		.thumb
  26              		.thumb_func
  27              		.type	chEvtRegisterMaskWithFlags, %function
  28              	chEvtRegisterMaskWithFlags:
  29              	.LFB229:
  30              		.file 1 "../../os/rt/src/chevents.c"
  31              		.loc 1 106 0
  32              		.cfi_startproc
  33              		@ args = 0, pretend = 0, frame = 0
  34              		@ frame_needed = 0, uses_anonymous_args = 0
  35              		@ link register save eliminated.
  36              	.LVL0:
  37 0000 30B4     		push	{r4, r5}
  38              		.cfi_def_cfa_offset 8
  39              		.cfi_offset 4, -8
  40              		.cfi_offset 5, -4
  41              	.LBB174:
  42              	.LBB175:
  43              	.LBB176:
  44              	.LBB177:
  45              		.file 2 "../../os/ext/CMSIS/include/core_cmFunc.h"
  46              		.loc 2 546 0
  47 0002 2024     		movs	r4, #32
  48              		.syntax unified
  49              	@ 546 "../../os/ext/CMSIS/include/core_cmFunc.h" 1
  50 0004 84F31188 		MSR basepri, r4
  51              	@ 0 "" 2
  52              		.thumb
  53              		.syntax unified
  54              	.LBE177:
  55              	.LBE176:
  56              	.LBE175:
  57              	.LBE174:
ARM GAS  /tmp/ccGAvQPp.s 			page 2


  58              		.loc 1 113 0
  59 0008 064D     		ldr	r5, .L3
  60              		.loc 1 111 0
  61 000a 0468     		ldr	r4, [r0]
  62              		.loc 1 113 0
  63 000c AD69     		ldr	r5, [r5, #24]
  64              		.loc 1 111 0
  65 000e 0C60     		str	r4, [r1]
  66              		.loc 1 115 0
  67 0010 0024     		movs	r4, #0
  68              		.loc 1 112 0
  69 0012 0160     		str	r1, [r0]
  70              		.loc 1 113 0
  71 0014 4D60     		str	r5, [r1, #4]
  72              		.loc 1 114 0
  73 0016 8A60     		str	r2, [r1, #8]
  74              		.loc 1 116 0
  75 0018 0B61     		str	r3, [r1, #16]
  76              	.LVL1:
  77              		.loc 1 115 0
  78 001a CC60     		str	r4, [r1, #12]
  79              	.LBB178:
  80              	.LBB179:
  81              	.LBB180:
  82              	.LBB181:
  83              	.LBB182:
  84              		.loc 2 546 0
  85              		.syntax unified
  86              	@ 546 "../../os/ext/CMSIS/include/core_cmFunc.h" 1
  87 001c 84F31188 		MSR basepri, r4
  88              	@ 0 "" 2
  89              		.thumb
  90              		.syntax unified
  91              	.LBE182:
  92              	.LBE181:
  93              	.LBE180:
  94              	.LBE179:
  95              	.LBE178:
  96              		.loc 1 118 0
  97 0020 30BC     		pop	{r4, r5}
  98              		.cfi_restore 5
  99              		.cfi_restore 4
 100              		.cfi_def_cfa_offset 0
 101 0022 7047     		bx	lr
 102              	.L4:
 103              		.align	2
 104              	.L3:
 105 0024 00000000 		.word	ch
 106              		.cfi_endproc
 107              	.LFE229:
 108              		.size	chEvtRegisterMaskWithFlags, .-chEvtRegisterMaskWithFlags
 109 0028 AFF30080 		.section	.text.chEvtUnregister,"ax",%progbits
 109      AFF30080 
 110              		.align	2
 111              		.p2align 4,,15
 112              		.global	chEvtUnregister
 113              		.thumb
ARM GAS  /tmp/ccGAvQPp.s 			page 3


 114              		.thumb_func
 115              		.type	chEvtUnregister, %function
 116              	chEvtUnregister:
 117              	.LFB230:
 118              		.loc 1 133 0
 119              		.cfi_startproc
 120              		@ args = 0, pretend = 0, frame = 0
 121              		@ frame_needed = 0, uses_anonymous_args = 0
 122              		@ link register save eliminated.
 123              	.LVL2:
 124              	.LBB183:
 125              	.LBB184:
 126              	.LBB185:
 127              	.LBB186:
 128              		.loc 2 546 0
 129 0000 2023     		movs	r3, #32
 130              		.syntax unified
 131              	@ 546 "../../os/ext/CMSIS/include/core_cmFunc.h" 1
 132 0002 83F31188 		MSR basepri, r3
 133              	@ 0 "" 2
 134              		.thumb
 135              		.syntax unified
 136              	.LBE186:
 137              	.LBE185:
 138              	.LBE184:
 139              	.LBE183:
 140              		.loc 1 139 0
 141 0006 0246     		mov	r2, r0
 142 0008 02E0     		b	.L6
 143              	.LVL3:
 144              	.L8:
 145              		.loc 1 145 0
 146 000a 8B42     		cmp	r3, r1
 147 000c 07D0     		beq	.L11
 148 000e 1A46     		mov	r2, r3
 149              	.LVL4:
 150              	.L6:
 151              		.loc 1 143 0
 152 0010 1368     		ldr	r3, [r2]
 153 0012 9842     		cmp	r0, r3
 154 0014 F9D1     		bne	.L8
 155              	.LVL5:
 156              	.LBB187:
 157              	.LBB188:
 158              	.LBB189:
 159              	.LBB190:
 160              	.LBB191:
 161              		.loc 2 546 0
 162 0016 0023     		movs	r3, #0
 163              		.syntax unified
 164              	@ 546 "../../os/ext/CMSIS/include/core_cmFunc.h" 1
 165 0018 83F31188 		MSR basepri, r3
 166              	@ 0 "" 2
 167              		.thumb
 168              		.syntax unified
 169 001c 7047     		bx	lr
 170              	.LVL6:
ARM GAS  /tmp/ccGAvQPp.s 			page 4


 171              	.L11:
 172              	.LBE191:
 173              	.LBE190:
 174              	.LBE189:
 175              	.LBE188:
 176              	.LBE187:
 177              		.loc 1 146 0
 178 001e 0B68     		ldr	r3, [r1]
 179 0020 1360     		str	r3, [r2]
 180              	.LVL7:
 181              	.LBB196:
 182              	.LBB195:
 183              	.LBB194:
 184              	.LBB193:
 185              	.LBB192:
 186              		.loc 2 546 0
 187 0022 0023     		movs	r3, #0
 188              		.syntax unified
 189              	@ 546 "../../os/ext/CMSIS/include/core_cmFunc.h" 1
 190 0024 83F31188 		MSR basepri, r3
 191              	@ 0 "" 2
 192              		.thumb
 193              		.syntax unified
 194 0028 7047     		bx	lr
 195              	.LBE192:
 196              	.LBE193:
 197              	.LBE194:
 198              	.LBE195:
 199              	.LBE196:
 200              		.cfi_endproc
 201              	.LFE230:
 202              		.size	chEvtUnregister, .-chEvtUnregister
 203 002a 00BFAFF3 		.section	.text.chEvtGetAndClearEvents,"ax",%progbits
 203      0080
 204              		.align	2
 205              		.p2align 4,,15
 206              		.global	chEvtGetAndClearEvents
 207              		.thumb
 208              		.thumb_func
 209              		.type	chEvtGetAndClearEvents, %function
 210              	chEvtGetAndClearEvents:
 211              	.LFB231:
 212              		.loc 1 162 0
 213              		.cfi_startproc
 214              		@ args = 0, pretend = 0, frame = 0
 215              		@ frame_needed = 0, uses_anonymous_args = 0
 216              		@ link register save eliminated.
 217              	.LVL8:
 218              	.LBB197:
 219              	.LBB198:
 220              	.LBB199:
 221              	.LBB200:
 222              		.loc 2 546 0
 223 0000 2023     		movs	r3, #32
 224              		.syntax unified
 225              	@ 546 "../../os/ext/CMSIS/include/core_cmFunc.h" 1
 226 0002 83F31188 		MSR basepri, r3
ARM GAS  /tmp/ccGAvQPp.s 			page 5


 227              	@ 0 "" 2
 228              		.thumb
 229              		.syntax unified
 230              	.LBE200:
 231              	.LBE199:
 232              	.LBE198:
 233              	.LBE197:
 234              		.loc 1 166 0
 235 0006 054B     		ldr	r3, .L13
 236 0008 9A69     		ldr	r2, [r3, #24]
 237 000a 536B     		ldr	r3, [r2, #52]
 238              	.LVL9:
 239              		.loc 1 167 0
 240 000c 23EA0001 		bic	r1, r3, r0
 241 0010 5163     		str	r1, [r2, #52]
 242              	.LVL10:
 243              	.LBB201:
 244              	.LBB202:
 245              	.LBB203:
 246              	.LBB204:
 247              	.LBB205:
 248              		.loc 2 546 0
 249 0012 0022     		movs	r2, #0
 250              		.syntax unified
 251              	@ 546 "../../os/ext/CMSIS/include/core_cmFunc.h" 1
 252 0014 82F31188 		MSR basepri, r2
 253              	@ 0 "" 2
 254              		.thumb
 255              		.syntax unified
 256              	.LBE205:
 257              	.LBE204:
 258              	.LBE203:
 259              	.LBE202:
 260              	.LBE201:
 261              		.loc 1 171 0
 262 0018 1840     		ands	r0, r0, r3
 263              	.LVL11:
 264 001a 7047     		bx	lr
 265              	.L14:
 266              		.align	2
 267              	.L13:
 268 001c 00000000 		.word	ch
 269              		.cfi_endproc
 270              	.LFE231:
 271              		.size	chEvtGetAndClearEvents, .-chEvtGetAndClearEvents
 272              		.section	.text.chEvtAddEvents,"ax",%progbits
 273              		.align	2
 274              		.p2align 4,,15
 275              		.global	chEvtAddEvents
 276              		.thumb
 277              		.thumb_func
 278              		.type	chEvtAddEvents, %function
 279              	chEvtAddEvents:
 280              	.LFB232:
 281              		.loc 1 182 0
 282              		.cfi_startproc
 283              		@ args = 0, pretend = 0, frame = 0
ARM GAS  /tmp/ccGAvQPp.s 			page 6


 284              		@ frame_needed = 0, uses_anonymous_args = 0
 285              		@ link register save eliminated.
 286              	.LVL12:
 287              	.LBB206:
 288              	.LBB207:
 289              	.LBB208:
 290              	.LBB209:
 291              		.loc 2 546 0
 292 0000 2023     		movs	r3, #32
 293              		.syntax unified
 294              	@ 546 "../../os/ext/CMSIS/include/core_cmFunc.h" 1
 295 0002 83F31188 		MSR basepri, r3
 296              	@ 0 "" 2
 297              		.thumb
 298              		.syntax unified
 299              	.LBE209:
 300              	.LBE208:
 301              	.LBE207:
 302              	.LBE206:
 303              		.loc 1 185 0
 304 0006 044B     		ldr	r3, .L16
 305 0008 9A69     		ldr	r2, [r3, #24]
 306 000a 536B     		ldr	r3, [r2, #52]
 307 000c 1843     		orrs	r0, r0, r3
 308              	.LVL13:
 309 000e 5063     		str	r0, [r2, #52]
 310              	.LVL14:
 311              	.LBB210:
 312              	.LBB211:
 313              	.LBB212:
 314              	.LBB213:
 315              	.LBB214:
 316              		.loc 2 546 0
 317 0010 0023     		movs	r3, #0
 318              		.syntax unified
 319              	@ 546 "../../os/ext/CMSIS/include/core_cmFunc.h" 1
 320 0012 83F31188 		MSR basepri, r3
 321              	@ 0 "" 2
 322              		.thumb
 323              		.syntax unified
 324              	.LBE214:
 325              	.LBE213:
 326              	.LBE212:
 327              	.LBE211:
 328              	.LBE210:
 329              		.loc 1 190 0
 330 0016 7047     		bx	lr
 331              	.L17:
 332              		.align	2
 333              	.L16:
 334 0018 00000000 		.word	ch
 335              		.cfi_endproc
 336              	.LFE232:
 337              		.size	chEvtAddEvents, .-chEvtAddEvents
 338 001c AFF30080 		.section	.text.chEvtGetAndClearFlags,"ax",%progbits
 339              		.align	2
 340              		.p2align 4,,15
ARM GAS  /tmp/ccGAvQPp.s 			page 7


 341              		.global	chEvtGetAndClearFlags
 342              		.thumb
 343              		.thumb_func
 344              		.type	chEvtGetAndClearFlags, %function
 345              	chEvtGetAndClearFlags:
 346              	.LFB234:
 347              		.loc 1 241 0
 348              		.cfi_startproc
 349              		@ args = 0, pretend = 0, frame = 0
 350              		@ frame_needed = 0, uses_anonymous_args = 0
 351              		@ link register save eliminated.
 352              	.LVL15:
 353              		.loc 1 241 0
 354 0000 0246     		mov	r2, r0
 355              	.LBB215:
 356              	.LBB216:
 357              	.LBB217:
 358              	.LBB218:
 359              		.loc 2 546 0
 360 0002 2023     		movs	r3, #32
 361              		.syntax unified
 362              	@ 546 "../../os/ext/CMSIS/include/core_cmFunc.h" 1
 363 0004 83F31188 		MSR basepri, r3
 364              	@ 0 "" 2
 365              		.thumb
 366              		.syntax unified
 367              	.LBE218:
 368              	.LBE217:
 369              	.LBE216:
 370              	.LBE215:
 371              		.loc 1 246 0
 372 0008 0023     		movs	r3, #0
 373              		.loc 1 245 0
 374 000a C068     		ldr	r0, [r0, #12]
 375              	.LVL16:
 376              		.loc 1 246 0
 377 000c D360     		str	r3, [r2, #12]
 378              	.LVL17:
 379              	.LBB219:
 380              	.LBB220:
 381              	.LBB221:
 382              	.LBB222:
 383              	.LBB223:
 384              		.loc 2 546 0
 385              		.syntax unified
 386              	@ 546 "../../os/ext/CMSIS/include/core_cmFunc.h" 1
 387 000e 83F31188 		MSR basepri, r3
 388              	@ 0 "" 2
 389              		.thumb
 390              		.syntax unified
 391              	.LBE223:
 392              	.LBE222:
 393              	.LBE221:
 394              	.LBE220:
 395              	.LBE219:
 396              		.loc 1 250 0
 397 0012 7047     		bx	lr
ARM GAS  /tmp/ccGAvQPp.s 			page 8


 398              		.cfi_endproc
 399              	.LFE234:
 400              		.size	chEvtGetAndClearFlags, .-chEvtGetAndClearFlags
 401 0014 AFF30080 		.section	.text.chEvtSignalI,"ax",%progbits
 401      AFF30080 
 401      AFF30080 
 402              		.align	2
 403              		.p2align 4,,15
 404              		.global	chEvtSignalI
 405              		.thumb
 406              		.thumb_func
 407              		.type	chEvtSignalI, %function
 408              	chEvtSignalI:
 409              	.LFB236:
 410              		.loc 1 282 0
 411              		.cfi_startproc
 412              		@ args = 0, pretend = 0, frame = 0
 413              		@ frame_needed = 0, uses_anonymous_args = 0
 414              		@ link register save eliminated.
 415              	.LVL18:
 416              		.loc 1 287 0
 417 0000 436B     		ldr	r3, [r0, #52]
 418              		.loc 1 289 0
 419 0002 027F     		ldrb	r2, [r0, #28]	@ zero_extendqisi2
 420              		.loc 1 287 0
 421 0004 1943     		orrs	r1, r1, r3
 422              	.LVL19:
 423              		.loc 1 289 0
 424 0006 0A2A     		cmp	r2, #10
 425              		.loc 1 287 0
 426 0008 4163     		str	r1, [r0, #52]
 427              		.loc 1 289 0
 428 000a 09D0     		beq	.L23
 429              		.loc 1 290 0
 430 000c 0B2A     		cmp	r2, #11
 431 000e 00D0     		beq	.L24
 432              	.L19:
 433 0010 7047     		bx	lr
 434              	.L24:
 435              		.loc 1 292 0
 436 0012 036A     		ldr	r3, [r0, #32]
 437              		.loc 1 291 0
 438 0014 8B43     		bics	r3, r3, r1
 439 0016 FBD1     		bne	.L19
 440              	.L21:
 441              		.loc 1 293 0
 442 0018 0023     		movs	r3, #0
 443 001a 0362     		str	r3, [r0, #32]
 444              		.loc 1 294 0
 445 001c FFF7FEBF 		b	chSchReadyI
 446              	.LVL20:
 447              	.L23:
 448              		.loc 1 289 0 discriminator 1
 449 0020 036A     		ldr	r3, [r0, #32]
 450 0022 1942     		tst	r1, r3
 451 0024 F8D1     		bne	.L21
 452 0026 7047     		bx	lr
ARM GAS  /tmp/ccGAvQPp.s 			page 9


 453              		.cfi_endproc
 454              	.LFE236:
 455              		.size	chEvtSignalI, .-chEvtSignalI
 456 0028 AFF30080 		.section	.text.chEvtBroadcastFlagsI,"ax",%progbits
 456      AFF30080 
 457              		.align	2
 458              		.p2align 4,,15
 459              		.global	chEvtBroadcastFlagsI
 460              		.thumb
 461              		.thumb_func
 462              		.type	chEvtBroadcastFlagsI, %function
 463              	chEvtBroadcastFlagsI:
 464              	.LFB233:
 465              		.loc 1 209 0
 466              		.cfi_startproc
 467              		@ args = 0, pretend = 0, frame = 0
 468              		@ frame_needed = 0, uses_anonymous_args = 0
 469              	.LVL21:
 470 0000 70B5     		push	{r4, r5, r6, lr}
 471              		.cfi_def_cfa_offset 16
 472              		.cfi_offset 4, -16
 473              		.cfi_offset 5, -12
 474              		.cfi_offset 6, -8
 475              		.cfi_offset 14, -4
 476              		.loc 1 215 0
 477 0002 0468     		ldr	r4, [r0]
 478              	.LVL22:
 479              		.loc 1 217 0
 480 0004 A042     		cmp	r0, r4
 481 0006 0FD0     		beq	.L25
 482 0008 0646     		mov	r6, r0
 483 000a 0D46     		mov	r5, r1
 484              	.LVL23:
 485              	.L29:
 486              		.loc 1 219 0
 487 000c E368     		ldr	r3, [r4, #12]
 488 000e 2B43     		orrs	r3, r3, r5
 489 0010 E360     		str	r3, [r4, #12]
 490              		.loc 1 222 0
 491 0012 15B1     		cbz	r5, .L27
 492              		.loc 1 222 0 is_stmt 0 discriminator 1
 493 0014 2269     		ldr	r2, [r4, #16]
 494 0016 1342     		tst	r3, r2
 495 0018 03D0     		beq	.L28
 496              	.L27:
 497              		.loc 1 224 0 is_stmt 1
 498 001a A168     		ldr	r1, [r4, #8]
 499 001c 6068     		ldr	r0, [r4, #4]
 500 001e FFF7FEFF 		bl	chEvtSignalI
 501              	.LVL24:
 502              	.L28:
 503              		.loc 1 226 0
 504 0022 2468     		ldr	r4, [r4]
 505              	.LVL25:
 506              		.loc 1 217 0
 507 0024 A642     		cmp	r6, r4
 508 0026 F1D1     		bne	.L29
ARM GAS  /tmp/ccGAvQPp.s 			page 10


 509              	.LVL26:
 510              	.L25:
 511 0028 70BD     		pop	{r4, r5, r6, pc}
 512              		.cfi_endproc
 513              	.LFE233:
 514              		.size	chEvtBroadcastFlagsI, .-chEvtBroadcastFlagsI
 515 002a 00BFAFF3 		.section	.text.chEvtSignal,"ax",%progbits
 515      0080
 516              		.align	2
 517              		.p2align 4,,15
 518              		.global	chEvtSignal
 519              		.thumb
 520              		.thumb_func
 521              		.type	chEvtSignal, %function
 522              	chEvtSignal:
 523              	.LFB235:
 524              		.loc 1 260 0
 525              		.cfi_startproc
 526              		@ args = 0, pretend = 0, frame = 0
 527              		@ frame_needed = 0, uses_anonymous_args = 0
 528              	.LVL27:
 529 0000 08B5     		push	{r3, lr}
 530              		.cfi_def_cfa_offset 8
 531              		.cfi_offset 3, -8
 532              		.cfi_offset 14, -4
 533              	.LBB224:
 534              	.LBB225:
 535              	.LBB226:
 536              	.LBB227:
 537              		.loc 2 546 0
 538 0002 2023     		movs	r3, #32
 539              		.syntax unified
 540              	@ 546 "../../os/ext/CMSIS/include/core_cmFunc.h" 1
 541 0004 83F31188 		MSR basepri, r3
 542              	@ 0 "" 2
 543              		.thumb
 544              		.syntax unified
 545              	.LBE227:
 546              	.LBE226:
 547              	.LBE225:
 548              	.LBE224:
 549              		.loc 1 265 0
 550 0008 FFF7FEFF 		bl	chEvtSignalI
 551              	.LVL28:
 552              		.loc 1 266 0
 553 000c FFF7FEFF 		bl	chSchRescheduleS
 554              	.LVL29:
 555              	.LBB228:
 556              	.LBB229:
 557              	.LBB230:
 558              	.LBB231:
 559              	.LBB232:
 560              		.loc 2 546 0
 561 0010 0023     		movs	r3, #0
 562              		.syntax unified
 563              	@ 546 "../../os/ext/CMSIS/include/core_cmFunc.h" 1
 564 0012 83F31188 		MSR basepri, r3
ARM GAS  /tmp/ccGAvQPp.s 			page 11


 565              	@ 0 "" 2
 566              		.thumb
 567              		.syntax unified
 568 0016 08BD     		pop	{r3, pc}
 569              	.LBE232:
 570              	.LBE231:
 571              	.LBE230:
 572              	.LBE229:
 573              	.LBE228:
 574              		.cfi_endproc
 575              	.LFE235:
 576              		.size	chEvtSignal, .-chEvtSignal
 577 0018 AFF30080 		.section	.text.chEvtBroadcastFlags,"ax",%progbits
 577      AFF30080 
 578              		.align	2
 579              		.p2align 4,,15
 580              		.global	chEvtBroadcastFlags
 581              		.thumb
 582              		.thumb_func
 583              		.type	chEvtBroadcastFlags, %function
 584              	chEvtBroadcastFlags:
 585              	.LFB237:
 586              		.loc 1 311 0
 587              		.cfi_startproc
 588              		@ args = 0, pretend = 0, frame = 0
 589              		@ frame_needed = 0, uses_anonymous_args = 0
 590              	.LVL30:
 591 0000 08B5     		push	{r3, lr}
 592              		.cfi_def_cfa_offset 8
 593              		.cfi_offset 3, -8
 594              		.cfi_offset 14, -4
 595              	.LBB233:
 596              	.LBB234:
 597              	.LBB235:
 598              	.LBB236:
 599              		.loc 2 546 0
 600 0002 2023     		movs	r3, #32
 601              		.syntax unified
 602              	@ 546 "../../os/ext/CMSIS/include/core_cmFunc.h" 1
 603 0004 83F31188 		MSR basepri, r3
 604              	@ 0 "" 2
 605              		.thumb
 606              		.syntax unified
 607              	.LBE236:
 608              	.LBE235:
 609              	.LBE234:
 610              	.LBE233:
 611              		.loc 1 314 0
 612 0008 FFF7FEFF 		bl	chEvtBroadcastFlagsI
 613              	.LVL31:
 614              		.loc 1 315 0
 615 000c FFF7FEFF 		bl	chSchRescheduleS
 616              	.LVL32:
 617              	.LBB237:
 618              	.LBB238:
 619              	.LBB239:
 620              	.LBB240:
ARM GAS  /tmp/ccGAvQPp.s 			page 12


 621              	.LBB241:
 622              		.loc 2 546 0
 623 0010 0023     		movs	r3, #0
 624              		.syntax unified
 625              	@ 546 "../../os/ext/CMSIS/include/core_cmFunc.h" 1
 626 0012 83F31188 		MSR basepri, r3
 627              	@ 0 "" 2
 628              		.thumb
 629              		.syntax unified
 630 0016 08BD     		pop	{r3, pc}
 631              	.LBE241:
 632              	.LBE240:
 633              	.LBE239:
 634              	.LBE238:
 635              	.LBE237:
 636              		.cfi_endproc
 637              	.LFE237:
 638              		.size	chEvtBroadcastFlags, .-chEvtBroadcastFlags
 639 0018 AFF30080 		.section	.text.chEvtGetAndClearFlagsI,"ax",%progbits
 639      AFF30080 
 640              		.align	2
 641              		.p2align 4,,15
 642              		.global	chEvtGetAndClearFlagsI
 643              		.thumb
 644              		.thumb_func
 645              		.type	chEvtGetAndClearFlagsI, %function
 646              	chEvtGetAndClearFlagsI:
 647              	.LFB238:
 648              		.loc 1 330 0
 649              		.cfi_startproc
 650              		@ args = 0, pretend = 0, frame = 0
 651              		@ frame_needed = 0, uses_anonymous_args = 0
 652              		@ link register save eliminated.
 653              	.LVL33:
 654              		.loc 1 330 0
 655 0000 0346     		mov	r3, r0
 656              		.loc 1 334 0
 657 0002 0022     		movs	r2, #0
 658              		.loc 1 333 0
 659 0004 C068     		ldr	r0, [r0, #12]
 660              	.LVL34:
 661              		.loc 1 334 0
 662 0006 DA60     		str	r2, [r3, #12]
 663              		.loc 1 337 0
 664 0008 7047     		bx	lr
 665              		.cfi_endproc
 666              	.LFE238:
 667              		.size	chEvtGetAndClearFlagsI, .-chEvtGetAndClearFlagsI
 668 000a 00BFAFF3 		.section	.text.chEvtDispatch,"ax",%progbits
 668      0080
 669              		.align	2
 670              		.p2align 4,,15
 671              		.global	chEvtDispatch
 672              		.thumb
 673              		.thumb_func
 674              		.type	chEvtDispatch, %function
 675              	chEvtDispatch:
ARM GAS  /tmp/ccGAvQPp.s 			page 13


 676              	.LFB239:
 677              		.loc 1 348 0
 678              		.cfi_startproc
 679              		@ args = 0, pretend = 0, frame = 0
 680              		@ frame_needed = 0, uses_anonymous_args = 0
 681              	.LVL35:
 682              		.loc 1 354 0
 683 0000 C9B1     		cbz	r1, .L53
 684              		.loc 1 348 0
 685 0002 F8B5     		push	{r3, r4, r5, r6, r7, lr}
 686              		.cfi_def_cfa_offset 24
 687              		.cfi_offset 3, -24
 688              		.cfi_offset 4, -20
 689              		.cfi_offset 5, -16
 690              		.cfi_offset 6, -12
 691              		.cfi_offset 7, -8
 692              		.cfi_offset 14, -4
 693 0004 0646     		mov	r6, r0
 694 0006 0D46     		mov	r5, r1
 695              		.loc 1 354 0
 696 0008 0024     		movs	r4, #0
 697              		.loc 1 357 0
 698 000a 0127     		movs	r7, #1
 699              	.LVL36:
 700              	.L46:
 701              		.loc 1 355 0
 702 000c 25FA04F3 		lsr	r3, r5, r4
 703 0010 DB07     		lsls	r3, r3, #31
 704 0012 04D4     		bmi	.L54
 705              	.L47:
 706              		.loc 1 360 0
 707 0014 0134     		adds	r4, r4, #1
 708              	.LVL37:
 709              		.loc 1 355 0
 710 0016 25FA04F3 		lsr	r3, r5, r4
 711 001a DB07     		lsls	r3, r3, #31
 712 001c FAD5     		bpl	.L47
 713              	.L54:
 714              		.loc 1 357 0
 715 001e 07FA04F3 		lsl	r3, r7, r4
 716              		.loc 1 358 0
 717 0022 2046     		mov	r0, r4
 718              		.loc 1 357 0
 719 0024 25EA0305 		bic	r5, r5, r3
 720              	.LVL38:
 721              		.loc 1 358 0
 722 0028 56F82430 		ldr	r3, [r6, r4, lsl #2]
 723 002c 9847     		blx	r3
 724              	.LVL39:
 725              		.loc 1 360 0
 726 002e 0134     		adds	r4, r4, #1
 727              	.LVL40:
 728              		.loc 1 354 0
 729 0030 002D     		cmp	r5, #0
 730 0032 EBD1     		bne	.L46
 731 0034 F8BD     		pop	{r3, r4, r5, r6, r7, pc}
 732              	.LVL41:
ARM GAS  /tmp/ccGAvQPp.s 			page 14


 733              	.L53:
 734              		.cfi_def_cfa_offset 0
 735              		.cfi_restore 3
 736              		.cfi_restore 4
 737              		.cfi_restore 5
 738              		.cfi_restore 6
 739              		.cfi_restore 7
 740              		.cfi_restore 14
 741 0036 7047     		bx	lr
 742              		.cfi_endproc
 743              	.LFE239:
 744              		.size	chEvtDispatch, .-chEvtDispatch
 745 0038 AFF30080 		.section	.text.chEvtWaitOne,"ax",%progbits
 745      AFF30080 
 746              		.align	2
 747              		.p2align 4,,15
 748              		.global	chEvtWaitOne
 749              		.thumb
 750              		.thumb_func
 751              		.type	chEvtWaitOne, %function
 752              	chEvtWaitOne:
 753              	.LFB240:
 754              		.loc 1 383 0
 755              		.cfi_startproc
 756              		@ args = 0, pretend = 0, frame = 0
 757              		@ frame_needed = 0, uses_anonymous_args = 0
 758              	.LVL42:
 759 0000 38B5     		push	{r3, r4, r5, lr}
 760              		.cfi_def_cfa_offset 16
 761              		.cfi_offset 3, -16
 762              		.cfi_offset 4, -12
 763              		.cfi_offset 5, -8
 764              		.cfi_offset 14, -4
 765              		.loc 1 384 0
 766 0002 0D4B     		ldr	r3, .L58
 767 0004 9D69     		ldr	r5, [r3, #24]
 768              	.LVL43:
 769              	.LBB242:
 770              	.LBB243:
 771              	.LBB244:
 772              	.LBB245:
 773              		.loc 2 546 0
 774 0006 2023     		movs	r3, #32
 775              		.syntax unified
 776              	@ 546 "../../os/ext/CMSIS/include/core_cmFunc.h" 1
 777 0008 83F31188 		MSR basepri, r3
 778              	@ 0 "" 2
 779              		.thumb
 780              		.syntax unified
 781              	.LBE245:
 782              	.LBE244:
 783              	.LBE243:
 784              	.LBE242:
 785              		.loc 1 388 0
 786 000c 6B6B     		ldr	r3, [r5, #52]
 787              	.LVL44:
 788              		.loc 1 389 0
ARM GAS  /tmp/ccGAvQPp.s 			page 15


 789 000e 13EA0004 		ands	r4, r3, r0
 790              	.LVL45:
 791 0012 06D1     		bne	.L56
 792 0014 0446     		mov	r4, r0
 793              	.LVL46:
 794              		.loc 1 390 0
 795 0016 2862     		str	r0, [r5, #32]
 796              		.loc 1 391 0
 797 0018 0A20     		movs	r0, #10
 798              	.LVL47:
 799 001a FFF7FEFF 		bl	chSchGoSleepS
 800              	.LVL48:
 801              		.loc 1 392 0
 802 001e 6B6B     		ldr	r3, [r5, #52]
 803 0020 1C40     		ands	r4, r4, r3
 804              	.LVL49:
 805              	.L56:
 806              		.loc 1 394 0
 807 0022 6242     		negs	r2, r4
 808 0024 04EA0200 		and	r0, r4, r2
 809              	.LVL50:
 810              		.loc 1 395 0
 811 0028 23EA0003 		bic	r3, r3, r0
 812 002c 6B63     		str	r3, [r5, #52]
 813              	.LVL51:
 814              	.LBB246:
 815              	.LBB247:
 816              	.LBB248:
 817              	.LBB249:
 818              	.LBB250:
 819              		.loc 2 546 0
 820 002e 0023     		movs	r3, #0
 821              		.syntax unified
 822              	@ 546 "../../os/ext/CMSIS/include/core_cmFunc.h" 1
 823 0030 83F31188 		MSR basepri, r3
 824              	@ 0 "" 2
 825              		.thumb
 826              		.syntax unified
 827              	.LBE250:
 828              	.LBE249:
 829              	.LBE248:
 830              	.LBE247:
 831              	.LBE246:
 832              		.loc 1 399 0
 833 0034 38BD     		pop	{r3, r4, r5, pc}
 834              	.LVL52:
 835              	.L59:
 836 0036 00BF     		.align	2
 837              	.L58:
 838 0038 00000000 		.word	ch
 839              		.cfi_endproc
 840              	.LFE240:
 841              		.size	chEvtWaitOne, .-chEvtWaitOne
 842 003c AFF30080 		.section	.text.chEvtWaitAny,"ax",%progbits
 843              		.align	2
 844              		.p2align 4,,15
 845              		.global	chEvtWaitAny
ARM GAS  /tmp/ccGAvQPp.s 			page 16


 846              		.thumb
 847              		.thumb_func
 848              		.type	chEvtWaitAny, %function
 849              	chEvtWaitAny:
 850              	.LFB241:
 851              		.loc 1 413 0
 852              		.cfi_startproc
 853              		@ args = 0, pretend = 0, frame = 0
 854              		@ frame_needed = 0, uses_anonymous_args = 0
 855              	.LVL53:
 856 0000 38B5     		push	{r3, r4, r5, lr}
 857              		.cfi_def_cfa_offset 16
 858              		.cfi_offset 3, -16
 859              		.cfi_offset 4, -12
 860              		.cfi_offset 5, -8
 861              		.cfi_offset 14, -4
 862              		.loc 1 414 0
 863 0002 0C4B     		ldr	r3, .L63
 864 0004 9D69     		ldr	r5, [r3, #24]
 865              	.LVL54:
 866              	.LBB251:
 867              	.LBB252:
 868              	.LBB253:
 869              	.LBB254:
 870              		.loc 2 546 0
 871 0006 2023     		movs	r3, #32
 872              		.syntax unified
 873              	@ 546 "../../os/ext/CMSIS/include/core_cmFunc.h" 1
 874 0008 83F31188 		MSR basepri, r3
 875              	@ 0 "" 2
 876              		.thumb
 877              		.syntax unified
 878              	.LBE254:
 879              	.LBE253:
 880              	.LBE252:
 881              	.LBE251:
 882              		.loc 1 418 0
 883 000c 6B6B     		ldr	r3, [r5, #52]
 884              	.LVL55:
 885              		.loc 1 419 0
 886 000e 13EA0004 		ands	r4, r3, r0
 887              	.LVL56:
 888 0012 06D1     		bne	.L61
 889 0014 0446     		mov	r4, r0
 890              	.LVL57:
 891              		.loc 1 420 0
 892 0016 2862     		str	r0, [r5, #32]
 893              		.loc 1 421 0
 894 0018 0A20     		movs	r0, #10
 895              	.LVL58:
 896 001a FFF7FEFF 		bl	chSchGoSleepS
 897              	.LVL59:
 898              		.loc 1 422 0
 899 001e 6B6B     		ldr	r3, [r5, #52]
 900 0020 1C40     		ands	r4, r4, r3
 901              	.LVL60:
 902              	.L61:
ARM GAS  /tmp/ccGAvQPp.s 			page 17


 903              		.loc 1 424 0
 904 0022 23EA0403 		bic	r3, r3, r4
 905 0026 6B63     		str	r3, [r5, #52]
 906              	.LVL61:
 907              	.LBB255:
 908              	.LBB256:
 909              	.LBB257:
 910              	.LBB258:
 911              	.LBB259:
 912              		.loc 2 546 0
 913 0028 0023     		movs	r3, #0
 914              		.syntax unified
 915              	@ 546 "../../os/ext/CMSIS/include/core_cmFunc.h" 1
 916 002a 83F31188 		MSR basepri, r3
 917              	@ 0 "" 2
 918              		.thumb
 919              		.syntax unified
 920              	.LBE259:
 921              	.LBE258:
 922              	.LBE257:
 923              	.LBE256:
 924              	.LBE255:
 925              		.loc 1 428 0
 926 002e 2046     		mov	r0, r4
 927 0030 38BD     		pop	{r3, r4, r5, pc}
 928              	.LVL62:
 929              	.L64:
 930 0032 00BF     		.align	2
 931              	.L63:
 932 0034 00000000 		.word	ch
 933              		.cfi_endproc
 934              	.LFE241:
 935              		.size	chEvtWaitAny, .-chEvtWaitAny
 936 0038 AFF30080 		.section	.text.chEvtWaitAll,"ax",%progbits
 936      AFF30080 
 937              		.align	2
 938              		.p2align 4,,15
 939              		.global	chEvtWaitAll
 940              		.thumb
 941              		.thumb_func
 942              		.type	chEvtWaitAll, %function
 943              	chEvtWaitAll:
 944              	.LFB242:
 945              		.loc 1 441 0
 946              		.cfi_startproc
 947              		@ args = 0, pretend = 0, frame = 0
 948              		@ frame_needed = 0, uses_anonymous_args = 0
 949              	.LVL63:
 950 0000 38B5     		push	{r3, r4, r5, lr}
 951              		.cfi_def_cfa_offset 16
 952              		.cfi_offset 3, -16
 953              		.cfi_offset 4, -12
 954              		.cfi_offset 5, -8
 955              		.cfi_offset 14, -4
 956              		.loc 1 442 0
 957 0002 0B4B     		ldr	r3, .L68
 958              		.loc 1 441 0
ARM GAS  /tmp/ccGAvQPp.s 			page 18


 959 0004 0446     		mov	r4, r0
 960              		.loc 1 442 0
 961 0006 9D69     		ldr	r5, [r3, #24]
 962              	.LVL64:
 963              	.LBB260:
 964              	.LBB261:
 965              	.LBB262:
 966              	.LBB263:
 967              		.loc 2 546 0
 968 0008 2023     		movs	r3, #32
 969              		.syntax unified
 970              	@ 546 "../../os/ext/CMSIS/include/core_cmFunc.h" 1
 971 000a 83F31188 		MSR basepri, r3
 972              	@ 0 "" 2
 973              		.thumb
 974              		.syntax unified
 975              	.LBE263:
 976              	.LBE262:
 977              	.LBE261:
 978              	.LBE260:
 979              		.loc 1 445 0
 980 000e 6B6B     		ldr	r3, [r5, #52]
 981 0010 30EA0302 		bics	r2, r0, r3
 982 0014 04D0     		beq	.L66
 983              		.loc 1 446 0
 984 0016 2862     		str	r0, [r5, #32]
 985              		.loc 1 447 0
 986 0018 0B20     		movs	r0, #11
 987              	.LVL65:
 988 001a FFF7FEFF 		bl	chSchGoSleepS
 989              	.LVL66:
 990 001e 6B6B     		ldr	r3, [r5, #52]
 991              	.L66:
 992              		.loc 1 449 0
 993 0020 23EA0403 		bic	r3, r3, r4
 994 0024 6B63     		str	r3, [r5, #52]
 995              	.LVL67:
 996              	.LBB264:
 997              	.LBB265:
 998              	.LBB266:
 999              	.LBB267:
 1000              	.LBB268:
 1001              		.loc 2 546 0
 1002 0026 0023     		movs	r3, #0
 1003              		.syntax unified
 1004              	@ 546 "../../os/ext/CMSIS/include/core_cmFunc.h" 1
 1005 0028 83F31188 		MSR basepri, r3
 1006              	@ 0 "" 2
 1007              		.thumb
 1008              		.syntax unified
 1009              	.LBE268:
 1010              	.LBE267:
 1011              	.LBE266:
 1012              	.LBE265:
 1013              	.LBE264:
 1014              		.loc 1 453 0
 1015 002c 2046     		mov	r0, r4
ARM GAS  /tmp/ccGAvQPp.s 			page 19


 1016 002e 38BD     		pop	{r3, r4, r5, pc}
 1017              	.LVL68:
 1018              	.L69:
 1019              		.align	2
 1020              	.L68:
 1021 0030 00000000 		.word	ch
 1022              		.cfi_endproc
 1023              	.LFE242:
 1024              		.size	chEvtWaitAll, .-chEvtWaitAll
 1025 0034 AFF30080 		.section	.text.chEvtWaitOneTimeout,"ax",%progbits
 1025      AFF30080 
 1025      AFF30080 
 1026              		.align	2
 1027              		.p2align 4,,15
 1028              		.global	chEvtWaitOneTimeout
 1029              		.thumb
 1030              		.thumb_func
 1031              		.type	chEvtWaitOneTimeout, %function
 1032              	chEvtWaitOneTimeout:
 1033              	.LFB243:
 1034              		.loc 1 479 0
 1035              		.cfi_startproc
 1036              		@ args = 0, pretend = 0, frame = 0
 1037              		@ frame_needed = 0, uses_anonymous_args = 0
 1038              	.LVL69:
 1039              		.loc 1 480 0
 1040 0000 124B     		ldr	r3, .L77
 1041              		.loc 1 479 0
 1042 0002 70B5     		push	{r4, r5, r6, lr}
 1043              		.cfi_def_cfa_offset 16
 1044              		.cfi_offset 4, -16
 1045              		.cfi_offset 5, -12
 1046              		.cfi_offset 6, -8
 1047              		.cfi_offset 14, -4
 1048              	.LBB269:
 1049              	.LBB270:
 1050              	.LBB271:
 1051              	.LBB272:
 1052              		.loc 2 546 0
 1053 0004 2022     		movs	r2, #32
 1054              	.LBE272:
 1055              	.LBE271:
 1056              	.LBE270:
 1057              	.LBE269:
 1058              		.loc 1 480 0
 1059 0006 9D69     		ldr	r5, [r3, #24]
 1060              	.LVL70:
 1061              	.LBB276:
 1062              	.LBB275:
 1063              	.LBB274:
 1064              	.LBB273:
 1065              		.loc 2 546 0
 1066              		.syntax unified
 1067              	@ 546 "../../os/ext/CMSIS/include/core_cmFunc.h" 1
 1068 0008 82F31188 		MSR basepri, r2
 1069              	@ 0 "" 2
 1070              		.thumb
ARM GAS  /tmp/ccGAvQPp.s 			page 20


 1071              		.syntax unified
 1072              	.LBE273:
 1073              	.LBE274:
 1074              	.LBE275:
 1075              	.LBE276:
 1076              		.loc 1 484 0
 1077 000c 6A6B     		ldr	r2, [r5, #52]
 1078              	.LVL71:
 1079              		.loc 1 485 0
 1080 000e 12EA0006 		ands	r6, r2, r0
 1081              	.LVL72:
 1082 0012 0ED1     		bne	.L71
 1083              		.loc 1 486 0
 1084 0014 19B9     		cbnz	r1, .L72
 1085              	.LVL73:
 1086              	.LBB277:
 1087              	.LBB278:
 1088              	.LBB279:
 1089              	.LBB280:
 1090              	.LBB281:
 1091              		.loc 2 546 0
 1092              		.syntax unified
 1093              	@ 546 "../../os/ext/CMSIS/include/core_cmFunc.h" 1
 1094 0016 81F31188 		MSR basepri, r1
 1095              	@ 0 "" 2
 1096              		.thumb
 1097              		.syntax unified
 1098              	.LBE281:
 1099              	.LBE280:
 1100              	.LBE279:
 1101              	.LBE278:
 1102              	.LBE277:
 1103              		.loc 1 488 0
 1104 001a 0846     		mov	r0, r1
 1105              	.LVL74:
 1106 001c 70BD     		pop	{r4, r5, r6, pc}
 1107              	.LVL75:
 1108              	.L72:
 1109              		.loc 1 490 0
 1110 001e 2862     		str	r0, [r5, #32]
 1111 0020 0446     		mov	r4, r0
 1112              		.loc 1 491 0
 1113 0022 0A20     		movs	r0, #10
 1114              	.LVL76:
 1115 0024 FFF7FEFF 		bl	chSchGoSleepTimeoutS
 1116              	.LVL77:
 1117 0028 0028     		cmp	r0, #0
 1118 002a 0BDB     		blt	.L76
 1119              		.loc 1 495 0
 1120 002c 6A6B     		ldr	r2, [r5, #52]
 1121 002e 04EA0206 		and	r6, r4, r2
 1122              	.LVL78:
 1123              	.L71:
 1124              		.loc 1 497 0
 1125 0032 7042     		negs	r0, r6
 1126 0034 3040     		ands	r0, r0, r6
 1127              	.LVL79:
ARM GAS  /tmp/ccGAvQPp.s 			page 21


 1128              		.loc 1 498 0
 1129 0036 22EA0002 		bic	r2, r2, r0
 1130 003a 6A63     		str	r2, [r5, #52]
 1131              	.LVL80:
 1132              	.LBB282:
 1133              	.LBB283:
 1134              	.LBB284:
 1135              	.LBB285:
 1136              	.LBB286:
 1137              		.loc 2 546 0
 1138 003c 0023     		movs	r3, #0
 1139              		.syntax unified
 1140              	@ 546 "../../os/ext/CMSIS/include/core_cmFunc.h" 1
 1141 003e 83F31188 		MSR basepri, r3
 1142              	@ 0 "" 2
 1143              		.thumb
 1144              		.syntax unified
 1145              	.LBE286:
 1146              	.LBE285:
 1147              	.LBE284:
 1148              	.LBE283:
 1149              	.LBE282:
 1150              		.loc 1 502 0
 1151 0042 70BD     		pop	{r4, r5, r6, pc}
 1152              	.LVL81:
 1153              	.L76:
 1154              	.LBB287:
 1155              	.LBB288:
 1156              	.LBB289:
 1157              	.LBB290:
 1158              	.LBB291:
 1159              		.loc 2 546 0
 1160              		.syntax unified
 1161              	@ 546 "../../os/ext/CMSIS/include/core_cmFunc.h" 1
 1162 0044 86F31188 		MSR basepri, r6
 1163              	@ 0 "" 2
 1164              		.thumb
 1165              		.syntax unified
 1166              	.LBE291:
 1167              	.LBE290:
 1168              	.LBE289:
 1169              	.LBE288:
 1170              	.LBE287:
 1171              		.loc 1 493 0
 1172 0048 3046     		mov	r0, r6
 1173 004a 70BD     		pop	{r4, r5, r6, pc}
 1174              	.LVL82:
 1175              	.L78:
 1176              		.align	2
 1177              	.L77:
 1178 004c 00000000 		.word	ch
 1179              		.cfi_endproc
 1180              	.LFE243:
 1181              		.size	chEvtWaitOneTimeout, .-chEvtWaitOneTimeout
 1182              		.section	.text.chEvtWaitAnyTimeout,"ax",%progbits
 1183              		.align	2
 1184              		.p2align 4,,15
ARM GAS  /tmp/ccGAvQPp.s 			page 22


 1185              		.global	chEvtWaitAnyTimeout
 1186              		.thumb
 1187              		.thumb_func
 1188              		.type	chEvtWaitAnyTimeout, %function
 1189              	chEvtWaitAnyTimeout:
 1190              	.LFB244:
 1191              		.loc 1 522 0
 1192              		.cfi_startproc
 1193              		@ args = 0, pretend = 0, frame = 0
 1194              		@ frame_needed = 0, uses_anonymous_args = 0
 1195              	.LVL83:
 1196              		.loc 1 523 0
 1197 0000 124B     		ldr	r3, .L86
 1198              		.loc 1 522 0
 1199 0002 70B5     		push	{r4, r5, r6, lr}
 1200              		.cfi_def_cfa_offset 16
 1201              		.cfi_offset 4, -16
 1202              		.cfi_offset 5, -12
 1203              		.cfi_offset 6, -8
 1204              		.cfi_offset 14, -4
 1205              		.loc 1 523 0
 1206 0004 9E69     		ldr	r6, [r3, #24]
 1207              	.LVL84:
 1208              	.LBB292:
 1209              	.LBB293:
 1210              	.LBB294:
 1211              	.LBB295:
 1212              		.loc 2 546 0
 1213 0006 2023     		movs	r3, #32
 1214              		.syntax unified
 1215              	@ 546 "../../os/ext/CMSIS/include/core_cmFunc.h" 1
 1216 0008 83F31188 		MSR basepri, r3
 1217              	@ 0 "" 2
 1218              		.thumb
 1219              		.syntax unified
 1220              	.LBE295:
 1221              	.LBE294:
 1222              	.LBE293:
 1223              	.LBE292:
 1224              		.loc 1 527 0
 1225 000c 736B     		ldr	r3, [r6, #52]
 1226              	.LVL85:
 1227              		.loc 1 528 0
 1228 000e 13EA0004 		ands	r4, r3, r0
 1229              	.LVL86:
 1230 0012 0ED1     		bne	.L80
 1231              		.loc 1 529 0
 1232 0014 19B9     		cbnz	r1, .L81
 1233              	.LVL87:
 1234              	.LBB296:
 1235              	.LBB297:
 1236              	.LBB298:
 1237              	.LBB299:
 1238              	.LBB300:
 1239              		.loc 2 546 0
 1240              		.syntax unified
 1241              	@ 546 "../../os/ext/CMSIS/include/core_cmFunc.h" 1
ARM GAS  /tmp/ccGAvQPp.s 			page 23


 1242 0016 81F31188 		MSR basepri, r1
 1243              	@ 0 "" 2
 1244              		.thumb
 1245              		.syntax unified
 1246              	.LBE300:
 1247              	.LBE299:
 1248              	.LBE298:
 1249              	.LBE297:
 1250              	.LBE296:
 1251              		.loc 1 531 0
 1252 001a 0846     		mov	r0, r1
 1253              	.LVL88:
 1254 001c 70BD     		pop	{r4, r5, r6, pc}
 1255              	.LVL89:
 1256              	.L81:
 1257              		.loc 1 533 0
 1258 001e 3062     		str	r0, [r6, #32]
 1259 0020 0546     		mov	r5, r0
 1260              		.loc 1 534 0
 1261 0022 0A20     		movs	r0, #10
 1262              	.LVL90:
 1263 0024 FFF7FEFF 		bl	chSchGoSleepTimeoutS
 1264              	.LVL91:
 1265 0028 0028     		cmp	r0, #0
 1266 002a 0ADB     		blt	.L85
 1267              		.loc 1 538 0
 1268 002c 736B     		ldr	r3, [r6, #52]
 1269 002e 05EA0304 		and	r4, r5, r3
 1270              	.LVL92:
 1271              	.L80:
 1272              		.loc 1 540 0
 1273 0032 23EA0403 		bic	r3, r3, r4
 1274 0036 7363     		str	r3, [r6, #52]
 1275              	.LVL93:
 1276              	.LBB301:
 1277              	.LBB302:
 1278              	.LBB303:
 1279              	.LBB304:
 1280              	.LBB305:
 1281              		.loc 2 546 0
 1282 0038 0023     		movs	r3, #0
 1283              		.syntax unified
 1284              	@ 546 "../../os/ext/CMSIS/include/core_cmFunc.h" 1
 1285 003a 83F31188 		MSR basepri, r3
 1286              	@ 0 "" 2
 1287              		.thumb
 1288              		.syntax unified
 1289              	.LBE305:
 1290              	.LBE304:
 1291              	.LBE303:
 1292              	.LBE302:
 1293              	.LBE301:
 1294              		.loc 1 543 0
 1295 003e 2046     		mov	r0, r4
 1296              		.loc 1 544 0
 1297 0040 70BD     		pop	{r4, r5, r6, pc}
 1298              	.LVL94:
ARM GAS  /tmp/ccGAvQPp.s 			page 24


 1299              	.L85:
 1300              	.LBB306:
 1301              	.LBB307:
 1302              	.LBB308:
 1303              	.LBB309:
 1304              	.LBB310:
 1305              		.loc 2 546 0
 1306              		.syntax unified
 1307              	@ 546 "../../os/ext/CMSIS/include/core_cmFunc.h" 1
 1308 0042 84F31188 		MSR basepri, r4
 1309              	@ 0 "" 2
 1310              		.thumb
 1311              		.syntax unified
 1312              	.LBE310:
 1313              	.LBE309:
 1314              	.LBE308:
 1315              	.LBE307:
 1316              	.LBE306:
 1317              		.loc 1 536 0
 1318 0046 2046     		mov	r0, r4
 1319 0048 70BD     		pop	{r4, r5, r6, pc}
 1320              	.LVL95:
 1321              	.L87:
 1322 004a 00BF     		.align	2
 1323              	.L86:
 1324 004c 00000000 		.word	ch
 1325              		.cfi_endproc
 1326              	.LFE244:
 1327              		.size	chEvtWaitAnyTimeout, .-chEvtWaitAnyTimeout
 1328              		.section	.text.chEvtWaitAllTimeout,"ax",%progbits
 1329              		.align	2
 1330              		.p2align 4,,15
 1331              		.global	chEvtWaitAllTimeout
 1332              		.thumb
 1333              		.thumb_func
 1334              		.type	chEvtWaitAllTimeout, %function
 1335              	chEvtWaitAllTimeout:
 1336              	.LFB245:
 1337              		.loc 1 563 0
 1338              		.cfi_startproc
 1339              		@ args = 0, pretend = 0, frame = 0
 1340              		@ frame_needed = 0, uses_anonymous_args = 0
 1341              	.LVL96:
 1342 0000 38B5     		push	{r3, r4, r5, lr}
 1343              		.cfi_def_cfa_offset 16
 1344              		.cfi_offset 3, -16
 1345              		.cfi_offset 4, -12
 1346              		.cfi_offset 5, -8
 1347              		.cfi_offset 14, -4
 1348              		.loc 1 564 0
 1349 0002 104B     		ldr	r3, .L96
 1350              		.loc 1 563 0
 1351 0004 0446     		mov	r4, r0
 1352              		.loc 1 564 0
 1353 0006 9D69     		ldr	r5, [r3, #24]
 1354              	.LVL97:
 1355              	.LBB311:
ARM GAS  /tmp/ccGAvQPp.s 			page 25


 1356              	.LBB312:
 1357              	.LBB313:
 1358              	.LBB314:
 1359              		.loc 2 546 0
 1360 0008 2023     		movs	r3, #32
 1361              		.syntax unified
 1362              	@ 546 "../../os/ext/CMSIS/include/core_cmFunc.h" 1
 1363 000a 83F31188 		MSR basepri, r3
 1364              	@ 0 "" 2
 1365              		.thumb
 1366              		.syntax unified
 1367              	.LBE314:
 1368              	.LBE313:
 1369              	.LBE312:
 1370              	.LBE311:
 1371              		.loc 1 567 0
 1372 000e 6B6B     		ldr	r3, [r5, #52]
 1373 0010 30EA0302 		bics	r2, r0, r3
 1374 0014 0BD0     		beq	.L89
 1375 0016 0846     		mov	r0, r1
 1376              	.LVL98:
 1377              		.loc 1 568 0
 1378 0018 11B9     		cbnz	r1, .L95
 1379              	.LVL99:
 1380              	.L94:
 1381              	.LBB315:
 1382              	.LBB316:
 1383              	.LBB317:
 1384              	.LBB318:
 1385              	.LBB319:
 1386              		.loc 2 546 0
 1387              		.syntax unified
 1388              	@ 546 "../../os/ext/CMSIS/include/core_cmFunc.h" 1
 1389 001a 80F31188 		MSR basepri, r0
 1390              	@ 0 "" 2
 1391              		.thumb
 1392              		.syntax unified
 1393              	.LBE319:
 1394              	.LBE318:
 1395              	.LBE317:
 1396              	.LBE316:
 1397              	.LBE315:
 1398              		.loc 1 575 0
 1399 001e 38BD     		pop	{r3, r4, r5, pc}
 1400              	.LVL100:
 1401              	.L95:
 1402              		.loc 1 572 0
 1403 0020 2C62     		str	r4, [r5, #32]
 1404              		.loc 1 573 0
 1405 0022 0B20     		movs	r0, #11
 1406              	.LVL101:
 1407 0024 FFF7FEFF 		bl	chSchGoSleepTimeoutS
 1408              	.LVL102:
 1409 0028 0028     		cmp	r0, #0
 1410 002a 08DB     		blt	.L92
 1411 002c 6B6B     		ldr	r3, [r5, #52]
 1412              	.L89:
ARM GAS  /tmp/ccGAvQPp.s 			page 26


 1413              		.loc 1 578 0
 1414 002e 23EA0403 		bic	r3, r3, r4
 1415 0032 6B63     		str	r3, [r5, #52]
 1416              	.LVL103:
 1417              	.LBB324:
 1418              	.LBB325:
 1419              	.LBB326:
 1420              	.LBB327:
 1421              	.LBB328:
 1422              		.loc 2 546 0
 1423 0034 0023     		movs	r3, #0
 1424              		.syntax unified
 1425              	@ 546 "../../os/ext/CMSIS/include/core_cmFunc.h" 1
 1426 0036 83F31188 		MSR basepri, r3
 1427              	@ 0 "" 2
 1428              		.thumb
 1429              		.syntax unified
 1430              	.LBE328:
 1431              	.LBE327:
 1432              	.LBE326:
 1433              	.LBE325:
 1434              	.LBE324:
 1435              		.loc 1 581 0
 1436 003a 2046     		mov	r0, r4
 1437              		.loc 1 582 0
 1438 003c 38BD     		pop	{r3, r4, r5, pc}
 1439              	.LVL104:
 1440              	.L92:
 1441              	.LBB329:
 1442              	.LBB323:
 1443              	.LBB322:
 1444              	.LBB321:
 1445              	.LBB320:
 1446              		.loc 2 546 0
 1447 003e 0020     		movs	r0, #0
 1448 0040 EBE7     		b	.L94
 1449              	.L97:
 1450 0042 00BF     		.align	2
 1451              	.L96:
 1452 0044 00000000 		.word	ch
 1453              	.LBE320:
 1454              	.LBE321:
 1455              	.LBE322:
 1456              	.LBE323:
 1457              	.LBE329:
 1458              		.cfi_endproc
 1459              	.LFE245:
 1460              		.size	chEvtWaitAllTimeout, .-chEvtWaitAllTimeout
 1461 0048 AFF30080 		.text
 1461      AFF30080 
 1462              	.Letext0:
 1463              		.file 3 "/usr/arm-none-eabi/include/machine/_default_types.h"
 1464              		.file 4 "/usr/arm-none-eabi/include/stdint.h"
 1465              		.file 5 "../../os/rt/ports/ARMCMx/compilers/GCC/chtypes.h"
 1466              		.file 6 "../../os/rt/include/chsystypes.h"
 1467              		.file 7 "../../os/rt/include/chschd.h"
 1468              		.file 8 "../../os/rt/ports/ARMCMx/chcore.h"
ARM GAS  /tmp/ccGAvQPp.s 			page 27


 1469              		.file 9 "../../os/rt/ports/ARMCMx/chcore_v7m.h"
 1470              		.file 10 "../../os/rt/include/chtm.h"
 1471              		.file 11 "../../os/rt/include/chsem.h"
 1472              		.file 12 "../../os/rt/include/chmtx.h"
 1473              		.file 13 "../../os/rt/include/chevents.h"
 1474              		.file 14 "../../os/rt/include/chsys.h"
 1475              		.file 15 "../../os/ext/CMSIS/include/core_cm4.h"