ARM GAS  /tmp/ccSHH9IF.s 			page 1


   1              		.syntax unified
   2              		.cpu cortex-m4
   3              		.eabi_attribute 27, 1
   4              		.eabi_attribute 28, 1
   5              		.fpu fpv4-sp-d16
   6              		.eabi_attribute 20, 1
   7              		.eabi_attribute 21, 1
   8              		.eabi_attribute 23, 3
   9              		.eabi_attribute 24, 1
  10              		.eabi_attribute 25, 1
  11              		.eabi_attribute 26, 1
  12              		.eabi_attribute 30, 2
  13              		.eabi_attribute 34, 1
  14              		.eabi_attribute 18, 4
  15              		.thumb
  16              		.syntax unified
  17              		.file	"hal_lld.c"
  18              		.text
  19              	.Ltext0:
  20              		.cfi_sections	.debug_frame
  21              		.section	.text.hal_lld_init,"ax",%progbits
  22              		.align	2
  23              		.p2align 4,,15
  24              		.global	hal_lld_init
  25              		.thumb
  26              		.thumb_func
  27              		.type	hal_lld_init, %function
  28              	hal_lld_init:
  29              	.LFB261:
  30              		.file 1 "../../os/hal/ports/STM32/STM32F4xx/hal_lld.c"
  31              		.loc 1 114 0
  32              		.cfi_startproc
  33              		@ args = 0, pretend = 0, frame = 0
  34              		@ frame_needed = 0, uses_anonymous_args = 0
  35              		@ link register save eliminated.
  36              		.loc 1 118 0
  37 0000 174B     		ldr	r3, .L8
  38 0002 4FF0FF31 		mov	r1, #-1
  39 0006 1A69     		ldr	r2, [r3, #16]
  40 0008 0022     		movs	r2, #0
  41              		.loc 1 114 0
  42 000a 10B4     		push	{r4}
  43              		.cfi_def_cfa_offset 4
  44              		.cfi_offset 4, -4
  45              		.loc 1 118 0
  46 000c 1961     		str	r1, [r3, #16]
  47 000e 1A61     		str	r2, [r3, #16]
  48              		.loc 1 119 0
  49 0010 5869     		ldr	r0, [r3, #20]
  50 0012 5961     		str	r1, [r3, #20]
  51 0014 5A61     		str	r2, [r3, #20]
  52              		.loc 1 120 0
  53 0016 186A     		ldr	r0, [r3, #32]
  54              	.LBB4:
  55              	.LBB5:
  56              		.loc 1 57 0
  57 0018 124C     		ldr	r4, .L8+4
ARM GAS  /tmp/ccSHH9IF.s 			page 2


  58              	.LBE5:
  59              	.LBE4:
  60              		.loc 1 120 0
  61 001a 60F08050 		orn	r0, r0, #268435456
  62 001e 1862     		str	r0, [r3, #32]
  63 0020 1A62     		str	r2, [r3, #32]
  64              		.loc 1 121 0
  65 0022 586A     		ldr	r0, [r3, #36]
  66 0024 5962     		str	r1, [r3, #36]
  67 0026 5A62     		str	r2, [r3, #36]
  68              		.loc 1 124 0
  69 0028 196C     		ldr	r1, [r3, #64]
  70 002a 41F08051 		orr	r1, r1, #268435456
  71 002e 1964     		str	r1, [r3, #64]
  72              	.LBB8:
  73              	.LBB6:
  74              		.loc 1 57 0
  75 0030 2168     		ldr	r1, [r4]
  76 0032 41F48071 		orr	r1, r1, #256
  77 0036 2160     		str	r1, [r4]
  78              		.loc 1 60 0
  79 0038 196F     		ldr	r1, [r3, #112]
  80 003a 01F44071 		and	r1, r1, #768
  81 003e B1F5007F 		cmp	r1, #512
  82 0042 03D0     		beq	.L2
  83              		.loc 1 62 0
  84 0044 4FF48031 		mov	r1, #65536
  85 0048 1967     		str	r1, [r3, #112]
  86              		.loc 1 63 0
  87 004a 1A67     		str	r2, [r3, #112]
  88              	.L2:
  89              		.loc 1 97 0
  90 004c 054A     		ldr	r2, .L8+4
  91              	.LBE6:
  92              	.LBE8:
  93              		.loc 1 137 0
  94 004e 5DF8044B 		ldr	r4, [sp], #4
  95              		.cfi_restore 4
  96              		.cfi_def_cfa_offset 0
  97              	.LBB9:
  98              	.LBB7:
  99              		.loc 1 97 0
 100 0052 5368     		ldr	r3, [r2, #4]
 101 0054 23F40073 		bic	r3, r3, #512
 102 0058 5360     		str	r3, [r2, #4]
 103              	.LBE7:
 104              	.LBE9:
 105              		.loc 1 130 0
 106 005a FFF7FEBF 		b	dmaInit
 107              	.LVL0:
 108              	.L9:
 109 005e 00BF     		.align	2
 110              	.L8:
 111 0060 00380240 		.word	1073887232
 112 0064 00700040 		.word	1073770496
 113              		.cfi_endproc
 114              	.LFE261:
ARM GAS  /tmp/ccSHH9IF.s 			page 3


 115              		.size	hal_lld_init, .-hal_lld_init
 116 0068 AFF30080 		.section	.text.stm32_clock_init,"ax",%progbits
 116      AFF30080 
 117              		.align	2
 118              		.p2align 4,,15
 119              		.global	stm32_clock_init
 120              		.thumb
 121              		.thumb_func
 122              		.type	stm32_clock_init, %function
 123              	stm32_clock_init:
 124              	.LFB262:
 125              		.loc 1 146 0
 126              		.cfi_startproc
 127              		@ args = 0, pretend = 0, frame = 0
 128              		@ frame_needed = 0, uses_anonymous_args = 0
 129              		@ link register save eliminated.
 130              		.loc 1 150 0
 131 0000 2C49     		ldr	r1, .L31
 132              		.loc 1 154 0
 133 0002 2D4B     		ldr	r3, .L31+4
 134              		.loc 1 150 0
 135 0004 4FF08050 		mov	r0, #268435456
 136              		.loc 1 154 0
 137 0008 4FF40042 		mov	r2, #32768
 138              		.loc 1 150 0
 139 000c 0864     		str	r0, [r1, #64]
 140              		.loc 1 154 0
 141 000e 1A60     		str	r2, [r3]
 142              		.loc 1 161 0
 143 0010 0B68     		ldr	r3, [r1]
 144 0012 43F00103 		orr	r3, r3, #1
 145 0016 0B60     		str	r3, [r1]
 146              	.L11:
 147              		.loc 1 162 0 discriminator 1
 148 0018 0A68     		ldr	r2, [r1]
 149 001a 264B     		ldr	r3, .L31
 150 001c 9007     		lsls	r0, r2, #30
 151 001e FBD5     		bpl	.L11
 152              		.loc 1 168 0
 153 0020 9A68     		ldr	r2, [r3, #8]
 154 0022 22F00302 		bic	r2, r2, #3
 155 0026 9A60     		str	r2, [r3, #8]
 156              		.loc 1 169 0
 157 0028 9A68     		ldr	r2, [r3, #8]
 158 002a 9A60     		str	r2, [r3, #8]
 159              		.loc 1 170 0
 160 002c 1946     		mov	r1, r3
 161              	.L12:
 162              		.loc 1 170 0 is_stmt 0 discriminator 1
 163 002e 8B68     		ldr	r3, [r1, #8]
 164 0030 204A     		ldr	r2, .L31
 165 0032 13F00C03 		ands	r3, r3, #12
 166 0036 FAD1     		bne	.L12
 167              		.loc 1 174 0 is_stmt 1
 168 0038 1168     		ldr	r1, [r2]
 169 003a 01F0F901 		and	r1, r1, #249
 170 003e 1160     		str	r1, [r2]
ARM GAS  /tmp/ccSHH9IF.s 			page 4


 171              		.loc 1 175 0
 172 0040 9360     		str	r3, [r2, #8]
 173              		.loc 1 184 0
 174 0042 1368     		ldr	r3, [r2]
 175 0044 43F48033 		orr	r3, r3, #65536
 176 0048 1360     		str	r3, [r2]
 177              	.L13:
 178              		.loc 1 186 0 discriminator 1
 179 004a 1168     		ldr	r1, [r2]
 180 004c 194B     		ldr	r3, .L31
 181 004e 8903     		lsls	r1, r1, #14
 182 0050 FBD5     		bpl	.L13
 183              		.loc 1 192 0
 184 0052 5A6F     		ldr	r2, [r3, #116]
 185 0054 42F00102 		orr	r2, r2, #1
 186 0058 5A67     		str	r2, [r3, #116]
 187              	.L14:
 188              		.loc 1 193 0 discriminator 1
 189 005a 5A6F     		ldr	r2, [r3, #116]
 190 005c 1549     		ldr	r1, .L31
 191 005e 9007     		lsls	r0, r2, #30
 192 0060 FBD5     		bpl	.L14
 193              		.loc 1 199 0
 194 0062 164B     		ldr	r3, .L31+8
 195 0064 4B60     		str	r3, [r1, #4]
 196              		.loc 1 201 0
 197 0066 0B68     		ldr	r3, [r1]
 198              		.loc 1 205 0
 199 0068 134A     		ldr	r2, .L31+4
 200              		.loc 1 201 0
 201 006a 43F08073 		orr	r3, r3, #16777216
 202 006e 0B60     		str	r3, [r1]
 203              	.L15:
 204              		.loc 1 205 0 discriminator 1
 205 0070 5368     		ldr	r3, [r2, #4]
 206 0072 5904     		lsls	r1, r3, #17
 207 0074 FCD5     		bpl	.L15
 208              		.loc 1 221 0 discriminator 1
 209 0076 0F49     		ldr	r1, .L31
 210              	.L25:
 211 0078 0A68     		ldr	r2, [r1]
 212 007a 0E4B     		ldr	r3, .L31
 213 007c 9201     		lsls	r2, r2, #6
 214 007e FBD5     		bpl	.L25
 215              		.loc 1 260 0
 216 0080 0F4A     		ldr	r2, .L31+12
 217              		.loc 1 247 0
 218 0082 1049     		ldr	r1, .L31+16
 219 0084 9960     		str	r1, [r3, #8]
 220              		.loc 1 260 0
 221 0086 40F20271 		movw	r1, #1794
 222 008a 1160     		str	r1, [r2]
 223              		.loc 1 266 0
 224 008c 9A68     		ldr	r2, [r3, #8]
 225 008e 42F00202 		orr	r2, r2, #2
 226 0092 9A60     		str	r2, [r3, #8]
 227              		.loc 1 267 0
ARM GAS  /tmp/ccSHH9IF.s 			page 5


 228 0094 1A46     		mov	r2, r3
 229              	.L17:
 230              		.loc 1 267 0 is_stmt 0 discriminator 1
 231 0096 9368     		ldr	r3, [r2, #8]
 232 0098 0649     		ldr	r1, .L31
 233 009a 03F00C03 		and	r3, r3, #12
 234 009e 082B     		cmp	r3, #8
 235 00a0 F9D1     		bne	.L17
 236              		.loc 1 274 0 is_stmt 1
 237 00a2 4B6C     		ldr	r3, [r1, #68]
 238 00a4 43F48043 		orr	r3, r3, #16384
 239 00a8 4B64     		str	r3, [r1, #68]
 240 00aa 4B6E     		ldr	r3, [r1, #100]
 241 00ac 43F48043 		orr	r3, r3, #16384
 242 00b0 4B66     		str	r3, [r1, #100]
 243 00b2 7047     		bx	lr
 244              	.L32:
 245              		.align	2
 246              	.L31:
 247 00b4 00380240 		.word	1073887232
 248 00b8 00700040 		.word	1073770496
 249 00bc 08544107 		.word	121721864
 250 00c0 003C0240 		.word	1073888256
 251 00c4 00100838 		.word	940052480
 252              		.cfi_endproc
 253              	.LFE262:
 254              		.size	stm32_clock_init, .-stm32_clock_init
 255              		.global	SystemCoreClock
 256 00c8 AFF30080 		.section	.data.SystemCoreClock,"aw",%progbits
 256      AFF30080 
 257              		.align	2
 258              		.type	SystemCoreClock, %object
 259              		.size	SystemCoreClock, 4
 260              	SystemCoreClock:
 261 0000 00BD0105 		.word	84000000
 262              		.text
 263              	.Letext0:
 264              		.file 2 "/usr/lib/gcc/arm-none-eabi/5.2.0/include/stddef.h"
 265              		.file 3 "/usr/arm-none-eabi/include/machine/_default_types.h"
 266              		.file 4 "/usr/arm-none-eabi/include/stdint.h"
 267              		.file 5 "../../os/rt/ports/ARMCMx/compilers/GCC/chtypes.h"
 268              		.file 6 "../../os/rt/include/chsystypes.h"
 269              		.file 7 "../../os/rt/include/chschd.h"
 270              		.file 8 "../../os/ext/CMSIS/ST/stm32f401xc.h"
 271              		.file 9 "../../os/rt/ports/ARMCMx/chcore.h"
 272              		.file 10 "../../os/rt/ports/ARMCMx/chcore_v7m.h"
 273              		.file 11 "../../os/rt/include/chtm.h"
 274              		.file 12 "../../os/rt/include/chsem.h"
 275              		.file 13 "../../os/rt/include/chmtx.h"
 276              		.file 14 "../../os/ext/CMSIS/include/core_cm4.h"
 277              		.file 15 "../../os/hal/ports/STM32/STM32F4xx/stm32_dma.h"
 278              		.section	.debug_info,"",%progbits
 279              	.Ldebug_info0:
 280 0000 C0090000 		.4byte	0x9c0
 281 0004 0400     		.2byte	0x4
 282 0006 00000000 		.4byte	.Ldebug_abbrev0
 283 000a 04       		.byte	0x4
ARM GAS  /tmp/ccSHH9IF.s 			page 6


 284 000b 01       		.uleb128 0x1
 285 000c BC020000 		.4byte	.LASF140
 286 0010 0C       		.byte	0xc
 287 0011 0E010000 		.4byte	.LASF141
 288 0015 C3030000 		.4byte	.LASF142
 289 0019 20000000 		.4byte	.Ldebug_ranges0+0x20
 290 001d 00000000 		.4byte	0
 291 0021 00000000 		.4byte	.Ldebug_line0
 292 0025 02       		.uleb128 0x2
 293 0026 04       		.byte	0x4
 294 0027 05       		.byte	0x5
 295 0028 696E7400 		.ascii	"int\000"
 296 002c 03       		.uleb128 0x3
 297 002d 0D000000 		.4byte	.LASF4
 298 0031 02       		.byte	0x2
 299 0032 D8       		.byte	0xd8
 300 0033 37000000 		.4byte	0x37
 301 0037 04       		.uleb128 0x4
 302 0038 04       		.byte	0x4
 303 0039 07       		.byte	0x7
 304 003a CC010000 		.4byte	.LASF0
 305 003e 04       		.uleb128 0x4
 306 003f 08       		.byte	0x8
 307 0040 05       		.byte	0x5
 308 0041 C6000000 		.4byte	.LASF1
 309 0045 04       		.uleb128 0x4
 310 0046 08       		.byte	0x8
 311 0047 04       		.byte	0x4
 312 0048 39040000 		.4byte	.LASF2
 313 004c 04       		.uleb128 0x4
 314 004d 01       		.byte	0x1
 315 004e 06       		.byte	0x6
 316 004f D4000000 		.4byte	.LASF3
 317 0053 03       		.uleb128 0x3
 318 0054 24000000 		.4byte	.LASF5
 319 0058 03       		.byte	0x3
 320 0059 1D       		.byte	0x1d
 321 005a 5E000000 		.4byte	0x5e
 322 005e 04       		.uleb128 0x4
 323 005f 01       		.byte	0x1
 324 0060 08       		.byte	0x8
 325 0061 18050000 		.4byte	.LASF6
 326 0065 04       		.uleb128 0x4
 327 0066 02       		.byte	0x2
 328 0067 05       		.byte	0x5
 329 0068 30050000 		.4byte	.LASF7
 330 006c 04       		.uleb128 0x4
 331 006d 02       		.byte	0x2
 332 006e 07       		.byte	0x7
 333 006f 1E020000 		.4byte	.LASF8
 334 0073 03       		.uleb128 0x3
 335 0074 A7020000 		.4byte	.LASF9
 336 0078 03       		.byte	0x3
 337 0079 3F       		.byte	0x3f
 338 007a 7E000000 		.4byte	0x7e
 339 007e 04       		.uleb128 0x4
 340 007f 04       		.byte	0x4
ARM GAS  /tmp/ccSHH9IF.s 			page 7


 341 0080 05       		.byte	0x5
 342 0081 4B010000 		.4byte	.LASF10
 343 0085 03       		.uleb128 0x3
 344 0086 24060000 		.4byte	.LASF11
 345 008a 03       		.byte	0x3
 346 008b 41       		.byte	0x41
 347 008c 90000000 		.4byte	0x90
 348 0090 04       		.uleb128 0x4
 349 0091 04       		.byte	0x4
 350 0092 07       		.byte	0x7
 351 0093 D6050000 		.4byte	.LASF12
 352 0097 03       		.uleb128 0x3
 353 0098 9C040000 		.4byte	.LASF13
 354 009c 03       		.byte	0x3
 355 009d 5B       		.byte	0x5b
 356 009e A2000000 		.4byte	0xa2
 357 00a2 04       		.uleb128 0x4
 358 00a3 08       		.byte	0x8
 359 00a4 07       		.byte	0x7
 360 00a5 56000000 		.4byte	.LASF14
 361 00a9 03       		.uleb128 0x3
 362 00aa B9060000 		.4byte	.LASF15
 363 00ae 04       		.byte	0x4
 364 00af 15       		.byte	0x15
 365 00b0 53000000 		.4byte	0x53
 366 00b4 03       		.uleb128 0x3
 367 00b5 10050000 		.4byte	.LASF16
 368 00b9 04       		.byte	0x4
 369 00ba 2C       		.byte	0x2c
 370 00bb 73000000 		.4byte	0x73
 371 00bf 03       		.uleb128 0x3
 372 00c0 A6050000 		.4byte	.LASF17
 373 00c4 04       		.byte	0x4
 374 00c5 2D       		.byte	0x2d
 375 00c6 85000000 		.4byte	0x85
 376 00ca 03       		.uleb128 0x3
 377 00cb 1B000000 		.4byte	.LASF18
 378 00cf 04       		.byte	0x4
 379 00d0 39       		.byte	0x39
 380 00d1 97000000 		.4byte	0x97
 381 00d5 05       		.uleb128 0x5
 382 00d6 B4000000 		.4byte	0xb4
 383 00da 05       		.uleb128 0x5
 384 00db BF000000 		.4byte	0xbf
 385 00df 03       		.uleb128 0x3
 386 00e0 79060000 		.4byte	.LASF19
 387 00e4 05       		.byte	0x5
 388 00e5 45       		.byte	0x45
 389 00e6 BF000000 		.4byte	0xbf
 390 00ea 03       		.uleb128 0x3
 391 00eb 7B020000 		.4byte	.LASF20
 392 00ef 05       		.byte	0x5
 393 00f0 48       		.byte	0x48
 394 00f1 A9000000 		.4byte	0xa9
 395 00f5 03       		.uleb128 0x3
 396 00f6 67010000 		.4byte	.LASF21
 397 00fa 05       		.byte	0x5
ARM GAS  /tmp/ccSHH9IF.s 			page 8


 398 00fb 49       		.byte	0x49
 399 00fc A9000000 		.4byte	0xa9
 400 0100 03       		.uleb128 0x3
 401 0101 A7040000 		.4byte	.LASF22
 402 0105 05       		.byte	0x5
 403 0106 4A       		.byte	0x4a
 404 0107 A9000000 		.4byte	0xa9
 405 010b 03       		.uleb128 0x3
 406 010c F2040000 		.4byte	.LASF23
 407 0110 05       		.byte	0x5
 408 0111 4C       		.byte	0x4c
 409 0112 BF000000 		.4byte	0xbf
 410 0116 03       		.uleb128 0x3
 411 0117 46020000 		.4byte	.LASF24
 412 011b 05       		.byte	0x5
 413 011c 4D       		.byte	0x4d
 414 011d B4000000 		.4byte	0xb4
 415 0121 03       		.uleb128 0x3
 416 0122 9B020000 		.4byte	.LASF25
 417 0126 05       		.byte	0x5
 418 0127 4F       		.byte	0x4f
 419 0128 BF000000 		.4byte	0xbf
 420 012c 03       		.uleb128 0x3
 421 012d C6010000 		.4byte	.LASF26
 422 0131 05       		.byte	0x5
 423 0132 51       		.byte	0x51
 424 0133 B4000000 		.4byte	0xb4
 425 0137 03       		.uleb128 0x3
 426 0138 06060000 		.4byte	.LASF27
 427 013c 06       		.byte	0x6
 428 013d 33       		.byte	0x33
 429 013e BF000000 		.4byte	0xbf
 430 0142 03       		.uleb128 0x3
 431 0143 F6050000 		.4byte	.LASF28
 432 0147 06       		.byte	0x6
 433 0148 3F       		.byte	0x3f
 434 0149 4D010000 		.4byte	0x14d
 435 014d 06       		.uleb128 0x6
 436 014e 31020000 		.4byte	.LASF48
 437 0152 44       		.byte	0x44
 438 0153 07       		.byte	0x7
 439 0154 C2       		.byte	0xc2
 440 0155 3A020000 		.4byte	0x23a
 441 0159 07       		.uleb128 0x7
 442 015a 45040000 		.4byte	.LASF29
 443 015e 07       		.byte	0x7
 444 015f C3       		.byte	0xc3
 445 0160 45020000 		.4byte	0x245
 446 0164 00       		.byte	0
 447 0165 07       		.uleb128 0x7
 448 0166 E1040000 		.4byte	.LASF30
 449 016a 07       		.byte	0x7
 450 016b C5       		.byte	0xc5
 451 016c 45020000 		.4byte	0x245
 452 0170 04       		.byte	0x4
 453 0171 07       		.uleb128 0x7
 454 0172 BF000000 		.4byte	.LASF31
ARM GAS  /tmp/ccSHH9IF.s 			page 9


 455 0176 07       		.byte	0x7
 456 0177 C7       		.byte	0xc7
 457 0178 0B010000 		.4byte	0x10b
 458 017c 08       		.byte	0x8
 459 017d 07       		.uleb128 0x7
 460 017e F2060000 		.4byte	.LASF32
 461 0182 07       		.byte	0x7
 462 0183 C8       		.byte	0xc8
 463 0184 BE060000 		.4byte	0x6be
 464 0188 0C       		.byte	0xc
 465 0189 07       		.uleb128 0x7
 466 018a 70010000 		.4byte	.LASF33
 467 018e 07       		.byte	0x7
 468 018f CA       		.byte	0xca
 469 0190 45020000 		.4byte	0x245
 470 0194 10       		.byte	0x10
 471 0195 07       		.uleb128 0x7
 472 0196 60040000 		.4byte	.LASF34
 473 019a 07       		.byte	0x7
 474 019b CB       		.byte	0xcb
 475 019c 45020000 		.4byte	0x245
 476 01a0 14       		.byte	0x14
 477 01a1 07       		.uleb128 0x7
 478 01a2 C8060000 		.4byte	.LASF35
 479 01a6 07       		.byte	0x7
 480 01a7 D2       		.byte	0xd2
 481 01a8 03090000 		.4byte	0x903
 482 01ac 18       		.byte	0x18
 483 01ad 07       		.uleb128 0x7
 484 01ae 3A050000 		.4byte	.LASF36
 485 01b2 07       		.byte	0x7
 486 01b3 DD       		.byte	0xdd
 487 01b4 F5000000 		.4byte	0xf5
 488 01b8 1C       		.byte	0x1c
 489 01b9 07       		.uleb128 0x7
 490 01ba 5A050000 		.4byte	.LASF37
 491 01be 07       		.byte	0x7
 492 01bf E1       		.byte	0xe1
 493 01c0 EA000000 		.4byte	0xea
 494 01c4 1D       		.byte	0x1d
 495 01c5 07       		.uleb128 0x7
 496 01c6 A7060000 		.4byte	.LASF38
 497 01ca 07       		.byte	0x7
 498 01cb E6       		.byte	0xe6
 499 01cc 00010000 		.4byte	0x100
 500 01d0 1E       		.byte	0x1e
 501 01d1 08       		.uleb128 0x8
 502 01d2 705F7500 		.ascii	"p_u\000"
 503 01d6 07       		.byte	0x7
 504 01d7 3101     		.2byte	0x131
 505 01d9 3E080000 		.4byte	0x83e
 506 01dd 20       		.byte	0x20
 507 01de 09       		.uleb128 0x9
 508 01df B9030000 		.4byte	.LASF39
 509 01e3 07       		.byte	0x7
 510 01e4 3601     		.2byte	0x136
 511 01e6 4B020000 		.4byte	0x24b
ARM GAS  /tmp/ccSHH9IF.s 			page 10


 512 01ea 24       		.byte	0x24
 513 01eb 09       		.uleb128 0x9
 514 01ec 01020000 		.4byte	.LASF40
 515 01f0 07       		.byte	0x7
 516 01f1 3C01     		.2byte	0x13c
 517 01f3 6F020000 		.4byte	0x26f
 518 01f7 28       		.byte	0x28
 519 01f8 09       		.uleb128 0x9
 520 01f9 E4060000 		.4byte	.LASF41
 521 01fd 07       		.byte	0x7
 522 01fe 4001     		.2byte	0x140
 523 0200 16010000 		.4byte	0x116
 524 0204 30       		.byte	0x30
 525 0205 09       		.uleb128 0x9
 526 0206 91050000 		.4byte	.LASF42
 527 020a 07       		.byte	0x7
 528 020b 4601     		.2byte	0x146
 529 020d 21010000 		.4byte	0x121
 530 0211 34       		.byte	0x34
 531 0212 09       		.uleb128 0x9
 532 0213 26050000 		.4byte	.LASF43
 533 0217 07       		.byte	0x7
 534 0218 4D01     		.2byte	0x14d
 535 021a FD080000 		.4byte	0x8fd
 536 021e 38       		.byte	0x38
 537 021f 09       		.uleb128 0x9
 538 0220 10060000 		.4byte	.LASF44
 539 0224 07       		.byte	0x7
 540 0225 5101     		.2byte	0x151
 541 0227 0B010000 		.4byte	0x10b
 542 022b 3C       		.byte	0x3c
 543 022c 09       		.uleb128 0x9
 544 022d F7000000 		.4byte	.LASF45
 545 0231 07       		.byte	0x7
 546 0232 5801     		.2byte	0x158
 547 0234 22030000 		.4byte	0x322
 548 0238 40       		.byte	0x40
 549 0239 00       		.byte	0
 550 023a 03       		.uleb128 0x3
 551 023b 0F040000 		.4byte	.LASF46
 552 023f 06       		.byte	0x6
 553 0240 44       		.byte	0x44
 554 0241 45020000 		.4byte	0x245
 555 0245 0A       		.uleb128 0xa
 556 0246 04       		.byte	0x4
 557 0247 42010000 		.4byte	0x142
 558 024b 03       		.uleb128 0x3
 559 024c 9A030000 		.4byte	.LASF47
 560 0250 06       		.byte	0x6
 561 0251 49       		.byte	0x49
 562 0252 56020000 		.4byte	0x256
 563 0256 06       		.uleb128 0x6
 564 0257 BE050000 		.4byte	.LASF49
 565 025b 04       		.byte	0x4
 566 025c 07       		.byte	0x7
 567 025d B0       		.byte	0xb0
 568 025e 6F020000 		.4byte	0x26f
ARM GAS  /tmp/ccSHH9IF.s 			page 11


 569 0262 07       		.uleb128 0x7
 570 0263 45040000 		.4byte	.LASF29
 571 0267 07       		.byte	0x7
 572 0268 B1       		.byte	0xb1
 573 0269 45020000 		.4byte	0x245
 574 026d 00       		.byte	0
 575 026e 00       		.byte	0
 576 026f 03       		.uleb128 0x3
 577 0270 8E060000 		.4byte	.LASF50
 578 0274 06       		.byte	0x6
 579 0275 50       		.byte	0x50
 580 0276 7A020000 		.4byte	0x27a
 581 027a 06       		.uleb128 0x6
 582 027b A4000000 		.4byte	.LASF51
 583 027f 08       		.byte	0x8
 584 0280 07       		.byte	0x7
 585 0281 B7       		.byte	0xb7
 586 0282 9F020000 		.4byte	0x29f
 587 0286 07       		.uleb128 0x7
 588 0287 45040000 		.4byte	.LASF29
 589 028b 07       		.byte	0x7
 590 028c B8       		.byte	0xb8
 591 028d 45020000 		.4byte	0x245
 592 0291 00       		.byte	0
 593 0292 07       		.uleb128 0x7
 594 0293 E1040000 		.4byte	.LASF30
 595 0297 07       		.byte	0x7
 596 0298 B9       		.byte	0xb9
 597 0299 45020000 		.4byte	0x245
 598 029d 04       		.byte	0x4
 599 029e 00       		.byte	0
 600 029f 03       		.uleb128 0x3
 601 02a0 00000000 		.4byte	.LASF52
 602 02a4 06       		.byte	0x6
 603 02a5 57       		.byte	0x57
 604 02a6 AA020000 		.4byte	0x2aa
 605 02aa 0B       		.uleb128 0xb
 606 02ab 8D020000 		.4byte	.LASF53
 607 02af 1C       		.byte	0x1c
 608 02b0 07       		.byte	0x7
 609 02b1 9001     		.2byte	0x190
 610 02b3 06030000 		.4byte	0x306
 611 02b7 09       		.uleb128 0x9
 612 02b8 B6050000 		.4byte	.LASF54
 613 02bc 07       		.byte	0x7
 614 02bd 9101     		.2byte	0x191
 615 02bf 6F020000 		.4byte	0x26f
 616 02c3 00       		.byte	0
 617 02c4 09       		.uleb128 0x9
 618 02c5 4C050000 		.4byte	.LASF55
 619 02c9 07       		.byte	0x7
 620 02ca 9201     		.2byte	0x192
 621 02cc 0B010000 		.4byte	0x10b
 622 02d0 08       		.byte	0x8
 623 02d1 09       		.uleb128 0x9
 624 02d2 68040000 		.4byte	.LASF56
 625 02d6 07       		.byte	0x7
ARM GAS  /tmp/ccSHH9IF.s 			page 12


 626 02d7 9401     		.2byte	0x194
 627 02d9 BE060000 		.4byte	0x6be
 628 02dd 0C       		.byte	0xc
 629 02de 09       		.uleb128 0x9
 630 02df 80010000 		.4byte	.LASF57
 631 02e3 07       		.byte	0x7
 632 02e4 9701     		.2byte	0x197
 633 02e6 45020000 		.4byte	0x245
 634 02ea 10       		.byte	0x10
 635 02eb 09       		.uleb128 0x9
 636 02ec 64060000 		.4byte	.LASF58
 637 02f0 07       		.byte	0x7
 638 02f1 9801     		.2byte	0x198
 639 02f3 45020000 		.4byte	0x245
 640 02f7 14       		.byte	0x14
 641 02f8 09       		.uleb128 0x9
 642 02f9 89040000 		.4byte	.LASF59
 643 02fd 07       		.byte	0x7
 644 02fe 9B01     		.2byte	0x19b
 645 0300 45020000 		.4byte	0x245
 646 0304 18       		.byte	0x18
 647 0305 00       		.byte	0
 648 0306 03       		.uleb128 0x3
 649 0307 1B060000 		.4byte	.LASF60
 650 030b 06       		.byte	0x6
 651 030c 5C       		.byte	0x5c
 652 030d 11030000 		.4byte	0x311
 653 0311 0A       		.uleb128 0xa
 654 0312 04       		.byte	0x4
 655 0313 17030000 		.4byte	0x317
 656 0317 0C       		.uleb128 0xc
 657 0318 22030000 		.4byte	0x322
 658 031c 0D       		.uleb128 0xd
 659 031d 22030000 		.4byte	0x322
 660 0321 00       		.byte	0
 661 0322 0E       		.uleb128 0xe
 662 0323 04       		.byte	0x4
 663 0324 03       		.uleb128 0x3
 664 0325 A9030000 		.4byte	.LASF61
 665 0329 06       		.byte	0x6
 666 032a 61       		.byte	0x61
 667 032b 2F030000 		.4byte	0x32f
 668 032f 0B       		.uleb128 0xb
 669 0330 73050000 		.4byte	.LASF62
 670 0334 14       		.byte	0x14
 671 0335 07       		.byte	0x7
 672 0336 6B01     		.2byte	0x16b
 673 0338 7E030000 		.4byte	0x37e
 674 033c 09       		.uleb128 0x9
 675 033d D9010000 		.4byte	.LASF63
 676 0341 07       		.byte	0x7
 677 0342 6C01     		.2byte	0x16c
 678 0344 15090000 		.4byte	0x915
 679 0348 00       		.byte	0
 680 0349 09       		.uleb128 0x9
 681 034a 91010000 		.4byte	.LASF64
 682 034e 07       		.byte	0x7
ARM GAS  /tmp/ccSHH9IF.s 			page 13


 683 034f 6D01     		.2byte	0x16d
 684 0351 15090000 		.4byte	0x915
 685 0355 04       		.byte	0x4
 686 0356 09       		.uleb128 0x9
 687 0357 F8010000 		.4byte	.LASF65
 688 035b 07       		.byte	0x7
 689 035c 6E01     		.2byte	0x16e
 690 035e 37010000 		.4byte	0x137
 691 0362 08       		.byte	0x8
 692 0363 09       		.uleb128 0x9
 693 0364 F8060000 		.4byte	.LASF66
 694 0368 07       		.byte	0x7
 695 0369 6F01     		.2byte	0x16f
 696 036b 06030000 		.4byte	0x306
 697 036f 0C       		.byte	0xc
 698 0370 09       		.uleb128 0x9
 699 0371 81060000 		.4byte	.LASF67
 700 0375 07       		.byte	0x7
 701 0376 7101     		.2byte	0x171
 702 0378 22030000 		.4byte	0x322
 703 037c 10       		.byte	0x10
 704 037d 00       		.byte	0
 705 037e 03       		.uleb128 0x3
 706 037f 81000000 		.4byte	.LASF68
 707 0383 06       		.byte	0x6
 708 0384 66       		.byte	0x66
 709 0385 89030000 		.4byte	0x389
 710 0389 0B       		.uleb128 0xb
 711 038a 22040000 		.4byte	.LASF69
 712 038e 10       		.byte	0x10
 713 038f 07       		.byte	0x7
 714 0390 7B01     		.2byte	0x17b
 715 0392 CB030000 		.4byte	0x3cb
 716 0396 09       		.uleb128 0x9
 717 0397 D9010000 		.4byte	.LASF63
 718 039b 07       		.byte	0x7
 719 039c 7C01     		.2byte	0x17c
 720 039e 15090000 		.4byte	0x915
 721 03a2 00       		.byte	0
 722 03a3 09       		.uleb128 0x9
 723 03a4 91010000 		.4byte	.LASF64
 724 03a8 07       		.byte	0x7
 725 03a9 7E01     		.2byte	0x17e
 726 03ab 15090000 		.4byte	0x915
 727 03af 04       		.byte	0x4
 728 03b0 09       		.uleb128 0x9
 729 03b1 F8010000 		.4byte	.LASF65
 730 03b5 07       		.byte	0x7
 731 03b6 8001     		.2byte	0x180
 732 03b8 37010000 		.4byte	0x137
 733 03bc 08       		.byte	0x8
 734 03bd 09       		.uleb128 0x9
 735 03be 54040000 		.4byte	.LASF70
 736 03c2 07       		.byte	0x7
 737 03c3 8801     		.2byte	0x188
 738 03c5 37010000 		.4byte	0x137
 739 03c9 0C       		.byte	0xc
ARM GAS  /tmp/ccSHH9IF.s 			page 14


 740 03ca 00       		.byte	0
 741 03cb 03       		.uleb128 0x3
 742 03cc 3A000000 		.4byte	.LASF71
 743 03d0 06       		.byte	0x6
 744 03d1 6B       		.byte	0x6b
 745 03d2 D6030000 		.4byte	0x3d6
 746 03d6 0B       		.uleb128 0xb
 747 03d7 FA040000 		.4byte	.LASF72
 748 03db 04       		.byte	0x4
 749 03dc 07       		.byte	0x7
 750 03dd A201     		.2byte	0x1a2
 751 03df F1030000 		.4byte	0x3f1
 752 03e3 09       		.uleb128 0x9
 753 03e4 2F060000 		.4byte	.LASF73
 754 03e8 07       		.byte	0x7
 755 03e9 AA01     		.2byte	0x1aa
 756 03eb 1B090000 		.4byte	0x91b
 757 03ef 00       		.byte	0
 758 03f0 00       		.byte	0
 759 03f1 03       		.uleb128 0x3
 760 03f2 6F020000 		.4byte	.LASF74
 761 03f6 06       		.byte	0x6
 762 03f7 70       		.byte	0x70
 763 03f8 FC030000 		.4byte	0x3fc
 764 03fc 0F       		.uleb128 0xf
 765 03fd 41010000 		.4byte	.LASF75
 766 0401 D801     		.2byte	0x1d8
 767 0403 07       		.byte	0x7
 768 0404 C201     		.2byte	0x1c2
 769 0406 58040000 		.4byte	0x458
 770 040a 09       		.uleb128 0x9
 771 040b B3060000 		.4byte	.LASF76
 772 040f 07       		.byte	0x7
 773 0410 C601     		.2byte	0x1c6
 774 0412 9F020000 		.4byte	0x29f
 775 0416 00       		.byte	0
 776 0417 09       		.uleb128 0x9
 777 0418 07010000 		.4byte	.LASF77
 778 041c 07       		.byte	0x7
 779 041d CA01     		.2byte	0x1ca
 780 041f 7E030000 		.4byte	0x37e
 781 0423 1C       		.byte	0x1c
 782 0424 08       		.uleb128 0x8
 783 0425 64626700 		.ascii	"dbg\000"
 784 0429 07       		.byte	0x7
 785 042a CE01     		.2byte	0x1ce
 786 042c CB030000 		.4byte	0x3cb
 787 0430 2C       		.byte	0x2c
 788 0431 09       		.uleb128 0x9
 789 0432 76000000 		.4byte	.LASF78
 790 0436 07       		.byte	0x7
 791 0437 D201     		.2byte	0x1d2
 792 0439 42010000 		.4byte	0x142
 793 043d 30       		.byte	0x30
 794 043e 08       		.uleb128 0x8
 795 043f 746D00   		.ascii	"tm\000"
 796 0442 07       		.byte	0x7
ARM GAS  /tmp/ccSHH9IF.s 			page 15


 797 0443 D701     		.2byte	0x1d7
 798 0445 33080000 		.4byte	0x833
 799 0449 74       		.byte	0x74
 800 044a 09       		.uleb128 0x9
 801 044b B7010000 		.4byte	.LASF79
 802 044f 07       		.byte	0x7
 803 0450 E301     		.2byte	0x1e3
 804 0452 20090000 		.4byte	0x920
 805 0456 78       		.byte	0x78
 806 0457 00       		.byte	0
 807 0458 04       		.uleb128 0x4
 808 0459 04       		.byte	0x4
 809 045a 07       		.byte	0x7
 810 045b 06040000 		.4byte	.LASF80
 811 045f 10       		.uleb128 0x10
 812 0460 BF000000 		.4byte	0xbf
 813 0464 6F040000 		.4byte	0x46f
 814 0468 11       		.uleb128 0x11
 815 0469 58040000 		.4byte	0x458
 816 046d 01       		.byte	0x1
 817 046e 00       		.byte	0
 818 046f 12       		.uleb128 0x12
 819 0470 1C       		.byte	0x1c
 820 0471 08       		.byte	0x8
 821 0472 0E01     		.2byte	0x10e
 822 0474 D2040000 		.4byte	0x4d2
 823 0478 08       		.uleb128 0x8
 824 0479 41435200 		.ascii	"ACR\000"
 825 047d 08       		.byte	0x8
 826 047e 1001     		.2byte	0x110
 827 0480 DA000000 		.4byte	0xda
 828 0484 00       		.byte	0
 829 0485 09       		.uleb128 0x9
 830 0486 99010000 		.4byte	.LASF81
 831 048a 08       		.byte	0x8
 832 048b 1101     		.2byte	0x111
 833 048d DA000000 		.4byte	0xda
 834 0491 04       		.byte	0x4
 835 0492 09       		.uleb128 0x9
 836 0493 78010000 		.4byte	.LASF82
 837 0497 08       		.byte	0x8
 838 0498 1201     		.2byte	0x112
 839 049a DA000000 		.4byte	0xda
 840 049e 08       		.byte	0x8
 841 049f 08       		.uleb128 0x8
 842 04a0 535200   		.ascii	"SR\000"
 843 04a3 08       		.byte	0x8
 844 04a4 1301     		.2byte	0x113
 845 04a6 DA000000 		.4byte	0xda
 846 04aa 0C       		.byte	0xc
 847 04ab 08       		.uleb128 0x8
 848 04ac 435200   		.ascii	"CR\000"
 849 04af 08       		.byte	0x8
 850 04b0 1401     		.2byte	0x114
 851 04b2 DA000000 		.4byte	0xda
 852 04b6 10       		.byte	0x10
 853 04b7 09       		.uleb128 0x9
ARM GAS  /tmp/ccSHH9IF.s 			page 16


 854 04b8 49000000 		.4byte	.LASF83
 855 04bc 08       		.byte	0x8
 856 04bd 1501     		.2byte	0x115
 857 04bf DA000000 		.4byte	0xda
 858 04c3 14       		.byte	0x14
 859 04c4 09       		.uleb128 0x9
 860 04c5 4F000000 		.4byte	.LASF84
 861 04c9 08       		.byte	0x8
 862 04ca 1601     		.2byte	0x116
 863 04cc DA000000 		.4byte	0xda
 864 04d0 18       		.byte	0x18
 865 04d1 00       		.byte	0
 866 04d2 13       		.uleb128 0x13
 867 04d3 E9000000 		.4byte	.LASF85
 868 04d7 08       		.byte	0x8
 869 04d8 1701     		.2byte	0x117
 870 04da 6F040000 		.4byte	0x46f
 871 04de 12       		.uleb128 0x12
 872 04df 08       		.byte	0x8
 873 04e0 08       		.byte	0x8
 874 04e1 5A01     		.2byte	0x15a
 875 04e3 01050000 		.4byte	0x501
 876 04e7 08       		.uleb128 0x8
 877 04e8 435200   		.ascii	"CR\000"
 878 04eb 08       		.byte	0x8
 879 04ec 5C01     		.2byte	0x15c
 880 04ee DA000000 		.4byte	0xda
 881 04f2 00       		.byte	0
 882 04f3 08       		.uleb128 0x8
 883 04f4 43535200 		.ascii	"CSR\000"
 884 04f8 08       		.byte	0x8
 885 04f9 5D01     		.2byte	0x15d
 886 04fb DA000000 		.4byte	0xda
 887 04ff 04       		.byte	0x4
 888 0500 00       		.byte	0
 889 0501 13       		.uleb128 0x13
 890 0502 48060000 		.4byte	.LASF86
 891 0506 08       		.byte	0x8
 892 0507 5E01     		.2byte	0x15e
 893 0509 DE040000 		.4byte	0x4de
 894 050d 12       		.uleb128 0x12
 895 050e 88       		.byte	0x88
 896 050f 08       		.byte	0x8
 897 0510 6401     		.2byte	0x164
 898 0512 9C060000 		.4byte	0x69c
 899 0516 08       		.uleb128 0x8
 900 0517 435200   		.ascii	"CR\000"
 901 051a 08       		.byte	0x8
 902 051b 6601     		.2byte	0x166
 903 051d DA000000 		.4byte	0xda
 904 0521 00       		.byte	0
 905 0522 09       		.uleb128 0x9
 906 0523 4C020000 		.4byte	.LASF87
 907 0527 08       		.byte	0x8
 908 0528 6701     		.2byte	0x167
 909 052a DA000000 		.4byte	0xda
 910 052e 04       		.byte	0x4
ARM GAS  /tmp/ccSHH9IF.s 			page 17


 911 052f 09       		.uleb128 0x9
 912 0530 D7060000 		.4byte	.LASF88
 913 0534 08       		.byte	0x8
 914 0535 6801     		.2byte	0x168
 915 0537 DA000000 		.4byte	0xda
 916 053b 08       		.byte	0x8
 917 053c 08       		.uleb128 0x8
 918 053d 43495200 		.ascii	"CIR\000"
 919 0541 08       		.byte	0x8
 920 0542 6901     		.2byte	0x169
 921 0544 DA000000 		.4byte	0xda
 922 0548 0C       		.byte	0xc
 923 0549 09       		.uleb128 0x9
 924 054a E0000000 		.4byte	.LASF89
 925 054e 08       		.byte	0x8
 926 054f 6A01     		.2byte	0x16a
 927 0551 DA000000 		.4byte	0xda
 928 0555 10       		.byte	0x10
 929 0556 09       		.uleb128 0x9
 930 0557 ED050000 		.4byte	.LASF90
 931 055b 08       		.byte	0x8
 932 055c 6B01     		.2byte	0x16b
 933 055e DA000000 		.4byte	0xda
 934 0562 14       		.byte	0x14
 935 0563 09       		.uleb128 0x9
 936 0564 6A050000 		.4byte	.LASF91
 937 0568 08       		.byte	0x8
 938 0569 6C01     		.2byte	0x16c
 939 056b DA000000 		.4byte	0xda
 940 056f 18       		.byte	0x18
 941 0570 09       		.uleb128 0x9
 942 0571 AF040000 		.4byte	.LASF92
 943 0575 08       		.byte	0x8
 944 0576 6D01     		.2byte	0x16d
 945 0578 BF000000 		.4byte	0xbf
 946 057c 1C       		.byte	0x1c
 947 057d 09       		.uleb128 0x9
 948 057e 93040000 		.4byte	.LASF93
 949 0582 08       		.byte	0x8
 950 0583 6E01     		.2byte	0x16e
 951 0585 DA000000 		.4byte	0xda
 952 0589 20       		.byte	0x20
 953 058a 09       		.uleb128 0x9
 954 058b 54010000 		.4byte	.LASF94
 955 058f 08       		.byte	0x8
 956 0590 6F01     		.2byte	0x16f
 957 0592 DA000000 		.4byte	0xda
 958 0596 24       		.byte	0x24
 959 0597 09       		.uleb128 0x9
 960 0598 B9040000 		.4byte	.LASF95
 961 059c 08       		.byte	0x8
 962 059d 7001     		.2byte	0x170
 963 059f 5F040000 		.4byte	0x45f
 964 05a3 28       		.byte	0x28
 965 05a4 09       		.uleb128 0x9
 966 05a5 CF060000 		.4byte	.LASF96
 967 05a9 08       		.byte	0x8
ARM GAS  /tmp/ccSHH9IF.s 			page 18


 968 05aa 7101     		.2byte	0x171
 969 05ac DA000000 		.4byte	0xda
 970 05b0 30       		.byte	0x30
 971 05b1 09       		.uleb128 0x9
 972 05b2 54060000 		.4byte	.LASF97
 973 05b6 08       		.byte	0x8
 974 05b7 7201     		.2byte	0x172
 975 05b9 DA000000 		.4byte	0xda
 976 05bd 34       		.byte	0x34
 977 05be 09       		.uleb128 0x9
 978 05bf 4C040000 		.4byte	.LASF98
 979 05c3 08       		.byte	0x8
 980 05c4 7301     		.2byte	0x173
 981 05c6 DA000000 		.4byte	0xda
 982 05ca 38       		.byte	0x38
 983 05cb 09       		.uleb128 0x9
 984 05cc C3040000 		.4byte	.LASF99
 985 05d0 08       		.byte	0x8
 986 05d1 7401     		.2byte	0x174
 987 05d3 BF000000 		.4byte	0xbf
 988 05d7 3C       		.byte	0x3c
 989 05d8 09       		.uleb128 0x9
 990 05d9 40060000 		.4byte	.LASF100
 991 05dd 08       		.byte	0x8
 992 05de 7501     		.2byte	0x175
 993 05e0 DA000000 		.4byte	0xda
 994 05e4 40       		.byte	0x40
 995 05e5 09       		.uleb128 0x9
 996 05e6 62050000 		.4byte	.LASF101
 997 05ea 08       		.byte	0x8
 998 05eb 7601     		.2byte	0x176
 999 05ed DA000000 		.4byte	0xda
 1000 05f1 44       		.byte	0x44
 1001 05f2 09       		.uleb128 0x9
 1002 05f3 CD040000 		.4byte	.LASF102
 1003 05f7 08       		.byte	0x8
 1004 05f8 7701     		.2byte	0x177
 1005 05fa 5F040000 		.4byte	0x45f
 1006 05fe 48       		.byte	0x48
 1007 05ff 09       		.uleb128 0x9
 1008 0600 B5000000 		.4byte	.LASF103
 1009 0604 08       		.byte	0x8
 1010 0605 7801     		.2byte	0x178
 1011 0607 DA000000 		.4byte	0xda
 1012 060b 50       		.byte	0x50
 1013 060c 09       		.uleb128 0x9
 1014 060d 6E040000 		.4byte	.LASF104
 1015 0611 08       		.byte	0x8
 1016 0612 7901     		.2byte	0x179
 1017 0614 DA000000 		.4byte	0xda
 1018 0618 54       		.byte	0x54
 1019 0619 09       		.uleb128 0x9
 1020 061a 42050000 		.4byte	.LASF105
 1021 061e 08       		.byte	0x8
 1022 061f 7A01     		.2byte	0x17a
 1023 0621 DA000000 		.4byte	0xda
 1024 0625 58       		.byte	0x58
ARM GAS  /tmp/ccSHH9IF.s 			page 19


 1025 0626 09       		.uleb128 0x9
 1026 0627 D7040000 		.4byte	.LASF106
 1027 062b 08       		.byte	0x8
 1028 062c 7B01     		.2byte	0x17b
 1029 062e BF000000 		.4byte	0xbf
 1030 0632 5C       		.byte	0x5c
 1031 0633 09       		.uleb128 0x9
 1032 0634 5D010000 		.4byte	.LASF107
 1033 0638 08       		.byte	0x8
 1034 0639 7C01     		.2byte	0x17c
 1035 063b DA000000 		.4byte	0xda
 1036 063f 60       		.byte	0x60
 1037 0640 09       		.uleb128 0x9
 1038 0641 83020000 		.4byte	.LASF108
 1039 0645 08       		.byte	0x8
 1040 0646 7D01     		.2byte	0x17d
 1041 0648 DA000000 		.4byte	0xda
 1042 064c 64       		.byte	0x64
 1043 064d 09       		.uleb128 0x9
 1044 064e 9C050000 		.4byte	.LASF109
 1045 0652 08       		.byte	0x8
 1046 0653 7E01     		.2byte	0x17e
 1047 0655 5F040000 		.4byte	0x45f
 1048 0659 68       		.byte	0x68
 1049 065a 09       		.uleb128 0x9
 1050 065b AE060000 		.4byte	.LASF110
 1051 065f 08       		.byte	0x8
 1052 0660 7F01     		.2byte	0x17f
 1053 0662 DA000000 		.4byte	0xda
 1054 0666 70       		.byte	0x70
 1055 0667 08       		.uleb128 0x8
 1056 0668 43535200 		.ascii	"CSR\000"
 1057 066c 08       		.byte	0x8
 1058 066d 8001     		.2byte	0x180
 1059 066f DA000000 		.4byte	0xda
 1060 0673 74       		.byte	0x74
 1061 0674 09       		.uleb128 0x9
 1062 0675 E8040000 		.4byte	.LASF111
 1063 0679 08       		.byte	0x8
 1064 067a 8101     		.2byte	0x181
 1065 067c 5F040000 		.4byte	0x45f
 1066 0680 78       		.byte	0x78
 1067 0681 09       		.uleb128 0x9
 1068 0682 88060000 		.4byte	.LASF112
 1069 0686 08       		.byte	0x8
 1070 0687 8201     		.2byte	0x182
 1071 0689 DA000000 		.4byte	0xda
 1072 068d 80       		.byte	0x80
 1073 068e 09       		.uleb128 0x9
 1074 068f 3B020000 		.4byte	.LASF113
 1075 0693 08       		.byte	0x8
 1076 0694 8301     		.2byte	0x183
 1077 0696 DA000000 		.4byte	0xda
 1078 069a 84       		.byte	0x84
 1079 069b 00       		.byte	0
 1080 069c 13       		.uleb128 0x13
 1081 069d 0C020000 		.4byte	.LASF114
ARM GAS  /tmp/ccSHH9IF.s 			page 20


 1082 06a1 08       		.byte	0x8
 1083 06a2 8501     		.2byte	0x185
 1084 06a4 0D050000 		.4byte	0x50d
 1085 06a8 03       		.uleb128 0x3
 1086 06a9 88010000 		.4byte	.LASF115
 1087 06ad 09       		.byte	0x9
 1088 06ae 65       		.byte	0x65
 1089 06af 22030000 		.4byte	0x322
 1090 06b3 03       		.uleb128 0x3
 1091 06b4 B1020000 		.4byte	.LASF116
 1092 06b8 09       		.byte	0x9
 1093 06b9 6D       		.byte	0x6d
 1094 06ba CA000000 		.4byte	0xca
 1095 06be 06       		.uleb128 0x6
 1096 06bf 5C060000 		.4byte	.LASF117
 1097 06c3 04       		.byte	0x4
 1098 06c4 09       		.byte	0x9
 1099 06c5 89       		.byte	0x89
 1100 06c6 D7060000 		.4byte	0x6d7
 1101 06ca 14       		.uleb128 0x14
 1102 06cb 72313300 		.ascii	"r13\000"
 1103 06cf 09       		.byte	0x9
 1104 06d0 8A       		.byte	0x8a
 1105 06d1 18080000 		.4byte	0x818
 1106 06d5 00       		.byte	0
 1107 06d6 00       		.byte	0
 1108 06d7 06       		.uleb128 0x6
 1109 06d8 2E000000 		.4byte	.LASF118
 1110 06dc 64       		.byte	0x64
 1111 06dd 0A       		.byte	0xa
 1112 06de F4       		.byte	0xf4
 1113 06df 18080000 		.4byte	0x818
 1114 06e3 14       		.uleb128 0x14
 1115 06e4 73313600 		.ascii	"s16\000"
 1116 06e8 0A       		.byte	0xa
 1117 06e9 F6       		.byte	0xf6
 1118 06ea A8060000 		.4byte	0x6a8
 1119 06ee 00       		.byte	0
 1120 06ef 14       		.uleb128 0x14
 1121 06f0 73313700 		.ascii	"s17\000"
 1122 06f4 0A       		.byte	0xa
 1123 06f5 F7       		.byte	0xf7
 1124 06f6 A8060000 		.4byte	0x6a8
 1125 06fa 04       		.byte	0x4
 1126 06fb 14       		.uleb128 0x14
 1127 06fc 73313800 		.ascii	"s18\000"
 1128 0700 0A       		.byte	0xa
 1129 0701 F8       		.byte	0xf8
 1130 0702 A8060000 		.4byte	0x6a8
 1131 0706 08       		.byte	0x8
 1132 0707 14       		.uleb128 0x14
 1133 0708 73313900 		.ascii	"s19\000"
 1134 070c 0A       		.byte	0xa
 1135 070d F9       		.byte	0xf9
 1136 070e A8060000 		.4byte	0x6a8
 1137 0712 0C       		.byte	0xc
 1138 0713 14       		.uleb128 0x14
ARM GAS  /tmp/ccSHH9IF.s 			page 21


 1139 0714 73323000 		.ascii	"s20\000"
 1140 0718 0A       		.byte	0xa
 1141 0719 FA       		.byte	0xfa
 1142 071a A8060000 		.4byte	0x6a8
 1143 071e 10       		.byte	0x10
 1144 071f 14       		.uleb128 0x14
 1145 0720 73323100 		.ascii	"s21\000"
 1146 0724 0A       		.byte	0xa
 1147 0725 FB       		.byte	0xfb
 1148 0726 A8060000 		.4byte	0x6a8
 1149 072a 14       		.byte	0x14
 1150 072b 14       		.uleb128 0x14
 1151 072c 73323200 		.ascii	"s22\000"
 1152 0730 0A       		.byte	0xa
 1153 0731 FC       		.byte	0xfc
 1154 0732 A8060000 		.4byte	0x6a8
 1155 0736 18       		.byte	0x18
 1156 0737 14       		.uleb128 0x14
 1157 0738 73323300 		.ascii	"s23\000"
 1158 073c 0A       		.byte	0xa
 1159 073d FD       		.byte	0xfd
 1160 073e A8060000 		.4byte	0x6a8
 1161 0742 1C       		.byte	0x1c
 1162 0743 14       		.uleb128 0x14
 1163 0744 73323400 		.ascii	"s24\000"
 1164 0748 0A       		.byte	0xa
 1165 0749 FE       		.byte	0xfe
 1166 074a A8060000 		.4byte	0x6a8
 1167 074e 20       		.byte	0x20
 1168 074f 14       		.uleb128 0x14
 1169 0750 73323500 		.ascii	"s25\000"
 1170 0754 0A       		.byte	0xa
 1171 0755 FF       		.byte	0xff
 1172 0756 A8060000 		.4byte	0x6a8
 1173 075a 24       		.byte	0x24
 1174 075b 08       		.uleb128 0x8
 1175 075c 73323600 		.ascii	"s26\000"
 1176 0760 0A       		.byte	0xa
 1177 0761 0001     		.2byte	0x100
 1178 0763 A8060000 		.4byte	0x6a8
 1179 0767 28       		.byte	0x28
 1180 0768 08       		.uleb128 0x8
 1181 0769 73323700 		.ascii	"s27\000"
 1182 076d 0A       		.byte	0xa
 1183 076e 0101     		.2byte	0x101
 1184 0770 A8060000 		.4byte	0x6a8
 1185 0774 2C       		.byte	0x2c
 1186 0775 08       		.uleb128 0x8
 1187 0776 73323800 		.ascii	"s28\000"
 1188 077a 0A       		.byte	0xa
 1189 077b 0201     		.2byte	0x102
 1190 077d A8060000 		.4byte	0x6a8
 1191 0781 30       		.byte	0x30
 1192 0782 08       		.uleb128 0x8
 1193 0783 73323900 		.ascii	"s29\000"
 1194 0787 0A       		.byte	0xa
 1195 0788 0301     		.2byte	0x103
ARM GAS  /tmp/ccSHH9IF.s 			page 22


 1196 078a A8060000 		.4byte	0x6a8
 1197 078e 34       		.byte	0x34
 1198 078f 08       		.uleb128 0x8
 1199 0790 73333000 		.ascii	"s30\000"
 1200 0794 0A       		.byte	0xa
 1201 0795 0401     		.2byte	0x104
 1202 0797 A8060000 		.4byte	0x6a8
 1203 079b 38       		.byte	0x38
 1204 079c 08       		.uleb128 0x8
 1205 079d 73333100 		.ascii	"s31\000"
 1206 07a1 0A       		.byte	0xa
 1207 07a2 0501     		.2byte	0x105
 1208 07a4 A8060000 		.4byte	0x6a8
 1209 07a8 3C       		.byte	0x3c
 1210 07a9 08       		.uleb128 0x8
 1211 07aa 723400   		.ascii	"r4\000"
 1212 07ad 0A       		.byte	0xa
 1213 07ae 0701     		.2byte	0x107
 1214 07b0 A8060000 		.4byte	0x6a8
 1215 07b4 40       		.byte	0x40
 1216 07b5 08       		.uleb128 0x8
 1217 07b6 723500   		.ascii	"r5\000"
 1218 07b9 0A       		.byte	0xa
 1219 07ba 0801     		.2byte	0x108
 1220 07bc A8060000 		.4byte	0x6a8
 1221 07c0 44       		.byte	0x44
 1222 07c1 08       		.uleb128 0x8
 1223 07c2 723600   		.ascii	"r6\000"
 1224 07c5 0A       		.byte	0xa
 1225 07c6 0901     		.2byte	0x109
 1226 07c8 A8060000 		.4byte	0x6a8
 1227 07cc 48       		.byte	0x48
 1228 07cd 08       		.uleb128 0x8
 1229 07ce 723700   		.ascii	"r7\000"
 1230 07d1 0A       		.byte	0xa
 1231 07d2 0A01     		.2byte	0x10a
 1232 07d4 A8060000 		.4byte	0x6a8
 1233 07d8 4C       		.byte	0x4c
 1234 07d9 08       		.uleb128 0x8
 1235 07da 723800   		.ascii	"r8\000"
 1236 07dd 0A       		.byte	0xa
 1237 07de 0B01     		.2byte	0x10b
 1238 07e0 A8060000 		.4byte	0x6a8
 1239 07e4 50       		.byte	0x50
 1240 07e5 08       		.uleb128 0x8
 1241 07e6 723900   		.ascii	"r9\000"
 1242 07e9 0A       		.byte	0xa
 1243 07ea 0C01     		.2byte	0x10c
 1244 07ec A8060000 		.4byte	0x6a8
 1245 07f0 54       		.byte	0x54
 1246 07f1 08       		.uleb128 0x8
 1247 07f2 72313000 		.ascii	"r10\000"
 1248 07f6 0A       		.byte	0xa
 1249 07f7 0D01     		.2byte	0x10d
 1250 07f9 A8060000 		.4byte	0x6a8
 1251 07fd 58       		.byte	0x58
 1252 07fe 08       		.uleb128 0x8
ARM GAS  /tmp/ccSHH9IF.s 			page 23


 1253 07ff 72313100 		.ascii	"r11\000"
 1254 0803 0A       		.byte	0xa
 1255 0804 0E01     		.2byte	0x10e
 1256 0806 A8060000 		.4byte	0x6a8
 1257 080a 5C       		.byte	0x5c
 1258 080b 08       		.uleb128 0x8
 1259 080c 6C7200   		.ascii	"lr\000"
 1260 080f 0A       		.byte	0xa
 1261 0810 0F01     		.2byte	0x10f
 1262 0812 A8060000 		.4byte	0x6a8
 1263 0816 60       		.byte	0x60
 1264 0817 00       		.byte	0
 1265 0818 0A       		.uleb128 0xa
 1266 0819 04       		.byte	0x4
 1267 081a D7060000 		.4byte	0x6d7
 1268 081e 15       		.uleb128 0x15
 1269 081f 04       		.byte	0x4
 1270 0820 0B       		.byte	0xb
 1271 0821 38       		.byte	0x38
 1272 0822 33080000 		.4byte	0x833
 1273 0826 07       		.uleb128 0x7
 1274 0827 39060000 		.4byte	.LASF119
 1275 082b 0B       		.byte	0xb
 1276 082c 3C       		.byte	0x3c
 1277 082d DF000000 		.4byte	0xdf
 1278 0831 00       		.byte	0
 1279 0832 00       		.byte	0
 1280 0833 03       		.uleb128 0x3
 1281 0834 78040000 		.4byte	.LASF120
 1282 0838 0B       		.byte	0xb
 1283 0839 3D       		.byte	0x3d
 1284 083a 1E080000 		.4byte	0x81e
 1285 083e 16       		.uleb128 0x16
 1286 083f 04       		.byte	0x4
 1287 0840 07       		.byte	0x7
 1288 0841 FA       		.byte	0xfa
 1289 0842 9B080000 		.4byte	0x89b
 1290 0846 17       		.uleb128 0x17
 1291 0847 14000000 		.4byte	.LASF121
 1292 084b 07       		.byte	0x7
 1293 084c 0101     		.2byte	0x101
 1294 084e 16010000 		.4byte	0x116
 1295 0852 17       		.uleb128 0x17
 1296 0853 6D000000 		.4byte	.LASF122
 1297 0857 07       		.byte	0x7
 1298 0858 0801     		.2byte	0x108
 1299 085a 16010000 		.4byte	0x116
 1300 085e 17       		.uleb128 0x17
 1301 085f C1060000 		.4byte	.LASF123
 1302 0863 07       		.byte	0x7
 1303 0864 0F01     		.2byte	0x10f
 1304 0866 22030000 		.4byte	0x322
 1305 086a 17       		.uleb128 0x17
 1306 086b 3B010000 		.4byte	.LASF124
 1307 086f 07       		.byte	0x7
 1308 0870 1601     		.2byte	0x116
 1309 0872 9B080000 		.4byte	0x89b
ARM GAS  /tmp/ccSHH9IF.s 			page 24


 1310 0876 17       		.uleb128 0x17
 1311 0877 F1010000 		.4byte	.LASF125
 1312 087b 07       		.byte	0x7
 1313 087c 1E01     		.2byte	0x11e
 1314 087e C6080000 		.4byte	0x8c6
 1315 0882 17       		.uleb128 0x17
 1316 0883 AF050000 		.4byte	.LASF126
 1317 0887 07       		.byte	0x7
 1318 0888 2701     		.2byte	0x127
 1319 088a FD080000 		.4byte	0x8fd
 1320 088e 17       		.uleb128 0x17
 1321 088f 53050000 		.4byte	.LASF127
 1322 0893 07       		.byte	0x7
 1323 0894 2F01     		.2byte	0x12f
 1324 0896 21010000 		.4byte	0x121
 1325 089a 00       		.byte	0
 1326 089b 0A       		.uleb128 0xa
 1327 089c 04       		.byte	0x4
 1328 089d 3A020000 		.4byte	0x23a
 1329 08a1 06       		.uleb128 0x6
 1330 08a2 84050000 		.4byte	.LASF128
 1331 08a6 0C       		.byte	0xc
 1332 08a7 0C       		.byte	0xc
 1333 08a8 34       		.byte	0x34
 1334 08a9 C6080000 		.4byte	0x8c6
 1335 08ad 07       		.uleb128 0x7
 1336 08ae DC060000 		.4byte	.LASF129
 1337 08b2 0C       		.byte	0xc
 1338 08b3 35       		.byte	0x35
 1339 08b4 6F020000 		.4byte	0x26f
 1340 08b8 00       		.byte	0
 1341 08b9 07       		.uleb128 0x7
 1342 08ba 18020000 		.4byte	.LASF130
 1343 08be 0C       		.byte	0xc
 1344 08bf 37       		.byte	0x37
 1345 08c0 2C010000 		.4byte	0x12c
 1346 08c4 08       		.byte	0x8
 1347 08c5 00       		.byte	0
 1348 08c6 0A       		.uleb128 0xa
 1349 08c7 04       		.byte	0x4
 1350 08c8 A1080000 		.4byte	0x8a1
 1351 08cc 06       		.uleb128 0x6
 1352 08cd 9E060000 		.4byte	.LASF131
 1353 08d1 10       		.byte	0x10
 1354 08d2 0D       		.byte	0xd
 1355 08d3 39       		.byte	0x39
 1356 08d4 FD080000 		.4byte	0x8fd
 1357 08d8 07       		.uleb128 0x7
 1358 08d9 FF000000 		.4byte	.LASF132
 1359 08dd 0D       		.byte	0xd
 1360 08de 3A       		.byte	0x3a
 1361 08df 6F020000 		.4byte	0x26f
 1362 08e3 00       		.byte	0
 1363 08e4 07       		.uleb128 0x7
 1364 08e5 EA060000 		.4byte	.LASF133
 1365 08e9 0D       		.byte	0xd
 1366 08ea 3C       		.byte	0x3c
ARM GAS  /tmp/ccSHH9IF.s 			page 25


 1367 08eb 45020000 		.4byte	0x245
 1368 08ef 08       		.byte	0x8
 1369 08f0 07       		.uleb128 0x7
 1370 08f1 FF050000 		.4byte	.LASF134
 1371 08f5 0D       		.byte	0xd
 1372 08f6 3E       		.byte	0x3e
 1373 08f7 3B090000 		.4byte	0x93b
 1374 08fb 0C       		.byte	0xc
 1375 08fc 00       		.byte	0
 1376 08fd 0A       		.uleb128 0xa
 1377 08fe 04       		.byte	0x4
 1378 08ff CC080000 		.4byte	0x8cc
 1379 0903 0A       		.uleb128 0xa
 1380 0904 04       		.byte	0x4
 1381 0905 10090000 		.4byte	0x910
 1382 0909 04       		.uleb128 0x4
 1383 090a 01       		.byte	0x1
 1384 090b 08       		.byte	0x8
 1385 090c E8050000 		.4byte	.LASF135
 1386 0910 18       		.uleb128 0x18
 1387 0911 09090000 		.4byte	0x909
 1388 0915 0A       		.uleb128 0xa
 1389 0916 04       		.byte	0x4
 1390 0917 24030000 		.4byte	0x324
 1391 091b 05       		.uleb128 0x5
 1392 091c 03090000 		.4byte	0x903
 1393 0920 10       		.uleb128 0x10
 1394 0921 B3060000 		.4byte	0x6b3
 1395 0925 30090000 		.4byte	0x930
 1396 0929 11       		.uleb128 0x11
 1397 092a 58040000 		.4byte	0x458
 1398 092e 2B       		.byte	0x2b
 1399 092f 00       		.byte	0
 1400 0930 03       		.uleb128 0x3
 1401 0931 AF010000 		.4byte	.LASF136
 1402 0935 0D       		.byte	0xd
 1403 0936 34       		.byte	0x34
 1404 0937 CC080000 		.4byte	0x8cc
 1405 093b 0A       		.uleb128 0xa
 1406 093c 04       		.byte	0x4
 1407 093d 30090000 		.4byte	0x930
 1408 0941 04       		.uleb128 0x4
 1409 0942 01       		.byte	0x1
 1410 0943 02       		.byte	0x2
 1411 0944 0A050000 		.4byte	.LASF137
 1412 0948 19       		.uleb128 0x19
 1413 0949 54020000 		.4byte	.LASF143
 1414 094d 01       		.byte	0x1
 1415 094e 36       		.byte	0x36
 1416 094f 01       		.byte	0x1
 1417 0950 1A       		.uleb128 0x1a
 1418 0951 6C060000 		.4byte	.LASF144
 1419 0955 01       		.byte	0x1
 1420 0956 72       		.byte	0x72
 1421 0957 00000000 		.4byte	.LFB261
 1422 095b 68000000 		.4byte	.LFE261-.LFB261
 1423 095f 01       		.uleb128 0x1
ARM GAS  /tmp/ccSHH9IF.s 			page 26


 1424 0960 9C       		.byte	0x9c
 1425 0961 7E090000 		.4byte	0x97e
 1426 0965 1B       		.uleb128 0x1b
 1427 0966 48090000 		.4byte	0x948
 1428 096a 18000000 		.4byte	.LBB4
 1429 096e 00000000 		.4byte	.Ldebug_ranges0+0
 1430 0972 01       		.byte	0x1
 1431 0973 7F       		.byte	0x7f
 1432 0974 1C       		.uleb128 0x1c
 1433 0975 5E000000 		.4byte	.LVL0
 1434 0979 B7090000 		.4byte	0x9b7
 1435 097d 00       		.byte	0
 1436 097e 1D       		.uleb128 0x1d
 1437 097f 9E010000 		.4byte	.LASF145
 1438 0983 01       		.byte	0x1
 1439 0984 92       		.byte	0x92
 1440 0985 00000000 		.4byte	.LFB262
 1441 0989 C8000000 		.4byte	.LFE262-.LFB262
 1442 098d 01       		.uleb128 0x1
 1443 098e 9C       		.byte	0x9c
 1444 098f 1E       		.uleb128 0x1e
 1445 0990 97000000 		.4byte	.LASF138
 1446 0994 0E       		.byte	0xe
 1447 0995 A706     		.2byte	0x6a7
 1448 0997 D5000000 		.4byte	0xd5
 1449 099b 1F       		.uleb128 0x1f
 1450 099c E1010000 		.4byte	.LASF139
 1451 09a0 01       		.byte	0x1
 1452 09a1 27       		.byte	0x27
 1453 09a2 BF000000 		.4byte	0xbf
 1454 09a6 05       		.uleb128 0x5
 1455 09a7 03       		.byte	0x3
 1456 09a8 00000000 		.4byte	SystemCoreClock
 1457 09ac 20       		.uleb128 0x20
 1458 09ad 636800   		.ascii	"ch\000"
 1459 09b0 07       		.byte	0x7
 1460 09b1 0902     		.2byte	0x209
 1461 09b3 F1030000 		.4byte	0x3f1
 1462 09b7 21       		.uleb128 0x21
 1463 09b8 CE050000 		.4byte	.LASF146
 1464 09bc CE050000 		.4byte	.LASF146
 1465 09c0 0F       		.byte	0xf
 1466 09c1 C101     		.2byte	0x1c1
 1467 09c3 00       		.byte	0
 1468              		.section	.debug_abbrev,"",%progbits
 1469              	.Ldebug_abbrev0:
 1470 0000 01       		.uleb128 0x1
 1471 0001 11       		.uleb128 0x11
 1472 0002 01       		.byte	0x1
 1473 0003 25       		.uleb128 0x25
 1474 0004 0E       		.uleb128 0xe
 1475 0005 13       		.uleb128 0x13
 1476 0006 0B       		.uleb128 0xb
 1477 0007 03       		.uleb128 0x3
 1478 0008 0E       		.uleb128 0xe
 1479 0009 1B       		.uleb128 0x1b
 1480 000a 0E       		.uleb128 0xe
ARM GAS  /tmp/ccSHH9IF.s 			page 27


 1481 000b 55       		.uleb128 0x55
 1482 000c 17       		.uleb128 0x17
 1483 000d 11       		.uleb128 0x11
 1484 000e 01       		.uleb128 0x1
 1485 000f 10       		.uleb128 0x10
 1486 0010 17       		.uleb128 0x17
 1487 0011 00       		.byte	0
 1488 0012 00       		.byte	0
 1489 0013 02       		.uleb128 0x2
 1490 0014 24       		.uleb128 0x24
 1491 0015 00       		.byte	0
 1492 0016 0B       		.uleb128 0xb
 1493 0017 0B       		.uleb128 0xb
 1494 0018 3E       		.uleb128 0x3e
 1495 0019 0B       		.uleb128 0xb
 1496 001a 03       		.uleb128 0x3
 1497 001b 08       		.uleb128 0x8
 1498 001c 00       		.byte	0
 1499 001d 00       		.byte	0
 1500 001e 03       		.uleb128 0x3
 1501 001f 16       		.uleb128 0x16
 1502 0020 00       		.byte	0
 1503 0021 03       		.uleb128 0x3
 1504 0022 0E       		.uleb128 0xe
 1505 0023 3A       		.uleb128 0x3a
 1506 0024 0B       		.uleb128 0xb
 1507 0025 3B       		.uleb128 0x3b
 1508 0026 0B       		.uleb128 0xb
 1509 0027 49       		.uleb128 0x49
 1510 0028 13       		.uleb128 0x13
 1511 0029 00       		.byte	0
 1512 002a 00       		.byte	0
 1513 002b 04       		.uleb128 0x4
 1514 002c 24       		.uleb128 0x24
 1515 002d 00       		.byte	0
 1516 002e 0B       		.uleb128 0xb
 1517 002f 0B       		.uleb128 0xb
 1518 0030 3E       		.uleb128 0x3e
 1519 0031 0B       		.uleb128 0xb
 1520 0032 03       		.uleb128 0x3
 1521 0033 0E       		.uleb128 0xe
 1522 0034 00       		.byte	0
 1523 0035 00       		.byte	0
 1524 0036 05       		.uleb128 0x5
 1525 0037 35       		.uleb128 0x35
 1526 0038 00       		.byte	0
 1527 0039 49       		.uleb128 0x49
 1528 003a 13       		.uleb128 0x13
 1529 003b 00       		.byte	0
 1530 003c 00       		.byte	0
 1531 003d 06       		.uleb128 0x6
 1532 003e 13       		.uleb128 0x13
 1533 003f 01       		.byte	0x1
 1534 0040 03       		.uleb128 0x3
 1535 0041 0E       		.uleb128 0xe
 1536 0042 0B       		.uleb128 0xb
 1537 0043 0B       		.uleb128 0xb
ARM GAS  /tmp/ccSHH9IF.s 			page 28


 1538 0044 3A       		.uleb128 0x3a
 1539 0045 0B       		.uleb128 0xb
 1540 0046 3B       		.uleb128 0x3b
 1541 0047 0B       		.uleb128 0xb
 1542 0048 01       		.uleb128 0x1
 1543 0049 13       		.uleb128 0x13
 1544 004a 00       		.byte	0
 1545 004b 00       		.byte	0
 1546 004c 07       		.uleb128 0x7
 1547 004d 0D       		.uleb128 0xd
 1548 004e 00       		.byte	0
 1549 004f 03       		.uleb128 0x3
 1550 0050 0E       		.uleb128 0xe
 1551 0051 3A       		.uleb128 0x3a
 1552 0052 0B       		.uleb128 0xb
 1553 0053 3B       		.uleb128 0x3b
 1554 0054 0B       		.uleb128 0xb
 1555 0055 49       		.uleb128 0x49
 1556 0056 13       		.uleb128 0x13
 1557 0057 38       		.uleb128 0x38
 1558 0058 0B       		.uleb128 0xb
 1559 0059 00       		.byte	0
 1560 005a 00       		.byte	0
 1561 005b 08       		.uleb128 0x8
 1562 005c 0D       		.uleb128 0xd
 1563 005d 00       		.byte	0
 1564 005e 03       		.uleb128 0x3
 1565 005f 08       		.uleb128 0x8
 1566 0060 3A       		.uleb128 0x3a
 1567 0061 0B       		.uleb128 0xb
 1568 0062 3B       		.uleb128 0x3b
 1569 0063 05       		.uleb128 0x5
 1570 0064 49       		.uleb128 0x49
 1571 0065 13       		.uleb128 0x13
 1572 0066 38       		.uleb128 0x38
 1573 0067 0B       		.uleb128 0xb
 1574 0068 00       		.byte	0
 1575 0069 00       		.byte	0
 1576 006a 09       		.uleb128 0x9
 1577 006b 0D       		.uleb128 0xd
 1578 006c 00       		.byte	0
 1579 006d 03       		.uleb128 0x3
 1580 006e 0E       		.uleb128 0xe
 1581 006f 3A       		.uleb128 0x3a
 1582 0070 0B       		.uleb128 0xb
 1583 0071 3B       		.uleb128 0x3b
 1584 0072 05       		.uleb128 0x5
 1585 0073 49       		.uleb128 0x49
 1586 0074 13       		.uleb128 0x13
 1587 0075 38       		.uleb128 0x38
 1588 0076 0B       		.uleb128 0xb
 1589 0077 00       		.byte	0
 1590 0078 00       		.byte	0
 1591 0079 0A       		.uleb128 0xa
 1592 007a 0F       		.uleb128 0xf
 1593 007b 00       		.byte	0
 1594 007c 0B       		.uleb128 0xb
ARM GAS  /tmp/ccSHH9IF.s 			page 29


 1595 007d 0B       		.uleb128 0xb
 1596 007e 49       		.uleb128 0x49
 1597 007f 13       		.uleb128 0x13
 1598 0080 00       		.byte	0
 1599 0081 00       		.byte	0
 1600 0082 0B       		.uleb128 0xb
 1601 0083 13       		.uleb128 0x13
 1602 0084 01       		.byte	0x1
 1603 0085 03       		.uleb128 0x3
 1604 0086 0E       		.uleb128 0xe
 1605 0087 0B       		.uleb128 0xb
 1606 0088 0B       		.uleb128 0xb
 1607 0089 3A       		.uleb128 0x3a
 1608 008a 0B       		.uleb128 0xb
 1609 008b 3B       		.uleb128 0x3b
 1610 008c 05       		.uleb128 0x5
 1611 008d 01       		.uleb128 0x1
 1612 008e 13       		.uleb128 0x13
 1613 008f 00       		.byte	0
 1614 0090 00       		.byte	0
 1615 0091 0C       		.uleb128 0xc
 1616 0092 15       		.uleb128 0x15
 1617 0093 01       		.byte	0x1
 1618 0094 27       		.uleb128 0x27
 1619 0095 19       		.uleb128 0x19
 1620 0096 01       		.uleb128 0x1
 1621 0097 13       		.uleb128 0x13
 1622 0098 00       		.byte	0
 1623 0099 00       		.byte	0
 1624 009a 0D       		.uleb128 0xd
 1625 009b 05       		.uleb128 0x5
 1626 009c 00       		.byte	0
 1627 009d 49       		.uleb128 0x49
 1628 009e 13       		.uleb128 0x13
 1629 009f 00       		.byte	0
 1630 00a0 00       		.byte	0
 1631 00a1 0E       		.uleb128 0xe
 1632 00a2 0F       		.uleb128 0xf
 1633 00a3 00       		.byte	0
 1634 00a4 0B       		.uleb128 0xb
 1635 00a5 0B       		.uleb128 0xb
 1636 00a6 00       		.byte	0
 1637 00a7 00       		.byte	0
 1638 00a8 0F       		.uleb128 0xf
 1639 00a9 13       		.uleb128 0x13
 1640 00aa 01       		.byte	0x1
 1641 00ab 03       		.uleb128 0x3
 1642 00ac 0E       		.uleb128 0xe
 1643 00ad 0B       		.uleb128 0xb
 1644 00ae 05       		.uleb128 0x5
 1645 00af 3A       		.uleb128 0x3a
 1646 00b0 0B       		.uleb128 0xb
 1647 00b1 3B       		.uleb128 0x3b
 1648 00b2 05       		.uleb128 0x5
 1649 00b3 01       		.uleb128 0x1
 1650 00b4 13       		.uleb128 0x13
 1651 00b5 00       		.byte	0
ARM GAS  /tmp/ccSHH9IF.s 			page 30


 1652 00b6 00       		.byte	0
 1653 00b7 10       		.uleb128 0x10
 1654 00b8 01       		.uleb128 0x1
 1655 00b9 01       		.byte	0x1
 1656 00ba 49       		.uleb128 0x49
 1657 00bb 13       		.uleb128 0x13
 1658 00bc 01       		.uleb128 0x1
 1659 00bd 13       		.uleb128 0x13
 1660 00be 00       		.byte	0
 1661 00bf 00       		.byte	0
 1662 00c0 11       		.uleb128 0x11
 1663 00c1 21       		.uleb128 0x21
 1664 00c2 00       		.byte	0
 1665 00c3 49       		.uleb128 0x49
 1666 00c4 13       		.uleb128 0x13
 1667 00c5 2F       		.uleb128 0x2f
 1668 00c6 0B       		.uleb128 0xb
 1669 00c7 00       		.byte	0
 1670 00c8 00       		.byte	0
 1671 00c9 12       		.uleb128 0x12
 1672 00ca 13       		.uleb128 0x13
 1673 00cb 01       		.byte	0x1
 1674 00cc 0B       		.uleb128 0xb
 1675 00cd 0B       		.uleb128 0xb
 1676 00ce 3A       		.uleb128 0x3a
 1677 00cf 0B       		.uleb128 0xb
 1678 00d0 3B       		.uleb128 0x3b
 1679 00d1 05       		.uleb128 0x5
 1680 00d2 01       		.uleb128 0x1
 1681 00d3 13       		.uleb128 0x13
 1682 00d4 00       		.byte	0
 1683 00d5 00       		.byte	0
 1684 00d6 13       		.uleb128 0x13
 1685 00d7 16       		.uleb128 0x16
 1686 00d8 00       		.byte	0
 1687 00d9 03       		.uleb128 0x3
 1688 00da 0E       		.uleb128 0xe
 1689 00db 3A       		.uleb128 0x3a
 1690 00dc 0B       		.uleb128 0xb
 1691 00dd 3B       		.uleb128 0x3b
 1692 00de 05       		.uleb128 0x5
 1693 00df 49       		.uleb128 0x49
 1694 00e0 13       		.uleb128 0x13
 1695 00e1 00       		.byte	0
 1696 00e2 00       		.byte	0
 1697 00e3 14       		.uleb128 0x14
 1698 00e4 0D       		.uleb128 0xd
 1699 00e5 00       		.byte	0
 1700 00e6 03       		.uleb128 0x3
 1701 00e7 08       		.uleb128 0x8
 1702 00e8 3A       		.uleb128 0x3a
 1703 00e9 0B       		.uleb128 0xb
 1704 00ea 3B       		.uleb128 0x3b
 1705 00eb 0B       		.uleb128 0xb
 1706 00ec 49       		.uleb128 0x49
 1707 00ed 13       		.uleb128 0x13
 1708 00ee 38       		.uleb128 0x38
ARM GAS  /tmp/ccSHH9IF.s 			page 31


 1709 00ef 0B       		.uleb128 0xb
 1710 00f0 00       		.byte	0
 1711 00f1 00       		.byte	0
 1712 00f2 15       		.uleb128 0x15
 1713 00f3 13       		.uleb128 0x13
 1714 00f4 01       		.byte	0x1
 1715 00f5 0B       		.uleb128 0xb
 1716 00f6 0B       		.uleb128 0xb
 1717 00f7 3A       		.uleb128 0x3a
 1718 00f8 0B       		.uleb128 0xb
 1719 00f9 3B       		.uleb128 0x3b
 1720 00fa 0B       		.uleb128 0xb
 1721 00fb 01       		.uleb128 0x1
 1722 00fc 13       		.uleb128 0x13
 1723 00fd 00       		.byte	0
 1724 00fe 00       		.byte	0
 1725 00ff 16       		.uleb128 0x16
 1726 0100 17       		.uleb128 0x17
 1727 0101 01       		.byte	0x1
 1728 0102 0B       		.uleb128 0xb
 1729 0103 0B       		.uleb128 0xb
 1730 0104 3A       		.uleb128 0x3a
 1731 0105 0B       		.uleb128 0xb
 1732 0106 3B       		.uleb128 0x3b
 1733 0107 0B       		.uleb128 0xb
 1734 0108 01       		.uleb128 0x1
 1735 0109 13       		.uleb128 0x13
 1736 010a 00       		.byte	0
 1737 010b 00       		.byte	0
 1738 010c 17       		.uleb128 0x17
 1739 010d 0D       		.uleb128 0xd
 1740 010e 00       		.byte	0
 1741 010f 03       		.uleb128 0x3
 1742 0110 0E       		.uleb128 0xe
 1743 0111 3A       		.uleb128 0x3a
 1744 0112 0B       		.uleb128 0xb
 1745 0113 3B       		.uleb128 0x3b
 1746 0114 05       		.uleb128 0x5
 1747 0115 49       		.uleb128 0x49
 1748 0116 13       		.uleb128 0x13
 1749 0117 00       		.byte	0
 1750 0118 00       		.byte	0
 1751 0119 18       		.uleb128 0x18
 1752 011a 26       		.uleb128 0x26
 1753 011b 00       		.byte	0
 1754 011c 49       		.uleb128 0x49
 1755 011d 13       		.uleb128 0x13
 1756 011e 00       		.byte	0
 1757 011f 00       		.byte	0
 1758 0120 19       		.uleb128 0x19
 1759 0121 2E       		.uleb128 0x2e
 1760 0122 00       		.byte	0
 1761 0123 03       		.uleb128 0x3
 1762 0124 0E       		.uleb128 0xe
 1763 0125 3A       		.uleb128 0x3a
 1764 0126 0B       		.uleb128 0xb
 1765 0127 3B       		.uleb128 0x3b
ARM GAS  /tmp/ccSHH9IF.s 			page 32


 1766 0128 0B       		.uleb128 0xb
 1767 0129 27       		.uleb128 0x27
 1768 012a 19       		.uleb128 0x19
 1769 012b 20       		.uleb128 0x20
 1770 012c 0B       		.uleb128 0xb
 1771 012d 00       		.byte	0
 1772 012e 00       		.byte	0
 1773 012f 1A       		.uleb128 0x1a
 1774 0130 2E       		.uleb128 0x2e
 1775 0131 01       		.byte	0x1
 1776 0132 3F       		.uleb128 0x3f
 1777 0133 19       		.uleb128 0x19
 1778 0134 03       		.uleb128 0x3
 1779 0135 0E       		.uleb128 0xe
 1780 0136 3A       		.uleb128 0x3a
 1781 0137 0B       		.uleb128 0xb
 1782 0138 3B       		.uleb128 0x3b
 1783 0139 0B       		.uleb128 0xb
 1784 013a 27       		.uleb128 0x27
 1785 013b 19       		.uleb128 0x19
 1786 013c 11       		.uleb128 0x11
 1787 013d 01       		.uleb128 0x1
 1788 013e 12       		.uleb128 0x12
 1789 013f 06       		.uleb128 0x6
 1790 0140 40       		.uleb128 0x40
 1791 0141 18       		.uleb128 0x18
 1792 0142 9742     		.uleb128 0x2117
 1793 0144 19       		.uleb128 0x19
 1794 0145 01       		.uleb128 0x1
 1795 0146 13       		.uleb128 0x13
 1796 0147 00       		.byte	0
 1797 0148 00       		.byte	0
 1798 0149 1B       		.uleb128 0x1b
 1799 014a 1D       		.uleb128 0x1d
 1800 014b 00       		.byte	0
 1801 014c 31       		.uleb128 0x31
 1802 014d 13       		.uleb128 0x13
 1803 014e 52       		.uleb128 0x52
 1804 014f 01       		.uleb128 0x1
 1805 0150 55       		.uleb128 0x55
 1806 0151 17       		.uleb128 0x17
 1807 0152 58       		.uleb128 0x58
 1808 0153 0B       		.uleb128 0xb
 1809 0154 59       		.uleb128 0x59
 1810 0155 0B       		.uleb128 0xb
 1811 0156 00       		.byte	0
 1812 0157 00       		.byte	0
 1813 0158 1C       		.uleb128 0x1c
 1814 0159 898201   		.uleb128 0x4109
 1815 015c 00       		.byte	0
 1816 015d 11       		.uleb128 0x11
 1817 015e 01       		.uleb128 0x1
 1818 015f 9542     		.uleb128 0x2115
 1819 0161 19       		.uleb128 0x19
 1820 0162 31       		.uleb128 0x31
 1821 0163 13       		.uleb128 0x13
 1822 0164 00       		.byte	0
ARM GAS  /tmp/ccSHH9IF.s 			page 33


 1823 0165 00       		.byte	0
 1824 0166 1D       		.uleb128 0x1d
 1825 0167 2E       		.uleb128 0x2e
 1826 0168 00       		.byte	0
 1827 0169 3F       		.uleb128 0x3f
 1828 016a 19       		.uleb128 0x19
 1829 016b 03       		.uleb128 0x3
 1830 016c 0E       		.uleb128 0xe
 1831 016d 3A       		.uleb128 0x3a
 1832 016e 0B       		.uleb128 0xb
 1833 016f 3B       		.uleb128 0x3b
 1834 0170 0B       		.uleb128 0xb
 1835 0171 27       		.uleb128 0x27
 1836 0172 19       		.uleb128 0x19
 1837 0173 11       		.uleb128 0x11
 1838 0174 01       		.uleb128 0x1
 1839 0175 12       		.uleb128 0x12
 1840 0176 06       		.uleb128 0x6
 1841 0177 40       		.uleb128 0x40
 1842 0178 18       		.uleb128 0x18
 1843 0179 9742     		.uleb128 0x2117
 1844 017b 19       		.uleb128 0x19
 1845 017c 00       		.byte	0
 1846 017d 00       		.byte	0
 1847 017e 1E       		.uleb128 0x1e
 1848 017f 34       		.uleb128 0x34
 1849 0180 00       		.byte	0
 1850 0181 03       		.uleb128 0x3
 1851 0182 0E       		.uleb128 0xe
 1852 0183 3A       		.uleb128 0x3a
 1853 0184 0B       		.uleb128 0xb
 1854 0185 3B       		.uleb128 0x3b
 1855 0186 05       		.uleb128 0x5
 1856 0187 49       		.uleb128 0x49
 1857 0188 13       		.uleb128 0x13
 1858 0189 3F       		.uleb128 0x3f
 1859 018a 19       		.uleb128 0x19
 1860 018b 3C       		.uleb128 0x3c
 1861 018c 19       		.uleb128 0x19
 1862 018d 00       		.byte	0
 1863 018e 00       		.byte	0
 1864 018f 1F       		.uleb128 0x1f
 1865 0190 34       		.uleb128 0x34
 1866 0191 00       		.byte	0
 1867 0192 03       		.uleb128 0x3
 1868 0193 0E       		.uleb128 0xe
 1869 0194 3A       		.uleb128 0x3a
 1870 0195 0B       		.uleb128 0xb
 1871 0196 3B       		.uleb128 0x3b
 1872 0197 0B       		.uleb128 0xb
 1873 0198 49       		.uleb128 0x49
 1874 0199 13       		.uleb128 0x13
 1875 019a 3F       		.uleb128 0x3f
 1876 019b 19       		.uleb128 0x19
 1877 019c 02       		.uleb128 0x2
 1878 019d 18       		.uleb128 0x18
 1879 019e 00       		.byte	0
ARM GAS  /tmp/ccSHH9IF.s 			page 34


 1880 019f 00       		.byte	0
 1881 01a0 20       		.uleb128 0x20
 1882 01a1 34       		.uleb128 0x34
 1883 01a2 00       		.byte	0
 1884 01a3 03       		.uleb128 0x3
 1885 01a4 08       		.uleb128 0x8
 1886 01a5 3A       		.uleb128 0x3a
 1887 01a6 0B       		.uleb128 0xb
 1888 01a7 3B       		.uleb128 0x3b
 1889 01a8 05       		.uleb128 0x5
 1890 01a9 49       		.uleb128 0x49
 1891 01aa 13       		.uleb128 0x13
 1892 01ab 3F       		.uleb128 0x3f
 1893 01ac 19       		.uleb128 0x19
 1894 01ad 3C       		.uleb128 0x3c
 1895 01ae 19       		.uleb128 0x19
 1896 01af 00       		.byte	0
 1897 01b0 00       		.byte	0
 1898 01b1 21       		.uleb128 0x21
 1899 01b2 2E       		.uleb128 0x2e
 1900 01b3 00       		.byte	0
 1901 01b4 3F       		.uleb128 0x3f
 1902 01b5 19       		.uleb128 0x19
 1903 01b6 3C       		.uleb128 0x3c
 1904 01b7 19       		.uleb128 0x19
 1905 01b8 6E       		.uleb128 0x6e
 1906 01b9 0E       		.uleb128 0xe
 1907 01ba 03       		.uleb128 0x3
 1908 01bb 0E       		.uleb128 0xe
 1909 01bc 3A       		.uleb128 0x3a
 1910 01bd 0B       		.uleb128 0xb
 1911 01be 3B       		.uleb128 0x3b
 1912 01bf 05       		.uleb128 0x5
 1913 01c0 00       		.byte	0
 1914 01c1 00       		.byte	0
 1915 01c2 00       		.byte	0
 1916              		.section	.debug_aranges,"",%progbits
 1917 0000 24000000 		.4byte	0x24
 1918 0004 0200     		.2byte	0x2
 1919 0006 00000000 		.4byte	.Ldebug_info0
 1920 000a 04       		.byte	0x4
 1921 000b 00       		.byte	0
 1922 000c 0000     		.2byte	0
 1923 000e 0000     		.2byte	0
 1924 0010 00000000 		.4byte	.LFB261
 1925 0014 68000000 		.4byte	.LFE261-.LFB261
 1926 0018 00000000 		.4byte	.LFB262
 1927 001c C8000000 		.4byte	.LFE262-.LFB262
 1928 0020 00000000 		.4byte	0
 1929 0024 00000000 		.4byte	0
 1930              		.section	.debug_ranges,"",%progbits
 1931              	.Ldebug_ranges0:
 1932 0000 18000000 		.4byte	.LBB4
 1933 0004 1A000000 		.4byte	.LBE4
 1934 0008 30000000 		.4byte	.LBB8
 1935 000c 4E000000 		.4byte	.LBE8
 1936 0010 52000000 		.4byte	.LBB9
ARM GAS  /tmp/ccSHH9IF.s 			page 35


 1937 0014 5A000000 		.4byte	.LBE9
 1938 0018 00000000 		.4byte	0
 1939 001c 00000000 		.4byte	0
 1940 0020 00000000 		.4byte	.LFB261
 1941 0024 68000000 		.4byte	.LFE261
 1942 0028 00000000 		.4byte	.LFB262
 1943 002c C8000000 		.4byte	.LFE262
 1944 0030 00000000 		.4byte	0
 1945 0034 00000000 		.4byte	0
 1946              		.section	.debug_line,"",%progbits
 1947              	.Ldebug_line0:
 1948 0000 7D020000 		.section	.debug_str,"MS",%progbits,1
 1948      0200EE01 
 1948      00000201 
 1948      FB0E0D00 
 1948      01010101 
 1949              	.LASF52:
 1950 0000 72656164 		.ascii	"ready_list_t\000"
 1950      795F6C69 
 1950      73745F74 
 1950      00
 1951              	.LASF4:
 1952 000d 73697A65 		.ascii	"size_t\000"
 1952      5F7400
 1953              	.LASF121:
 1954 0014 7264796D 		.ascii	"rdymsg\000"
 1954      736700
 1955              	.LASF18:
 1956 001b 75696E74 		.ascii	"uint64_t\000"
 1956      36345F74 
 1956      00
 1957              	.LASF5:
 1958 0024 5F5F7569 		.ascii	"__uint8_t\000"
 1958      6E74385F 
 1958      7400
 1959              	.LASF118:
 1960 002e 706F7274 		.ascii	"port_intctx\000"
 1960      5F696E74 
 1960      63747800 
 1961              	.LASF71:
 1962 003a 73797374 		.ascii	"system_debug_t\000"
 1962      656D5F64 
 1962      65627567 
 1962      5F7400
 1963              	.LASF83:
 1964 0049 4F505443 		.ascii	"OPTCR\000"
 1964      5200
 1965              	.LASF84:
 1966 004f 4F505443 		.ascii	"OPTCR1\000"
 1966      523100
 1967              	.LASF14:
 1968 0056 6C6F6E67 		.ascii	"long long unsigned int\000"
 1968      206C6F6E 
 1968      6720756E 
 1968      7369676E 
 1968      65642069 
 1969              	.LASF122:
ARM GAS  /tmp/ccSHH9IF.s 			page 36


 1970 006d 65786974 		.ascii	"exitcode\000"
 1970      636F6465 
 1970      00
 1971              	.LASF78:
 1972 0076 6D61696E 		.ascii	"mainthread\000"
 1972      74687265 
 1972      616400
 1973              	.LASF68:
 1974 0081 76697274 		.ascii	"virtual_timers_list_t\000"
 1974      75616C5F 
 1974      74696D65 
 1974      72735F6C 
 1974      6973745F 
 1975              	.LASF138:
 1976 0097 49544D5F 		.ascii	"ITM_RxBuffer\000"
 1976      52784275 
 1976      66666572 
 1976      00
 1977              	.LASF51:
 1978 00a4 63685F74 		.ascii	"ch_threads_queue\000"
 1978      68726561 
 1978      64735F71 
 1978      75657565 
 1978      00
 1979              	.LASF103:
 1980 00b5 41484231 		.ascii	"AHB1LPENR\000"
 1980      4C50454E 
 1980      5200
 1981              	.LASF31:
 1982 00bf 705F7072 		.ascii	"p_prio\000"
 1982      696F00
 1983              	.LASF1:
 1984 00c6 6C6F6E67 		.ascii	"long long int\000"
 1984      206C6F6E 
 1984      6720696E 
 1984      7400
 1985              	.LASF3:
 1986 00d4 7369676E 		.ascii	"signed char\000"
 1986      65642063 
 1986      68617200 
 1987              	.LASF89:
 1988 00e0 41484231 		.ascii	"AHB1RSTR\000"
 1988      52535452 
 1988      00
 1989              	.LASF85:
 1990 00e9 464C4153 		.ascii	"FLASH_TypeDef\000"
 1990      485F5479 
 1990      70654465 
 1990      6600
 1991              	.LASF45:
 1992 00f7 705F6D70 		.ascii	"p_mpool\000"
 1992      6F6F6C00 
 1993              	.LASF132:
 1994 00ff 6D5F7175 		.ascii	"m_queue\000"
 1994      65756500 
 1995              	.LASF77:
 1996 0107 76746C69 		.ascii	"vtlist\000"
ARM GAS  /tmp/ccSHH9IF.s 			page 37


 1996      737400
 1997              	.LASF141:
 1998 010e 2E2E2F2E 		.ascii	"../../os/hal/ports/STM32/STM32F4xx/hal_lld.c\000"
 1998      2E2F6F73 
 1998      2F68616C 
 1998      2F706F72 
 1998      74732F53 
 1999              	.LASF124:
 2000 013b 77747472 		.ascii	"wttrp\000"
 2000      7000
 2001              	.LASF75:
 2002 0141 63685F73 		.ascii	"ch_system\000"
 2002      79737465 
 2002      6D00
 2003              	.LASF10:
 2004 014b 6C6F6E67 		.ascii	"long int\000"
 2004      20696E74 
 2004      00
 2005              	.LASF94:
 2006 0154 41504232 		.ascii	"APB2RSTR\000"
 2006      52535452 
 2006      00
 2007              	.LASF107:
 2008 015d 41504231 		.ascii	"APB1LPENR\000"
 2008      4C50454E 
 2008      5200
 2009              	.LASF21:
 2010 0167 74737461 		.ascii	"tstate_t\000"
 2010      74655F74 
 2010      00
 2011              	.LASF33:
 2012 0170 705F6E65 		.ascii	"p_newer\000"
 2012      77657200 
 2013              	.LASF82:
 2014 0178 4F50544B 		.ascii	"OPTKEYR\000"
 2014      45595200 
 2015              	.LASF57:
 2016 0180 725F6E65 		.ascii	"r_newer\000"
 2016      77657200 
 2017              	.LASF115:
 2018 0188 72656761 		.ascii	"regarm_t\000"
 2018      726D5F74 
 2018      00
 2019              	.LASF64:
 2020 0191 76745F70 		.ascii	"vt_prev\000"
 2020      72657600 
 2021              	.LASF81:
 2022 0199 4B455952 		.ascii	"KEYR\000"
 2022      00
 2023              	.LASF145:
 2024 019e 73746D33 		.ascii	"stm32_clock_init\000"
 2024      325F636C 
 2024      6F636B5F 
 2024      696E6974 
 2024      00
 2025              	.LASF136:
 2026 01af 6D757465 		.ascii	"mutex_t\000"
ARM GAS  /tmp/ccSHH9IF.s 			page 38


 2026      785F7400 
 2027              	.LASF79:
 2028 01b7 69646C65 		.ascii	"idle_thread_wa\000"
 2028      5F746872 
 2028      6561645F 
 2028      776100
 2029              	.LASF26:
 2030 01c6 636E745F 		.ascii	"cnt_t\000"
 2030      7400
 2031              	.LASF0:
 2032 01cc 756E7369 		.ascii	"unsigned int\000"
 2032      676E6564 
 2032      20696E74 
 2032      00
 2033              	.LASF63:
 2034 01d9 76745F6E 		.ascii	"vt_next\000"
 2034      65787400 
 2035              	.LASF139:
 2036 01e1 53797374 		.ascii	"SystemCoreClock\000"
 2036      656D436F 
 2036      7265436C 
 2036      6F636B00 
 2037              	.LASF125:
 2038 01f1 77747365 		.ascii	"wtsemp\000"
 2038      6D7000
 2039              	.LASF65:
 2040 01f8 76745F64 		.ascii	"vt_delta\000"
 2040      656C7461 
 2040      00
 2041              	.LASF40:
 2042 0201 705F6D73 		.ascii	"p_msgqueue\000"
 2042      67717565 
 2042      756500
 2043              	.LASF114:
 2044 020c 5243435F 		.ascii	"RCC_TypeDef\000"
 2044      54797065 
 2044      44656600 
 2045              	.LASF130:
 2046 0218 735F636E 		.ascii	"s_cnt\000"
 2046      7400
 2047              	.LASF8:
 2048 021e 73686F72 		.ascii	"short unsigned int\000"
 2048      7420756E 
 2048      7369676E 
 2048      65642069 
 2048      6E7400
 2049              	.LASF48:
 2050 0231 63685F74 		.ascii	"ch_thread\000"
 2050      68726561 
 2050      6400
 2051              	.LASF113:
 2052 023b 504C4C49 		.ascii	"PLLI2SCFGR\000"
 2052      32534346 
 2052      475200
 2053              	.LASF24:
 2054 0246 6D73675F 		.ascii	"msg_t\000"
 2054      7400
ARM GAS  /tmp/ccSHH9IF.s 			page 39


 2055              	.LASF87:
 2056 024c 504C4C43 		.ascii	"PLLCFGR\000"
 2056      46475200 
 2057              	.LASF143:
 2058 0254 68616C5F 		.ascii	"hal_lld_backup_domain_init\000"
 2058      6C6C645F 
 2058      6261636B 
 2058      75705F64 
 2058      6F6D6169 
 2059              	.LASF74:
 2060 026f 63685F73 		.ascii	"ch_system_t\000"
 2060      79737465 
 2060      6D5F7400 
 2061              	.LASF20:
 2062 027b 746D6F64 		.ascii	"tmode_t\000"
 2062      655F7400 
 2063              	.LASF108:
 2064 0283 41504232 		.ascii	"APB2LPENR\000"
 2064      4C50454E 
 2064      5200
 2065              	.LASF53:
 2066 028d 63685F72 		.ascii	"ch_ready_list\000"
 2066      65616479 
 2066      5F6C6973 
 2066      7400
 2067              	.LASF25:
 2068 029b 6576656E 		.ascii	"eventmask_t\000"
 2068      746D6173 
 2068      6B5F7400 
 2069              	.LASF9:
 2070 02a7 5F5F696E 		.ascii	"__int32_t\000"
 2070      7433325F 
 2070      7400
 2071              	.LASF116:
 2072 02b1 73746B61 		.ascii	"stkalign_t\000"
 2072      6C69676E 
 2072      5F7400
 2073              	.LASF140:
 2074 02bc 474E5520 		.ascii	"GNU C11 5.2.0 -mcpu=cortex-m4 -mfloat-abi=hard -mfp"
 2074      43313120 
 2074      352E322E 
 2074      30202D6D 
 2074      6370753D 
 2075 02ef 753D6670 		.ascii	"u=fpv4-sp-d16 -mno-thumb-interwork -mthumb -ggdb -O"
 2075      76342D73 
 2075      702D6431 
 2075      36202D6D 
 2075      6E6F2D74 
 2076 0322 32202D66 		.ascii	"2 -fomit-frame-pointer -falign-functions=16 -ffunct"
 2076      6F6D6974 
 2076      2D667261 
 2076      6D652D70 
 2076      6F696E74 
 2077 0355 696F6E2D 		.ascii	"ion-sections -fdata-sections -fno-common -fsingle-p"
 2077      73656374 
 2077      696F6E73 
 2077      202D6664 
ARM GAS  /tmp/ccSHH9IF.s 			page 40


 2077      6174612D 
 2078 0388 72656369 		.ascii	"recision-constant\000"
 2078      73696F6E 
 2078      2D636F6E 
 2078      7374616E 
 2078      7400
 2079              	.LASF47:
 2080 039a 74687265 		.ascii	"threads_list_t\000"
 2080      6164735F 
 2080      6C697374 
 2080      5F7400
 2081              	.LASF61:
 2082 03a9 76697274 		.ascii	"virtual_timer_t\000"
 2082      75616C5F 
 2082      74696D65 
 2082      725F7400 
 2083              	.LASF39:
 2084 03b9 705F7761 		.ascii	"p_waiting\000"
 2084      6974696E 
 2084      6700
 2085              	.LASF142:
 2086 03c3 2F686F6D 		.ascii	"/home/sssilvar/Documents/embebidos/ChibiOS/iflab/pr"
 2086      652F7373 
 2086      73696C76 
 2086      61722F44 
 2086      6F63756D 
 2087 03f6 6F6A6563 		.ascii	"ojects/UART_ADC\000"
 2087      74732F55 
 2087      4152545F 
 2087      41444300 
 2088              	.LASF80:
 2089 0406 73697A65 		.ascii	"sizetype\000"
 2089      74797065 
 2089      00
 2090              	.LASF46:
 2091 040f 74687265 		.ascii	"thread_reference_t\000"
 2091      61645F72 
 2091      65666572 
 2091      656E6365 
 2091      5F7400
 2092              	.LASF69:
 2093 0422 63685F76 		.ascii	"ch_virtual_timers_list\000"
 2093      69727475 
 2093      616C5F74 
 2093      696D6572 
 2093      735F6C69 
 2094              	.LASF2:
 2095 0439 6C6F6E67 		.ascii	"long double\000"
 2095      20646F75 
 2095      626C6500 
 2096              	.LASF29:
 2097 0445 705F6E65 		.ascii	"p_next\000"
 2097      787400
 2098              	.LASF98:
 2099 044c 41484233 		.ascii	"AHB3ENR\000"
 2099      454E5200 
 2100              	.LASF70:
ARM GAS  /tmp/ccSHH9IF.s 			page 41


 2101 0454 76745F6C 		.ascii	"vt_lasttime\000"
 2101      61737474 
 2101      696D6500 
 2102              	.LASF34:
 2103 0460 705F6F6C 		.ascii	"p_older\000"
 2103      64657200 
 2104              	.LASF56:
 2105 0468 725F6374 		.ascii	"r_ctx\000"
 2105      7800
 2106              	.LASF104:
 2107 046e 41484232 		.ascii	"AHB2LPENR\000"
 2107      4C50454E 
 2107      5200
 2108              	.LASF120:
 2109 0478 746D5F63 		.ascii	"tm_calibration_t\000"
 2109      616C6962 
 2109      72617469 
 2109      6F6E5F74 
 2109      00
 2110              	.LASF59:
 2111 0489 725F6375 		.ascii	"r_current\000"
 2111      7272656E 
 2111      7400
 2112              	.LASF93:
 2113 0493 41504231 		.ascii	"APB1RSTR\000"
 2113      52535452 
 2113      00
 2114              	.LASF13:
 2115 049c 5F5F7569 		.ascii	"__uint64_t\000"
 2115      6E743634 
 2115      5F7400
 2116              	.LASF22:
 2117 04a7 74726566 		.ascii	"trefs_t\000"
 2117      735F7400 
 2118              	.LASF92:
 2119 04af 52455345 		.ascii	"RESERVED0\000"
 2119      52564544 
 2119      3000
 2120              	.LASF95:
 2121 04b9 52455345 		.ascii	"RESERVED1\000"
 2121      52564544 
 2121      3100
 2122              	.LASF99:
 2123 04c3 52455345 		.ascii	"RESERVED2\000"
 2123      52564544 
 2123      3200
 2124              	.LASF102:
 2125 04cd 52455345 		.ascii	"RESERVED3\000"
 2125      52564544 
 2125      3300
 2126              	.LASF106:
 2127 04d7 52455345 		.ascii	"RESERVED4\000"
 2127      52564544 
 2127      3400
 2128              	.LASF30:
 2129 04e1 705F7072 		.ascii	"p_prev\000"
 2129      657600
ARM GAS  /tmp/ccSHH9IF.s 			page 42


 2130              	.LASF111:
 2131 04e8 52455345 		.ascii	"RESERVED6\000"
 2131      52564544 
 2131      3600
 2132              	.LASF23:
 2133 04f2 74707269 		.ascii	"tprio_t\000"
 2133      6F5F7400 
 2134              	.LASF72:
 2135 04fa 63685F73 		.ascii	"ch_system_debug\000"
 2135      79737465 
 2135      6D5F6465 
 2135      62756700 
 2136              	.LASF137:
 2137 050a 5F426F6F 		.ascii	"_Bool\000"
 2137      6C00
 2138              	.LASF16:
 2139 0510 696E7433 		.ascii	"int32_t\000"
 2139      325F7400 
 2140              	.LASF6:
 2141 0518 756E7369 		.ascii	"unsigned char\000"
 2141      676E6564 
 2141      20636861 
 2141      7200
 2142              	.LASF43:
 2143 0526 705F6D74 		.ascii	"p_mtxlist\000"
 2143      786C6973 
 2143      7400
 2144              	.LASF7:
 2145 0530 73686F72 		.ascii	"short int\000"
 2145      7420696E 
 2145      7400
 2146              	.LASF36:
 2147 053a 705F7374 		.ascii	"p_state\000"
 2147      61746500 
 2148              	.LASF105:
 2149 0542 41484233 		.ascii	"AHB3LPENR\000"
 2149      4C50454E 
 2149      5200
 2150              	.LASF55:
 2151 054c 725F7072 		.ascii	"r_prio\000"
 2151      696F00
 2152              	.LASF127:
 2153 0553 65776D61 		.ascii	"ewmask\000"
 2153      736B00
 2154              	.LASF37:
 2155 055a 705F666C 		.ascii	"p_flags\000"
 2155      61677300 
 2156              	.LASF101:
 2157 0562 41504232 		.ascii	"APB2ENR\000"
 2157      454E5200 
 2158              	.LASF91:
 2159 056a 41484233 		.ascii	"AHB3RSTR\000"
 2159      52535452 
 2159      00
 2160              	.LASF62:
 2161 0573 63685F76 		.ascii	"ch_virtual_timer\000"
 2161      69727475 
ARM GAS  /tmp/ccSHH9IF.s 			page 43


 2161      616C5F74 
 2161      696D6572 
 2161      00
 2162              	.LASF128:
 2163 0584 63685F73 		.ascii	"ch_semaphore\000"
 2163      656D6170 
 2163      686F7265 
 2163      00
 2164              	.LASF42:
 2165 0591 705F6570 		.ascii	"p_epending\000"
 2165      656E6469 
 2165      6E6700
 2166              	.LASF109:
 2167 059c 52455345 		.ascii	"RESERVED5\000"
 2167      52564544 
 2167      3500
 2168              	.LASF17:
 2169 05a6 75696E74 		.ascii	"uint32_t\000"
 2169      33325F74 
 2169      00
 2170              	.LASF126:
 2171 05af 77746D74 		.ascii	"wtmtxp\000"
 2171      787000
 2172              	.LASF54:
 2173 05b6 725F7175 		.ascii	"r_queue\000"
 2173      65756500 
 2174              	.LASF49:
 2175 05be 63685F74 		.ascii	"ch_threads_list\000"
 2175      68726561 
 2175      64735F6C 
 2175      69737400 
 2176              	.LASF146:
 2177 05ce 646D6149 		.ascii	"dmaInit\000"
 2177      6E697400 
 2178              	.LASF12:
 2179 05d6 6C6F6E67 		.ascii	"long unsigned int\000"
 2179      20756E73 
 2179      69676E65 
 2179      6420696E 
 2179      7400
 2180              	.LASF135:
 2181 05e8 63686172 		.ascii	"char\000"
 2181      00
 2182              	.LASF90:
 2183 05ed 41484232 		.ascii	"AHB2RSTR\000"
 2183      52535452 
 2183      00
 2184              	.LASF28:
 2185 05f6 74687265 		.ascii	"thread_t\000"
 2185      61645F74 
 2185      00
 2186              	.LASF134:
 2187 05ff 6D5F6E65 		.ascii	"m_next\000"
 2187      787400
 2188              	.LASF27:
 2189 0606 73797374 		.ascii	"systime_t\000"
 2189      696D655F 
ARM GAS  /tmp/ccSHH9IF.s 			page 44


 2189      7400
 2190              	.LASF44:
 2191 0610 705F7265 		.ascii	"p_realprio\000"
 2191      616C7072 
 2191      696F00
 2192              	.LASF60:
 2193 061b 76746675 		.ascii	"vtfunc_t\000"
 2193      6E635F74 
 2193      00
 2194              	.LASF11:
 2195 0624 5F5F7569 		.ascii	"__uint32_t\000"
 2195      6E743332 
 2195      5F7400
 2196              	.LASF73:
 2197 062f 70616E69 		.ascii	"panic_msg\000"
 2197      635F6D73 
 2197      6700
 2198              	.LASF119:
 2199 0639 6F666673 		.ascii	"offset\000"
 2199      657400
 2200              	.LASF100:
 2201 0640 41504231 		.ascii	"APB1ENR\000"
 2201      454E5200 
 2202              	.LASF86:
 2203 0648 5057525F 		.ascii	"PWR_TypeDef\000"
 2203      54797065 
 2203      44656600 
 2204              	.LASF97:
 2205 0654 41484232 		.ascii	"AHB2ENR\000"
 2205      454E5200 
 2206              	.LASF117:
 2207 065c 636F6E74 		.ascii	"context\000"
 2207      65787400 
 2208              	.LASF58:
 2209 0664 725F6F6C 		.ascii	"r_older\000"
 2209      64657200 
 2210              	.LASF144:
 2211 066c 68616C5F 		.ascii	"hal_lld_init\000"
 2211      6C6C645F 
 2211      696E6974 
 2211      00
 2212              	.LASF19:
 2213 0679 7274636E 		.ascii	"rtcnt_t\000"
 2213      745F7400 
 2214              	.LASF67:
 2215 0681 76745F70 		.ascii	"vt_par\000"
 2215      617200
 2216              	.LASF112:
 2217 0688 53534347 		.ascii	"SSCGR\000"
 2217      5200
 2218              	.LASF50:
 2219 068e 74687265 		.ascii	"threads_queue_t\000"
 2219      6164735F 
 2219      71756575 
 2219      655F7400 
 2220              	.LASF131:
 2221 069e 63685F6D 		.ascii	"ch_mutex\000"
ARM GAS  /tmp/ccSHH9IF.s 			page 45


 2221      75746578 
 2221      00
 2222              	.LASF38:
 2223 06a7 705F7265 		.ascii	"p_refs\000"
 2223      667300
 2224              	.LASF110:
 2225 06ae 42444352 		.ascii	"BDCR\000"
 2225      00
 2226              	.LASF76:
 2227 06b3 726C6973 		.ascii	"rlist\000"
 2227      7400
 2228              	.LASF15:
 2229 06b9 75696E74 		.ascii	"uint8_t\000"
 2229      385F7400 
 2230              	.LASF123:
 2231 06c1 77746F62 		.ascii	"wtobjp\000"
 2231      6A7000
 2232              	.LASF35:
 2233 06c8 705F6E61 		.ascii	"p_name\000"
 2233      6D6500
 2234              	.LASF96:
 2235 06cf 41484231 		.ascii	"AHB1ENR\000"
 2235      454E5200 
 2236              	.LASF88:
 2237 06d7 43464752 		.ascii	"CFGR\000"
 2237      00
 2238              	.LASF129:
 2239 06dc 735F7175 		.ascii	"s_queue\000"
 2239      65756500 
 2240              	.LASF41:
 2241 06e4 705F6D73 		.ascii	"p_msg\000"
 2241      6700
 2242              	.LASF133:
 2243 06ea 6D5F6F77 		.ascii	"m_owner\000"
 2243      6E657200 
 2244              	.LASF32:
 2245 06f2 705F6374 		.ascii	"p_ctx\000"
 2245      7800
 2246              	.LASF66:
 2247 06f8 76745F66 		.ascii	"vt_func\000"
 2247      756E6300 
 2248              		.ident	"GCC: (Fedora 5.2.0-2.fc22) 5.2.0"
ARM GAS  /tmp/ccSHH9IF.s 			page 46


DEFINED SYMBOLS
                            *ABS*:0000000000000000 hal_lld.c
     /tmp/ccSHH9IF.s:22     .text.hal_lld_init:0000000000000000 $t
     /tmp/ccSHH9IF.s:28     .text.hal_lld_init:0000000000000000 hal_lld_init
     /tmp/ccSHH9IF.s:111    .text.hal_lld_init:0000000000000060 $d
     /tmp/ccSHH9IF.s:117    .text.stm32_clock_init:0000000000000000 $t
     /tmp/ccSHH9IF.s:123    .text.stm32_clock_init:0000000000000000 stm32_clock_init
     /tmp/ccSHH9IF.s:247    .text.stm32_clock_init:00000000000000b4 $d
     /tmp/ccSHH9IF.s:260    .data.SystemCoreClock:0000000000000000 SystemCoreClock
     /tmp/ccSHH9IF.s:257    .data.SystemCoreClock:0000000000000000 $d
                     .debug_frame:0000000000000010 $d
     /tmp/ccSHH9IF.s:116    .text.hal_lld_init:0000000000000068 $t
     /tmp/ccSHH9IF.s:256    .text.stm32_clock_init:00000000000000c8 $t

UNDEFINED SYMBOLS
dmaInit
