ARM GAS  /tmp/ccLdbU6H.s 			page 1


   1              		.syntax unified
   2              		.cpu cortex-m4
   3              		.eabi_attribute 27, 1
   4              		.eabi_attribute 28, 1
   5              		.fpu fpv4-sp-d16
   6              		.eabi_attribute 20, 1
   7              		.eabi_attribute 21, 1
   8              		.eabi_attribute 23, 3
   9              		.eabi_attribute 24, 1
  10              		.eabi_attribute 25, 1
  11              		.eabi_attribute 26, 1
  12              		.eabi_attribute 30, 2
  13              		.eabi_attribute 34, 1
  14              		.eabi_attribute 18, 4
  15              		.thumb
  16              		.syntax unified
  17              		.file	"main.c"
  18              		.text
  19              	.Ltext0:
  20              		.cfi_sections	.debug_frame
  21              		.section	.text.adcerrorcallback,"ax",%progbits
  22              		.align	2
  23              		.p2align 4,,15
  24              		.thumb
  25              		.thumb_func
  26              		.type	adcerrorcallback, %function
  27              	adcerrorcallback:
  28              	.LFB261:
  29              		.file 1 "main.c"
  30              		.loc 1 28 0
  31              		.cfi_startproc
  32              		@ args = 0, pretend = 0, frame = 0
  33              		@ frame_needed = 0, uses_anonymous_args = 0
  34              		@ link register save eliminated.
  35              	.LVL0:
  36 0000 7047     		bx	lr
  37              		.cfi_endproc
  38              	.LFE261:
  39              		.size	adcerrorcallback, .-adcerrorcallback
  40 0002 00BFAFF3 		.section	.text.Thread1,"ax",%progbits
  40      0080AFF3 
  40      0080AFF3 
  40      0080
  41              		.align	2
  42              		.p2align 4,,15
  43              		.thumb
  44              		.thumb_func
  45              		.type	Thread1, %function
  46              	Thread1:
  47              	.LFB262:
  48              		.loc 1 59 0
  49              		.cfi_startproc
  50              		@ Volatile: function does not return.
  51              		@ args = 0, pretend = 0, frame = 0
  52              		@ frame_needed = 0, uses_anonymous_args = 0
  53              	.LVL1:
  54              		.loc 1 59 0
ARM GAS  /tmp/ccLdbU6H.s 			page 2


  55 0000 08B5     		push	{r3, lr}
  56              		.cfi_def_cfa_offset 8
  57              		.cfi_offset 3, -8
  58              		.cfi_offset 14, -4
  59              	.LBB29:
  60              	.LBB30:
  61              		.file 2 "../../os/rt/include/chregistry.h"
  62              		.loc 2 135 0
  63 0002 094B     		ldr	r3, .L6
  64 0004 094A     		ldr	r2, .L6+4
  65 0006 9B69     		ldr	r3, [r3, #24]
  66              	.LBE30:
  67              	.LBE29:
  68              		.loc 1 64 0
  69 0008 094C     		ldr	r4, .L6+8
  70              	.LBB32:
  71              	.LBB31:
  72              		.loc 2 135 0
  73 000a 9A61     		str	r2, [r3, #24]
  74              	.LBE31:
  75              	.LBE32:
  76              		.loc 1 64 0
  77 000c 4FF40055 		mov	r5, #8192
  78 0010 2E46     		mov	r6, r5	@ movhi
  79              	.LVL2:
  80              	.L3:
  81              		.loc 1 64 0 is_stmt 0 discriminator 1
  82 0012 2683     		strh	r6, [r4, #24]	@ movhi
  83              		.loc 1 65 0 is_stmt 1 discriminator 1
  84 0014 42F21070 		movw	r0, #10000
  85 0018 FFF7FEFF 		bl	chThdSleep
  86              	.LVL3:
  87              		.loc 1 66 0 discriminator 1
  88 001c 6583     		strh	r5, [r4, #26]	@ movhi
  89              		.loc 1 67 0 discriminator 1
  90 001e 42F21070 		movw	r0, #10000
  91 0022 FFF7FEFF 		bl	chThdSleep
  92              	.LVL4:
  93 0026 F4E7     		b	.L3
  94              	.L7:
  95              		.align	2
  96              	.L6:
  97 0028 00000000 		.word	ch
  98 002c 00000000 		.word	.LC0
  99 0030 00080240 		.word	1073874944
 100              		.cfi_endproc
 101              	.LFE262:
 102              		.size	Thread1, .-Thread1
 103 0034 AFF30080 		.section	.text.chprintf.constprop.0,"ax",%progbits
 103      AFF30080 
 103      AFF30080 
 104              		.align	2
 105              		.p2align 4,,15
 106              		.thumb
 107              		.thumb_func
 108              		.type	chprintf.constprop.0, %function
 109              	chprintf.constprop.0:
ARM GAS  /tmp/ccLdbU6H.s 			page 3


 110              	.LFB264:
 111              		.file 3 "../../os/hal/lib/streams/chprintf.h"
 112              		.loc 3 69 0
 113              		.cfi_startproc
 114              		@ args = 4, pretend = 12, frame = 8
 115              		@ frame_needed = 0, uses_anonymous_args = 1
 116              	.LVL5:
 117 0000 0EB4     		push	{r1, r2, r3}
 118              		.cfi_def_cfa_offset 12
 119              		.cfi_offset 1, -12
 120              		.cfi_offset 2, -8
 121              		.cfi_offset 3, -4
 122 0002 00B5     		push	{lr}
 123              		.cfi_def_cfa_offset 16
 124              		.cfi_offset 14, -16
 125 0004 82B0     		sub	sp, sp, #8
 126              		.cfi_def_cfa_offset 24
 127              		.loc 3 73 0
 128 0006 04AB     		add	r3, sp, #16
 129              		.loc 3 74 0
 130 0008 1A46     		mov	r2, r3
 131 000a 0549     		ldr	r1, .L10
 132 000c 0548     		ldr	r0, .L10+4
 133              	.LVL6:
 134              		.loc 3 73 0
 135 000e 0193     		str	r3, [sp, #4]
 136              		.loc 3 74 0
 137 0010 FFF7FEFF 		bl	chvprintf
 138              	.LVL7:
 139              		.loc 3 78 0
 140 0014 02B0     		add	sp, sp, #8
 141              		.cfi_def_cfa_offset 16
 142              		@ sp needed
 143 0016 5DF804EB 		ldr	lr, [sp], #4
 144              		.cfi_restore 14
 145              		.cfi_def_cfa_offset 12
 146 001a 03B0     		add	sp, sp, #12
 147              		.cfi_restore 3
 148              		.cfi_restore 2
 149              		.cfi_restore 1
 150              		.cfi_def_cfa_offset 0
 151 001c 7047     		bx	lr
 152              	.L11:
 153 001e 00BF     		.align	2
 154              	.L10:
 155 0020 08000000 		.word	.LC1
 156 0024 00000000 		.word	SD2
 157              		.cfi_endproc
 158              	.LFE264:
 159              		.size	chprintf.constprop.0, .-chprintf.constprop.0
 160 0028 AFF30080 		.section	.text.startup.main,"ax",%progbits
 160      AFF30080 
 161              		.align	2
 162              		.p2align 4,,15
 163              		.global	main
 164              		.thumb
 165              		.thumb_func
ARM GAS  /tmp/ccLdbU6H.s 			page 4


 166              		.type	main, %function
 167              	main:
 168              	.LFB263:
 169              		.loc 1 74 0
 170              		.cfi_startproc
 171              		@ args = 0, pretend = 0, frame = 0
 172              		@ frame_needed = 0, uses_anonymous_args = 0
 173 0000 30B5     		push	{r4, r5, lr}
 174              		.cfi_def_cfa_offset 12
 175              		.cfi_offset 4, -12
 176              		.cfi_offset 5, -8
 177              		.cfi_offset 14, -4
 178 0002 83B0     		sub	sp, sp, #12
 179              		.cfi_def_cfa_offset 24
 180              		.loc 1 83 0
 181 0004 FFF7FEFF 		bl	halInit
 182              	.LVL8:
 183              	.LBB33:
 184              	.LBB34:
 185              	.LBB35:
 186              	.LBB36:
 187              	.LBB37:
 188              		.file 4 "../../os/ext/CMSIS/include/core_cmFunc.h"
 189              		.loc 4 546 0
 190 0008 0025     		movs	r5, #0
 191              	.LBE37:
 192              	.LBE36:
 193              	.LBE35:
 194              	.LBE34:
 195              	.LBE33:
 196              		.loc 1 84 0
 197 000a FFF7FEFF 		bl	chSysInit
 198              	.LVL9:
 199              	.LBB44:
 200              	.LBB43:
 201              	.LBB42:
 202              	.LBB39:
 203              	.LBB38:
 204              		.loc 4 546 0
 205              		.syntax unified
 206              	@ 546 "../../os/ext/CMSIS/include/core_cmFunc.h" 1
 207 000e 85F31188 		MSR basepri, r5
 208              	@ 0 "" 2
 209              		.thumb
 210              		.syntax unified
 211              	.LBE38:
 212              	.LBE39:
 213              	.LBB40:
 214              	.LBB41:
 215              		.loc 4 331 0
 216              		.syntax unified
 217              	@ 331 "../../os/ext/CMSIS/include/core_cmFunc.h" 1
 218 0012 62B6     		cpsie i
 219              	@ 0 "" 2
 220              		.thumb
 221              		.syntax unified
 222              	.LBE41:
ARM GAS  /tmp/ccLdbU6H.s 			page 5


 223              	.LBE40:
 224              	.LBE42:
 225              	.LBE43:
 226              	.LBE44:
 227              		.loc 1 91 0
 228 0014 0122     		movs	r2, #1
 229 0016 4FF40051 		mov	r1, #8192
 230 001a 1B48     		ldr	r0, .L15
 231 001c 1B4C     		ldr	r4, .L15+4
 232 001e FFF7FEFF 		bl	_pal_lld_setgroupmode
 233              	.LVL10:
 234              		.loc 1 97 0
 235 0022 2946     		mov	r1, r5
 236 0024 1A48     		ldr	r0, .L15+8
 237 0026 FFF7FEFF 		bl	sdStart
 238              	.LVL11:
 239              		.loc 1 98 0
 240 002a 40F28232 		movw	r2, #898
 241 002e 0421     		movs	r1, #4
 242 0030 1848     		ldr	r0, .L15+12
 243 0032 FFF7FEFF 		bl	_pal_lld_setgroupmode
 244              	.LVL12:
 245              		.loc 1 99 0
 246 0036 40F28232 		movw	r2, #898
 247 003a 0821     		movs	r1, #8
 248 003c 1548     		ldr	r0, .L15+12
 249 003e FFF7FEFF 		bl	_pal_lld_setgroupmode
 250              	.LVL13:
 251              		.loc 1 104 0
 252 0042 4022     		movs	r2, #64
 253 0044 144B     		ldr	r3, .L15+16
 254 0046 0095     		str	r5, [sp]
 255 0048 4FF4E871 		mov	r1, #464
 256 004c 1348     		ldr	r0, .L15+20
 257 004e FFF7FEFF 		bl	chThdCreateStatic
 258              	.LVL14:
 259              		.loc 1 111 0
 260 0052 2946     		mov	r1, r5
 261 0054 1248     		ldr	r0, .L15+24
 262 0056 FFF7FEFF 		bl	adcStart
 263              	.LVL15:
 264              		.loc 1 112 0
 265 005a FFF7FEFF 		bl	adcSTM32EnableTSVREFE
 266              	.LVL16:
 267              		.loc 1 113 0
 268 005e 0322     		movs	r2, #3
 269 0060 0121     		movs	r1, #1
 270 0062 0C48     		ldr	r0, .L15+12
 271 0064 FFF7FEFF 		bl	_pal_lld_setgroupmode
 272              	.LVL17:
 273              	.L13:
 274              		.loc 1 124 0 discriminator 1
 275 0068 2288     		ldrh	r2, [r4]
 276 006a 0E49     		ldr	r1, .L15+28
 277 006c 0848     		ldr	r0, .L15+8
 278 006e FFF7FEFF 		bl	chprintf.constprop.0
 279              	.LVL18:
ARM GAS  /tmp/ccLdbU6H.s 			page 6


 280              		.loc 1 128 0 discriminator 1
 281 0072 0423     		movs	r3, #4
 282 0074 054A     		ldr	r2, .L15+4
 283 0076 0C49     		ldr	r1, .L15+32
 284 0078 0948     		ldr	r0, .L15+24
 285 007a FFF7FEFF 		bl	adcStartConversion
 286              	.LVL19:
 287              		.loc 1 129 0 discriminator 1
 288 007e 4FF47A70 		mov	r0, #1000
 289 0082 FFF7FEFF 		bl	chThdSleep
 290              	.LVL20:
 291 0086 EFE7     		b	.L13
 292              	.L16:
 293              		.align	2
 294              	.L15:
 295 0088 00080240 		.word	1073874944
 296 008c 00000000 		.word	.LANCHOR1
 297 0090 00000000 		.word	SD2
 298 0094 00000240 		.word	1073872896
 299 0098 00000000 		.word	Thread1
 300 009c 00000000 		.word	.LANCHOR0
 301 00a0 00000000 		.word	ADCD1
 302 00a4 08000000 		.word	.LC1
 303 00a8 00000000 		.word	.LANCHOR2
 304              		.cfi_endproc
 305              	.LFE263:
 306              		.size	main, .-main
 307 00ac AFF30080 		.section	.bss.waThread1,"aw",%nobits
 308              		.align	3
 309              		.set	.LANCHOR0,. + 0
 310              		.type	waThread1, %object
 311              		.size	waThread1, 464
 312              	waThread1:
 313 0000 00000000 		.space	464
 313      00000000 
 313      00000000 
 313      00000000 
 313      00000000 
 314              		.section	.rodata.str1.4,"aMS",%progbits,1
 315              		.align	2
 316              	.LC0:
 317 0000 626C696E 		.ascii	"blinker\000"
 317      6B657200 
 318              	.LC1:
 319 0008 25640D0A 		.ascii	"%d\015\012\000"
 319      00
 320 000d 000000   		.section	.rodata.adcgrpcfg1,"a",%progbits
 321              		.align	2
 322              		.set	.LANCHOR2,. + 0
 323              		.type	adcgrpcfg1, %object
 324              		.size	adcgrpcfg1, 40
 325              	adcgrpcfg1:
 326 0000 00       		.byte	0
 327 0001 00       		.space	1
 328 0002 0100     		.short	1
 329 0004 00000000 		.word	0
 330 0008 00000000 		.word	adcerrorcallback
ARM GAS  /tmp/ccLdbU6H.s 			page 7


 331 000c 00000000 		.word	0
 332 0010 00000040 		.word	1073741824
 333 0014 00000000 		.word	0
 334 0018 00000000 		.word	0
 335 001c 00000000 		.word	0
 336 0020 00000000 		.word	0
 337 0024 00000000 		.word	0
 338              		.section	.bss.samples1,"aw",%nobits
 339              		.align	2
 340              		.set	.LANCHOR1,. + 0
 341              		.type	samples1, %object
 342              		.size	samples1, 8
 343              	samples1:
 344 0000 00000000 		.space	8
 344      00000000 
 345              		.text
 346              	.Letext0:
 347              		.file 5 "/usr/lib/gcc/arm-none-eabi/5.2.0/include/stddef.h"
 348              		.file 6 "/usr/arm-none-eabi/include/machine/_default_types.h"
 349              		.file 7 "/usr/arm-none-eabi/include/stdint.h"
 350              		.file 8 "../../os/rt/ports/ARMCMx/compilers/GCC/chtypes.h"
 351              		.file 9 "../../os/rt/include/chsystypes.h"
 352              		.file 10 "../../os/rt/include/chschd.h"
 353              		.file 11 "../../os/ext/CMSIS/ST/stm32f401xc.h"
 354              		.file 12 "../../os/rt/ports/ARMCMx/chcore.h"
 355              		.file 13 "../../os/rt/ports/ARMCMx/chcore_v7m.h"
 356              		.file 14 "../../os/rt/include/chtm.h"
 357              		.file 15 "../../os/rt/include/chsem.h"
 358              		.file 16 "../../os/rt/include/chmtx.h"
 359              		.file 17 "../../os/rt/include/chevents.h"
 360              		.file 18 "../../os/rt/include/chqueues.h"
 361              		.file 19 "../../os/rt/include/chstreams.h"
 362              		.file 20 "../../os/hal/ports/STM32/STM32F4xx/stm32_dma.h"
 363              		.file 21 "../../os/hal/ports/STM32/LLD/GPIOv2/pal_lld.h"
 364              		.file 22 "../../os/hal/include/adc.h"
 365              		.file 23 "../../os/hal/ports/STM32/STM32F4xx/adc_lld.h"
 366              		.file 24 "../../os/hal/include/serial.h"
 367              		.file 25 "/usr/lib/gcc/arm-none-eabi/5.2.0/include/stdarg.h"
 368              		.file 26 "<built-in>"
 369              		.file 27 "../../os/rt/include/chsys.h"
 370              		.file 28 "../../os/hal/osal/rt/osal.h"
 371              		.file 29 "../../os/ext/CMSIS/include/core_cm4.h"
 372              		.file 30 "../../os/hal/ports/STM32/LLD/USARTv1/serial_lld.h"
 373              		.file 31 "../../os/rt/include/chthreads.h"
 374              		.file 32 "../../os/hal/include/hal.h"