ARM GAS  /tmp/ccT99met.s 			page 1


   1              		.syntax unified
   2              		.cpu cortex-m4
   3              		.eabi_attribute 27, 1
   4              		.eabi_attribute 28, 1
   5              		.fpu fpv4-sp-d16
   6              		.eabi_attribute 20, 1
   7              		.eabi_attribute 21, 1
   8              		.eabi_attribute 23, 3
   9              		.eabi_attribute 24, 1
  10              		.eabi_attribute 25, 1
  11              		.eabi_attribute 26, 1
  12              		.eabi_attribute 30, 2
  13              		.eabi_attribute 34, 1
  14              		.eabi_attribute 18, 4
  15              		.thumb
  16              		.syntax unified
  17              		.file	"serial.c"
  18              		.text
  19              	.Ltext0:
  20              		.cfi_sections	.debug_frame
  21              		.section	.text.readt,"ax",%progbits
  22              		.align	2
  23              		.p2align 4,,15
  24              		.thumb
  25              		.thumb_func
  26              		.type	readt, %function
  27              	readt:
  28              	.LFB267:
  29              		.file 1 "../../os/hal/src/serial.c"
  30              		.loc 1 87 0
  31              		.cfi_startproc
  32              		@ args = 0, pretend = 0, frame = 0
  33              		@ frame_needed = 0, uses_anonymous_args = 0
  34              		@ link register save eliminated.
  35              	.LVL0:
  36              		.loc 1 89 0
  37 0000 0C30     		adds	r0, r0, #12
  38              	.LVL1:
  39 0002 FFF7FEBF 		b	chIQReadTimeout
  40              	.LVL2:
  41              		.cfi_endproc
  42              	.LFE267:
  43              		.size	readt, .-readt
  44 0006 00BFAFF3 		.section	.text.read,"ax",%progbits
  44      0080AFF3 
  44      0080
  45              		.align	2
  46              		.p2align 4,,15
  47              		.thumb
  48              		.thumb_func
  49              		.type	read, %function
  50              	read:
  51              	.LFB261:
  52              		.loc 1 56 0
  53              		.cfi_startproc
  54              		@ args = 0, pretend = 0, frame = 0
  55              		@ frame_needed = 0, uses_anonymous_args = 0
ARM GAS  /tmp/ccT99met.s 			page 2


  56              		@ link register save eliminated.
  57              	.LVL3:
  58              		.loc 1 58 0
  59 0000 0C30     		adds	r0, r0, #12
  60              	.LVL4:
  61 0002 4FF0FF33 		mov	r3, #-1
  62 0006 FFF7FEBF 		b	chIQReadTimeout
  63              	.LVL5:
  64              		.cfi_endproc
  65              	.LFE261:
  66              		.size	read, .-read
  67 000a 00BFAFF3 		.section	.text.writet,"ax",%progbits
  67      0080
  68              		.align	2
  69              		.p2align 4,,15
  70              		.thumb
  71              		.thumb_func
  72              		.type	writet, %function
  73              	writet:
  74              	.LFB266:
  75              		.loc 1 82 0
  76              		.cfi_startproc
  77              		@ args = 0, pretend = 0, frame = 0
  78              		@ frame_needed = 0, uses_anonymous_args = 0
  79              		@ link register save eliminated.
  80              	.LVL6:
  81              		.loc 1 84 0
  82 0000 3030     		adds	r0, r0, #48
  83              	.LVL7:
  84 0002 FFF7FEBF 		b	chOQWriteTimeout
  85              	.LVL8:
  86              		.cfi_endproc
  87              	.LFE266:
  88              		.size	writet, .-writet
  89 0006 00BFAFF3 		.section	.text.write,"ax",%progbits
  89      0080AFF3 
  89      0080
  90              		.align	2
  91              		.p2align 4,,15
  92              		.thumb
  93              		.thumb_func
  94              		.type	write, %function
  95              	write:
  96              	.LFB260:
  97              		.loc 1 50 0
  98              		.cfi_startproc
  99              		@ args = 0, pretend = 0, frame = 0
 100              		@ frame_needed = 0, uses_anonymous_args = 0
 101              		@ link register save eliminated.
 102              	.LVL9:
 103              		.loc 1 52 0
 104 0000 3030     		adds	r0, r0, #48
 105              	.LVL10:
 106 0002 4FF0FF33 		mov	r3, #-1
 107 0006 FFF7FEBF 		b	chOQWriteTimeout
 108              	.LVL11:
 109              		.cfi_endproc
ARM GAS  /tmp/ccT99met.s 			page 3


 110              	.LFE260:
 111              		.size	write, .-write
 112 000a 00BFAFF3 		.section	.text.gett,"ax",%progbits
 112      0080
 113              		.align	2
 114              		.p2align 4,,15
 115              		.thumb
 116              		.thumb_func
 117              		.type	gett, %function
 118              	gett:
 119              	.LFB265:
 120              		.loc 1 77 0
 121              		.cfi_startproc
 122              		@ args = 0, pretend = 0, frame = 0
 123              		@ frame_needed = 0, uses_anonymous_args = 0
 124              		@ link register save eliminated.
 125              	.LVL12:
 126              		.loc 1 79 0
 127 0000 0C30     		adds	r0, r0, #12
 128              	.LVL13:
 129 0002 FFF7FEBF 		b	chIQGetTimeout
 130              	.LVL14:
 131              		.cfi_endproc
 132              	.LFE265:
 133              		.size	gett, .-gett
 134 0006 00BFAFF3 		.section	.text.get,"ax",%progbits
 134      0080AFF3 
 134      0080
 135              		.align	2
 136              		.p2align 4,,15
 137              		.thumb
 138              		.thumb_func
 139              		.type	get, %function
 140              	get:
 141              	.LFB263:
 142              		.loc 1 67 0
 143              		.cfi_startproc
 144              		@ args = 0, pretend = 0, frame = 0
 145              		@ frame_needed = 0, uses_anonymous_args = 0
 146              		@ link register save eliminated.
 147              	.LVL15:
 148              		.loc 1 69 0
 149 0000 0C30     		adds	r0, r0, #12
 150              	.LVL16:
 151 0002 4FF0FF31 		mov	r1, #-1
 152 0006 FFF7FEBF 		b	chIQGetTimeout
 153              	.LVL17:
 154              		.cfi_endproc
 155              	.LFE263:
 156              		.size	get, .-get
 157 000a 00BFAFF3 		.section	.text.putt,"ax",%progbits
 157      0080
 158              		.align	2
 159              		.p2align 4,,15
 160              		.thumb
 161              		.thumb_func
 162              		.type	putt, %function
ARM GAS  /tmp/ccT99met.s 			page 4


 163              	putt:
 164              	.LFB264:
 165              		.loc 1 72 0
 166              		.cfi_startproc
 167              		@ args = 0, pretend = 0, frame = 0
 168              		@ frame_needed = 0, uses_anonymous_args = 0
 169              		@ link register save eliminated.
 170              	.LVL18:
 171              		.loc 1 74 0
 172 0000 3030     		adds	r0, r0, #48
 173              	.LVL19:
 174 0002 FFF7FEBF 		b	chOQPutTimeout
 175              	.LVL20:
 176              		.cfi_endproc
 177              	.LFE264:
 178              		.size	putt, .-putt
 179 0006 00BFAFF3 		.section	.text.put,"ax",%progbits
 179      0080AFF3 
 179      0080
 180              		.align	2
 181              		.p2align 4,,15
 182              		.thumb
 183              		.thumb_func
 184              		.type	put, %function
 185              	put:
 186              	.LFB262:
 187              		.loc 1 62 0
 188              		.cfi_startproc
 189              		@ args = 0, pretend = 0, frame = 0
 190              		@ frame_needed = 0, uses_anonymous_args = 0
 191              		@ link register save eliminated.
 192              	.LVL21:
 193              		.loc 1 64 0
 194 0000 3030     		adds	r0, r0, #48
 195              	.LVL22:
 196 0002 4FF0FF32 		mov	r2, #-1
 197 0006 FFF7FEBF 		b	chOQPutTimeout
 198              	.LVL23:
 199              		.cfi_endproc
 200              	.LFE262:
 201              		.size	put, .-put
 202 000a 00BFAFF3 		.section	.text.sdInit,"ax",%progbits
 202      0080
 203              		.align	2
 204              		.p2align 4,,15
 205              		.global	sdInit
 206              		.thumb
 207              		.thumb_func
 208              		.type	sdInit, %function
 209              	sdInit:
 210              	.LFB268:
 211              		.loc 1 108 0
 212              		.cfi_startproc
 213              		@ args = 0, pretend = 0, frame = 0
 214              		@ frame_needed = 0, uses_anonymous_args = 0
 215              		@ link register save eliminated.
 216              		.loc 1 110 0
ARM GAS  /tmp/ccT99met.s 			page 5


 217 0000 FFF7FEBF 		b	sd_lld_init
 218              	.LVL24:
 219              		.cfi_endproc
 220              	.LFE268:
 221              		.size	sdInit, .-sdInit
 222 0004 AFF30080 		.section	.text.sdObjectInit,"ax",%progbits
 222      AFF30080 
 222      AFF30080 
 223              		.align	2
 224              		.p2align 4,,15
 225              		.global	sdObjectInit
 226              		.thumb
 227              		.thumb_func
 228              		.type	sdObjectInit, %function
 229              	sdObjectInit:
 230              	.LFB269:
 231              		.loc 1 128 0
 232              		.cfi_startproc
 233              		@ args = 0, pretend = 0, frame = 0
 234              		@ frame_needed = 0, uses_anonymous_args = 0
 235              	.LVL25:
 236 0000 70B5     		push	{r4, r5, r6, lr}
 237              		.cfi_def_cfa_offset 16
 238              		.cfi_offset 4, -16
 239              		.cfi_offset 5, -12
 240              		.cfi_offset 6, -8
 241              		.cfi_offset 14, -4
 242              		.loc 1 130 0
 243 0002 0E4B     		ldr	r3, .L12
 244              		.loc 1 128 0
 245 0004 0446     		mov	r4, r0
 246 0006 82B0     		sub	sp, sp, #8
 247              		.cfi_def_cfa_offset 24
 248              		.loc 1 130 0
 249 0008 40F8043B 		str	r3, [r0], #4
 250              	.LVL26:
 251              		.loc 1 132 0
 252 000c 0126     		movs	r6, #1
 253              		.loc 1 133 0
 254 000e 0094     		str	r4, [sp]
 255              		.loc 1 128 0
 256 0010 1546     		mov	r5, r2
 257              		.loc 1 133 0
 258 0012 0B46     		mov	r3, r1
 259              	.LBB66:
 260              	.LBB67:
 261              	.LBB68:
 262              		.file 2 "../../os/rt/include/chevents.h"
 263              		.loc 2 172 0
 264 0014 6060     		str	r0, [r4, #4]
 265              	.LBE68:
 266              	.LBE67:
 267              	.LBE66:
 268              		.loc 1 133 0
 269 0016 04F15401 		add	r1, r4, #84
 270              	.LVL27:
 271 001a 04F10C00 		add	r0, r4, #12
ARM GAS  /tmp/ccT99met.s 			page 6


 272              	.LVL28:
 273              		.loc 1 132 0
 274 001e 2672     		strb	r6, [r4, #8]
 275              		.loc 1 133 0
 276 0020 1022     		movs	r2, #16
 277              	.LVL29:
 278 0022 FFF7FEFF 		bl	chIQObjectInit
 279              	.LVL30:
 280              		.loc 1 134 0
 281 0026 0094     		str	r4, [sp]
 282 0028 2B46     		mov	r3, r5
 283 002a 04F16401 		add	r1, r4, #100
 284 002e 04F13000 		add	r0, r4, #48
 285 0032 1022     		movs	r2, #16
 286 0034 FFF7FEFF 		bl	chOQObjectInit
 287              	.LVL31:
 288              		.loc 1 135 0
 289 0038 02B0     		add	sp, sp, #8
 290              		.cfi_def_cfa_offset 16
 291              		@ sp needed
 292 003a 70BD     		pop	{r4, r5, r6, pc}
 293              	.LVL32:
 294              	.L13:
 295              		.align	2
 296              	.L12:
 297 003c 00000000 		.word	.LANCHOR0
 298              		.cfi_endproc
 299              	.LFE269:
 300              		.size	sdObjectInit, .-sdObjectInit
 301              		.section	.text.sdStart,"ax",%progbits
 302              		.align	2
 303              		.p2align 4,,15
 304              		.global	sdStart
 305              		.thumb
 306              		.thumb_func
 307              		.type	sdStart, %function
 308              	sdStart:
 309              	.LFB270:
 310              		.loc 1 147 0
 311              		.cfi_startproc
 312              		@ args = 0, pretend = 0, frame = 0
 313              		@ frame_needed = 0, uses_anonymous_args = 0
 314              	.LVL33:
 315 0000 10B5     		push	{r4, lr}
 316              		.cfi_def_cfa_offset 8
 317              		.cfi_offset 4, -8
 318              		.cfi_offset 14, -4
 319              	.LBB69:
 320              	.LBB70:
 321              	.LBB71:
 322              	.LBB72:
 323              	.LBB73:
 324              		.file 3 "../../os/ext/CMSIS/include/core_cmFunc.h"
 325              		.loc 3 546 0
 326 0002 2023     		movs	r3, #32
 327              	.LBE73:
 328              	.LBE72:
ARM GAS  /tmp/ccT99met.s 			page 7


 329              	.LBE71:
 330              	.LBE70:
 331              	.LBE69:
 332              		.loc 1 147 0
 333 0004 0446     		mov	r4, r0
 334              	.LBB78:
 335              	.LBB77:
 336              	.LBB76:
 337              	.LBB75:
 338              	.LBB74:
 339              		.loc 3 546 0
 340              		.syntax unified
 341              	@ 546 "../../os/ext/CMSIS/include/core_cmFunc.h" 1
 342 0006 83F31188 		MSR basepri, r3
 343              	@ 0 "" 2
 344              		.thumb
 345              		.syntax unified
 346              	.LBE74:
 347              	.LBE75:
 348              	.LBE76:
 349              	.LBE77:
 350              	.LBE78:
 351              		.loc 1 154 0
 352 000a FFF7FEFF 		bl	sd_lld_start
 353              	.LVL34:
 354              		.loc 1 155 0
 355 000e 0223     		movs	r3, #2
 356 0010 2372     		strb	r3, [r4, #8]
 357              	.LVL35:
 358              	.LBB79:
 359              	.LBB80:
 360              	.LBB81:
 361              	.LBB82:
 362              	.LBB83:
 363              	.LBB84:
 364              		.loc 3 546 0
 365 0012 0023     		movs	r3, #0
 366              		.syntax unified
 367              	@ 546 "../../os/ext/CMSIS/include/core_cmFunc.h" 1
 368 0014 83F31188 		MSR basepri, r3
 369              	@ 0 "" 2
 370              		.thumb
 371              		.syntax unified
 372 0018 10BD     		pop	{r4, pc}
 373              	.LBE84:
 374              	.LBE83:
 375              	.LBE82:
 376              	.LBE81:
 377              	.LBE80:
 378              	.LBE79:
 379              		.cfi_endproc
 380              	.LFE270:
 381              		.size	sdStart, .-sdStart
 382 001a 00BFAFF3 		.section	.text.sdStop,"ax",%progbits
 382      0080
 383              		.align	2
 384              		.p2align 4,,15
ARM GAS  /tmp/ccT99met.s 			page 8


 385              		.global	sdStop
 386              		.thumb
 387              		.thumb_func
 388              		.type	sdStop, %function
 389              	sdStop:
 390              	.LFB271:
 391              		.loc 1 168 0
 392              		.cfi_startproc
 393              		@ args = 0, pretend = 0, frame = 0
 394              		@ frame_needed = 0, uses_anonymous_args = 0
 395              	.LVL36:
 396 0000 10B5     		push	{r4, lr}
 397              		.cfi_def_cfa_offset 8
 398              		.cfi_offset 4, -8
 399              		.cfi_offset 14, -4
 400              	.LBB85:
 401              	.LBB86:
 402              	.LBB87:
 403              	.LBB88:
 404              	.LBB89:
 405              		.loc 3 546 0
 406 0002 2023     		movs	r3, #32
 407              	.LBE89:
 408              	.LBE88:
 409              	.LBE87:
 410              	.LBE86:
 411              	.LBE85:
 412              		.loc 1 168 0
 413 0004 0446     		mov	r4, r0
 414              	.LBB94:
 415              	.LBB93:
 416              	.LBB92:
 417              	.LBB91:
 418              	.LBB90:
 419              		.loc 3 546 0
 420              		.syntax unified
 421              	@ 546 "../../os/ext/CMSIS/include/core_cmFunc.h" 1
 422 0006 83F31188 		MSR basepri, r3
 423              	@ 0 "" 2
 424              		.thumb
 425              		.syntax unified
 426              	.LBE90:
 427              	.LBE91:
 428              	.LBE92:
 429              	.LBE93:
 430              	.LBE94:
 431              		.loc 1 175 0
 432 000a FFF7FEFF 		bl	sd_lld_stop
 433              	.LVL37:
 434              		.loc 1 176 0
 435 000e 0123     		movs	r3, #1
 436 0010 2372     		strb	r3, [r4, #8]
 437              		.loc 1 177 0
 438 0012 04F13000 		add	r0, r4, #48
 439 0016 FFF7FEFF 		bl	chOQResetI
 440              	.LVL38:
 441              		.loc 1 178 0
ARM GAS  /tmp/ccT99met.s 			page 9


 442 001a 04F10C00 		add	r0, r4, #12
 443 001e FFF7FEFF 		bl	chIQResetI
 444              	.LVL39:
 445              	.LBB95:
 446              	.LBB96:
 447              		.file 4 "../../os/hal/osal/rt/osal.h"
 448              		.loc 4 554 0
 449 0022 FFF7FEFF 		bl	chSchRescheduleS
 450              	.LVL40:
 451              	.LBE96:
 452              	.LBE95:
 453              	.LBB97:
 454              	.LBB98:
 455              	.LBB99:
 456              	.LBB100:
 457              	.LBB101:
 458              	.LBB102:
 459              		.loc 3 546 0
 460 0026 0023     		movs	r3, #0
 461              		.syntax unified
 462              	@ 546 "../../os/ext/CMSIS/include/core_cmFunc.h" 1
 463 0028 83F31188 		MSR basepri, r3
 464              	@ 0 "" 2
 465              		.thumb
 466              		.syntax unified
 467 002c 10BD     		pop	{r4, pc}
 468              	.LBE102:
 469              	.LBE101:
 470              	.LBE100:
 471              	.LBE99:
 472              	.LBE98:
 473              	.LBE97:
 474              		.cfi_endproc
 475              	.LFE271:
 476              		.size	sdStop, .-sdStop
 477 002e 00BF     		.section	.text.sdIncomingDataI,"ax",%progbits
 478              		.align	2
 479              		.p2align 4,,15
 480              		.global	sdIncomingDataI
 481              		.thumb
 482              		.thumb_func
 483              		.type	sdIncomingDataI, %function
 484              	sdIncomingDataI:
 485              	.LFB272:
 486              		.loc 1 199 0
 487              		.cfi_startproc
 488              		@ args = 0, pretend = 0, frame = 0
 489              		@ frame_needed = 0, uses_anonymous_args = 0
 490              	.LVL41:
 491 0000 38B5     		push	{r3, r4, r5, lr}
 492              		.cfi_def_cfa_offset 16
 493              		.cfi_offset 3, -16
 494              		.cfi_offset 4, -12
 495              		.cfi_offset 5, -8
 496              		.cfi_offset 14, -4
 497              		.loc 1 204 0
 498 0002 4369     		ldr	r3, [r0, #20]
ARM GAS  /tmp/ccT99met.s 			page 10


 499              		.loc 1 199 0
 500 0004 0446     		mov	r4, r0
 501              	.LVL42:
 502 0006 0D46     		mov	r5, r1
 503              		.loc 1 204 0
 504 0008 3BB1     		cbz	r3, .L23
 505              		.loc 1 206 0
 506 000a 2946     		mov	r1, r5
 507              	.LVL43:
 508 000c 04F10C00 		add	r0, r4, #12
 509              	.LVL44:
 510 0010 FFF7FEFF 		bl	chIQPutI
 511              	.LVL45:
 512 0014 0028     		cmp	r0, #0
 513 0016 0BDB     		blt	.L24
 514              	.L18:
 515 0018 38BD     		pop	{r3, r4, r5, pc}
 516              	.LVL46:
 517              	.L23:
 518              	.LBB103:
 519              	.LBB104:
 520              		.loc 4 798 0
 521 001a 0421     		movs	r1, #4
 522              	.LVL47:
 523 001c 0844     		add	r0, r0, r1
 524              	.LVL48:
 525 001e FFF7FEFF 		bl	chEvtBroadcastFlagsI
 526              	.LVL49:
 527              	.LBE104:
 528              	.LBE103:
 529              		.loc 1 206 0
 530 0022 2946     		mov	r1, r5
 531 0024 04F10C00 		add	r0, r4, #12
 532 0028 FFF7FEFF 		bl	chIQPutI
 533              	.LVL50:
 534 002c 0028     		cmp	r0, #0
 535 002e F3DA     		bge	.L18
 536              	.LVL51:
 537              	.L24:
 538              	.LBB105:
 539              	.LBB106:
 540              		.loc 4 798 0
 541 0030 201D     		adds	r0, r4, #4
 542              	.LVL52:
 543 0032 8021     		movs	r1, #128
 544              	.LBE106:
 545              	.LBE105:
 546              		.loc 1 208 0
 547 0034 BDE83840 		pop	{r3, r4, r5, lr}
 548              		.cfi_restore 14
 549              		.cfi_restore 5
 550              		.cfi_restore 4
 551              		.cfi_restore 3
 552              		.cfi_def_cfa_offset 0
 553              	.LVL53:
 554              	.LBB108:
 555              	.LBB107:
ARM GAS  /tmp/ccT99met.s 			page 11


 556              		.loc 4 798 0
 557 0038 FFF7FEBF 		b	chEvtBroadcastFlagsI
 558              	.LVL54:
 559              	.LBE107:
 560              	.LBE108:
 561              		.cfi_endproc
 562              	.LFE272:
 563              		.size	sdIncomingDataI, .-sdIncomingDataI
 564 003c AFF30080 		.section	.text.sdRequestDataI,"ax",%progbits
 565              		.align	2
 566              		.p2align 4,,15
 567              		.global	sdRequestDataI
 568              		.thumb
 569              		.thumb_func
 570              		.type	sdRequestDataI, %function
 571              	sdRequestDataI:
 572              	.LFB273:
 573              		.loc 1 225 0
 574              		.cfi_startproc
 575              		@ args = 0, pretend = 0, frame = 0
 576              		@ frame_needed = 0, uses_anonymous_args = 0
 577              	.LVL55:
 578 0000 38B5     		push	{r3, r4, r5, lr}
 579              		.cfi_def_cfa_offset 16
 580              		.cfi_offset 3, -16
 581              		.cfi_offset 4, -12
 582              		.cfi_offset 5, -8
 583              		.cfi_offset 14, -4
 584              		.loc 1 225 0
 585 0002 0446     		mov	r4, r0
 586              		.loc 1 231 0
 587 0004 3030     		adds	r0, r0, #48
 588              	.LVL56:
 589 0006 FFF7FEFF 		bl	chOQGetI
 590              	.LVL57:
 591              		.loc 1 232 0
 592 000a 051E     		subs	r5, r0, #0
 593 000c 01DB     		blt	.L28
 594              		.loc 1 235 0
 595 000e 2846     		mov	r0, r5
 596 0010 38BD     		pop	{r3, r4, r5, pc}
 597              	.LVL58:
 598              	.L28:
 599              	.LBB109:
 600              	.LBB110:
 601              		.loc 4 798 0
 602 0012 201D     		adds	r0, r4, #4
 603              	.LVL59:
 604 0014 0821     		movs	r1, #8
 605 0016 FFF7FEFF 		bl	chEvtBroadcastFlagsI
 606              	.LVL60:
 607              	.LBE110:
 608              	.LBE109:
 609              		.loc 1 235 0
 610 001a 2846     		mov	r0, r5
 611 001c 38BD     		pop	{r3, r4, r5, pc}
 612              		.cfi_endproc
ARM GAS  /tmp/ccT99met.s 			page 12


 613              	.LFE273:
 614              		.size	sdRequestDataI, .-sdRequestDataI
 615 001e 00BF     		.section	.rodata.vmt,"a",%progbits
 616              		.align	2
 617              		.set	.LANCHOR0,. + 0
 618              		.type	vmt, %object
 619              		.size	vmt, 32
 620              	vmt:
 621 0000 00000000 		.word	write
 622 0004 00000000 		.word	read
 623 0008 00000000 		.word	put
 624 000c 00000000 		.word	get
 625 0010 00000000 		.word	putt
 626 0014 00000000 		.word	gett
 627 0018 00000000 		.word	writet
 628 001c 00000000 		.word	readt
 629              		.text
 630              	.Letext0:
 631              		.file 5 "/usr/lib/gcc/arm-none-eabi/5.2.0/include/stddef.h"
 632              		.file 6 "/usr/arm-none-eabi/include/machine/_default_types.h"
 633              		.file 7 "/usr/arm-none-eabi/include/stdint.h"
 634              		.file 8 "../../os/rt/ports/ARMCMx/compilers/GCC/chtypes.h"
 635              		.file 9 "../../os/rt/include/chsystypes.h"
 636              		.file 10 "../../os/rt/include/chschd.h"
 637              		.file 11 "../../os/ext/CMSIS/ST/stm32f401xc.h"
 638              		.file 12 "../../os/rt/ports/ARMCMx/chcore.h"
 639              		.file 13 "../../os/rt/ports/ARMCMx/chcore_v7m.h"
 640              		.file 14 "../../os/rt/include/chtm.h"
 641              		.file 15 "../../os/rt/include/chsem.h"
 642              		.file 16 "../../os/rt/include/chmtx.h"
 643              		.file 17 "../../os/rt/include/chqueues.h"
 644              		.file 18 "../../os/hal/include/serial.h"
 645              		.file 19 "../../os/hal/ports/STM32/LLD/USARTv1/serial_lld.h"
 646              		.file 20 "../../os/rt/include/chsys.h"
 647              		.file 21 "../../os/ext/CMSIS/include/core_cm4.h"
 648              		.section	.debug_info,"",%progbits
 649              	.Ldebug_info0:
 650 0000 E4140000 		.4byte	0x14e4
 651 0004 0400     		.2byte	0x4
 652 0006 00000000 		.4byte	.Ldebug_abbrev0
 653 000a 04       		.byte	0x4
 654 000b 01       		.uleb128 0x1
 655 000c B3030000 		.4byte	.LASF190
 656 0010 0C       		.byte	0xc
 657 0011 69080000 		.4byte	.LASF191
 658 0015 B9040000 		.4byte	.LASF192
 659 0019 48000000 		.4byte	.Ldebug_ranges0+0x48
 660 001d 00000000 		.4byte	0
 661 0021 00000000 		.4byte	.Ldebug_line0
 662 0025 02       		.uleb128 0x2
 663 0026 04       		.byte	0x4
 664 0027 05       		.byte	0x5
 665 0028 696E7400 		.ascii	"int\000"
 666 002c 03       		.uleb128 0x3
 667 002d 24000000 		.4byte	.LASF4
 668 0031 05       		.byte	0x5
 669 0032 D8       		.byte	0xd8
ARM GAS  /tmp/ccT99met.s 			page 13


 670 0033 37000000 		.4byte	0x37
 671 0037 04       		.uleb128 0x4
 672 0038 04       		.byte	0x4
 673 0039 07       		.byte	0x7
 674 003a 8A020000 		.4byte	.LASF0
 675 003e 04       		.uleb128 0x4
 676 003f 08       		.byte	0x8
 677 0040 05       		.byte	0x5
 678 0041 33010000 		.4byte	.LASF1
 679 0045 04       		.uleb128 0x4
 680 0046 08       		.byte	0x8
 681 0047 04       		.byte	0x4
 682 0048 51070000 		.4byte	.LASF2
 683 004c 04       		.uleb128 0x4
 684 004d 01       		.byte	0x1
 685 004e 06       		.byte	0x6
 686 004f 41010000 		.4byte	.LASF3
 687 0053 03       		.uleb128 0x3
 688 0054 3B000000 		.4byte	.LASF5
 689 0058 06       		.byte	0x6
 690 0059 1D       		.byte	0x1d
 691 005a 5E000000 		.4byte	0x5e
 692 005e 04       		.uleb128 0x4
 693 005f 01       		.byte	0x1
 694 0060 08       		.byte	0x8
 695 0061 0A060000 		.4byte	.LASF6
 696 0065 04       		.uleb128 0x4
 697 0066 02       		.byte	0x2
 698 0067 05       		.byte	0x5
 699 0068 4C060000 		.4byte	.LASF7
 700 006c 03       		.uleb128 0x3
 701 006d 3D070000 		.4byte	.LASF8
 702 0071 06       		.byte	0x6
 703 0072 2B       		.byte	0x2b
 704 0073 77000000 		.4byte	0x77
 705 0077 04       		.uleb128 0x4
 706 0078 02       		.byte	0x2
 707 0079 07       		.byte	0x7
 708 007a F0010000 		.4byte	.LASF9
 709 007e 03       		.uleb128 0x3
 710 007f CD000000 		.4byte	.LASF10
 711 0083 06       		.byte	0x6
 712 0084 3F       		.byte	0x3f
 713 0085 89000000 		.4byte	0x89
 714 0089 04       		.uleb128 0x4
 715 008a 04       		.byte	0x4
 716 008b 05       		.byte	0x5
 717 008c 92010000 		.4byte	.LASF11
 718 0090 03       		.uleb128 0x3
 719 0091 82070000 		.4byte	.LASF12
 720 0095 06       		.byte	0x6
 721 0096 41       		.byte	0x41
 722 0097 9B000000 		.4byte	0x9b
 723 009b 04       		.uleb128 0x4
 724 009c 04       		.byte	0x4
 725 009d 07       		.byte	0x7
 726 009e 02070000 		.4byte	.LASF13
ARM GAS  /tmp/ccT99met.s 			page 14


 727 00a2 03       		.uleb128 0x3
 728 00a3 A8050000 		.4byte	.LASF14
 729 00a7 06       		.byte	0x6
 730 00a8 5B       		.byte	0x5b
 731 00a9 AD000000 		.4byte	0xad
 732 00ad 04       		.uleb128 0x4
 733 00ae 08       		.byte	0x8
 734 00af 07       		.byte	0x7
 735 00b0 89000000 		.4byte	.LASF15
 736 00b4 03       		.uleb128 0x3
 737 00b5 61080000 		.4byte	.LASF16
 738 00b9 07       		.byte	0x7
 739 00ba 15       		.byte	0x15
 740 00bb 53000000 		.4byte	0x53
 741 00bf 03       		.uleb128 0x3
 742 00c0 9F020000 		.4byte	.LASF17
 743 00c4 07       		.byte	0x7
 744 00c5 21       		.byte	0x21
 745 00c6 6C000000 		.4byte	0x6c
 746 00ca 03       		.uleb128 0x3
 747 00cb 02060000 		.4byte	.LASF18
 748 00cf 07       		.byte	0x7
 749 00d0 2C       		.byte	0x2c
 750 00d1 7E000000 		.4byte	0x7e
 751 00d5 03       		.uleb128 0x3
 752 00d6 CD060000 		.4byte	.LASF19
 753 00da 07       		.byte	0x7
 754 00db 2D       		.byte	0x2d
 755 00dc 90000000 		.4byte	0x90
 756 00e0 03       		.uleb128 0x3
 757 00e1 32000000 		.4byte	.LASF20
 758 00e5 07       		.byte	0x7
 759 00e6 39       		.byte	0x39
 760 00e7 A2000000 		.4byte	0xa2
 761 00eb 05       		.uleb128 0x5
 762 00ec CA000000 		.4byte	0xca
 763 00f0 05       		.uleb128 0x5
 764 00f1 D5000000 		.4byte	0xd5
 765 00f5 03       		.uleb128 0x3
 766 00f6 E1070000 		.4byte	.LASF21
 767 00fa 08       		.byte	0x8
 768 00fb 45       		.byte	0x45
 769 00fc D5000000 		.4byte	0xd5
 770 0100 03       		.uleb128 0x3
 771 0101 65030000 		.4byte	.LASF22
 772 0105 08       		.byte	0x8
 773 0106 48       		.byte	0x48
 774 0107 B4000000 		.4byte	0xb4
 775 010b 03       		.uleb128 0x3
 776 010c A8010000 		.4byte	.LASF23
 777 0110 08       		.byte	0x8
 778 0111 49       		.byte	0x49
 779 0112 B4000000 		.4byte	0xb4
 780 0116 03       		.uleb128 0x3
 781 0117 0F000000 		.4byte	.LASF24
 782 011b 08       		.byte	0x8
 783 011c 4A       		.byte	0x4a
ARM GAS  /tmp/ccT99met.s 			page 15


 784 011d B4000000 		.4byte	0xb4
 785 0121 03       		.uleb128 0x3
 786 0122 DC050000 		.4byte	.LASF25
 787 0126 08       		.byte	0x8
 788 0127 4C       		.byte	0x4c
 789 0128 D5000000 		.4byte	0xd5
 790 012c 03       		.uleb128 0x3
 791 012d 2F030000 		.4byte	.LASF26
 792 0131 08       		.byte	0x8
 793 0132 4D       		.byte	0x4d
 794 0133 CA000000 		.4byte	0xca
 795 0137 03       		.uleb128 0x3
 796 0138 7B030000 		.4byte	.LASF27
 797 013c 08       		.byte	0x8
 798 013d 4F       		.byte	0x4f
 799 013e D5000000 		.4byte	0xd5
 800 0142 03       		.uleb128 0x3
 801 0143 F9070000 		.4byte	.LASF28
 802 0147 08       		.byte	0x8
 803 0148 50       		.byte	0x50
 804 0149 D5000000 		.4byte	0xd5
 805 014d 03       		.uleb128 0x3
 806 014e 7E020000 		.4byte	.LASF29
 807 0152 08       		.byte	0x8
 808 0153 51       		.byte	0x51
 809 0154 CA000000 		.4byte	0xca
 810 0158 03       		.uleb128 0x3
 811 0159 64070000 		.4byte	.LASF30
 812 015d 09       		.byte	0x9
 813 015e 33       		.byte	0x33
 814 015f D5000000 		.4byte	0xd5
 815 0163 03       		.uleb128 0x3
 816 0164 48070000 		.4byte	.LASF31
 817 0168 09       		.byte	0x9
 818 0169 3F       		.byte	0x3f
 819 016a 6E010000 		.4byte	0x16e
 820 016e 06       		.uleb128 0x6
 821 016f 1B030000 		.4byte	.LASF51
 822 0173 44       		.byte	0x44
 823 0174 0A       		.byte	0xa
 824 0175 C2       		.byte	0xc2
 825 0176 5B020000 		.4byte	0x25b
 826 017a 07       		.uleb128 0x7
 827 017b 64060000 		.4byte	.LASF32
 828 017f 0A       		.byte	0xa
 829 0180 C3       		.byte	0xc3
 830 0181 66020000 		.4byte	0x266
 831 0185 00       		.byte	0
 832 0186 07       		.uleb128 0x7
 833 0187 D5050000 		.4byte	.LASF33
 834 018b 0A       		.byte	0xa
 835 018c C5       		.byte	0xc5
 836 018d 66020000 		.4byte	0x266
 837 0191 04       		.byte	0x4
 838 0192 07       		.uleb128 0x7
 839 0193 3F050000 		.4byte	.LASF34
 840 0197 0A       		.byte	0xa
ARM GAS  /tmp/ccT99met.s 			page 16


 841 0198 C7       		.byte	0xc7
 842 0199 21010000 		.4byte	0x121
 843 019d 08       		.byte	0x8
 844 019e 07       		.uleb128 0x7
 845 019f EA080000 		.4byte	.LASF35
 846 01a3 0A       		.byte	0xa
 847 01a4 C8       		.byte	0xc8
 848 01a5 05050000 		.4byte	0x505
 849 01a9 0C       		.byte	0xc
 850 01aa 07       		.uleb128 0x7
 851 01ab E0010000 		.4byte	.LASF36
 852 01af 0A       		.byte	0xa
 853 01b0 CA       		.byte	0xca
 854 01b1 66020000 		.4byte	0x266
 855 01b5 10       		.byte	0x10
 856 01b6 07       		.uleb128 0x7
 857 01b7 52050000 		.4byte	.LASF37
 858 01bb 0A       		.byte	0xa
 859 01bc CB       		.byte	0xcb
 860 01bd 66020000 		.4byte	0x266
 861 01c1 14       		.byte	0x14
 862 01c2 07       		.uleb128 0x7
 863 01c3 7C060000 		.4byte	.LASF38
 864 01c7 0A       		.byte	0xa
 865 01c8 D2       		.byte	0xd2
 866 01c9 4A070000 		.4byte	0x74a
 867 01cd 18       		.byte	0x18
 868 01ce 07       		.uleb128 0x7
 869 01cf 3A060000 		.4byte	.LASF39
 870 01d3 0A       		.byte	0xa
 871 01d4 DD       		.byte	0xdd
 872 01d5 0B010000 		.4byte	0x10b
 873 01d9 1C       		.byte	0x1c
 874 01da 07       		.uleb128 0x7
 875 01db 6B060000 		.4byte	.LASF40
 876 01df 0A       		.byte	0xa
 877 01e0 E1       		.byte	0xe1
 878 01e1 00010000 		.4byte	0x100
 879 01e5 1D       		.byte	0x1d
 880 01e6 07       		.uleb128 0x7
 881 01e7 78050000 		.4byte	.LASF41
 882 01eb 0A       		.byte	0xa
 883 01ec E6       		.byte	0xe6
 884 01ed 16010000 		.4byte	0x116
 885 01f1 1E       		.byte	0x1e
 886 01f2 08       		.uleb128 0x8
 887 01f3 705F7500 		.ascii	"p_u\000"
 888 01f7 0A       		.byte	0xa
 889 01f8 3101     		.2byte	0x131
 890 01fa 85060000 		.4byte	0x685
 891 01fe 20       		.byte	0x20
 892 01ff 09       		.uleb128 0x9
 893 0200 16090000 		.4byte	.LASF42
 894 0204 0A       		.byte	0xa
 895 0205 3601     		.2byte	0x136
 896 0207 6C020000 		.4byte	0x26c
 897 020b 24       		.byte	0x24
ARM GAS  /tmp/ccT99met.s 			page 17


 898 020c 09       		.uleb128 0x9
 899 020d DB020000 		.4byte	.LASF43
 900 0211 0A       		.byte	0xa
 901 0212 3C01     		.2byte	0x13c
 902 0214 90020000 		.4byte	0x290
 903 0218 28       		.byte	0x28
 904 0219 09       		.uleb128 0x9
 905 021a BA080000 		.4byte	.LASF44
 906 021e 0A       		.byte	0xa
 907 021f 4001     		.2byte	0x140
 908 0221 2C010000 		.4byte	0x12c
 909 0225 30       		.byte	0x30
 910 0226 09       		.uleb128 0x9
 911 0227 B8060000 		.4byte	.LASF45
 912 022b 0A       		.byte	0xa
 913 022c 4601     		.2byte	0x146
 914 022e 37010000 		.4byte	0x137
 915 0232 34       		.byte	0x34
 916 0233 09       		.uleb128 0x9
 917 0234 42060000 		.4byte	.LASF46
 918 0238 0A       		.byte	0xa
 919 0239 4D01     		.2byte	0x14d
 920 023b 44070000 		.4byte	0x744
 921 023f 38       		.byte	0x38
 922 0240 09       		.uleb128 0x9
 923 0241 6E070000 		.4byte	.LASF47
 924 0245 0A       		.byte	0xa
 925 0246 5101     		.2byte	0x151
 926 0248 21010000 		.4byte	0x121
 927 024c 3C       		.byte	0x3c
 928 024d 09       		.uleb128 0x9
 929 024e 52010000 		.4byte	.LASF48
 930 0252 0A       		.byte	0xa
 931 0253 5801     		.2byte	0x158
 932 0255 43030000 		.4byte	0x343
 933 0259 40       		.byte	0x40
 934 025a 00       		.byte	0
 935 025b 03       		.uleb128 0x3
 936 025c 05050000 		.4byte	.LASF49
 937 0260 09       		.byte	0x9
 938 0261 44       		.byte	0x44
 939 0262 66020000 		.4byte	0x266
 940 0266 0A       		.uleb128 0xa
 941 0267 04       		.byte	0x4
 942 0268 63010000 		.4byte	0x163
 943 026c 03       		.uleb128 0x3
 944 026d 9F080000 		.4byte	.LASF50
 945 0271 09       		.byte	0x9
 946 0272 49       		.byte	0x49
 947 0273 77020000 		.4byte	0x277
 948 0277 06       		.uleb128 0x6
 949 0278 E5060000 		.4byte	.LASF52
 950 027c 04       		.byte	0x4
 951 027d 0A       		.byte	0xa
 952 027e B0       		.byte	0xb0
 953 027f 90020000 		.4byte	0x290
 954 0283 07       		.uleb128 0x7
ARM GAS  /tmp/ccT99met.s 			page 18


 955 0284 64060000 		.4byte	.LASF32
 956 0288 0A       		.byte	0xa
 957 0289 B1       		.byte	0xb1
 958 028a 66020000 		.4byte	0x266
 959 028e 00       		.byte	0
 960 028f 00       		.byte	0
 961 0290 03       		.uleb128 0x3
 962 0291 9B060000 		.4byte	.LASF53
 963 0295 09       		.byte	0x9
 964 0296 50       		.byte	0x50
 965 0297 9B020000 		.4byte	0x29b
 966 029b 06       		.uleb128 0x6
 967 029c 05010000 		.4byte	.LASF54
 968 02a0 08       		.byte	0x8
 969 02a1 0A       		.byte	0xa
 970 02a2 B7       		.byte	0xb7
 971 02a3 C0020000 		.4byte	0x2c0
 972 02a7 07       		.uleb128 0x7
 973 02a8 64060000 		.4byte	.LASF32
 974 02ac 0A       		.byte	0xa
 975 02ad B8       		.byte	0xb8
 976 02ae 66020000 		.4byte	0x266
 977 02b2 00       		.byte	0
 978 02b3 07       		.uleb128 0x7
 979 02b4 D5050000 		.4byte	.LASF33
 980 02b8 0A       		.byte	0xa
 981 02b9 B9       		.byte	0xb9
 982 02ba 66020000 		.4byte	0x266
 983 02be 04       		.byte	0x4
 984 02bf 00       		.byte	0
 985 02c0 03       		.uleb128 0x3
 986 02c1 17000000 		.4byte	.LASF55
 987 02c5 09       		.byte	0x9
 988 02c6 57       		.byte	0x57
 989 02c7 CB020000 		.4byte	0x2cb
 990 02cb 0B       		.uleb128 0xb
 991 02cc 6D030000 		.4byte	.LASF56
 992 02d0 1C       		.byte	0x1c
 993 02d1 0A       		.byte	0xa
 994 02d2 9001     		.2byte	0x190
 995 02d4 27030000 		.4byte	0x327
 996 02d8 09       		.uleb128 0x9
 997 02d9 DD060000 		.4byte	.LASF57
 998 02dd 0A       		.byte	0xa
 999 02de 9101     		.2byte	0x191
 1000 02e0 90020000 		.4byte	0x290
 1001 02e4 00       		.byte	0
 1002 02e5 09       		.uleb128 0x9
 1003 02e6 56060000 		.4byte	.LASF58
 1004 02ea 0A       		.byte	0xa
 1005 02eb 9201     		.2byte	0x192
 1006 02ed 21010000 		.4byte	0x121
 1007 02f1 08       		.byte	0x8
 1008 02f2 09       		.uleb128 0x9
 1009 02f3 5A050000 		.4byte	.LASF59
 1010 02f7 0A       		.byte	0xa
 1011 02f8 9401     		.2byte	0x194
ARM GAS  /tmp/ccT99met.s 			page 19


 1012 02fa 05050000 		.4byte	0x505
 1013 02fe 0C       		.byte	0xc
 1014 02ff 09       		.uleb128 0x9
 1015 0300 14020000 		.4byte	.LASF60
 1016 0304 0A       		.byte	0xa
 1017 0305 9701     		.2byte	0x197
 1018 0307 66020000 		.4byte	0x266
 1019 030b 10       		.byte	0x10
 1020 030c 09       		.uleb128 0x9
 1021 030d 89050000 		.4byte	.LASF61
 1022 0311 0A       		.byte	0xa
 1023 0312 9801     		.2byte	0x198
 1024 0314 66020000 		.4byte	0x266
 1025 0318 14       		.byte	0x14
 1026 0319 09       		.uleb128 0x9
 1027 031a 7F050000 		.4byte	.LASF62
 1028 031e 0A       		.byte	0xa
 1029 031f 9B01     		.2byte	0x19b
 1030 0321 66020000 		.4byte	0x266
 1031 0325 18       		.byte	0x18
 1032 0326 00       		.byte	0
 1033 0327 03       		.uleb128 0x3
 1034 0328 79070000 		.4byte	.LASF63
 1035 032c 09       		.byte	0x9
 1036 032d 5C       		.byte	0x5c
 1037 032e 32030000 		.4byte	0x332
 1038 0332 0A       		.uleb128 0xa
 1039 0333 04       		.byte	0x4
 1040 0334 38030000 		.4byte	0x338
 1041 0338 0C       		.uleb128 0xc
 1042 0339 43030000 		.4byte	0x343
 1043 033d 0D       		.uleb128 0xd
 1044 033e 43030000 		.4byte	0x343
 1045 0342 00       		.byte	0
 1046 0343 0E       		.uleb128 0xe
 1047 0344 04       		.byte	0x4
 1048 0345 03       		.uleb128 0x3
 1049 0346 C5050000 		.4byte	.LASF64
 1050 034a 09       		.byte	0x9
 1051 034b 61       		.byte	0x61
 1052 034c 50030000 		.4byte	0x350
 1053 0350 0B       		.uleb128 0xb
 1054 0351 D0070000 		.4byte	.LASF65
 1055 0355 14       		.byte	0x14
 1056 0356 0A       		.byte	0xa
 1057 0357 6B01     		.2byte	0x16b
 1058 0359 9F030000 		.4byte	0x39f
 1059 035d 09       		.uleb128 0x9
 1060 035e 97020000 		.4byte	.LASF66
 1061 0362 0A       		.byte	0xa
 1062 0363 6C01     		.2byte	0x16c
 1063 0365 5C070000 		.4byte	0x75c
 1064 0369 00       		.byte	0
 1065 036a 09       		.uleb128 0x9
 1066 036b 25020000 		.4byte	.LASF67
 1067 036f 0A       		.byte	0xa
 1068 0370 6D01     		.2byte	0x16d
ARM GAS  /tmp/ccT99met.s 			page 20


 1069 0372 5C070000 		.4byte	0x75c
 1070 0376 04       		.byte	0x4
 1071 0377 09       		.uleb128 0x9
 1072 0378 D2020000 		.4byte	.LASF68
 1073 037c 0A       		.byte	0xa
 1074 037d 6E01     		.2byte	0x16e
 1075 037f 58010000 		.4byte	0x158
 1076 0383 08       		.byte	0x8
 1077 0384 09       		.uleb128 0x9
 1078 0385 F0080000 		.4byte	.LASF69
 1079 0389 0A       		.byte	0xa
 1080 038a 6F01     		.2byte	0x16f
 1081 038c 27030000 		.4byte	0x327
 1082 0390 0C       		.byte	0xc
 1083 0391 09       		.uleb128 0x9
 1084 0392 F2070000 		.4byte	.LASF70
 1085 0396 0A       		.byte	0xa
 1086 0397 7101     		.2byte	0x171
 1087 0399 43030000 		.4byte	0x343
 1088 039d 10       		.byte	0x10
 1089 039e 00       		.byte	0
 1090 039f 03       		.uleb128 0x3
 1091 03a0 D7000000 		.4byte	.LASF71
 1092 03a4 09       		.byte	0x9
 1093 03a5 66       		.byte	0x66
 1094 03a6 AA030000 		.4byte	0x3aa
 1095 03aa 0B       		.uleb128 0xb
 1096 03ab 18050000 		.4byte	.LASF72
 1097 03af 10       		.byte	0x10
 1098 03b0 0A       		.byte	0xa
 1099 03b1 7B01     		.2byte	0x17b
 1100 03b3 EC030000 		.4byte	0x3ec
 1101 03b7 09       		.uleb128 0x9
 1102 03b8 97020000 		.4byte	.LASF66
 1103 03bc 0A       		.byte	0xa
 1104 03bd 7C01     		.2byte	0x17c
 1105 03bf 5C070000 		.4byte	0x75c
 1106 03c3 00       		.byte	0
 1107 03c4 09       		.uleb128 0x9
 1108 03c5 25020000 		.4byte	.LASF67
 1109 03c9 0A       		.byte	0xa
 1110 03ca 7E01     		.2byte	0x17e
 1111 03cc 5C070000 		.4byte	0x75c
 1112 03d0 04       		.byte	0x4
 1113 03d1 09       		.uleb128 0x9
 1114 03d2 D2020000 		.4byte	.LASF68
 1115 03d6 0A       		.byte	0xa
 1116 03d7 8001     		.2byte	0x180
 1117 03d9 58010000 		.4byte	0x158
 1118 03dd 08       		.byte	0x8
 1119 03de 09       		.uleb128 0x9
 1120 03df 46050000 		.4byte	.LASF73
 1121 03e3 0A       		.byte	0xa
 1122 03e4 8801     		.2byte	0x188
 1123 03e6 58010000 		.4byte	0x158
 1124 03ea 0C       		.byte	0xc
 1125 03eb 00       		.byte	0
ARM GAS  /tmp/ccT99met.s 			page 21


 1126 03ec 03       		.uleb128 0x3
 1127 03ed 51000000 		.4byte	.LASF74
 1128 03f1 09       		.byte	0x9
 1129 03f2 6B       		.byte	0x6b
 1130 03f3 F7030000 		.4byte	0x3f7
 1131 03f7 0B       		.uleb128 0xb
 1132 03f8 EC050000 		.4byte	.LASF75
 1133 03fc 04       		.byte	0x4
 1134 03fd 0A       		.byte	0xa
 1135 03fe A201     		.2byte	0x1a2
 1136 0400 12040000 		.4byte	0x412
 1137 0404 09       		.uleb128 0x9
 1138 0405 9B070000 		.4byte	.LASF76
 1139 0409 0A       		.byte	0xa
 1140 040a AA01     		.2byte	0x1aa
 1141 040c 62070000 		.4byte	0x762
 1142 0410 00       		.byte	0
 1143 0411 00       		.byte	0
 1144 0412 03       		.uleb128 0x3
 1145 0413 44030000 		.4byte	.LASF77
 1146 0417 09       		.byte	0x9
 1147 0418 70       		.byte	0x70
 1148 0419 1D040000 		.4byte	0x41d
 1149 041d 0F       		.uleb128 0xf
 1150 041e 88010000 		.4byte	.LASF78
 1151 0422 D801     		.2byte	0x1d8
 1152 0424 0A       		.byte	0xa
 1153 0425 C201     		.2byte	0x1c2
 1154 0427 79040000 		.4byte	0x479
 1155 042b 09       		.uleb128 0x9
 1156 042c 4C080000 		.4byte	.LASF79
 1157 0430 0A       		.byte	0xa
 1158 0431 C601     		.2byte	0x1c6
 1159 0433 C0020000 		.4byte	0x2c0
 1160 0437 00       		.byte	0
 1161 0438 09       		.uleb128 0x9
 1162 0439 2D020000 		.4byte	.LASF80
 1163 043d 0A       		.byte	0xa
 1164 043e CA01     		.2byte	0x1ca
 1165 0440 9F030000 		.4byte	0x39f
 1166 0444 1C       		.byte	0x1c
 1167 0445 08       		.uleb128 0x8
 1168 0446 64626700 		.ascii	"dbg\000"
 1169 044a 0A       		.byte	0xa
 1170 044b CE01     		.2byte	0x1ce
 1171 044d EC030000 		.4byte	0x3ec
 1172 0451 2C       		.byte	0x2c
 1173 0452 09       		.uleb128 0x9
 1174 0453 C2000000 		.4byte	.LASF81
 1175 0457 0A       		.byte	0xa
 1176 0458 D201     		.2byte	0x1d2
 1177 045a 63010000 		.4byte	0x163
 1178 045e 30       		.byte	0x30
 1179 045f 08       		.uleb128 0x8
 1180 0460 746D00   		.ascii	"tm\000"
 1181 0463 0A       		.byte	0xa
 1182 0464 D701     		.2byte	0x1d7
ARM GAS  /tmp/ccT99met.s 			page 22


 1183 0466 7A060000 		.4byte	0x67a
 1184 046a 74       		.byte	0x74
 1185 046b 09       		.uleb128 0x9
 1186 046c 6F020000 		.4byte	.LASF82
 1187 0470 0A       		.byte	0xa
 1188 0471 E301     		.2byte	0x1e3
 1189 0473 67070000 		.4byte	0x767
 1190 0477 78       		.byte	0x78
 1191 0478 00       		.byte	0
 1192 0479 04       		.uleb128 0x4
 1193 047a 04       		.byte	0x4
 1194 047b 07       		.byte	0x7
 1195 047c FC040000 		.4byte	.LASF83
 1196 0480 10       		.uleb128 0x10
 1197 0481 1C       		.byte	0x1c
 1198 0482 0B       		.byte	0xb
 1199 0483 0602     		.2byte	0x206
 1200 0485 E3040000 		.4byte	0x4e3
 1201 0489 08       		.uleb128 0x8
 1202 048a 535200   		.ascii	"SR\000"
 1203 048d 0B       		.byte	0xb
 1204 048e 0802     		.2byte	0x208
 1205 0490 F0000000 		.4byte	0xf0
 1206 0494 00       		.byte	0
 1207 0495 08       		.uleb128 0x8
 1208 0496 445200   		.ascii	"DR\000"
 1209 0499 0B       		.byte	0xb
 1210 049a 0902     		.2byte	0x209
 1211 049c F0000000 		.4byte	0xf0
 1212 04a0 04       		.byte	0x4
 1213 04a1 08       		.uleb128 0x8
 1214 04a2 42525200 		.ascii	"BRR\000"
 1215 04a6 0B       		.byte	0xb
 1216 04a7 0A02     		.2byte	0x20a
 1217 04a9 F0000000 		.4byte	0xf0
 1218 04ad 08       		.byte	0x8
 1219 04ae 08       		.uleb128 0x8
 1220 04af 43523100 		.ascii	"CR1\000"
 1221 04b3 0B       		.byte	0xb
 1222 04b4 0B02     		.2byte	0x20b
 1223 04b6 F0000000 		.4byte	0xf0
 1224 04ba 0C       		.byte	0xc
 1225 04bb 08       		.uleb128 0x8
 1226 04bc 43523200 		.ascii	"CR2\000"
 1227 04c0 0B       		.byte	0xb
 1228 04c1 0C02     		.2byte	0x20c
 1229 04c3 F0000000 		.4byte	0xf0
 1230 04c7 10       		.byte	0x10
 1231 04c8 08       		.uleb128 0x8
 1232 04c9 43523300 		.ascii	"CR3\000"
 1233 04cd 0B       		.byte	0xb
 1234 04ce 0D02     		.2byte	0x20d
 1235 04d0 F0000000 		.4byte	0xf0
 1236 04d4 14       		.byte	0x14
 1237 04d5 09       		.uleb128 0x9
 1238 04d6 4D010000 		.4byte	.LASF84
 1239 04da 0B       		.byte	0xb
ARM GAS  /tmp/ccT99met.s 			page 23


 1240 04db 0E02     		.2byte	0x20e
 1241 04dd F0000000 		.4byte	0xf0
 1242 04e1 18       		.byte	0x18
 1243 04e2 00       		.byte	0
 1244 04e3 11       		.uleb128 0x11
 1245 04e4 50030000 		.4byte	.LASF85
 1246 04e8 0B       		.byte	0xb
 1247 04e9 0F02     		.2byte	0x20f
 1248 04eb 80040000 		.4byte	0x480
 1249 04ef 03       		.uleb128 0x3
 1250 04f0 1C020000 		.4byte	.LASF86
 1251 04f4 0C       		.byte	0xc
 1252 04f5 65       		.byte	0x65
 1253 04f6 43030000 		.4byte	0x343
 1254 04fa 03       		.uleb128 0x3
 1255 04fb 97030000 		.4byte	.LASF87
 1256 04ff 0C       		.byte	0xc
 1257 0500 6D       		.byte	0x6d
 1258 0501 E0000000 		.4byte	0xe0
 1259 0505 06       		.uleb128 0x6
 1260 0506 C8070000 		.4byte	.LASF88
 1261 050a 04       		.byte	0x4
 1262 050b 0C       		.byte	0xc
 1263 050c 89       		.byte	0x89
 1264 050d 1E050000 		.4byte	0x51e
 1265 0511 12       		.uleb128 0x12
 1266 0512 72313300 		.ascii	"r13\000"
 1267 0516 0C       		.byte	0xc
 1268 0517 8A       		.byte	0x8a
 1269 0518 5F060000 		.4byte	0x65f
 1270 051c 00       		.byte	0
 1271 051d 00       		.byte	0
 1272 051e 06       		.uleb128 0x6
 1273 051f 45000000 		.4byte	.LASF89
 1274 0523 64       		.byte	0x64
 1275 0524 0D       		.byte	0xd
 1276 0525 F4       		.byte	0xf4
 1277 0526 5F060000 		.4byte	0x65f
 1278 052a 12       		.uleb128 0x12
 1279 052b 73313600 		.ascii	"s16\000"
 1280 052f 0D       		.byte	0xd
 1281 0530 F6       		.byte	0xf6
 1282 0531 EF040000 		.4byte	0x4ef
 1283 0535 00       		.byte	0
 1284 0536 12       		.uleb128 0x12
 1285 0537 73313700 		.ascii	"s17\000"
 1286 053b 0D       		.byte	0xd
 1287 053c F7       		.byte	0xf7
 1288 053d EF040000 		.4byte	0x4ef
 1289 0541 04       		.byte	0x4
 1290 0542 12       		.uleb128 0x12
 1291 0543 73313800 		.ascii	"s18\000"
 1292 0547 0D       		.byte	0xd
 1293 0548 F8       		.byte	0xf8
 1294 0549 EF040000 		.4byte	0x4ef
 1295 054d 08       		.byte	0x8
 1296 054e 12       		.uleb128 0x12
ARM GAS  /tmp/ccT99met.s 			page 24


 1297 054f 73313900 		.ascii	"s19\000"
 1298 0553 0D       		.byte	0xd
 1299 0554 F9       		.byte	0xf9
 1300 0555 EF040000 		.4byte	0x4ef
 1301 0559 0C       		.byte	0xc
 1302 055a 12       		.uleb128 0x12
 1303 055b 73323000 		.ascii	"s20\000"
 1304 055f 0D       		.byte	0xd
 1305 0560 FA       		.byte	0xfa
 1306 0561 EF040000 		.4byte	0x4ef
 1307 0565 10       		.byte	0x10
 1308 0566 12       		.uleb128 0x12
 1309 0567 73323100 		.ascii	"s21\000"
 1310 056b 0D       		.byte	0xd
 1311 056c FB       		.byte	0xfb
 1312 056d EF040000 		.4byte	0x4ef
 1313 0571 14       		.byte	0x14
 1314 0572 12       		.uleb128 0x12
 1315 0573 73323200 		.ascii	"s22\000"
 1316 0577 0D       		.byte	0xd
 1317 0578 FC       		.byte	0xfc
 1318 0579 EF040000 		.4byte	0x4ef
 1319 057d 18       		.byte	0x18
 1320 057e 12       		.uleb128 0x12
 1321 057f 73323300 		.ascii	"s23\000"
 1322 0583 0D       		.byte	0xd
 1323 0584 FD       		.byte	0xfd
 1324 0585 EF040000 		.4byte	0x4ef
 1325 0589 1C       		.byte	0x1c
 1326 058a 12       		.uleb128 0x12
 1327 058b 73323400 		.ascii	"s24\000"
 1328 058f 0D       		.byte	0xd
 1329 0590 FE       		.byte	0xfe
 1330 0591 EF040000 		.4byte	0x4ef
 1331 0595 20       		.byte	0x20
 1332 0596 12       		.uleb128 0x12
 1333 0597 73323500 		.ascii	"s25\000"
 1334 059b 0D       		.byte	0xd
 1335 059c FF       		.byte	0xff
 1336 059d EF040000 		.4byte	0x4ef
 1337 05a1 24       		.byte	0x24
 1338 05a2 08       		.uleb128 0x8
 1339 05a3 73323600 		.ascii	"s26\000"
 1340 05a7 0D       		.byte	0xd
 1341 05a8 0001     		.2byte	0x100
 1342 05aa EF040000 		.4byte	0x4ef
 1343 05ae 28       		.byte	0x28
 1344 05af 08       		.uleb128 0x8
 1345 05b0 73323700 		.ascii	"s27\000"
 1346 05b4 0D       		.byte	0xd
 1347 05b5 0101     		.2byte	0x101
 1348 05b7 EF040000 		.4byte	0x4ef
 1349 05bb 2C       		.byte	0x2c
 1350 05bc 08       		.uleb128 0x8
 1351 05bd 73323800 		.ascii	"s28\000"
 1352 05c1 0D       		.byte	0xd
 1353 05c2 0201     		.2byte	0x102
ARM GAS  /tmp/ccT99met.s 			page 25


 1354 05c4 EF040000 		.4byte	0x4ef
 1355 05c8 30       		.byte	0x30
 1356 05c9 08       		.uleb128 0x8
 1357 05ca 73323900 		.ascii	"s29\000"
 1358 05ce 0D       		.byte	0xd
 1359 05cf 0301     		.2byte	0x103
 1360 05d1 EF040000 		.4byte	0x4ef
 1361 05d5 34       		.byte	0x34
 1362 05d6 08       		.uleb128 0x8
 1363 05d7 73333000 		.ascii	"s30\000"
 1364 05db 0D       		.byte	0xd
 1365 05dc 0401     		.2byte	0x104
 1366 05de EF040000 		.4byte	0x4ef
 1367 05e2 38       		.byte	0x38
 1368 05e3 08       		.uleb128 0x8
 1369 05e4 73333100 		.ascii	"s31\000"
 1370 05e8 0D       		.byte	0xd
 1371 05e9 0501     		.2byte	0x105
 1372 05eb EF040000 		.4byte	0x4ef
 1373 05ef 3C       		.byte	0x3c
 1374 05f0 08       		.uleb128 0x8
 1375 05f1 723400   		.ascii	"r4\000"
 1376 05f4 0D       		.byte	0xd
 1377 05f5 0701     		.2byte	0x107
 1378 05f7 EF040000 		.4byte	0x4ef
 1379 05fb 40       		.byte	0x40
 1380 05fc 08       		.uleb128 0x8
 1381 05fd 723500   		.ascii	"r5\000"
 1382 0600 0D       		.byte	0xd
 1383 0601 0801     		.2byte	0x108
 1384 0603 EF040000 		.4byte	0x4ef
 1385 0607 44       		.byte	0x44
 1386 0608 08       		.uleb128 0x8
 1387 0609 723600   		.ascii	"r6\000"
 1388 060c 0D       		.byte	0xd
 1389 060d 0901     		.2byte	0x109
 1390 060f EF040000 		.4byte	0x4ef
 1391 0613 48       		.byte	0x48
 1392 0614 08       		.uleb128 0x8
 1393 0615 723700   		.ascii	"r7\000"
 1394 0618 0D       		.byte	0xd
 1395 0619 0A01     		.2byte	0x10a
 1396 061b EF040000 		.4byte	0x4ef
 1397 061f 4C       		.byte	0x4c
 1398 0620 08       		.uleb128 0x8
 1399 0621 723800   		.ascii	"r8\000"
 1400 0624 0D       		.byte	0xd
 1401 0625 0B01     		.2byte	0x10b
 1402 0627 EF040000 		.4byte	0x4ef
 1403 062b 50       		.byte	0x50
 1404 062c 08       		.uleb128 0x8
 1405 062d 723900   		.ascii	"r9\000"
 1406 0630 0D       		.byte	0xd
 1407 0631 0C01     		.2byte	0x10c
 1408 0633 EF040000 		.4byte	0x4ef
 1409 0637 54       		.byte	0x54
 1410 0638 08       		.uleb128 0x8
ARM GAS  /tmp/ccT99met.s 			page 26


 1411 0639 72313000 		.ascii	"r10\000"
 1412 063d 0D       		.byte	0xd
 1413 063e 0D01     		.2byte	0x10d
 1414 0640 EF040000 		.4byte	0x4ef
 1415 0644 58       		.byte	0x58
 1416 0645 08       		.uleb128 0x8
 1417 0646 72313100 		.ascii	"r11\000"
 1418 064a 0D       		.byte	0xd
 1419 064b 0E01     		.2byte	0x10e
 1420 064d EF040000 		.4byte	0x4ef
 1421 0651 5C       		.byte	0x5c
 1422 0652 08       		.uleb128 0x8
 1423 0653 6C7200   		.ascii	"lr\000"
 1424 0656 0D       		.byte	0xd
 1425 0657 0F01     		.2byte	0x10f
 1426 0659 EF040000 		.4byte	0x4ef
 1427 065d 60       		.byte	0x60
 1428 065e 00       		.byte	0
 1429 065f 0A       		.uleb128 0xa
 1430 0660 04       		.byte	0x4
 1431 0661 1E050000 		.4byte	0x51e
 1432 0665 13       		.uleb128 0x13
 1433 0666 04       		.byte	0x4
 1434 0667 0E       		.byte	0xe
 1435 0668 38       		.byte	0x38
 1436 0669 7A060000 		.4byte	0x67a
 1437 066d 07       		.uleb128 0x7
 1438 066e A5070000 		.4byte	.LASF90
 1439 0672 0E       		.byte	0xe
 1440 0673 3C       		.byte	0x3c
 1441 0674 F5000000 		.4byte	0xf5
 1442 0678 00       		.byte	0
 1443 0679 00       		.byte	0
 1444 067a 03       		.uleb128 0x3
 1445 067b 60050000 		.4byte	.LASF91
 1446 067f 0E       		.byte	0xe
 1447 0680 3D       		.byte	0x3d
 1448 0681 65060000 		.4byte	0x665
 1449 0685 14       		.uleb128 0x14
 1450 0686 04       		.byte	0x4
 1451 0687 0A       		.byte	0xa
 1452 0688 FA       		.byte	0xfa
 1453 0689 E2060000 		.4byte	0x6e2
 1454 068d 15       		.uleb128 0x15
 1455 068e 2B000000 		.4byte	.LASF92
 1456 0692 0A       		.byte	0xa
 1457 0693 0101     		.2byte	0x101
 1458 0695 2C010000 		.4byte	0x12c
 1459 0699 15       		.uleb128 0x15
 1460 069a B9000000 		.4byte	.LASF93
 1461 069e 0A       		.byte	0xa
 1462 069f 0801     		.2byte	0x108
 1463 06a1 2C010000 		.4byte	0x12c
 1464 06a5 15       		.uleb128 0x15
 1465 06a6 91080000 		.4byte	.LASF94
 1466 06aa 0A       		.byte	0xa
 1467 06ab 0F01     		.2byte	0x10f
ARM GAS  /tmp/ccT99met.s 			page 27


 1468 06ad 43030000 		.4byte	0x343
 1469 06b1 15       		.uleb128 0x15
 1470 06b2 39050000 		.4byte	.LASF95
 1471 06b6 0A       		.byte	0xa
 1472 06b7 1601     		.2byte	0x116
 1473 06b9 E2060000 		.4byte	0x6e2
 1474 06bd 15       		.uleb128 0x15
 1475 06be CB020000 		.4byte	.LASF96
 1476 06c2 0A       		.byte	0xa
 1477 06c3 1E01     		.2byte	0x11e
 1478 06c5 0D070000 		.4byte	0x70d
 1479 06c9 15       		.uleb128 0x15
 1480 06ca D6060000 		.4byte	.LASF97
 1481 06ce 0A       		.byte	0xa
 1482 06cf 2701     		.2byte	0x127
 1483 06d1 44070000 		.4byte	0x744
 1484 06d5 15       		.uleb128 0x15
 1485 06d6 5D060000 		.4byte	.LASF98
 1486 06da 0A       		.byte	0xa
 1487 06db 2F01     		.2byte	0x12f
 1488 06dd 37010000 		.4byte	0x137
 1489 06e1 00       		.byte	0
 1490 06e2 0A       		.uleb128 0xa
 1491 06e3 04       		.byte	0x4
 1492 06e4 5B020000 		.4byte	0x25b
 1493 06e8 06       		.uleb128 0x6
 1494 06e9 AB060000 		.4byte	.LASF99
 1495 06ed 0C       		.byte	0xc
 1496 06ee 0F       		.byte	0xf
 1497 06ef 34       		.byte	0x34
 1498 06f0 0D070000 		.4byte	0x70d
 1499 06f4 07       		.uleb128 0x7
 1500 06f5 E8010000 		.4byte	.LASF100
 1501 06f9 0F       		.byte	0xf
 1502 06fa 35       		.byte	0x35
 1503 06fb 90020000 		.4byte	0x290
 1504 06ff 00       		.byte	0
 1505 0700 07       		.uleb128 0x7
 1506 0701 F7020000 		.4byte	.LASF101
 1507 0705 0F       		.byte	0xf
 1508 0706 37       		.byte	0x37
 1509 0707 4D010000 		.4byte	0x14d
 1510 070b 08       		.byte	0x8
 1511 070c 00       		.byte	0
 1512 070d 0A       		.uleb128 0xa
 1513 070e 04       		.byte	0x4
 1514 070f E8060000 		.4byte	0x6e8
 1515 0713 06       		.uleb128 0x6
 1516 0714 25080000 		.4byte	.LASF102
 1517 0718 10       		.byte	0x10
 1518 0719 10       		.byte	0x10
 1519 071a 39       		.byte	0x39
 1520 071b 44070000 		.4byte	0x744
 1521 071f 07       		.uleb128 0x7
 1522 0720 6E010000 		.4byte	.LASF103
 1523 0724 10       		.byte	0x10
 1524 0725 3A       		.byte	0x3a
ARM GAS  /tmp/ccT99met.s 			page 28


 1525 0726 90020000 		.4byte	0x290
 1526 072a 00       		.byte	0
 1527 072b 07       		.uleb128 0x7
 1528 072c E2080000 		.4byte	.LASF104
 1529 0730 10       		.byte	0x10
 1530 0731 3C       		.byte	0x3c
 1531 0732 66020000 		.4byte	0x266
 1532 0736 08       		.byte	0x8
 1533 0737 07       		.uleb128 0x7
 1534 0738 5D070000 		.4byte	.LASF105
 1535 073c 10       		.byte	0x10
 1536 073d 3E       		.byte	0x3e
 1537 073e 82070000 		.4byte	0x782
 1538 0742 0C       		.byte	0xc
 1539 0743 00       		.byte	0
 1540 0744 0A       		.uleb128 0xa
 1541 0745 04       		.byte	0x4
 1542 0746 13070000 		.4byte	0x713
 1543 074a 0A       		.uleb128 0xa
 1544 074b 04       		.byte	0x4
 1545 074c 57070000 		.4byte	0x757
 1546 0750 04       		.uleb128 0x4
 1547 0751 01       		.byte	0x1
 1548 0752 08       		.byte	0x8
 1549 0753 19070000 		.4byte	.LASF106
 1550 0757 16       		.uleb128 0x16
 1551 0758 50070000 		.4byte	0x750
 1552 075c 0A       		.uleb128 0xa
 1553 075d 04       		.byte	0x4
 1554 075e 45030000 		.4byte	0x345
 1555 0762 05       		.uleb128 0x5
 1556 0763 4A070000 		.4byte	0x74a
 1557 0767 17       		.uleb128 0x17
 1558 0768 FA040000 		.4byte	0x4fa
 1559 076c 77070000 		.4byte	0x777
 1560 0770 18       		.uleb128 0x18
 1561 0771 79040000 		.4byte	0x479
 1562 0775 2B       		.byte	0x2b
 1563 0776 00       		.byte	0
 1564 0777 03       		.uleb128 0x3
 1565 0778 49020000 		.4byte	.LASF107
 1566 077c 10       		.byte	0x10
 1567 077d 34       		.byte	0x34
 1568 077e 13070000 		.4byte	0x713
 1569 0782 0A       		.uleb128 0xa
 1570 0783 04       		.byte	0x4
 1571 0784 77070000 		.4byte	0x777
 1572 0788 03       		.uleb128 0x3
 1573 0789 AC070000 		.4byte	.LASF108
 1574 078d 02       		.byte	0x2
 1575 078e 34       		.byte	0x34
 1576 078f 93070000 		.4byte	0x793
 1577 0793 06       		.uleb128 0x6
 1578 0794 07090000 		.4byte	.LASF109
 1579 0798 14       		.byte	0x14
 1580 0799 02       		.byte	0x2
 1581 079a 39       		.byte	0x39
ARM GAS  /tmp/ccT99met.s 			page 29


 1582 079b DC070000 		.4byte	0x7dc
 1583 079f 07       		.uleb128 0x7
 1584 07a0 3C030000 		.4byte	.LASF110
 1585 07a4 02       		.byte	0x2
 1586 07a5 3A       		.byte	0x3a
 1587 07a6 DC070000 		.4byte	0x7dc
 1588 07aa 00       		.byte	0
 1589 07ab 07       		.uleb128 0x7
 1590 07ac 25060000 		.4byte	.LASF111
 1591 07b0 02       		.byte	0x2
 1592 07b1 3D       		.byte	0x3d
 1593 07b2 66020000 		.4byte	0x266
 1594 07b6 04       		.byte	0x4
 1595 07b7 07       		.uleb128 0x7
 1596 07b8 91050000 		.4byte	.LASF112
 1597 07bc 02       		.byte	0x2
 1598 07bd 3F       		.byte	0x3f
 1599 07be 37010000 		.4byte	0x137
 1600 07c2 08       		.byte	0x8
 1601 07c3 07       		.uleb128 0x7
 1602 07c4 31060000 		.4byte	.LASF113
 1603 07c8 02       		.byte	0x2
 1604 07c9 41       		.byte	0x41
 1605 07ca 42010000 		.4byte	0x142
 1606 07ce 0C       		.byte	0xc
 1607 07cf 07       		.uleb128 0x7
 1608 07d0 25030000 		.4byte	.LASF114
 1609 07d4 02       		.byte	0x2
 1610 07d5 43       		.byte	0x43
 1611 07d6 42010000 		.4byte	0x142
 1612 07da 10       		.byte	0x10
 1613 07db 00       		.byte	0
 1614 07dc 0A       		.uleb128 0xa
 1615 07dd 04       		.byte	0x4
 1616 07de 88070000 		.4byte	0x788
 1617 07e2 06       		.uleb128 0x6
 1618 07e3 9B010000 		.4byte	.LASF115
 1619 07e7 04       		.byte	0x4
 1620 07e8 02       		.byte	0x2
 1621 07e9 4A       		.byte	0x4a
 1622 07ea FB070000 		.4byte	0x7fb
 1623 07ee 07       		.uleb128 0x7
 1624 07ef 2E080000 		.4byte	.LASF116
 1625 07f3 02       		.byte	0x2
 1626 07f4 4B       		.byte	0x4b
 1627 07f5 DC070000 		.4byte	0x7dc
 1628 07f9 00       		.byte	0
 1629 07fa 00       		.byte	0
 1630 07fb 03       		.uleb128 0x3
 1631 07fc 60020000 		.4byte	.LASF117
 1632 0800 02       		.byte	0x2
 1633 0801 4E       		.byte	0x4e
 1634 0802 E2070000 		.4byte	0x7e2
 1635 0806 03       		.uleb128 0x3
 1636 0807 FA000000 		.4byte	.LASF118
 1637 080b 11       		.byte	0x11
 1638 080c 3F       		.byte	0x3f
ARM GAS  /tmp/ccT99met.s 			page 30


 1639 080d 11080000 		.4byte	0x811
 1640 0811 06       		.uleb128 0x6
 1641 0812 57020000 		.4byte	.LASF119
 1642 0816 24       		.byte	0x24
 1643 0817 11       		.byte	0x11
 1644 0818 4D       		.byte	0x4d
 1645 0819 7E080000 		.4byte	0x87e
 1646 081d 07       		.uleb128 0x7
 1647 081e 29010000 		.4byte	.LASF120
 1648 0822 11       		.byte	0x11
 1649 0823 4E       		.byte	0x4e
 1650 0824 90020000 		.4byte	0x290
 1651 0828 00       		.byte	0
 1652 0829 07       		.uleb128 0x7
 1653 082a 2F050000 		.4byte	.LASF121
 1654 082e 11       		.byte	0x11
 1655 082f 4F       		.byte	0x4f
 1656 0830 2C000000 		.4byte	0x2c
 1657 0834 08       		.byte	0x8
 1658 0835 07       		.uleb128 0x7
 1659 0836 BA010000 		.4byte	.LASF122
 1660 083a 11       		.byte	0x11
 1661 083b 50       		.byte	0x50
 1662 083c A0080000 		.4byte	0x8a0
 1663 0840 0C       		.byte	0xc
 1664 0841 07       		.uleb128 0x7
 1665 0842 1F080000 		.4byte	.LASF123
 1666 0846 11       		.byte	0x11
 1667 0847 51       		.byte	0x51
 1668 0848 A0080000 		.4byte	0x8a0
 1669 084c 10       		.byte	0x10
 1670 084d 07       		.uleb128 0x7
 1671 084e 13030000 		.4byte	.LASF124
 1672 0852 11       		.byte	0x11
 1673 0853 53       		.byte	0x53
 1674 0854 A0080000 		.4byte	0x8a0
 1675 0858 14       		.byte	0x14
 1676 0859 07       		.uleb128 0x7
 1677 085a E4050000 		.4byte	.LASF125
 1678 085e 11       		.byte	0x11
 1679 085f 54       		.byte	0x54
 1680 0860 A0080000 		.4byte	0x8a0
 1681 0864 18       		.byte	0x18
 1682 0865 07       		.uleb128 0x7
 1683 0866 43080000 		.4byte	.LASF126
 1684 086a 11       		.byte	0x11
 1685 086b 55       		.byte	0x55
 1686 086c 7E080000 		.4byte	0x87e
 1687 0870 1C       		.byte	0x1c
 1688 0871 07       		.uleb128 0x7
 1689 0872 DB080000 		.4byte	.LASF127
 1690 0876 11       		.byte	0x11
 1691 0877 56       		.byte	0x56
 1692 0878 43030000 		.4byte	0x343
 1693 087c 20       		.byte	0x20
 1694 087d 00       		.byte	0
 1695 087e 03       		.uleb128 0x3
ARM GAS  /tmp/ccT99met.s 			page 31


 1696 087f 8D030000 		.4byte	.LASF128
 1697 0883 11       		.byte	0x11
 1698 0884 42       		.byte	0x42
 1699 0885 89080000 		.4byte	0x889
 1700 0889 0A       		.uleb128 0xa
 1701 088a 04       		.byte	0x4
 1702 088b 8F080000 		.4byte	0x88f
 1703 088f 0C       		.uleb128 0xc
 1704 0890 9A080000 		.4byte	0x89a
 1705 0894 0D       		.uleb128 0xd
 1706 0895 9A080000 		.4byte	0x89a
 1707 0899 00       		.byte	0
 1708 089a 0A       		.uleb128 0xa
 1709 089b 04       		.byte	0x4
 1710 089c 06080000 		.4byte	0x806
 1711 08a0 0A       		.uleb128 0xa
 1712 08a1 04       		.byte	0x4
 1713 08a2 B4000000 		.4byte	0xb4
 1714 08a6 03       		.uleb128 0x3
 1715 08a7 97040000 		.4byte	.LASF129
 1716 08ab 11       		.byte	0x11
 1717 08ac 64       		.byte	0x64
 1718 08ad 06080000 		.4byte	0x806
 1719 08b1 03       		.uleb128 0x3
 1720 08b2 AA040000 		.4byte	.LASF130
 1721 08b6 11       		.byte	0x11
 1722 08b7 71       		.byte	0x71
 1723 08b8 06080000 		.4byte	0x806
 1724 08bc 19       		.uleb128 0x19
 1725 08bd 2C000000 		.4byte	0x2c
 1726 08c1 D5080000 		.4byte	0x8d5
 1727 08c5 0D       		.uleb128 0xd
 1728 08c6 43030000 		.4byte	0x343
 1729 08ca 0D       		.uleb128 0xd
 1730 08cb D5080000 		.4byte	0x8d5
 1731 08cf 0D       		.uleb128 0xd
 1732 08d0 2C000000 		.4byte	0x2c
 1733 08d4 00       		.byte	0
 1734 08d5 0A       		.uleb128 0xa
 1735 08d6 04       		.byte	0x4
 1736 08d7 DB080000 		.4byte	0x8db
 1737 08db 16       		.uleb128 0x16
 1738 08dc B4000000 		.4byte	0xb4
 1739 08e0 0A       		.uleb128 0xa
 1740 08e1 04       		.byte	0x4
 1741 08e2 BC080000 		.4byte	0x8bc
 1742 08e6 19       		.uleb128 0x19
 1743 08e7 2C000000 		.4byte	0x2c
 1744 08eb FF080000 		.4byte	0x8ff
 1745 08ef 0D       		.uleb128 0xd
 1746 08f0 43030000 		.4byte	0x343
 1747 08f4 0D       		.uleb128 0xd
 1748 08f5 A0080000 		.4byte	0x8a0
 1749 08f9 0D       		.uleb128 0xd
 1750 08fa 2C000000 		.4byte	0x2c
 1751 08fe 00       		.byte	0
 1752 08ff 0A       		.uleb128 0xa
ARM GAS  /tmp/ccT99met.s 			page 32


 1753 0900 04       		.byte	0x4
 1754 0901 E6080000 		.4byte	0x8e6
 1755 0905 19       		.uleb128 0x19
 1756 0906 2C010000 		.4byte	0x12c
 1757 090a 19090000 		.4byte	0x919
 1758 090e 0D       		.uleb128 0xd
 1759 090f 43030000 		.4byte	0x343
 1760 0913 0D       		.uleb128 0xd
 1761 0914 B4000000 		.4byte	0xb4
 1762 0918 00       		.byte	0
 1763 0919 0A       		.uleb128 0xa
 1764 091a 04       		.byte	0x4
 1765 091b 05090000 		.4byte	0x905
 1766 091f 19       		.uleb128 0x19
 1767 0920 2C010000 		.4byte	0x12c
 1768 0924 2E090000 		.4byte	0x92e
 1769 0928 0D       		.uleb128 0xd
 1770 0929 43030000 		.4byte	0x343
 1771 092d 00       		.byte	0
 1772 092e 0A       		.uleb128 0xa
 1773 092f 04       		.byte	0x4
 1774 0930 1F090000 		.4byte	0x91f
 1775 0934 19       		.uleb128 0x19
 1776 0935 2C010000 		.4byte	0x12c
 1777 0939 4D090000 		.4byte	0x94d
 1778 093d 0D       		.uleb128 0xd
 1779 093e 43030000 		.4byte	0x343
 1780 0942 0D       		.uleb128 0xd
 1781 0943 B4000000 		.4byte	0xb4
 1782 0947 0D       		.uleb128 0xd
 1783 0948 58010000 		.4byte	0x158
 1784 094c 00       		.byte	0
 1785 094d 0A       		.uleb128 0xa
 1786 094e 04       		.byte	0x4
 1787 094f 34090000 		.4byte	0x934
 1788 0953 19       		.uleb128 0x19
 1789 0954 2C010000 		.4byte	0x12c
 1790 0958 67090000 		.4byte	0x967
 1791 095c 0D       		.uleb128 0xd
 1792 095d 43030000 		.4byte	0x343
 1793 0961 0D       		.uleb128 0xd
 1794 0962 58010000 		.4byte	0x158
 1795 0966 00       		.byte	0
 1796 0967 0A       		.uleb128 0xa
 1797 0968 04       		.byte	0x4
 1798 0969 53090000 		.4byte	0x953
 1799 096d 19       		.uleb128 0x19
 1800 096e 2C000000 		.4byte	0x2c
 1801 0972 8B090000 		.4byte	0x98b
 1802 0976 0D       		.uleb128 0xd
 1803 0977 43030000 		.4byte	0x343
 1804 097b 0D       		.uleb128 0xd
 1805 097c D5080000 		.4byte	0x8d5
 1806 0980 0D       		.uleb128 0xd
 1807 0981 2C000000 		.4byte	0x2c
 1808 0985 0D       		.uleb128 0xd
 1809 0986 58010000 		.4byte	0x158
ARM GAS  /tmp/ccT99met.s 			page 33


 1810 098a 00       		.byte	0
 1811 098b 0A       		.uleb128 0xa
 1812 098c 04       		.byte	0x4
 1813 098d 6D090000 		.4byte	0x96d
 1814 0991 19       		.uleb128 0x19
 1815 0992 2C000000 		.4byte	0x2c
 1816 0996 AF090000 		.4byte	0x9af
 1817 099a 0D       		.uleb128 0xd
 1818 099b 43030000 		.4byte	0x343
 1819 099f 0D       		.uleb128 0xd
 1820 09a0 A0080000 		.4byte	0x8a0
 1821 09a4 0D       		.uleb128 0xd
 1822 09a5 2C000000 		.4byte	0x2c
 1823 09a9 0D       		.uleb128 0xd
 1824 09aa 58010000 		.4byte	0x158
 1825 09ae 00       		.byte	0
 1826 09af 0A       		.uleb128 0xa
 1827 09b0 04       		.byte	0x4
 1828 09b1 91090000 		.4byte	0x991
 1829 09b5 04       		.uleb128 0x4
 1830 09b6 01       		.byte	0x1
 1831 09b7 02       		.byte	0x2
 1832 09b8 FC050000 		.4byte	.LASF131
 1833 09bc 1A       		.uleb128 0x1a
 1834 09bd 01       		.byte	0x1
 1835 09be 5E000000 		.4byte	0x5e
 1836 09c2 12       		.byte	0x12
 1837 09c3 55       		.byte	0x55
 1838 09c4 DB090000 		.4byte	0x9db
 1839 09c8 1B       		.uleb128 0x1b
 1840 09c9 C3060000 		.4byte	.LASF132
 1841 09cd 00       		.byte	0
 1842 09ce 1B       		.uleb128 0x1b
 1843 09cf D8010000 		.4byte	.LASF133
 1844 09d3 01       		.byte	0x1
 1845 09d4 1B       		.uleb128 0x1b
 1846 09d5 E9070000 		.4byte	.LASF134
 1847 09d9 02       		.byte	0x2
 1848 09da 00       		.byte	0
 1849 09db 03       		.uleb128 0x3
 1850 09dc 15080000 		.4byte	.LASF135
 1851 09e0 12       		.byte	0x12
 1852 09e1 59       		.byte	0x59
 1853 09e2 BC090000 		.4byte	0x9bc
 1854 09e6 03       		.uleb128 0x3
 1855 09e7 F5060000 		.4byte	.LASF136
 1856 09eb 12       		.byte	0x12
 1857 09ec 5E       		.byte	0x5e
 1858 09ed F1090000 		.4byte	0x9f1
 1859 09f1 06       		.uleb128 0x6
 1860 09f2 F5060000 		.4byte	.LASF136
 1861 09f6 78       		.byte	0x78
 1862 09f7 12       		.byte	0x12
 1863 09f8 78       		.byte	0x78
 1864 09f9 5C0A0000 		.4byte	0xa5c
 1865 09fd 12       		.uleb128 0x12
 1866 09fe 766D7400 		.ascii	"vmt\000"
ARM GAS  /tmp/ccT99met.s 			page 34


 1867 0a02 12       		.byte	0x12
 1868 0a03 7A       		.byte	0x7a
 1869 0a04 0D0B0000 		.4byte	0xb0d
 1870 0a08 00       		.byte	0
 1871 0a09 07       		.uleb128 0x7
 1872 0a0a FD020000 		.4byte	.LASF137
 1873 0a0e 12       		.byte	0x12
 1874 0a0f 7B       		.byte	0x7b
 1875 0a10 FB070000 		.4byte	0x7fb
 1876 0a14 04       		.byte	0x4
 1877 0a15 07       		.uleb128 0x7
 1878 0a16 82010000 		.4byte	.LASF138
 1879 0a1a 12       		.byte	0x12
 1880 0a1b 7B       		.byte	0x7b
 1881 0a1c DB090000 		.4byte	0x9db
 1882 0a20 08       		.byte	0x8
 1883 0a21 07       		.uleb128 0x7
 1884 0a22 98080000 		.4byte	.LASF139
 1885 0a26 12       		.byte	0x12
 1886 0a27 7B       		.byte	0x7b
 1887 0a28 A6080000 		.4byte	0x8a6
 1888 0a2c 0C       		.byte	0xc
 1889 0a2d 07       		.uleb128 0x7
 1890 0a2e 35030000 		.4byte	.LASF140
 1891 0a32 12       		.byte	0x12
 1892 0a33 7B       		.byte	0x7b
 1893 0a34 B1080000 		.4byte	0x8b1
 1894 0a38 30       		.byte	0x30
 1895 0a39 12       		.uleb128 0x12
 1896 0a3a 696200   		.ascii	"ib\000"
 1897 0a3d 12       		.byte	0x12
 1898 0a3e 7B       		.byte	0x7b
 1899 0a3f 180B0000 		.4byte	0xb18
 1900 0a43 54       		.byte	0x54
 1901 0a44 12       		.uleb128 0x12
 1902 0a45 6F6200   		.ascii	"ob\000"
 1903 0a48 12       		.byte	0x12
 1904 0a49 7B       		.byte	0x7b
 1905 0a4a 180B0000 		.4byte	0xb18
 1906 0a4e 64       		.byte	0x64
 1907 0a4f 07       		.uleb128 0x7
 1908 0a50 84020000 		.4byte	.LASF141
 1909 0a54 12       		.byte	0x12
 1910 0a55 7B       		.byte	0x7b
 1911 0a56 280B0000 		.4byte	0xb28
 1912 0a5a 74       		.byte	0x74
 1913 0a5b 00       		.byte	0
 1914 0a5c 13       		.uleb128 0x13
 1915 0a5d 0C       		.byte	0xc
 1916 0a5e 13       		.byte	0x13
 1917 0a5f D7       		.byte	0xd7
 1918 0a60 950A0000 		.4byte	0xa95
 1919 0a64 07       		.uleb128 0x7
 1920 0a65 87030000 		.4byte	.LASF142
 1921 0a69 13       		.byte	0x13
 1922 0a6a DB       		.byte	0xdb
 1923 0a6b D5000000 		.4byte	0xd5
ARM GAS  /tmp/ccT99met.s 			page 35


 1924 0a6f 00       		.byte	0
 1925 0a70 12       		.uleb128 0x12
 1926 0a71 63723100 		.ascii	"cr1\000"
 1927 0a75 13       		.byte	0x13
 1928 0a76 E0       		.byte	0xe0
 1929 0a77 BF000000 		.4byte	0xbf
 1930 0a7b 04       		.byte	0x4
 1931 0a7c 12       		.uleb128 0x12
 1932 0a7d 63723200 		.ascii	"cr2\000"
 1933 0a81 13       		.byte	0x13
 1934 0a82 E4       		.byte	0xe4
 1935 0a83 BF000000 		.4byte	0xbf
 1936 0a87 06       		.byte	0x6
 1937 0a88 12       		.uleb128 0x12
 1938 0a89 63723300 		.ascii	"cr3\000"
 1939 0a8d 13       		.byte	0x13
 1940 0a8e E8       		.byte	0xe8
 1941 0a8f BF000000 		.4byte	0xbf
 1942 0a93 08       		.byte	0x8
 1943 0a94 00       		.byte	0
 1944 0a95 03       		.uleb128 0x3
 1945 0a96 9B050000 		.4byte	.LASF143
 1946 0a9a 13       		.byte	0x13
 1947 0a9b E9       		.byte	0xe9
 1948 0a9c 5C0A0000 		.4byte	0xa5c
 1949 0aa0 06       		.uleb128 0x6
 1950 0aa1 A8020000 		.4byte	.LASF144
 1951 0aa5 20       		.byte	0x20
 1952 0aa6 12       		.byte	0x12
 1953 0aa7 6D       		.byte	0x6d
 1954 0aa8 0D0B0000 		.4byte	0xb0d
 1955 0aac 07       		.uleb128 0x7
 1956 0aad 91040000 		.4byte	.LASF145
 1957 0ab1 12       		.byte	0x12
 1958 0ab2 6E       		.byte	0x6e
 1959 0ab3 E0080000 		.4byte	0x8e0
 1960 0ab7 00       		.byte	0
 1961 0ab8 07       		.uleb128 0x7
 1962 0ab9 14070000 		.4byte	.LASF146
 1963 0abd 12       		.byte	0x12
 1964 0abe 6E       		.byte	0x6e
 1965 0abf FF080000 		.4byte	0x8ff
 1966 0ac3 04       		.byte	0x4
 1967 0ac4 12       		.uleb128 0x12
 1968 0ac5 70757400 		.ascii	"put\000"
 1969 0ac9 12       		.byte	0x12
 1970 0aca 6E       		.byte	0x6e
 1971 0acb 19090000 		.4byte	0x919
 1972 0acf 08       		.byte	0x8
 1973 0ad0 12       		.uleb128 0x12
 1974 0ad1 67657400 		.ascii	"get\000"
 1975 0ad5 12       		.byte	0x12
 1976 0ad6 6E       		.byte	0x6e
 1977 0ad7 2E090000 		.4byte	0x92e
 1978 0adb 0C       		.byte	0xc
 1979 0adc 07       		.uleb128 0x7
 1980 0add A5040000 		.4byte	.LASF147
ARM GAS  /tmp/ccT99met.s 			page 36


 1981 0ae1 12       		.byte	0x12
 1982 0ae2 6E       		.byte	0x6e
 1983 0ae3 4D090000 		.4byte	0x94d
 1984 0ae7 10       		.byte	0x10
 1985 0ae8 07       		.uleb128 0x7
 1986 0ae9 F2020000 		.4byte	.LASF148
 1987 0aed 12       		.byte	0x12
 1988 0aee 6E       		.byte	0x6e
 1989 0aef 67090000 		.4byte	0x967
 1990 0af3 14       		.byte	0x14
 1991 0af4 07       		.uleb128 0x7
 1992 0af5 5E030000 		.4byte	.LASF149
 1993 0af9 12       		.byte	0x12
 1994 0afa 6E       		.byte	0x6e
 1995 0afb 8B090000 		.4byte	0x98b
 1996 0aff 18       		.byte	0x18
 1997 0b00 07       		.uleb128 0x7
 1998 0b01 23010000 		.4byte	.LASF150
 1999 0b05 12       		.byte	0x12
 2000 0b06 6E       		.byte	0x6e
 2001 0b07 AF090000 		.4byte	0x9af
 2002 0b0b 1C       		.byte	0x1c
 2003 0b0c 00       		.byte	0
 2004 0b0d 0A       		.uleb128 0xa
 2005 0b0e 04       		.byte	0x4
 2006 0b0f 130B0000 		.4byte	0xb13
 2007 0b13 16       		.uleb128 0x16
 2008 0b14 A00A0000 		.4byte	0xaa0
 2009 0b18 17       		.uleb128 0x17
 2010 0b19 B4000000 		.4byte	0xb4
 2011 0b1d 280B0000 		.4byte	0xb28
 2012 0b21 18       		.uleb128 0x18
 2013 0b22 79040000 		.4byte	0x479
 2014 0b26 0F       		.byte	0xf
 2015 0b27 00       		.byte	0
 2016 0b28 0A       		.uleb128 0xa
 2017 0b29 04       		.byte	0x4
 2018 0b2a E3040000 		.4byte	0x4e3
 2019 0b2e 1C       		.uleb128 0x1c
 2020 0b2f 8D070000 		.4byte	.LASF155
 2021 0b33 03       		.byte	0x3
 2022 0b34 2002     		.2byte	0x220
 2023 0b36 03       		.byte	0x3
 2024 0b37 480B0000 		.4byte	0xb48
 2025 0b3b 1D       		.uleb128 0x1d
 2026 0b3c 51020000 		.4byte	.LASF153
 2027 0b40 03       		.byte	0x3
 2028 0b41 2002     		.2byte	0x220
 2029 0b43 D5000000 		.4byte	0xd5
 2030 0b47 00       		.byte	0
 2031 0b48 1E       		.uleb128 0x1e
 2032 0b49 70000000 		.4byte	.LASF151
 2033 0b4d 0D       		.byte	0xd
 2034 0b4e BC01     		.2byte	0x1bc
 2035 0b50 03       		.byte	0x3
 2036 0b51 1E       		.uleb128 0x1e
 2037 0b52 76010000 		.4byte	.LASF152
ARM GAS  /tmp/ccT99met.s 			page 37


 2038 0b56 0D       		.byte	0xd
 2039 0b57 CA01     		.2byte	0x1ca
 2040 0b59 03       		.byte	0x3
 2041 0b5a 1F       		.uleb128 0x1f
 2042 0b5b 36080000 		.4byte	.LASF193
 2043 0b5f 11       		.byte	0x11
 2044 0b60 2F01     		.2byte	0x12f
 2045 0b62 B5090000 		.4byte	0x9b5
 2046 0b66 03       		.byte	0x3
 2047 0b67 780B0000 		.4byte	0xb78
 2048 0b6b 20       		.uleb128 0x20
 2049 0b6c 69717000 		.ascii	"iqp\000"
 2050 0b70 11       		.byte	0x11
 2051 0b71 2F01     		.2byte	0x12f
 2052 0b73 780B0000 		.4byte	0xb78
 2053 0b77 00       		.byte	0
 2054 0b78 0A       		.uleb128 0xa
 2055 0b79 04       		.byte	0x4
 2056 0b7a A6080000 		.4byte	0x8a6
 2057 0b7e 1E       		.uleb128 0x1e
 2058 0b7f 83060000 		.4byte	.LASF154
 2059 0b83 14       		.byte	0x14
 2060 0b84 5A01     		.2byte	0x15a
 2061 0b86 03       		.byte	0x3
 2062 0b87 1C       		.uleb128 0x1c
 2063 0b88 AE080000 		.4byte	.LASF156
 2064 0b8c 14       		.byte	0x14
 2065 0b8d 6601     		.2byte	0x166
 2066 0b8f 03       		.byte	0x3
 2067 0b90 A20B0000 		.4byte	0xba2
 2068 0b94 21       		.uleb128 0x21
 2069 0b95 73060000 		.4byte	.LASF172
 2070 0b99 B20B0000 		.4byte	0xbb2
 2071 0b9d AE080000 		.4byte	.LASF156
 2072 0ba1 00       		.byte	0
 2073 0ba2 17       		.uleb128 0x17
 2074 0ba3 50070000 		.4byte	0x750
 2075 0ba7 B20B0000 		.4byte	0xbb2
 2076 0bab 18       		.uleb128 0x18
 2077 0bac 79040000 		.4byte	0x479
 2078 0bb0 0B       		.byte	0xb
 2079 0bb1 00       		.byte	0
 2080 0bb2 16       		.uleb128 0x16
 2081 0bb3 A20B0000 		.4byte	0xba2
 2082 0bb7 22       		.uleb128 0x22
 2083 0bb8 03030000 		.4byte	.LASF157
 2084 0bbc 02       		.byte	0x2
 2085 0bbd AA       		.byte	0xaa
 2086 0bbe 03       		.byte	0x3
 2087 0bbf CF0B0000 		.4byte	0xbcf
 2088 0bc3 23       		.uleb128 0x23
 2089 0bc4 65737000 		.ascii	"esp\000"
 2090 0bc8 02       		.byte	0x2
 2091 0bc9 AA       		.byte	0xaa
 2092 0bca CF0B0000 		.4byte	0xbcf
 2093 0bce 00       		.byte	0
 2094 0bcf 0A       		.uleb128 0xa
ARM GAS  /tmp/ccT99met.s 			page 38


 2095 0bd0 04       		.byte	0x4
 2096 0bd1 FB070000 		.4byte	0x7fb
 2097 0bd5 1C       		.uleb128 0x1c
 2098 0bd6 5A010000 		.4byte	.LASF158
 2099 0bda 04       		.byte	0x4
 2100 0bdb 0703     		.2byte	0x307
 2101 0bdd 03       		.byte	0x3
 2102 0bde EF0B0000 		.4byte	0xbef
 2103 0be2 20       		.uleb128 0x20
 2104 0be3 65737000 		.ascii	"esp\000"
 2105 0be7 04       		.byte	0x4
 2106 0be8 0703     		.2byte	0x307
 2107 0bea CF0B0000 		.4byte	0xbcf
 2108 0bee 00       		.byte	0
 2109 0bef 1E       		.uleb128 0x1e
 2110 0bf0 8D060000 		.4byte	.LASF159
 2111 0bf4 04       		.byte	0x4
 2112 0bf5 C801     		.2byte	0x1c8
 2113 0bf7 03       		.byte	0x3
 2114 0bf8 1E       		.uleb128 0x1e
 2115 0bf9 3D020000 		.4byte	.LASF160
 2116 0bfd 04       		.byte	0x4
 2117 0bfe BD01     		.2byte	0x1bd
 2118 0c00 03       		.byte	0x3
 2119 0c01 1E       		.uleb128 0x1e
 2120 0c02 B3050000 		.4byte	.LASF161
 2121 0c06 04       		.byte	0x4
 2122 0c07 2802     		.2byte	0x228
 2123 0c09 03       		.byte	0x3
 2124 0c0a 1C       		.uleb128 0x1c
 2125 0c0b A0000000 		.4byte	.LASF162
 2126 0c0f 04       		.byte	0x4
 2127 0c10 1B03     		.2byte	0x31b
 2128 0c12 03       		.byte	0x3
 2129 0c13 300C0000 		.4byte	0xc30
 2130 0c17 20       		.uleb128 0x20
 2131 0c18 65737000 		.ascii	"esp\000"
 2132 0c1c 04       		.byte	0x4
 2133 0c1d 1B03     		.2byte	0x31b
 2134 0c1f CF0B0000 		.4byte	0xbcf
 2135 0c23 1D       		.uleb128 0x1d
 2136 0c24 83080000 		.4byte	.LASF163
 2137 0c28 04       		.byte	0x4
 2138 0c29 1C03     		.2byte	0x31c
 2139 0c2b 42010000 		.4byte	0x142
 2140 0c2f 00       		.byte	0
 2141 0c30 24       		.uleb128 0x24
 2142 0c31 23010000 		.4byte	.LASF150
 2143 0c35 01       		.byte	0x1
 2144 0c36 57       		.byte	0x57
 2145 0c37 2C000000 		.4byte	0x2c
 2146 0c3b 00000000 		.4byte	.LFB267
 2147 0c3f 06000000 		.4byte	.LFE267-.LFB267
 2148 0c43 01       		.uleb128 0x1
 2149 0c44 9C       		.byte	0x9c
 2150 0c45 AA0C0000 		.4byte	0xcaa
 2151 0c49 25       		.uleb128 0x25
ARM GAS  /tmp/ccT99met.s 			page 39


 2152 0c4a 697000   		.ascii	"ip\000"
 2153 0c4d 01       		.byte	0x1
 2154 0c4e 57       		.byte	0x57
 2155 0c4f 43030000 		.4byte	0x343
 2156 0c53 00000000 		.4byte	.LLST0
 2157 0c57 25       		.uleb128 0x25
 2158 0c58 627000   		.ascii	"bp\000"
 2159 0c5b 01       		.byte	0x1
 2160 0c5c 57       		.byte	0x57
 2161 0c5d A0080000 		.4byte	0x8a0
 2162 0c61 2E000000 		.4byte	.LLST1
 2163 0c65 25       		.uleb128 0x25
 2164 0c66 6E00     		.ascii	"n\000"
 2165 0c68 01       		.byte	0x1
 2166 0c69 57       		.byte	0x57
 2167 0c6a 2C000000 		.4byte	0x2c
 2168 0c6e 4F000000 		.4byte	.LLST2
 2169 0c72 26       		.uleb128 0x26
 2170 0c73 CC080000 		.4byte	.LASF164
 2171 0c77 01       		.byte	0x1
 2172 0c78 57       		.byte	0x57
 2173 0c79 58010000 		.4byte	0x158
 2174 0c7d 70000000 		.4byte	.LLST3
 2175 0c81 27       		.uleb128 0x27
 2176 0c82 06000000 		.4byte	.LVL2
 2177 0c86 3E140000 		.4byte	0x143e
 2178 0c8a 28       		.uleb128 0x28
 2179 0c8b 01       		.uleb128 0x1
 2180 0c8c 50       		.byte	0x50
 2181 0c8d 05       		.uleb128 0x5
 2182 0c8e F3       		.byte	0xf3
 2183 0c8f 01       		.uleb128 0x1
 2184 0c90 50       		.byte	0x50
 2185 0c91 23       		.byte	0x23
 2186 0c92 0C       		.uleb128 0xc
 2187 0c93 28       		.uleb128 0x28
 2188 0c94 01       		.uleb128 0x1
 2189 0c95 51       		.byte	0x51
 2190 0c96 03       		.uleb128 0x3
 2191 0c97 F3       		.byte	0xf3
 2192 0c98 01       		.uleb128 0x1
 2193 0c99 51       		.byte	0x51
 2194 0c9a 28       		.uleb128 0x28
 2195 0c9b 01       		.uleb128 0x1
 2196 0c9c 52       		.byte	0x52
 2197 0c9d 03       		.uleb128 0x3
 2198 0c9e F3       		.byte	0xf3
 2199 0c9f 01       		.uleb128 0x1
 2200 0ca0 52       		.byte	0x52
 2201 0ca1 28       		.uleb128 0x28
 2202 0ca2 01       		.uleb128 0x1
 2203 0ca3 53       		.byte	0x53
 2204 0ca4 03       		.uleb128 0x3
 2205 0ca5 F3       		.byte	0xf3
 2206 0ca6 01       		.uleb128 0x1
 2207 0ca7 53       		.byte	0x53
 2208 0ca8 00       		.byte	0
ARM GAS  /tmp/ccT99met.s 			page 40


 2209 0ca9 00       		.byte	0
 2210 0caa 24       		.uleb128 0x24
 2211 0cab 14070000 		.4byte	.LASF146
 2212 0caf 01       		.byte	0x1
 2213 0cb0 38       		.byte	0x38
 2214 0cb1 2C000000 		.4byte	0x2c
 2215 0cb5 00000000 		.4byte	.LFB261
 2216 0cb9 0A000000 		.4byte	.LFE261-.LFB261
 2217 0cbd 01       		.uleb128 0x1
 2218 0cbe 9C       		.byte	0x9c
 2219 0cbf 140D0000 		.4byte	0xd14
 2220 0cc3 25       		.uleb128 0x25
 2221 0cc4 697000   		.ascii	"ip\000"
 2222 0cc7 01       		.byte	0x1
 2223 0cc8 38       		.byte	0x38
 2224 0cc9 43030000 		.4byte	0x343
 2225 0ccd 91000000 		.4byte	.LLST4
 2226 0cd1 25       		.uleb128 0x25
 2227 0cd2 627000   		.ascii	"bp\000"
 2228 0cd5 01       		.byte	0x1
 2229 0cd6 38       		.byte	0x38
 2230 0cd7 A0080000 		.4byte	0x8a0
 2231 0cdb BF000000 		.4byte	.LLST5
 2232 0cdf 25       		.uleb128 0x25
 2233 0ce0 6E00     		.ascii	"n\000"
 2234 0ce2 01       		.byte	0x1
 2235 0ce3 38       		.byte	0x38
 2236 0ce4 2C000000 		.4byte	0x2c
 2237 0ce8 E0000000 		.4byte	.LLST6
 2238 0cec 27       		.uleb128 0x27
 2239 0ced 0A000000 		.4byte	.LVL5
 2240 0cf1 3E140000 		.4byte	0x143e
 2241 0cf5 28       		.uleb128 0x28
 2242 0cf6 01       		.uleb128 0x1
 2243 0cf7 50       		.byte	0x50
 2244 0cf8 05       		.uleb128 0x5
 2245 0cf9 F3       		.byte	0xf3
 2246 0cfa 01       		.uleb128 0x1
 2247 0cfb 50       		.byte	0x50
 2248 0cfc 23       		.byte	0x23
 2249 0cfd 0C       		.uleb128 0xc
 2250 0cfe 28       		.uleb128 0x28
 2251 0cff 01       		.uleb128 0x1
 2252 0d00 51       		.byte	0x51
 2253 0d01 03       		.uleb128 0x3
 2254 0d02 F3       		.byte	0xf3
 2255 0d03 01       		.uleb128 0x1
 2256 0d04 51       		.byte	0x51
 2257 0d05 28       		.uleb128 0x28
 2258 0d06 01       		.uleb128 0x1
 2259 0d07 52       		.byte	0x52
 2260 0d08 03       		.uleb128 0x3
 2261 0d09 F3       		.byte	0xf3
 2262 0d0a 01       		.uleb128 0x1
 2263 0d0b 52       		.byte	0x52
 2264 0d0c 28       		.uleb128 0x28
 2265 0d0d 01       		.uleb128 0x1
ARM GAS  /tmp/ccT99met.s 			page 41


 2266 0d0e 53       		.byte	0x53
 2267 0d0f 02       		.uleb128 0x2
 2268 0d10 09       		.byte	0x9
 2269 0d11 FF       		.byte	0xff
 2270 0d12 00       		.byte	0
 2271 0d13 00       		.byte	0
 2272 0d14 24       		.uleb128 0x24
 2273 0d15 5E030000 		.4byte	.LASF149
 2274 0d19 01       		.byte	0x1
 2275 0d1a 52       		.byte	0x52
 2276 0d1b 2C000000 		.4byte	0x2c
 2277 0d1f 00000000 		.4byte	.LFB266
 2278 0d23 06000000 		.4byte	.LFE266-.LFB266
 2279 0d27 01       		.uleb128 0x1
 2280 0d28 9C       		.byte	0x9c
 2281 0d29 8E0D0000 		.4byte	0xd8e
 2282 0d2d 25       		.uleb128 0x25
 2283 0d2e 697000   		.ascii	"ip\000"
 2284 0d31 01       		.byte	0x1
 2285 0d32 52       		.byte	0x52
 2286 0d33 43030000 		.4byte	0x343
 2287 0d37 01010000 		.4byte	.LLST7
 2288 0d3b 25       		.uleb128 0x25
 2289 0d3c 627000   		.ascii	"bp\000"
 2290 0d3f 01       		.byte	0x1
 2291 0d40 52       		.byte	0x52
 2292 0d41 D5080000 		.4byte	0x8d5
 2293 0d45 2F010000 		.4byte	.LLST8
 2294 0d49 25       		.uleb128 0x25
 2295 0d4a 6E00     		.ascii	"n\000"
 2296 0d4c 01       		.byte	0x1
 2297 0d4d 52       		.byte	0x52
 2298 0d4e 2C000000 		.4byte	0x2c
 2299 0d52 50010000 		.4byte	.LLST9
 2300 0d56 26       		.uleb128 0x26
 2301 0d57 CC080000 		.4byte	.LASF164
 2302 0d5b 01       		.byte	0x1
 2303 0d5c 52       		.byte	0x52
 2304 0d5d 58010000 		.4byte	0x158
 2305 0d61 71010000 		.4byte	.LLST10
 2306 0d65 27       		.uleb128 0x27
 2307 0d66 06000000 		.4byte	.LVL8
 2308 0d6a 49140000 		.4byte	0x1449
 2309 0d6e 28       		.uleb128 0x28
 2310 0d6f 01       		.uleb128 0x1
 2311 0d70 50       		.byte	0x50
 2312 0d71 05       		.uleb128 0x5
 2313 0d72 F3       		.byte	0xf3
 2314 0d73 01       		.uleb128 0x1
 2315 0d74 50       		.byte	0x50
 2316 0d75 23       		.byte	0x23
 2317 0d76 30       		.uleb128 0x30
 2318 0d77 28       		.uleb128 0x28
 2319 0d78 01       		.uleb128 0x1
 2320 0d79 51       		.byte	0x51
 2321 0d7a 03       		.uleb128 0x3
 2322 0d7b F3       		.byte	0xf3
ARM GAS  /tmp/ccT99met.s 			page 42


 2323 0d7c 01       		.uleb128 0x1
 2324 0d7d 51       		.byte	0x51
 2325 0d7e 28       		.uleb128 0x28
 2326 0d7f 01       		.uleb128 0x1
 2327 0d80 52       		.byte	0x52
 2328 0d81 03       		.uleb128 0x3
 2329 0d82 F3       		.byte	0xf3
 2330 0d83 01       		.uleb128 0x1
 2331 0d84 52       		.byte	0x52
 2332 0d85 28       		.uleb128 0x28
 2333 0d86 01       		.uleb128 0x1
 2334 0d87 53       		.byte	0x53
 2335 0d88 03       		.uleb128 0x3
 2336 0d89 F3       		.byte	0xf3
 2337 0d8a 01       		.uleb128 0x1
 2338 0d8b 53       		.byte	0x53
 2339 0d8c 00       		.byte	0
 2340 0d8d 00       		.byte	0
 2341 0d8e 24       		.uleb128 0x24
 2342 0d8f 91040000 		.4byte	.LASF145
 2343 0d93 01       		.byte	0x1
 2344 0d94 32       		.byte	0x32
 2345 0d95 2C000000 		.4byte	0x2c
 2346 0d99 00000000 		.4byte	.LFB260
 2347 0d9d 0A000000 		.4byte	.LFE260-.LFB260
 2348 0da1 01       		.uleb128 0x1
 2349 0da2 9C       		.byte	0x9c
 2350 0da3 F80D0000 		.4byte	0xdf8
 2351 0da7 25       		.uleb128 0x25
 2352 0da8 697000   		.ascii	"ip\000"
 2353 0dab 01       		.byte	0x1
 2354 0dac 32       		.byte	0x32
 2355 0dad 43030000 		.4byte	0x343
 2356 0db1 92010000 		.4byte	.LLST11
 2357 0db5 25       		.uleb128 0x25
 2358 0db6 627000   		.ascii	"bp\000"
 2359 0db9 01       		.byte	0x1
 2360 0dba 32       		.byte	0x32
 2361 0dbb D5080000 		.4byte	0x8d5
 2362 0dbf C0010000 		.4byte	.LLST12
 2363 0dc3 25       		.uleb128 0x25
 2364 0dc4 6E00     		.ascii	"n\000"
 2365 0dc6 01       		.byte	0x1
 2366 0dc7 32       		.byte	0x32
 2367 0dc8 2C000000 		.4byte	0x2c
 2368 0dcc E1010000 		.4byte	.LLST13
 2369 0dd0 27       		.uleb128 0x27
 2370 0dd1 0A000000 		.4byte	.LVL11
 2371 0dd5 49140000 		.4byte	0x1449
 2372 0dd9 28       		.uleb128 0x28
 2373 0dda 01       		.uleb128 0x1
 2374 0ddb 50       		.byte	0x50
 2375 0ddc 05       		.uleb128 0x5
 2376 0ddd F3       		.byte	0xf3
 2377 0dde 01       		.uleb128 0x1
 2378 0ddf 50       		.byte	0x50
 2379 0de0 23       		.byte	0x23
ARM GAS  /tmp/ccT99met.s 			page 43


 2380 0de1 30       		.uleb128 0x30
 2381 0de2 28       		.uleb128 0x28
 2382 0de3 01       		.uleb128 0x1
 2383 0de4 51       		.byte	0x51
 2384 0de5 03       		.uleb128 0x3
 2385 0de6 F3       		.byte	0xf3
 2386 0de7 01       		.uleb128 0x1
 2387 0de8 51       		.byte	0x51
 2388 0de9 28       		.uleb128 0x28
 2389 0dea 01       		.uleb128 0x1
 2390 0deb 52       		.byte	0x52
 2391 0dec 03       		.uleb128 0x3
 2392 0ded F3       		.byte	0xf3
 2393 0dee 01       		.uleb128 0x1
 2394 0def 52       		.byte	0x52
 2395 0df0 28       		.uleb128 0x28
 2396 0df1 01       		.uleb128 0x1
 2397 0df2 53       		.byte	0x53
 2398 0df3 02       		.uleb128 0x2
 2399 0df4 09       		.byte	0x9
 2400 0df5 FF       		.byte	0xff
 2401 0df6 00       		.byte	0
 2402 0df7 00       		.byte	0
 2403 0df8 24       		.uleb128 0x24
 2404 0df9 F2020000 		.4byte	.LASF148
 2405 0dfd 01       		.byte	0x1
 2406 0dfe 4D       		.byte	0x4d
 2407 0dff 2C010000 		.4byte	0x12c
 2408 0e03 00000000 		.4byte	.LFB265
 2409 0e07 06000000 		.4byte	.LFE265-.LFB265
 2410 0e0b 01       		.uleb128 0x1
 2411 0e0c 9C       		.byte	0x9c
 2412 0e0d 490E0000 		.4byte	0xe49
 2413 0e11 25       		.uleb128 0x25
 2414 0e12 697000   		.ascii	"ip\000"
 2415 0e15 01       		.byte	0x1
 2416 0e16 4D       		.byte	0x4d
 2417 0e17 43030000 		.4byte	0x343
 2418 0e1b 02020000 		.4byte	.LLST14
 2419 0e1f 26       		.uleb128 0x26
 2420 0e20 CC080000 		.4byte	.LASF164
 2421 0e24 01       		.byte	0x1
 2422 0e25 4D       		.byte	0x4d
 2423 0e26 58010000 		.4byte	0x158
 2424 0e2a 30020000 		.4byte	.LLST15
 2425 0e2e 27       		.uleb128 0x27
 2426 0e2f 06000000 		.4byte	.LVL14
 2427 0e33 54140000 		.4byte	0x1454
 2428 0e37 28       		.uleb128 0x28
 2429 0e38 01       		.uleb128 0x1
 2430 0e39 50       		.byte	0x50
 2431 0e3a 05       		.uleb128 0x5
 2432 0e3b F3       		.byte	0xf3
 2433 0e3c 01       		.uleb128 0x1
 2434 0e3d 50       		.byte	0x50
 2435 0e3e 23       		.byte	0x23
 2436 0e3f 0C       		.uleb128 0xc
ARM GAS  /tmp/ccT99met.s 			page 44


 2437 0e40 28       		.uleb128 0x28
 2438 0e41 01       		.uleb128 0x1
 2439 0e42 51       		.byte	0x51
 2440 0e43 03       		.uleb128 0x3
 2441 0e44 F3       		.byte	0xf3
 2442 0e45 01       		.uleb128 0x1
 2443 0e46 51       		.byte	0x51
 2444 0e47 00       		.byte	0
 2445 0e48 00       		.byte	0
 2446 0e49 29       		.uleb128 0x29
 2447 0e4a 67657400 		.ascii	"get\000"
 2448 0e4e 01       		.byte	0x1
 2449 0e4f 43       		.byte	0x43
 2450 0e50 2C010000 		.4byte	0x12c
 2451 0e54 00000000 		.4byte	.LFB263
 2452 0e58 0A000000 		.4byte	.LFE263-.LFB263
 2453 0e5c 01       		.uleb128 0x1
 2454 0e5d 9C       		.byte	0x9c
 2455 0e5e 8A0E0000 		.4byte	0xe8a
 2456 0e62 25       		.uleb128 0x25
 2457 0e63 697000   		.ascii	"ip\000"
 2458 0e66 01       		.byte	0x1
 2459 0e67 43       		.byte	0x43
 2460 0e68 43030000 		.4byte	0x343
 2461 0e6c 51020000 		.4byte	.LLST16
 2462 0e70 27       		.uleb128 0x27
 2463 0e71 0A000000 		.4byte	.LVL17
 2464 0e75 54140000 		.4byte	0x1454
 2465 0e79 28       		.uleb128 0x28
 2466 0e7a 01       		.uleb128 0x1
 2467 0e7b 50       		.byte	0x50
 2468 0e7c 05       		.uleb128 0x5
 2469 0e7d F3       		.byte	0xf3
 2470 0e7e 01       		.uleb128 0x1
 2471 0e7f 50       		.byte	0x50
 2472 0e80 23       		.byte	0x23
 2473 0e81 0C       		.uleb128 0xc
 2474 0e82 28       		.uleb128 0x28
 2475 0e83 01       		.uleb128 0x1
 2476 0e84 51       		.byte	0x51
 2477 0e85 02       		.uleb128 0x2
 2478 0e86 09       		.byte	0x9
 2479 0e87 FF       		.byte	0xff
 2480 0e88 00       		.byte	0
 2481 0e89 00       		.byte	0
 2482 0e8a 24       		.uleb128 0x24
 2483 0e8b A5040000 		.4byte	.LASF147
 2484 0e8f 01       		.byte	0x1
 2485 0e90 48       		.byte	0x48
 2486 0e91 2C010000 		.4byte	0x12c
 2487 0e95 00000000 		.4byte	.LFB264
 2488 0e99 06000000 		.4byte	.LFE264-.LFB264
 2489 0e9d 01       		.uleb128 0x1
 2490 0e9e 9C       		.byte	0x9c
 2491 0e9f E80E0000 		.4byte	0xee8
 2492 0ea3 25       		.uleb128 0x25
 2493 0ea4 697000   		.ascii	"ip\000"
ARM GAS  /tmp/ccT99met.s 			page 45


 2494 0ea7 01       		.byte	0x1
 2495 0ea8 48       		.byte	0x48
 2496 0ea9 43030000 		.4byte	0x343
 2497 0ead 7F020000 		.4byte	.LLST17
 2498 0eb1 25       		.uleb128 0x25
 2499 0eb2 6200     		.ascii	"b\000"
 2500 0eb4 01       		.byte	0x1
 2501 0eb5 48       		.byte	0x48
 2502 0eb6 B4000000 		.4byte	0xb4
 2503 0eba AD020000 		.4byte	.LLST18
 2504 0ebe 26       		.uleb128 0x26
 2505 0ebf CC080000 		.4byte	.LASF164
 2506 0ec3 01       		.byte	0x1
 2507 0ec4 48       		.byte	0x48
 2508 0ec5 58010000 		.4byte	0x158
 2509 0ec9 CE020000 		.4byte	.LLST19
 2510 0ecd 27       		.uleb128 0x27
 2511 0ece 06000000 		.4byte	.LVL20
 2512 0ed2 5F140000 		.4byte	0x145f
 2513 0ed6 28       		.uleb128 0x28
 2514 0ed7 01       		.uleb128 0x1
 2515 0ed8 50       		.byte	0x50
 2516 0ed9 05       		.uleb128 0x5
 2517 0eda F3       		.byte	0xf3
 2518 0edb 01       		.uleb128 0x1
 2519 0edc 50       		.byte	0x50
 2520 0edd 23       		.byte	0x23
 2521 0ede 30       		.uleb128 0x30
 2522 0edf 28       		.uleb128 0x28
 2523 0ee0 01       		.uleb128 0x1
 2524 0ee1 52       		.byte	0x52
 2525 0ee2 03       		.uleb128 0x3
 2526 0ee3 F3       		.byte	0xf3
 2527 0ee4 01       		.uleb128 0x1
 2528 0ee5 52       		.byte	0x52
 2529 0ee6 00       		.byte	0
 2530 0ee7 00       		.byte	0
 2531 0ee8 29       		.uleb128 0x29
 2532 0ee9 70757400 		.ascii	"put\000"
 2533 0eed 01       		.byte	0x1
 2534 0eee 3E       		.byte	0x3e
 2535 0eef 2C010000 		.4byte	0x12c
 2536 0ef3 00000000 		.4byte	.LFB262
 2537 0ef7 0A000000 		.4byte	.LFE262-.LFB262
 2538 0efb 01       		.uleb128 0x1
 2539 0efc 9C       		.byte	0x9c
 2540 0efd 360F0000 		.4byte	0xf36
 2541 0f01 25       		.uleb128 0x25
 2542 0f02 697000   		.ascii	"ip\000"
 2543 0f05 01       		.byte	0x1
 2544 0f06 3E       		.byte	0x3e
 2545 0f07 43030000 		.4byte	0x343
 2546 0f0b EF020000 		.4byte	.LLST20
 2547 0f0f 25       		.uleb128 0x25
 2548 0f10 6200     		.ascii	"b\000"
 2549 0f12 01       		.byte	0x1
 2550 0f13 3E       		.byte	0x3e
ARM GAS  /tmp/ccT99met.s 			page 46


 2551 0f14 B4000000 		.4byte	0xb4
 2552 0f18 1D030000 		.4byte	.LLST21
 2553 0f1c 27       		.uleb128 0x27
 2554 0f1d 0A000000 		.4byte	.LVL23
 2555 0f21 5F140000 		.4byte	0x145f
 2556 0f25 28       		.uleb128 0x28
 2557 0f26 01       		.uleb128 0x1
 2558 0f27 50       		.byte	0x50
 2559 0f28 05       		.uleb128 0x5
 2560 0f29 F3       		.byte	0xf3
 2561 0f2a 01       		.uleb128 0x1
 2562 0f2b 50       		.byte	0x50
 2563 0f2c 23       		.byte	0x23
 2564 0f2d 30       		.uleb128 0x30
 2565 0f2e 28       		.uleb128 0x28
 2566 0f2f 01       		.uleb128 0x1
 2567 0f30 52       		.byte	0x52
 2568 0f31 02       		.uleb128 0x2
 2569 0f32 09       		.byte	0x9
 2570 0f33 FF       		.byte	0xff
 2571 0f34 00       		.byte	0
 2572 0f35 00       		.byte	0
 2573 0f36 2A       		.uleb128 0x2a
 2574 0f37 D4080000 		.4byte	.LASF165
 2575 0f3b 01       		.byte	0x1
 2576 0f3c 6C       		.byte	0x6c
 2577 0f3d 00000000 		.4byte	.LFB268
 2578 0f41 04000000 		.4byte	.LFE268-.LFB268
 2579 0f45 01       		.uleb128 0x1
 2580 0f46 9C       		.byte	0x9c
 2581 0f47 550F0000 		.4byte	0xf55
 2582 0f4b 2B       		.uleb128 0x2b
 2583 0f4c 04000000 		.4byte	.LVL24
 2584 0f50 6A140000 		.4byte	0x146a
 2585 0f54 00       		.byte	0
 2586 0f55 2A       		.uleb128 0x2a
 2587 0f56 16010000 		.4byte	.LASF166
 2588 0f5a 01       		.byte	0x1
 2589 0f5b 80       		.byte	0x80
 2590 0f5c 00000000 		.4byte	.LFB269
 2591 0f60 40000000 		.4byte	.LFE269-.LFB269
 2592 0f64 01       		.uleb128 0x1
 2593 0f65 9C       		.byte	0x9c
 2594 0f66 1F100000 		.4byte	0x101f
 2595 0f6a 25       		.uleb128 0x25
 2596 0f6b 73647000 		.ascii	"sdp\000"
 2597 0f6f 01       		.byte	0x1
 2598 0f70 80       		.byte	0x80
 2599 0f71 1F100000 		.4byte	0x101f
 2600 0f75 3E030000 		.4byte	.LLST22
 2601 0f79 26       		.uleb128 0x26
 2602 0f7a C3020000 		.4byte	.LASF167
 2603 0f7e 01       		.byte	0x1
 2604 0f7f 80       		.byte	0x80
 2605 0f80 7E080000 		.4byte	0x87e
 2606 0f84 6A030000 		.4byte	.LLST23
 2607 0f88 26       		.uleb128 0x26
ARM GAS  /tmp/ccT99met.s 			page 47


 2608 0f89 89080000 		.4byte	.LASF168
 2609 0f8d 01       		.byte	0x1
 2610 0f8e 80       		.byte	0x80
 2611 0f8f 7E080000 		.4byte	0x87e
 2612 0f93 96030000 		.4byte	.LLST24
 2613 0f97 2C       		.uleb128 0x2c
 2614 0f98 D50B0000 		.4byte	0xbd5
 2615 0f9c 14000000 		.4byte	.LBB66
 2616 0fa0 02000000 		.4byte	.LBE66-.LBB66
 2617 0fa4 01       		.byte	0x1
 2618 0fa5 83       		.byte	0x83
 2619 0fa6 CE0F0000 		.4byte	0xfce
 2620 0faa 2D       		.uleb128 0x2d
 2621 0fab E20B0000 		.4byte	0xbe2
 2622 0faf C2030000 		.4byte	.LLST25
 2623 0fb3 2E       		.uleb128 0x2e
 2624 0fb4 B70B0000 		.4byte	0xbb7
 2625 0fb8 14000000 		.4byte	.LBB67
 2626 0fbc 02000000 		.4byte	.LBE67-.LBB67
 2627 0fc0 04       		.byte	0x4
 2628 0fc1 0903     		.2byte	0x309
 2629 0fc3 2D       		.uleb128 0x2d
 2630 0fc4 C30B0000 		.4byte	0xbc3
 2631 0fc8 F2030000 		.4byte	.LLST26
 2632 0fcc 00       		.byte	0
 2633 0fcd 00       		.byte	0
 2634 0fce 2F       		.uleb128 0x2f
 2635 0fcf 26000000 		.4byte	.LVL30
 2636 0fd3 76140000 		.4byte	0x1476
 2637 0fd7 F50F0000 		.4byte	0xff5
 2638 0fdb 28       		.uleb128 0x28
 2639 0fdc 01       		.uleb128 0x1
 2640 0fdd 50       		.byte	0x50
 2641 0fde 02       		.uleb128 0x2
 2642 0fdf 74       		.byte	0x74
 2643 0fe0 0C       		.sleb128 12
 2644 0fe1 28       		.uleb128 0x28
 2645 0fe2 01       		.uleb128 0x1
 2646 0fe3 51       		.byte	0x51
 2647 0fe4 03       		.uleb128 0x3
 2648 0fe5 74       		.byte	0x74
 2649 0fe6 D400     		.sleb128 84
 2650 0fe8 28       		.uleb128 0x28
 2651 0fe9 01       		.uleb128 0x1
 2652 0fea 52       		.byte	0x52
 2653 0feb 01       		.uleb128 0x1
 2654 0fec 40       		.byte	0x40
 2655 0fed 28       		.uleb128 0x28
 2656 0fee 01       		.uleb128 0x1
 2657 0fef 53       		.byte	0x53
 2658 0ff0 03       		.uleb128 0x3
 2659 0ff1 F3       		.byte	0xf3
 2660 0ff2 01       		.uleb128 0x1
 2661 0ff3 51       		.byte	0x51
 2662 0ff4 00       		.byte	0
 2663 0ff5 30       		.uleb128 0x30
 2664 0ff6 38000000 		.4byte	.LVL31
ARM GAS  /tmp/ccT99met.s 			page 48


 2665 0ffa 81140000 		.4byte	0x1481
 2666 0ffe 28       		.uleb128 0x28
 2667 0fff 01       		.uleb128 0x1
 2668 1000 50       		.byte	0x50
 2669 1001 02       		.uleb128 0x2
 2670 1002 74       		.byte	0x74
 2671 1003 30       		.sleb128 48
 2672 1004 28       		.uleb128 0x28
 2673 1005 01       		.uleb128 0x1
 2674 1006 51       		.byte	0x51
 2675 1007 03       		.uleb128 0x3
 2676 1008 74       		.byte	0x74
 2677 1009 E400     		.sleb128 100
 2678 100b 28       		.uleb128 0x28
 2679 100c 01       		.uleb128 0x1
 2680 100d 52       		.byte	0x52
 2681 100e 01       		.uleb128 0x1
 2682 100f 40       		.byte	0x40
 2683 1010 28       		.uleb128 0x28
 2684 1011 01       		.uleb128 0x1
 2685 1012 53       		.byte	0x53
 2686 1013 02       		.uleb128 0x2
 2687 1014 75       		.byte	0x75
 2688 1015 00       		.sleb128 0
 2689 1016 28       		.uleb128 0x28
 2690 1017 02       		.uleb128 0x2
 2691 1018 7D       		.byte	0x7d
 2692 1019 00       		.sleb128 0
 2693 101a 02       		.uleb128 0x2
 2694 101b 74       		.byte	0x74
 2695 101c 00       		.sleb128 0
 2696 101d 00       		.byte	0
 2697 101e 00       		.byte	0
 2698 101f 0A       		.uleb128 0xa
 2699 1020 04       		.byte	0x4
 2700 1021 E6090000 		.4byte	0x9e6
 2701 1025 2A       		.uleb128 0x2a
 2702 1026 35070000 		.4byte	.LASF169
 2703 102a 01       		.byte	0x1
 2704 102b 93       		.byte	0x93
 2705 102c 00000000 		.4byte	.LFB270
 2706 1030 1A000000 		.4byte	.LFE270-.LFB270
 2707 1034 01       		.uleb128 0x1
 2708 1035 9C       		.byte	0x9c
 2709 1036 22110000 		.4byte	0x1122
 2710 103a 25       		.uleb128 0x25
 2711 103b 73647000 		.ascii	"sdp\000"
 2712 103f 01       		.byte	0x1
 2713 1040 93       		.byte	0x93
 2714 1041 1F100000 		.4byte	0x101f
 2715 1045 22040000 		.4byte	.LLST27
 2716 1049 26       		.uleb128 0x26
 2717 104a 2E070000 		.4byte	.LASF170
 2718 104e 01       		.byte	0x1
 2719 104f 93       		.byte	0x93
 2720 1050 22110000 		.4byte	0x1122
 2721 1054 40040000 		.4byte	.LLST28
ARM GAS  /tmp/ccT99met.s 			page 49


 2722 1058 31       		.uleb128 0x31
 2723 1059 73060000 		.4byte	.LASF172
 2724 105d 3D110000 		.4byte	0x113d
 2725 1061 32       		.uleb128 0x32
 2726 1062 F80B0000 		.4byte	0xbf8
 2727 1066 02000000 		.4byte	.LBB69
 2728 106a 00000000 		.4byte	.Ldebug_ranges0+0
 2729 106e 01       		.byte	0x1
 2730 106f 97       		.byte	0x97
 2731 1070 AE100000 		.4byte	0x10ae
 2732 1074 33       		.uleb128 0x33
 2733 1075 7E0B0000 		.4byte	0xb7e
 2734 1079 02000000 		.4byte	.LBB70
 2735 107d 00000000 		.4byte	.Ldebug_ranges0+0
 2736 1081 04       		.byte	0x4
 2737 1082 BF01     		.2byte	0x1bf
 2738 1084 33       		.uleb128 0x33
 2739 1085 480B0000 		.4byte	0xb48
 2740 1089 02000000 		.4byte	.LBB71
 2741 108d 00000000 		.4byte	.Ldebug_ranges0+0
 2742 1091 14       		.byte	0x14
 2743 1092 5C01     		.2byte	0x15c
 2744 1094 33       		.uleb128 0x33
 2745 1095 2E0B0000 		.4byte	0xb2e
 2746 1099 02000000 		.4byte	.LBB72
 2747 109d 00000000 		.4byte	.Ldebug_ranges0+0
 2748 10a1 0D       		.byte	0xd
 2749 10a2 BF01     		.2byte	0x1bf
 2750 10a4 34       		.uleb128 0x34
 2751 10a5 3B0B0000 		.4byte	0xb3b
 2752 10a9 20       		.byte	0x20
 2753 10aa 00       		.byte	0
 2754 10ab 00       		.byte	0
 2755 10ac 00       		.byte	0
 2756 10ad 00       		.byte	0
 2757 10ae 2C       		.uleb128 0x2c
 2758 10af EF0B0000 		.4byte	0xbef
 2759 10b3 12000000 		.4byte	.LBB79
 2760 10b7 08000000 		.4byte	.LBE79-.LBB79
 2761 10bb 01       		.byte	0x1
 2762 10bc 9C       		.byte	0x9c
 2763 10bd 0A110000 		.4byte	0x110a
 2764 10c1 2E       		.uleb128 0x2e
 2765 10c2 870B0000 		.4byte	0xb87
 2766 10c6 12000000 		.4byte	.LBB80
 2767 10ca 08000000 		.4byte	.LBE80-.LBB80
 2768 10ce 04       		.byte	0x4
 2769 10cf CA01     		.2byte	0x1ca
 2770 10d1 35       		.uleb128 0x35
 2771 10d2 12000000 		.4byte	.LBB81
 2772 10d6 08000000 		.4byte	.LBE81-.LBB81
 2773 10da 36       		.uleb128 0x36
 2774 10db 940B0000 		.4byte	0xb94
 2775 10df 2E       		.uleb128 0x2e
 2776 10e0 510B0000 		.4byte	0xb51
 2777 10e4 12000000 		.4byte	.LBB82
 2778 10e8 08000000 		.4byte	.LBE82-.LBB82
ARM GAS  /tmp/ccT99met.s 			page 50


 2779 10ec 14       		.byte	0x14
 2780 10ed 7301     		.2byte	0x173
 2781 10ef 2E       		.uleb128 0x2e
 2782 10f0 2E0B0000 		.4byte	0xb2e
 2783 10f4 12000000 		.4byte	.LBB83
 2784 10f8 08000000 		.4byte	.LBE83-.LBB83
 2785 10fc 0D       		.byte	0xd
 2786 10fd CD01     		.2byte	0x1cd
 2787 10ff 34       		.uleb128 0x34
 2788 1100 3B0B0000 		.4byte	0xb3b
 2789 1104 00       		.byte	0
 2790 1105 00       		.byte	0
 2791 1106 00       		.byte	0
 2792 1107 00       		.byte	0
 2793 1108 00       		.byte	0
 2794 1109 00       		.byte	0
 2795 110a 30       		.uleb128 0x30
 2796 110b 0E000000 		.4byte	.LVL34
 2797 110f 8C140000 		.4byte	0x148c
 2798 1113 28       		.uleb128 0x28
 2799 1114 01       		.uleb128 0x1
 2800 1115 50       		.byte	0x50
 2801 1116 02       		.uleb128 0x2
 2802 1117 74       		.byte	0x74
 2803 1118 00       		.sleb128 0
 2804 1119 28       		.uleb128 0x28
 2805 111a 01       		.uleb128 0x1
 2806 111b 51       		.byte	0x51
 2807 111c 03       		.uleb128 0x3
 2808 111d F3       		.byte	0xf3
 2809 111e 01       		.uleb128 0x1
 2810 111f 51       		.byte	0x51
 2811 1120 00       		.byte	0
 2812 1121 00       		.byte	0
 2813 1122 0A       		.uleb128 0xa
 2814 1123 04       		.byte	0x4
 2815 1124 28110000 		.4byte	0x1128
 2816 1128 16       		.uleb128 0x16
 2817 1129 950A0000 		.4byte	0xa95
 2818 112d 17       		.uleb128 0x17
 2819 112e 50070000 		.4byte	0x750
 2820 1132 3D110000 		.4byte	0x113d
 2821 1136 18       		.uleb128 0x18
 2822 1137 79040000 		.4byte	0x479
 2823 113b 07       		.byte	0x7
 2824 113c 00       		.byte	0
 2825 113d 16       		.uleb128 0x16
 2826 113e 2D110000 		.4byte	0x112d
 2827 1142 2A       		.uleb128 0x2a
 2828 1143 71050000 		.4byte	.LASF171
 2829 1147 01       		.byte	0x1
 2830 1148 A8       		.byte	0xa8
 2831 1149 00000000 		.4byte	.LFB271
 2832 114d 2E000000 		.4byte	.LFE271-.LFB271
 2833 1151 01       		.uleb128 0x1
 2834 1152 9C       		.byte	0x9c
 2835 1153 6E120000 		.4byte	0x126e
ARM GAS  /tmp/ccT99met.s 			page 51


 2836 1157 25       		.uleb128 0x25
 2837 1158 73647000 		.ascii	"sdp\000"
 2838 115c 01       		.byte	0x1
 2839 115d A8       		.byte	0xa8
 2840 115e 1F100000 		.4byte	0x101f
 2841 1162 61040000 		.4byte	.LLST29
 2842 1166 31       		.uleb128 0x31
 2843 1167 73060000 		.4byte	.LASF172
 2844 116b 7E120000 		.4byte	0x127e
 2845 116f 32       		.uleb128 0x32
 2846 1170 F80B0000 		.4byte	0xbf8
 2847 1174 02000000 		.4byte	.LBB85
 2848 1178 18000000 		.4byte	.Ldebug_ranges0+0x18
 2849 117c 01       		.byte	0x1
 2850 117d AC       		.byte	0xac
 2851 117e BC110000 		.4byte	0x11bc
 2852 1182 33       		.uleb128 0x33
 2853 1183 7E0B0000 		.4byte	0xb7e
 2854 1187 02000000 		.4byte	.LBB86
 2855 118b 18000000 		.4byte	.Ldebug_ranges0+0x18
 2856 118f 04       		.byte	0x4
 2857 1190 BF01     		.2byte	0x1bf
 2858 1192 33       		.uleb128 0x33
 2859 1193 480B0000 		.4byte	0xb48
 2860 1197 02000000 		.4byte	.LBB87
 2861 119b 18000000 		.4byte	.Ldebug_ranges0+0x18
 2862 119f 14       		.byte	0x14
 2863 11a0 5C01     		.2byte	0x15c
 2864 11a2 33       		.uleb128 0x33
 2865 11a3 2E0B0000 		.4byte	0xb2e
 2866 11a7 02000000 		.4byte	.LBB88
 2867 11ab 18000000 		.4byte	.Ldebug_ranges0+0x18
 2868 11af 0D       		.byte	0xd
 2869 11b0 BF01     		.2byte	0x1bf
 2870 11b2 34       		.uleb128 0x34
 2871 11b3 3B0B0000 		.4byte	0xb3b
 2872 11b7 20       		.byte	0x20
 2873 11b8 00       		.byte	0
 2874 11b9 00       		.byte	0
 2875 11ba 00       		.byte	0
 2876 11bb 00       		.byte	0
 2877 11bc 2C       		.uleb128 0x2c
 2878 11bd 010C0000 		.4byte	0xc01
 2879 11c1 22000000 		.4byte	.LBB95
 2880 11c5 04000000 		.4byte	.LBE95-.LBB95
 2881 11c9 01       		.byte	0x1
 2882 11ca B3       		.byte	0xb3
 2883 11cb D9110000 		.4byte	0x11d9
 2884 11cf 37       		.uleb128 0x37
 2885 11d0 26000000 		.4byte	.LVL40
 2886 11d4 98140000 		.4byte	0x1498
 2887 11d8 00       		.byte	0
 2888 11d9 2C       		.uleb128 0x2c
 2889 11da EF0B0000 		.4byte	0xbef
 2890 11de 26000000 		.4byte	.LBB97
 2891 11e2 08000000 		.4byte	.LBE97-.LBB97
 2892 11e6 01       		.byte	0x1
ARM GAS  /tmp/ccT99met.s 			page 52


 2893 11e7 B4       		.byte	0xb4
 2894 11e8 35120000 		.4byte	0x1235
 2895 11ec 2E       		.uleb128 0x2e
 2896 11ed 870B0000 		.4byte	0xb87
 2897 11f1 26000000 		.4byte	.LBB98
 2898 11f5 08000000 		.4byte	.LBE98-.LBB98
 2899 11f9 04       		.byte	0x4
 2900 11fa CA01     		.2byte	0x1ca
 2901 11fc 35       		.uleb128 0x35
 2902 11fd 26000000 		.4byte	.LBB99
 2903 1201 08000000 		.4byte	.LBE99-.LBB99
 2904 1205 36       		.uleb128 0x36
 2905 1206 940B0000 		.4byte	0xb94
 2906 120a 2E       		.uleb128 0x2e
 2907 120b 510B0000 		.4byte	0xb51
 2908 120f 26000000 		.4byte	.LBB100
 2909 1213 08000000 		.4byte	.LBE100-.LBB100
 2910 1217 14       		.byte	0x14
 2911 1218 7301     		.2byte	0x173
 2912 121a 2E       		.uleb128 0x2e
 2913 121b 2E0B0000 		.4byte	0xb2e
 2914 121f 26000000 		.4byte	.LBB101
 2915 1223 08000000 		.4byte	.LBE101-.LBB101
 2916 1227 0D       		.byte	0xd
 2917 1228 CD01     		.2byte	0x1cd
 2918 122a 34       		.uleb128 0x34
 2919 122b 3B0B0000 		.4byte	0xb3b
 2920 122f 00       		.byte	0
 2921 1230 00       		.byte	0
 2922 1231 00       		.byte	0
 2923 1232 00       		.byte	0
 2924 1233 00       		.byte	0
 2925 1234 00       		.byte	0
 2926 1235 2F       		.uleb128 0x2f
 2927 1236 0E000000 		.4byte	.LVL37
 2928 123a A4140000 		.4byte	0x14a4
 2929 123e 49120000 		.4byte	0x1249
 2930 1242 28       		.uleb128 0x28
 2931 1243 01       		.uleb128 0x1
 2932 1244 50       		.byte	0x50
 2933 1245 02       		.uleb128 0x2
 2934 1246 74       		.byte	0x74
 2935 1247 00       		.sleb128 0
 2936 1248 00       		.byte	0
 2937 1249 2F       		.uleb128 0x2f
 2938 124a 1A000000 		.4byte	.LVL38
 2939 124e B0140000 		.4byte	0x14b0
 2940 1252 5D120000 		.4byte	0x125d
 2941 1256 28       		.uleb128 0x28
 2942 1257 01       		.uleb128 0x1
 2943 1258 50       		.byte	0x50
 2944 1259 02       		.uleb128 0x2
 2945 125a 74       		.byte	0x74
 2946 125b 30       		.sleb128 48
 2947 125c 00       		.byte	0
 2948 125d 30       		.uleb128 0x30
 2949 125e 22000000 		.4byte	.LVL39
ARM GAS  /tmp/ccT99met.s 			page 53


 2950 1262 BB140000 		.4byte	0x14bb
 2951 1266 28       		.uleb128 0x28
 2952 1267 01       		.uleb128 0x1
 2953 1268 50       		.byte	0x50
 2954 1269 02       		.uleb128 0x2
 2955 126a 74       		.byte	0x74
 2956 126b 0C       		.sleb128 12
 2957 126c 00       		.byte	0
 2958 126d 00       		.byte	0
 2959 126e 17       		.uleb128 0x17
 2960 126f 50070000 		.4byte	0x750
 2961 1273 7E120000 		.4byte	0x127e
 2962 1277 18       		.uleb128 0x18
 2963 1278 79040000 		.4byte	0x479
 2964 127c 06       		.byte	0x6
 2965 127d 00       		.byte	0
 2966 127e 16       		.uleb128 0x16
 2967 127f 6E120000 		.4byte	0x126e
 2968 1283 2A       		.uleb128 0x2a
 2969 1284 1E070000 		.4byte	.LASF173
 2970 1288 01       		.byte	0x1
 2971 1289 C7       		.byte	0xc7
 2972 128a 00000000 		.4byte	.LFB272
 2973 128e 3C000000 		.4byte	.LFE272-.LFB272
 2974 1292 01       		.uleb128 0x1
 2975 1293 9C       		.byte	0x9c
 2976 1294 65130000 		.4byte	0x1365
 2977 1298 25       		.uleb128 0x25
 2978 1299 73647000 		.ascii	"sdp\000"
 2979 129d 01       		.byte	0x1
 2980 129e C7       		.byte	0xc7
 2981 129f 1F100000 		.4byte	0x101f
 2982 12a3 7F040000 		.4byte	.LLST30
 2983 12a7 25       		.uleb128 0x25
 2984 12a8 6200     		.ascii	"b\000"
 2985 12aa 01       		.byte	0x1
 2986 12ab C7       		.byte	0xc7
 2987 12ac B4000000 		.4byte	0xb4
 2988 12b0 CE040000 		.4byte	.LLST31
 2989 12b4 31       		.uleb128 0x31
 2990 12b5 73060000 		.4byte	.LASF172
 2991 12b9 75130000 		.4byte	0x1375
 2992 12bd 2C       		.uleb128 0x2c
 2993 12be 0A0C0000 		.4byte	0xc0a
 2994 12c2 1A000000 		.4byte	.LBB103
 2995 12c6 08000000 		.4byte	.LBE103-.LBB103
 2996 12ca 01       		.byte	0x1
 2997 12cb CD       		.byte	0xcd
 2998 12cc F8120000 		.4byte	0x12f8
 2999 12d0 2D       		.uleb128 0x2d
 3000 12d1 230C0000 		.4byte	0xc23
 3001 12d5 08050000 		.4byte	.LLST32
 3002 12d9 2D       		.uleb128 0x2d
 3003 12da 170C0000 		.4byte	0xc17
 3004 12de 1C050000 		.4byte	.LLST33
 3005 12e2 30       		.uleb128 0x30
 3006 12e3 22000000 		.4byte	.LVL49
ARM GAS  /tmp/ccT99met.s 			page 54


 3007 12e7 C6140000 		.4byte	0x14c6
 3008 12eb 28       		.uleb128 0x28
 3009 12ec 01       		.uleb128 0x1
 3010 12ed 50       		.byte	0x50
 3011 12ee 02       		.uleb128 0x2
 3012 12ef 74       		.byte	0x74
 3013 12f0 04       		.sleb128 4
 3014 12f1 28       		.uleb128 0x28
 3015 12f2 01       		.uleb128 0x1
 3016 12f3 51       		.byte	0x51
 3017 12f4 01       		.uleb128 0x1
 3018 12f5 34       		.byte	0x34
 3019 12f6 00       		.byte	0
 3020 12f7 00       		.byte	0
 3021 12f8 32       		.uleb128 0x32
 3022 12f9 0A0C0000 		.4byte	0xc0a
 3023 12fd 30000000 		.4byte	.LBB105
 3024 1301 30000000 		.4byte	.Ldebug_ranges0+0x30
 3025 1305 01       		.byte	0x1
 3026 1306 CF       		.byte	0xcf
 3027 1307 34130000 		.4byte	0x1334
 3028 130b 34       		.uleb128 0x34
 3029 130c 230C0000 		.4byte	0xc23
 3030 1310 80       		.byte	0x80
 3031 1311 2D       		.uleb128 0x2d
 3032 1312 170C0000 		.4byte	0xc17
 3033 1316 49050000 		.4byte	.LLST34
 3034 131a 27       		.uleb128 0x27
 3035 131b 3C000000 		.4byte	.LVL54
 3036 131f C6140000 		.4byte	0x14c6
 3037 1323 28       		.uleb128 0x28
 3038 1324 01       		.uleb128 0x1
 3039 1325 50       		.byte	0x50
 3040 1326 05       		.uleb128 0x5
 3041 1327 F3       		.byte	0xf3
 3042 1328 01       		.uleb128 0x1
 3043 1329 50       		.byte	0x50
 3044 132a 23       		.byte	0x23
 3045 132b 04       		.uleb128 0x4
 3046 132c 28       		.uleb128 0x28
 3047 132d 01       		.uleb128 0x1
 3048 132e 51       		.byte	0x51
 3049 132f 02       		.uleb128 0x2
 3050 1330 08       		.byte	0x8
 3051 1331 80       		.byte	0x80
 3052 1332 00       		.byte	0
 3053 1333 00       		.byte	0
 3054 1334 2F       		.uleb128 0x2f
 3055 1335 14000000 		.4byte	.LVL45
 3056 1339 D1140000 		.4byte	0x14d1
 3057 133d 4E130000 		.4byte	0x134e
 3058 1341 28       		.uleb128 0x28
 3059 1342 01       		.uleb128 0x1
 3060 1343 50       		.byte	0x50
 3061 1344 02       		.uleb128 0x2
 3062 1345 74       		.byte	0x74
 3063 1346 0C       		.sleb128 12
ARM GAS  /tmp/ccT99met.s 			page 55


 3064 1347 28       		.uleb128 0x28
 3065 1348 01       		.uleb128 0x1
 3066 1349 51       		.byte	0x51
 3067 134a 02       		.uleb128 0x2
 3068 134b 75       		.byte	0x75
 3069 134c 00       		.sleb128 0
 3070 134d 00       		.byte	0
 3071 134e 30       		.uleb128 0x30
 3072 134f 2C000000 		.4byte	.LVL50
 3073 1353 D1140000 		.4byte	0x14d1
 3074 1357 28       		.uleb128 0x28
 3075 1358 01       		.uleb128 0x1
 3076 1359 50       		.byte	0x50
 3077 135a 02       		.uleb128 0x2
 3078 135b 74       		.byte	0x74
 3079 135c 0C       		.sleb128 12
 3080 135d 28       		.uleb128 0x28
 3081 135e 01       		.uleb128 0x1
 3082 135f 51       		.byte	0x51
 3083 1360 02       		.uleb128 0x2
 3084 1361 75       		.byte	0x75
 3085 1362 00       		.sleb128 0
 3086 1363 00       		.byte	0
 3087 1364 00       		.byte	0
 3088 1365 17       		.uleb128 0x17
 3089 1366 50070000 		.4byte	0x750
 3090 136a 75130000 		.4byte	0x1375
 3091 136e 18       		.uleb128 0x18
 3092 136f 79040000 		.4byte	0x479
 3093 1373 0F       		.byte	0xf
 3094 1374 00       		.byte	0
 3095 1375 16       		.uleb128 0x16
 3096 1376 65130000 		.4byte	0x1365
 3097 137a 38       		.uleb128 0x38
 3098 137b 52080000 		.4byte	.LASF194
 3099 137f 01       		.byte	0x1
 3100 1380 E1       		.byte	0xe1
 3101 1381 2C010000 		.4byte	0x12c
 3102 1385 00000000 		.4byte	.LFB273
 3103 1389 1E000000 		.4byte	.LFE273-.LFB273
 3104 138d 01       		.uleb128 0x1
 3105 138e 9C       		.byte	0x9c
 3106 138f 01140000 		.4byte	0x1401
 3107 1393 25       		.uleb128 0x25
 3108 1394 73647000 		.ascii	"sdp\000"
 3109 1398 01       		.byte	0x1
 3110 1399 E1       		.byte	0xe1
 3111 139a 1F100000 		.4byte	0x101f
 3112 139e 79050000 		.4byte	.LLST35
 3113 13a2 39       		.uleb128 0x39
 3114 13a3 6200     		.ascii	"b\000"
 3115 13a5 01       		.byte	0x1
 3116 13a6 E2       		.byte	0xe2
 3117 13a7 2C010000 		.4byte	0x12c
 3118 13ab 97050000 		.4byte	.LLST36
 3119 13af 31       		.uleb128 0x31
 3120 13b0 73060000 		.4byte	.LASF172
ARM GAS  /tmp/ccT99met.s 			page 56


 3121 13b4 11140000 		.4byte	0x1411
 3122 13b8 2C       		.uleb128 0x2c
 3123 13b9 0A0C0000 		.4byte	0xc0a
 3124 13bd 12000000 		.4byte	.LBB109
 3125 13c1 08000000 		.4byte	.LBE109-.LBB109
 3126 13c5 01       		.byte	0x1
 3127 13c6 E9       		.byte	0xe9
 3128 13c7 F0130000 		.4byte	0x13f0
 3129 13cb 34       		.uleb128 0x34
 3130 13cc 230C0000 		.4byte	0xc23
 3131 13d0 08       		.byte	0x8
 3132 13d1 2D       		.uleb128 0x2d
 3133 13d2 170C0000 		.4byte	0xc17
 3134 13d6 B5050000 		.4byte	.LLST37
 3135 13da 30       		.uleb128 0x30
 3136 13db 1A000000 		.4byte	.LVL60
 3137 13df C6140000 		.4byte	0x14c6
 3138 13e3 28       		.uleb128 0x28
 3139 13e4 01       		.uleb128 0x1
 3140 13e5 50       		.byte	0x50
 3141 13e6 02       		.uleb128 0x2
 3142 13e7 74       		.byte	0x74
 3143 13e8 04       		.sleb128 4
 3144 13e9 28       		.uleb128 0x28
 3145 13ea 01       		.uleb128 0x1
 3146 13eb 51       		.byte	0x51
 3147 13ec 01       		.uleb128 0x1
 3148 13ed 38       		.byte	0x38
 3149 13ee 00       		.byte	0
 3150 13ef 00       		.byte	0
 3151 13f0 30       		.uleb128 0x30
 3152 13f1 0A000000 		.4byte	.LVL57
 3153 13f5 DC140000 		.4byte	0x14dc
 3154 13f9 28       		.uleb128 0x28
 3155 13fa 01       		.uleb128 0x1
 3156 13fb 50       		.byte	0x50
 3157 13fc 02       		.uleb128 0x2
 3158 13fd 74       		.byte	0x74
 3159 13fe 30       		.sleb128 48
 3160 13ff 00       		.byte	0
 3161 1400 00       		.byte	0
 3162 1401 17       		.uleb128 0x17
 3163 1402 50070000 		.4byte	0x750
 3164 1406 11140000 		.4byte	0x1411
 3165 140a 18       		.uleb128 0x18
 3166 140b 79040000 		.4byte	0x479
 3167 140f 0E       		.byte	0xe
 3168 1410 00       		.byte	0
 3169 1411 16       		.uleb128 0x16
 3170 1412 01140000 		.4byte	0x1401
 3171 1416 3A       		.uleb128 0x3a
 3172 1417 766D7400 		.ascii	"vmt\000"
 3173 141b 01       		.byte	0x1
 3174 141c 5C       		.byte	0x5c
 3175 141d 130B0000 		.4byte	0xb13
 3176 1421 05       		.uleb128 0x5
 3177 1422 03       		.byte	0x3
ARM GAS  /tmp/ccT99met.s 			page 57


 3178 1423 00000000 		.4byte	vmt
 3179 1427 3B       		.uleb128 0x3b
 3180 1428 ED000000 		.4byte	.LASF174
 3181 142c 15       		.byte	0x15
 3182 142d A706     		.2byte	0x6a7
 3183 142f EB000000 		.4byte	0xeb
 3184 1433 3C       		.uleb128 0x3c
 3185 1434 636800   		.ascii	"ch\000"
 3186 1437 0A       		.byte	0xa
 3187 1438 0902     		.2byte	0x209
 3188 143a 12040000 		.4byte	0x412
 3189 143e 3D       		.uleb128 0x3d
 3190 143f 60000000 		.4byte	.LASF175
 3191 1443 60000000 		.4byte	.LASF175
 3192 1447 11       		.byte	0x11
 3193 1448 F3       		.byte	0xf3
 3194 1449 3D       		.uleb128 0x3d
 3195 144a A2030000 		.4byte	.LASF176
 3196 144e A2030000 		.4byte	.LASF176
 3197 1452 11       		.byte	0x11
 3198 1453 FB       		.byte	0xfb
 3199 1454 3D       		.uleb128 0x3d
 3200 1455 F8080000 		.4byte	.LASF177
 3201 1459 F8080000 		.4byte	.LASF177
 3202 145d 11       		.byte	0x11
 3203 145e F2       		.byte	0xf2
 3204 145f 3D       		.uleb128 0x3d
 3205 1460 00000000 		.4byte	.LASF178
 3206 1464 00000000 		.4byte	.LASF178
 3207 1468 11       		.byte	0x11
 3208 1469 F9       		.byte	0xf9
 3209 146a 3E       		.uleb128 0x3e
 3210 146b E6020000 		.4byte	.LASF179
 3211 146f E6020000 		.4byte	.LASF179
 3212 1473 13       		.byte	0x13
 3213 1474 2401     		.2byte	0x124
 3214 1476 3D       		.uleb128 0x3d
 3215 1477 7A000000 		.4byte	.LASF180
 3216 147b 7A000000 		.4byte	.LASF180
 3217 147f 11       		.byte	0x11
 3218 1480 EE       		.byte	0xee
 3219 1481 3D       		.uleb128 0x3d
 3220 1482 06080000 		.4byte	.LASF181
 3221 1486 06080000 		.4byte	.LASF181
 3222 148a 11       		.byte	0x11
 3223 148b F6       		.byte	0xf6
 3224 148c 3E       		.uleb128 0x3e
 3225 148d 18060000 		.4byte	.LASF182
 3226 1491 18060000 		.4byte	.LASF182
 3227 1495 13       		.byte	0x13
 3228 1496 2501     		.2byte	0x125
 3229 1498 3E       		.uleb128 0x3e
 3230 1499 03020000 		.4byte	.LASF183
 3231 149d 03020000 		.4byte	.LASF183
 3232 14a1 0A       		.byte	0xa
 3233 14a2 1702     		.2byte	0x217
 3234 14a4 3E       		.uleb128 0x3e
ARM GAS  /tmp/ccT99met.s 			page 58


 3235 14a5 C0080000 		.4byte	.LASF184
 3236 14a9 C0080000 		.4byte	.LASF184
 3237 14ad 13       		.byte	0x13
 3238 14ae 2601     		.2byte	0x126
 3239 14b0 3D       		.uleb128 0x3d
 3240 14b1 BD070000 		.4byte	.LASF185
 3241 14b5 BD070000 		.4byte	.LASF185
 3242 14b9 11       		.byte	0x11
 3243 14ba F8       		.byte	0xf8
 3244 14bb 3D       		.uleb128 0x3d
 3245 14bc B8020000 		.4byte	.LASF186
 3246 14c0 B8020000 		.4byte	.LASF186
 3247 14c4 11       		.byte	0x11
 3248 14c5 F0       		.byte	0xf0
 3249 14c6 3D       		.uleb128 0x3d
 3250 14c7 C3010000 		.4byte	.LASF187
 3251 14cb C3010000 		.4byte	.LASF187
 3252 14cf 02       		.byte	0x2
 3253 14d0 87       		.byte	0x87
 3254 14d1 3D       		.uleb128 0x3d
 3255 14d2 34020000 		.4byte	.LASF188
 3256 14d6 34020000 		.4byte	.LASF188
 3257 14da 11       		.byte	0x11
 3258 14db F1       		.byte	0xf1
 3259 14dc 3D       		.uleb128 0x3d
 3260 14dd B1010000 		.4byte	.LASF189
 3261 14e1 B1010000 		.4byte	.LASF189
 3262 14e5 11       		.byte	0x11
 3263 14e6 FA       		.byte	0xfa
 3264 14e7 00       		.byte	0
 3265              		.section	.debug_abbrev,"",%progbits
 3266              	.Ldebug_abbrev0:
 3267 0000 01       		.uleb128 0x1
 3268 0001 11       		.uleb128 0x11
 3269 0002 01       		.byte	0x1
 3270 0003 25       		.uleb128 0x25
 3271 0004 0E       		.uleb128 0xe
 3272 0005 13       		.uleb128 0x13
 3273 0006 0B       		.uleb128 0xb
 3274 0007 03       		.uleb128 0x3
 3275 0008 0E       		.uleb128 0xe
 3276 0009 1B       		.uleb128 0x1b
 3277 000a 0E       		.uleb128 0xe
 3278 000b 55       		.uleb128 0x55
 3279 000c 17       		.uleb128 0x17
 3280 000d 11       		.uleb128 0x11
 3281 000e 01       		.uleb128 0x1
 3282 000f 10       		.uleb128 0x10
 3283 0010 17       		.uleb128 0x17
 3284 0011 00       		.byte	0
 3285 0012 00       		.byte	0
 3286 0013 02       		.uleb128 0x2
 3287 0014 24       		.uleb128 0x24
 3288 0015 00       		.byte	0
 3289 0016 0B       		.uleb128 0xb
 3290 0017 0B       		.uleb128 0xb
 3291 0018 3E       		.uleb128 0x3e
ARM GAS  /tmp/ccT99met.s 			page 59


 3292 0019 0B       		.uleb128 0xb
 3293 001a 03       		.uleb128 0x3
 3294 001b 08       		.uleb128 0x8
 3295 001c 00       		.byte	0
 3296 001d 00       		.byte	0
 3297 001e 03       		.uleb128 0x3
 3298 001f 16       		.uleb128 0x16
 3299 0020 00       		.byte	0
 3300 0021 03       		.uleb128 0x3
 3301 0022 0E       		.uleb128 0xe
 3302 0023 3A       		.uleb128 0x3a
 3303 0024 0B       		.uleb128 0xb
 3304 0025 3B       		.uleb128 0x3b
 3305 0026 0B       		.uleb128 0xb
 3306 0027 49       		.uleb128 0x49
 3307 0028 13       		.uleb128 0x13
 3308 0029 00       		.byte	0
 3309 002a 00       		.byte	0
 3310 002b 04       		.uleb128 0x4
 3311 002c 24       		.uleb128 0x24
 3312 002d 00       		.byte	0
 3313 002e 0B       		.uleb128 0xb
 3314 002f 0B       		.uleb128 0xb
 3315 0030 3E       		.uleb128 0x3e
 3316 0031 0B       		.uleb128 0xb
 3317 0032 03       		.uleb128 0x3
 3318 0033 0E       		.uleb128 0xe
 3319 0034 00       		.byte	0
 3320 0035 00       		.byte	0
 3321 0036 05       		.uleb128 0x5
 3322 0037 35       		.uleb128 0x35
 3323 0038 00       		.byte	0
 3324 0039 49       		.uleb128 0x49
 3325 003a 13       		.uleb128 0x13
 3326 003b 00       		.byte	0
 3327 003c 00       		.byte	0
 3328 003d 06       		.uleb128 0x6
 3329 003e 13       		.uleb128 0x13
 3330 003f 01       		.byte	0x1
 3331 0040 03       		.uleb128 0x3
 3332 0041 0E       		.uleb128 0xe
 3333 0042 0B       		.uleb128 0xb
 3334 0043 0B       		.uleb128 0xb
 3335 0044 3A       		.uleb128 0x3a
 3336 0045 0B       		.uleb128 0xb
 3337 0046 3B       		.uleb128 0x3b
 3338 0047 0B       		.uleb128 0xb
 3339 0048 01       		.uleb128 0x1
 3340 0049 13       		.uleb128 0x13
 3341 004a 00       		.byte	0
 3342 004b 00       		.byte	0
 3343 004c 07       		.uleb128 0x7
 3344 004d 0D       		.uleb128 0xd
 3345 004e 00       		.byte	0
 3346 004f 03       		.uleb128 0x3
 3347 0050 0E       		.uleb128 0xe
 3348 0051 3A       		.uleb128 0x3a
ARM GAS  /tmp/ccT99met.s 			page 60


 3349 0052 0B       		.uleb128 0xb
 3350 0053 3B       		.uleb128 0x3b
 3351 0054 0B       		.uleb128 0xb
 3352 0055 49       		.uleb128 0x49
 3353 0056 13       		.uleb128 0x13
 3354 0057 38       		.uleb128 0x38
 3355 0058 0B       		.uleb128 0xb
 3356 0059 00       		.byte	0
 3357 005a 00       		.byte	0
 3358 005b 08       		.uleb128 0x8
 3359 005c 0D       		.uleb128 0xd
 3360 005d 00       		.byte	0
 3361 005e 03       		.uleb128 0x3
 3362 005f 08       		.uleb128 0x8
 3363 0060 3A       		.uleb128 0x3a
 3364 0061 0B       		.uleb128 0xb
 3365 0062 3B       		.uleb128 0x3b
 3366 0063 05       		.uleb128 0x5
 3367 0064 49       		.uleb128 0x49
 3368 0065 13       		.uleb128 0x13
 3369 0066 38       		.uleb128 0x38
 3370 0067 0B       		.uleb128 0xb
 3371 0068 00       		.byte	0
 3372 0069 00       		.byte	0
 3373 006a 09       		.uleb128 0x9
 3374 006b 0D       		.uleb128 0xd
 3375 006c 00       		.byte	0
 3376 006d 03       		.uleb128 0x3
 3377 006e 0E       		.uleb128 0xe
 3378 006f 3A       		.uleb128 0x3a
 3379 0070 0B       		.uleb128 0xb
 3380 0071 3B       		.uleb128 0x3b
 3381 0072 05       		.uleb128 0x5
 3382 0073 49       		.uleb128 0x49
 3383 0074 13       		.uleb128 0x13
 3384 0075 38       		.uleb128 0x38
 3385 0076 0B       		.uleb128 0xb
 3386 0077 00       		.byte	0
 3387 0078 00       		.byte	0
 3388 0079 0A       		.uleb128 0xa
 3389 007a 0F       		.uleb128 0xf
 3390 007b 00       		.byte	0
 3391 007c 0B       		.uleb128 0xb
 3392 007d 0B       		.uleb128 0xb
 3393 007e 49       		.uleb128 0x49
 3394 007f 13       		.uleb128 0x13
 3395 0080 00       		.byte	0
 3396 0081 00       		.byte	0
 3397 0082 0B       		.uleb128 0xb
 3398 0083 13       		.uleb128 0x13
 3399 0084 01       		.byte	0x1
 3400 0085 03       		.uleb128 0x3
 3401 0086 0E       		.uleb128 0xe
 3402 0087 0B       		.uleb128 0xb
 3403 0088 0B       		.uleb128 0xb
 3404 0089 3A       		.uleb128 0x3a
 3405 008a 0B       		.uleb128 0xb
ARM GAS  /tmp/ccT99met.s 			page 61


 3406 008b 3B       		.uleb128 0x3b
 3407 008c 05       		.uleb128 0x5
 3408 008d 01       		.uleb128 0x1
 3409 008e 13       		.uleb128 0x13
 3410 008f 00       		.byte	0
 3411 0090 00       		.byte	0
 3412 0091 0C       		.uleb128 0xc
 3413 0092 15       		.uleb128 0x15
 3414 0093 01       		.byte	0x1
 3415 0094 27       		.uleb128 0x27
 3416 0095 19       		.uleb128 0x19
 3417 0096 01       		.uleb128 0x1
 3418 0097 13       		.uleb128 0x13
 3419 0098 00       		.byte	0
 3420 0099 00       		.byte	0
 3421 009a 0D       		.uleb128 0xd
 3422 009b 05       		.uleb128 0x5
 3423 009c 00       		.byte	0
 3424 009d 49       		.uleb128 0x49
 3425 009e 13       		.uleb128 0x13
 3426 009f 00       		.byte	0
 3427 00a0 00       		.byte	0
 3428 00a1 0E       		.uleb128 0xe
 3429 00a2 0F       		.uleb128 0xf
 3430 00a3 00       		.byte	0
 3431 00a4 0B       		.uleb128 0xb
 3432 00a5 0B       		.uleb128 0xb
 3433 00a6 00       		.byte	0
 3434 00a7 00       		.byte	0
 3435 00a8 0F       		.uleb128 0xf
 3436 00a9 13       		.uleb128 0x13
 3437 00aa 01       		.byte	0x1
 3438 00ab 03       		.uleb128 0x3
 3439 00ac 0E       		.uleb128 0xe
 3440 00ad 0B       		.uleb128 0xb
 3441 00ae 05       		.uleb128 0x5
 3442 00af 3A       		.uleb128 0x3a
 3443 00b0 0B       		.uleb128 0xb
 3444 00b1 3B       		.uleb128 0x3b
 3445 00b2 05       		.uleb128 0x5
 3446 00b3 01       		.uleb128 0x1
 3447 00b4 13       		.uleb128 0x13
 3448 00b5 00       		.byte	0
 3449 00b6 00       		.byte	0
 3450 00b7 10       		.uleb128 0x10
 3451 00b8 13       		.uleb128 0x13
 3452 00b9 01       		.byte	0x1
 3453 00ba 0B       		.uleb128 0xb
 3454 00bb 0B       		.uleb128 0xb
 3455 00bc 3A       		.uleb128 0x3a
 3456 00bd 0B       		.uleb128 0xb
 3457 00be 3B       		.uleb128 0x3b
 3458 00bf 05       		.uleb128 0x5
 3459 00c0 01       		.uleb128 0x1
 3460 00c1 13       		.uleb128 0x13
 3461 00c2 00       		.byte	0
 3462 00c3 00       		.byte	0
ARM GAS  /tmp/ccT99met.s 			page 62


 3463 00c4 11       		.uleb128 0x11
 3464 00c5 16       		.uleb128 0x16
 3465 00c6 00       		.byte	0
 3466 00c7 03       		.uleb128 0x3
 3467 00c8 0E       		.uleb128 0xe
 3468 00c9 3A       		.uleb128 0x3a
 3469 00ca 0B       		.uleb128 0xb
 3470 00cb 3B       		.uleb128 0x3b
 3471 00cc 05       		.uleb128 0x5
 3472 00cd 49       		.uleb128 0x49
 3473 00ce 13       		.uleb128 0x13
 3474 00cf 00       		.byte	0
 3475 00d0 00       		.byte	0
 3476 00d1 12       		.uleb128 0x12
 3477 00d2 0D       		.uleb128 0xd
 3478 00d3 00       		.byte	0
 3479 00d4 03       		.uleb128 0x3
 3480 00d5 08       		.uleb128 0x8
 3481 00d6 3A       		.uleb128 0x3a
 3482 00d7 0B       		.uleb128 0xb
 3483 00d8 3B       		.uleb128 0x3b
 3484 00d9 0B       		.uleb128 0xb
 3485 00da 49       		.uleb128 0x49
 3486 00db 13       		.uleb128 0x13
 3487 00dc 38       		.uleb128 0x38
 3488 00dd 0B       		.uleb128 0xb
 3489 00de 00       		.byte	0
 3490 00df 00       		.byte	0
 3491 00e0 13       		.uleb128 0x13
 3492 00e1 13       		.uleb128 0x13
 3493 00e2 01       		.byte	0x1
 3494 00e3 0B       		.uleb128 0xb
 3495 00e4 0B       		.uleb128 0xb
 3496 00e5 3A       		.uleb128 0x3a
 3497 00e6 0B       		.uleb128 0xb
 3498 00e7 3B       		.uleb128 0x3b
 3499 00e8 0B       		.uleb128 0xb
 3500 00e9 01       		.uleb128 0x1
 3501 00ea 13       		.uleb128 0x13
 3502 00eb 00       		.byte	0
 3503 00ec 00       		.byte	0
 3504 00ed 14       		.uleb128 0x14
 3505 00ee 17       		.uleb128 0x17
 3506 00ef 01       		.byte	0x1
 3507 00f0 0B       		.uleb128 0xb
 3508 00f1 0B       		.uleb128 0xb
 3509 00f2 3A       		.uleb128 0x3a
 3510 00f3 0B       		.uleb128 0xb
 3511 00f4 3B       		.uleb128 0x3b
 3512 00f5 0B       		.uleb128 0xb
 3513 00f6 01       		.uleb128 0x1
 3514 00f7 13       		.uleb128 0x13
 3515 00f8 00       		.byte	0
 3516 00f9 00       		.byte	0
 3517 00fa 15       		.uleb128 0x15
 3518 00fb 0D       		.uleb128 0xd
 3519 00fc 00       		.byte	0
ARM GAS  /tmp/ccT99met.s 			page 63


 3520 00fd 03       		.uleb128 0x3
 3521 00fe 0E       		.uleb128 0xe
 3522 00ff 3A       		.uleb128 0x3a
 3523 0100 0B       		.uleb128 0xb
 3524 0101 3B       		.uleb128 0x3b
 3525 0102 05       		.uleb128 0x5
 3526 0103 49       		.uleb128 0x49
 3527 0104 13       		.uleb128 0x13
 3528 0105 00       		.byte	0
 3529 0106 00       		.byte	0
 3530 0107 16       		.uleb128 0x16
 3531 0108 26       		.uleb128 0x26
 3532 0109 00       		.byte	0
 3533 010a 49       		.uleb128 0x49
 3534 010b 13       		.uleb128 0x13
 3535 010c 00       		.byte	0
 3536 010d 00       		.byte	0
 3537 010e 17       		.uleb128 0x17
 3538 010f 01       		.uleb128 0x1
 3539 0110 01       		.byte	0x1
 3540 0111 49       		.uleb128 0x49
 3541 0112 13       		.uleb128 0x13
 3542 0113 01       		.uleb128 0x1
 3543 0114 13       		.uleb128 0x13
 3544 0115 00       		.byte	0
 3545 0116 00       		.byte	0
 3546 0117 18       		.uleb128 0x18
 3547 0118 21       		.uleb128 0x21
 3548 0119 00       		.byte	0
 3549 011a 49       		.uleb128 0x49
 3550 011b 13       		.uleb128 0x13
 3551 011c 2F       		.uleb128 0x2f
 3552 011d 0B       		.uleb128 0xb
 3553 011e 00       		.byte	0
 3554 011f 00       		.byte	0
 3555 0120 19       		.uleb128 0x19
 3556 0121 15       		.uleb128 0x15
 3557 0122 01       		.byte	0x1
 3558 0123 27       		.uleb128 0x27
 3559 0124 19       		.uleb128 0x19
 3560 0125 49       		.uleb128 0x49
 3561 0126 13       		.uleb128 0x13
 3562 0127 01       		.uleb128 0x1
 3563 0128 13       		.uleb128 0x13
 3564 0129 00       		.byte	0
 3565 012a 00       		.byte	0
 3566 012b 1A       		.uleb128 0x1a
 3567 012c 04       		.uleb128 0x4
 3568 012d 01       		.byte	0x1
 3569 012e 0B       		.uleb128 0xb
 3570 012f 0B       		.uleb128 0xb
 3571 0130 49       		.uleb128 0x49
 3572 0131 13       		.uleb128 0x13
 3573 0132 3A       		.uleb128 0x3a
 3574 0133 0B       		.uleb128 0xb
 3575 0134 3B       		.uleb128 0x3b
 3576 0135 0B       		.uleb128 0xb
ARM GAS  /tmp/ccT99met.s 			page 64


 3577 0136 01       		.uleb128 0x1
 3578 0137 13       		.uleb128 0x13
 3579 0138 00       		.byte	0
 3580 0139 00       		.byte	0
 3581 013a 1B       		.uleb128 0x1b
 3582 013b 28       		.uleb128 0x28
 3583 013c 00       		.byte	0
 3584 013d 03       		.uleb128 0x3
 3585 013e 0E       		.uleb128 0xe
 3586 013f 1C       		.uleb128 0x1c
 3587 0140 0B       		.uleb128 0xb
 3588 0141 00       		.byte	0
 3589 0142 00       		.byte	0
 3590 0143 1C       		.uleb128 0x1c
 3591 0144 2E       		.uleb128 0x2e
 3592 0145 01       		.byte	0x1
 3593 0146 03       		.uleb128 0x3
 3594 0147 0E       		.uleb128 0xe
 3595 0148 3A       		.uleb128 0x3a
 3596 0149 0B       		.uleb128 0xb
 3597 014a 3B       		.uleb128 0x3b
 3598 014b 05       		.uleb128 0x5
 3599 014c 27       		.uleb128 0x27
 3600 014d 19       		.uleb128 0x19
 3601 014e 20       		.uleb128 0x20
 3602 014f 0B       		.uleb128 0xb
 3603 0150 01       		.uleb128 0x1
 3604 0151 13       		.uleb128 0x13
 3605 0152 00       		.byte	0
 3606 0153 00       		.byte	0
 3607 0154 1D       		.uleb128 0x1d
 3608 0155 05       		.uleb128 0x5
 3609 0156 00       		.byte	0
 3610 0157 03       		.uleb128 0x3
 3611 0158 0E       		.uleb128 0xe
 3612 0159 3A       		.uleb128 0x3a
 3613 015a 0B       		.uleb128 0xb
 3614 015b 3B       		.uleb128 0x3b
 3615 015c 05       		.uleb128 0x5
 3616 015d 49       		.uleb128 0x49
 3617 015e 13       		.uleb128 0x13
 3618 015f 00       		.byte	0
 3619 0160 00       		.byte	0
 3620 0161 1E       		.uleb128 0x1e
 3621 0162 2E       		.uleb128 0x2e
 3622 0163 00       		.byte	0
 3623 0164 03       		.uleb128 0x3
 3624 0165 0E       		.uleb128 0xe
 3625 0166 3A       		.uleb128 0x3a
 3626 0167 0B       		.uleb128 0xb
 3627 0168 3B       		.uleb128 0x3b
 3628 0169 05       		.uleb128 0x5
 3629 016a 27       		.uleb128 0x27
 3630 016b 19       		.uleb128 0x19
 3631 016c 20       		.uleb128 0x20
 3632 016d 0B       		.uleb128 0xb
 3633 016e 00       		.byte	0
ARM GAS  /tmp/ccT99met.s 			page 65


 3634 016f 00       		.byte	0
 3635 0170 1F       		.uleb128 0x1f
 3636 0171 2E       		.uleb128 0x2e
 3637 0172 01       		.byte	0x1
 3638 0173 03       		.uleb128 0x3
 3639 0174 0E       		.uleb128 0xe
 3640 0175 3A       		.uleb128 0x3a
 3641 0176 0B       		.uleb128 0xb
 3642 0177 3B       		.uleb128 0x3b
 3643 0178 05       		.uleb128 0x5
 3644 0179 27       		.uleb128 0x27
 3645 017a 19       		.uleb128 0x19
 3646 017b 49       		.uleb128 0x49
 3647 017c 13       		.uleb128 0x13
 3648 017d 20       		.uleb128 0x20
 3649 017e 0B       		.uleb128 0xb
 3650 017f 01       		.uleb128 0x1
 3651 0180 13       		.uleb128 0x13
 3652 0181 00       		.byte	0
 3653 0182 00       		.byte	0
 3654 0183 20       		.uleb128 0x20
 3655 0184 05       		.uleb128 0x5
 3656 0185 00       		.byte	0
 3657 0186 03       		.uleb128 0x3
 3658 0187 08       		.uleb128 0x8
 3659 0188 3A       		.uleb128 0x3a
 3660 0189 0B       		.uleb128 0xb
 3661 018a 3B       		.uleb128 0x3b
 3662 018b 05       		.uleb128 0x5
 3663 018c 49       		.uleb128 0x49
 3664 018d 13       		.uleb128 0x13
 3665 018e 00       		.byte	0
 3666 018f 00       		.byte	0
 3667 0190 21       		.uleb128 0x21
 3668 0191 34       		.uleb128 0x34
 3669 0192 00       		.byte	0
 3670 0193 03       		.uleb128 0x3
 3671 0194 0E       		.uleb128 0xe
 3672 0195 49       		.uleb128 0x49
 3673 0196 13       		.uleb128 0x13
 3674 0197 34       		.uleb128 0x34
 3675 0198 19       		.uleb128 0x19
 3676 0199 1C       		.uleb128 0x1c
 3677 019a 0E       		.uleb128 0xe
 3678 019b 00       		.byte	0
 3679 019c 00       		.byte	0
 3680 019d 22       		.uleb128 0x22
 3681 019e 2E       		.uleb128 0x2e
 3682 019f 01       		.byte	0x1
 3683 01a0 03       		.uleb128 0x3
 3684 01a1 0E       		.uleb128 0xe
 3685 01a2 3A       		.uleb128 0x3a
 3686 01a3 0B       		.uleb128 0xb
 3687 01a4 3B       		.uleb128 0x3b
 3688 01a5 0B       		.uleb128 0xb
 3689 01a6 27       		.uleb128 0x27
 3690 01a7 19       		.uleb128 0x19
ARM GAS  /tmp/ccT99met.s 			page 66


 3691 01a8 20       		.uleb128 0x20
 3692 01a9 0B       		.uleb128 0xb
 3693 01aa 01       		.uleb128 0x1
 3694 01ab 13       		.uleb128 0x13
 3695 01ac 00       		.byte	0
 3696 01ad 00       		.byte	0
 3697 01ae 23       		.uleb128 0x23
 3698 01af 05       		.uleb128 0x5
 3699 01b0 00       		.byte	0
 3700 01b1 03       		.uleb128 0x3
 3701 01b2 08       		.uleb128 0x8
 3702 01b3 3A       		.uleb128 0x3a
 3703 01b4 0B       		.uleb128 0xb
 3704 01b5 3B       		.uleb128 0x3b
 3705 01b6 0B       		.uleb128 0xb
 3706 01b7 49       		.uleb128 0x49
 3707 01b8 13       		.uleb128 0x13
 3708 01b9 00       		.byte	0
 3709 01ba 00       		.byte	0
 3710 01bb 24       		.uleb128 0x24
 3711 01bc 2E       		.uleb128 0x2e
 3712 01bd 01       		.byte	0x1
 3713 01be 03       		.uleb128 0x3
 3714 01bf 0E       		.uleb128 0xe
 3715 01c0 3A       		.uleb128 0x3a
 3716 01c1 0B       		.uleb128 0xb
 3717 01c2 3B       		.uleb128 0x3b
 3718 01c3 0B       		.uleb128 0xb
 3719 01c4 27       		.uleb128 0x27
 3720 01c5 19       		.uleb128 0x19
 3721 01c6 49       		.uleb128 0x49
 3722 01c7 13       		.uleb128 0x13
 3723 01c8 11       		.uleb128 0x11
 3724 01c9 01       		.uleb128 0x1
 3725 01ca 12       		.uleb128 0x12
 3726 01cb 06       		.uleb128 0x6
 3727 01cc 40       		.uleb128 0x40
 3728 01cd 18       		.uleb128 0x18
 3729 01ce 9742     		.uleb128 0x2117
 3730 01d0 19       		.uleb128 0x19
 3731 01d1 01       		.uleb128 0x1
 3732 01d2 13       		.uleb128 0x13
 3733 01d3 00       		.byte	0
 3734 01d4 00       		.byte	0
 3735 01d5 25       		.uleb128 0x25
 3736 01d6 05       		.uleb128 0x5
 3737 01d7 00       		.byte	0
 3738 01d8 03       		.uleb128 0x3
 3739 01d9 08       		.uleb128 0x8
 3740 01da 3A       		.uleb128 0x3a
 3741 01db 0B       		.uleb128 0xb
 3742 01dc 3B       		.uleb128 0x3b
 3743 01dd 0B       		.uleb128 0xb
 3744 01de 49       		.uleb128 0x49
 3745 01df 13       		.uleb128 0x13
 3746 01e0 02       		.uleb128 0x2
 3747 01e1 17       		.uleb128 0x17
ARM GAS  /tmp/ccT99met.s 			page 67


 3748 01e2 00       		.byte	0
 3749 01e3 00       		.byte	0
 3750 01e4 26       		.uleb128 0x26
 3751 01e5 05       		.uleb128 0x5
 3752 01e6 00       		.byte	0
 3753 01e7 03       		.uleb128 0x3
 3754 01e8 0E       		.uleb128 0xe
 3755 01e9 3A       		.uleb128 0x3a
 3756 01ea 0B       		.uleb128 0xb
 3757 01eb 3B       		.uleb128 0x3b
 3758 01ec 0B       		.uleb128 0xb
 3759 01ed 49       		.uleb128 0x49
 3760 01ee 13       		.uleb128 0x13
 3761 01ef 02       		.uleb128 0x2
 3762 01f0 17       		.uleb128 0x17
 3763 01f1 00       		.byte	0
 3764 01f2 00       		.byte	0
 3765 01f3 27       		.uleb128 0x27
 3766 01f4 898201   		.uleb128 0x4109
 3767 01f7 01       		.byte	0x1
 3768 01f8 11       		.uleb128 0x11
 3769 01f9 01       		.uleb128 0x1
 3770 01fa 9542     		.uleb128 0x2115
 3771 01fc 19       		.uleb128 0x19
 3772 01fd 31       		.uleb128 0x31
 3773 01fe 13       		.uleb128 0x13
 3774 01ff 00       		.byte	0
 3775 0200 00       		.byte	0
 3776 0201 28       		.uleb128 0x28
 3777 0202 8A8201   		.uleb128 0x410a
 3778 0205 00       		.byte	0
 3779 0206 02       		.uleb128 0x2
 3780 0207 18       		.uleb128 0x18
 3781 0208 9142     		.uleb128 0x2111
 3782 020a 18       		.uleb128 0x18
 3783 020b 00       		.byte	0
 3784 020c 00       		.byte	0
 3785 020d 29       		.uleb128 0x29
 3786 020e 2E       		.uleb128 0x2e
 3787 020f 01       		.byte	0x1
 3788 0210 03       		.uleb128 0x3
 3789 0211 08       		.uleb128 0x8
 3790 0212 3A       		.uleb128 0x3a
 3791 0213 0B       		.uleb128 0xb
 3792 0214 3B       		.uleb128 0x3b
 3793 0215 0B       		.uleb128 0xb
 3794 0216 27       		.uleb128 0x27
 3795 0217 19       		.uleb128 0x19
 3796 0218 49       		.uleb128 0x49
 3797 0219 13       		.uleb128 0x13
 3798 021a 11       		.uleb128 0x11
 3799 021b 01       		.uleb128 0x1
 3800 021c 12       		.uleb128 0x12
 3801 021d 06       		.uleb128 0x6
 3802 021e 40       		.uleb128 0x40
 3803 021f 18       		.uleb128 0x18
 3804 0220 9742     		.uleb128 0x2117
ARM GAS  /tmp/ccT99met.s 			page 68


 3805 0222 19       		.uleb128 0x19
 3806 0223 01       		.uleb128 0x1
 3807 0224 13       		.uleb128 0x13
 3808 0225 00       		.byte	0
 3809 0226 00       		.byte	0
 3810 0227 2A       		.uleb128 0x2a
 3811 0228 2E       		.uleb128 0x2e
 3812 0229 01       		.byte	0x1
 3813 022a 3F       		.uleb128 0x3f
 3814 022b 19       		.uleb128 0x19
 3815 022c 03       		.uleb128 0x3
 3816 022d 0E       		.uleb128 0xe
 3817 022e 3A       		.uleb128 0x3a
 3818 022f 0B       		.uleb128 0xb
 3819 0230 3B       		.uleb128 0x3b
 3820 0231 0B       		.uleb128 0xb
 3821 0232 27       		.uleb128 0x27
 3822 0233 19       		.uleb128 0x19
 3823 0234 11       		.uleb128 0x11
 3824 0235 01       		.uleb128 0x1
 3825 0236 12       		.uleb128 0x12
 3826 0237 06       		.uleb128 0x6
 3827 0238 40       		.uleb128 0x40
 3828 0239 18       		.uleb128 0x18
 3829 023a 9742     		.uleb128 0x2117
 3830 023c 19       		.uleb128 0x19
 3831 023d 01       		.uleb128 0x1
 3832 023e 13       		.uleb128 0x13
 3833 023f 00       		.byte	0
 3834 0240 00       		.byte	0
 3835 0241 2B       		.uleb128 0x2b
 3836 0242 898201   		.uleb128 0x4109
 3837 0245 00       		.byte	0
 3838 0246 11       		.uleb128 0x11
 3839 0247 01       		.uleb128 0x1
 3840 0248 9542     		.uleb128 0x2115
 3841 024a 19       		.uleb128 0x19
 3842 024b 31       		.uleb128 0x31
 3843 024c 13       		.uleb128 0x13
 3844 024d 00       		.byte	0
 3845 024e 00       		.byte	0
 3846 024f 2C       		.uleb128 0x2c
 3847 0250 1D       		.uleb128 0x1d
 3848 0251 01       		.byte	0x1
 3849 0252 31       		.uleb128 0x31
 3850 0253 13       		.uleb128 0x13
 3851 0254 11       		.uleb128 0x11
 3852 0255 01       		.uleb128 0x1
 3853 0256 12       		.uleb128 0x12
 3854 0257 06       		.uleb128 0x6
 3855 0258 58       		.uleb128 0x58
 3856 0259 0B       		.uleb128 0xb
 3857 025a 59       		.uleb128 0x59
 3858 025b 0B       		.uleb128 0xb
 3859 025c 01       		.uleb128 0x1
 3860 025d 13       		.uleb128 0x13
 3861 025e 00       		.byte	0
ARM GAS  /tmp/ccT99met.s 			page 69


 3862 025f 00       		.byte	0
 3863 0260 2D       		.uleb128 0x2d
 3864 0261 05       		.uleb128 0x5
 3865 0262 00       		.byte	0
 3866 0263 31       		.uleb128 0x31
 3867 0264 13       		.uleb128 0x13
 3868 0265 02       		.uleb128 0x2
 3869 0266 17       		.uleb128 0x17
 3870 0267 00       		.byte	0
 3871 0268 00       		.byte	0
 3872 0269 2E       		.uleb128 0x2e
 3873 026a 1D       		.uleb128 0x1d
 3874 026b 01       		.byte	0x1
 3875 026c 31       		.uleb128 0x31
 3876 026d 13       		.uleb128 0x13
 3877 026e 11       		.uleb128 0x11
 3878 026f 01       		.uleb128 0x1
 3879 0270 12       		.uleb128 0x12
 3880 0271 06       		.uleb128 0x6
 3881 0272 58       		.uleb128 0x58
 3882 0273 0B       		.uleb128 0xb
 3883 0274 59       		.uleb128 0x59
 3884 0275 05       		.uleb128 0x5
 3885 0276 00       		.byte	0
 3886 0277 00       		.byte	0
 3887 0278 2F       		.uleb128 0x2f
 3888 0279 898201   		.uleb128 0x4109
 3889 027c 01       		.byte	0x1
 3890 027d 11       		.uleb128 0x11
 3891 027e 01       		.uleb128 0x1
 3892 027f 31       		.uleb128 0x31
 3893 0280 13       		.uleb128 0x13
 3894 0281 01       		.uleb128 0x1
 3895 0282 13       		.uleb128 0x13
 3896 0283 00       		.byte	0
 3897 0284 00       		.byte	0
 3898 0285 30       		.uleb128 0x30
 3899 0286 898201   		.uleb128 0x4109
 3900 0289 01       		.byte	0x1
 3901 028a 11       		.uleb128 0x11
 3902 028b 01       		.uleb128 0x1
 3903 028c 31       		.uleb128 0x31
 3904 028d 13       		.uleb128 0x13
 3905 028e 00       		.byte	0
 3906 028f 00       		.byte	0
 3907 0290 31       		.uleb128 0x31
 3908 0291 34       		.uleb128 0x34
 3909 0292 00       		.byte	0
 3910 0293 03       		.uleb128 0x3
 3911 0294 0E       		.uleb128 0xe
 3912 0295 49       		.uleb128 0x49
 3913 0296 13       		.uleb128 0x13
 3914 0297 34       		.uleb128 0x34
 3915 0298 19       		.uleb128 0x19
 3916 0299 00       		.byte	0
 3917 029a 00       		.byte	0
 3918 029b 32       		.uleb128 0x32
ARM GAS  /tmp/ccT99met.s 			page 70


 3919 029c 1D       		.uleb128 0x1d
 3920 029d 01       		.byte	0x1
 3921 029e 31       		.uleb128 0x31
 3922 029f 13       		.uleb128 0x13
 3923 02a0 52       		.uleb128 0x52
 3924 02a1 01       		.uleb128 0x1
 3925 02a2 55       		.uleb128 0x55
 3926 02a3 17       		.uleb128 0x17
 3927 02a4 58       		.uleb128 0x58
 3928 02a5 0B       		.uleb128 0xb
 3929 02a6 59       		.uleb128 0x59
 3930 02a7 0B       		.uleb128 0xb
 3931 02a8 01       		.uleb128 0x1
 3932 02a9 13       		.uleb128 0x13
 3933 02aa 00       		.byte	0
 3934 02ab 00       		.byte	0
 3935 02ac 33       		.uleb128 0x33
 3936 02ad 1D       		.uleb128 0x1d
 3937 02ae 01       		.byte	0x1
 3938 02af 31       		.uleb128 0x31
 3939 02b0 13       		.uleb128 0x13
 3940 02b1 52       		.uleb128 0x52
 3941 02b2 01       		.uleb128 0x1
 3942 02b3 55       		.uleb128 0x55
 3943 02b4 17       		.uleb128 0x17
 3944 02b5 58       		.uleb128 0x58
 3945 02b6 0B       		.uleb128 0xb
 3946 02b7 59       		.uleb128 0x59
 3947 02b8 05       		.uleb128 0x5
 3948 02b9 00       		.byte	0
 3949 02ba 00       		.byte	0
 3950 02bb 34       		.uleb128 0x34
 3951 02bc 05       		.uleb128 0x5
 3952 02bd 00       		.byte	0
 3953 02be 31       		.uleb128 0x31
 3954 02bf 13       		.uleb128 0x13
 3955 02c0 1C       		.uleb128 0x1c
 3956 02c1 0B       		.uleb128 0xb
 3957 02c2 00       		.byte	0
 3958 02c3 00       		.byte	0
 3959 02c4 35       		.uleb128 0x35
 3960 02c5 0B       		.uleb128 0xb
 3961 02c6 01       		.byte	0x1
 3962 02c7 11       		.uleb128 0x11
 3963 02c8 01       		.uleb128 0x1
 3964 02c9 12       		.uleb128 0x12
 3965 02ca 06       		.uleb128 0x6
 3966 02cb 00       		.byte	0
 3967 02cc 00       		.byte	0
 3968 02cd 36       		.uleb128 0x36
 3969 02ce 34       		.uleb128 0x34
 3970 02cf 00       		.byte	0
 3971 02d0 31       		.uleb128 0x31
 3972 02d1 13       		.uleb128 0x13
 3973 02d2 00       		.byte	0
 3974 02d3 00       		.byte	0
 3975 02d4 37       		.uleb128 0x37
ARM GAS  /tmp/ccT99met.s 			page 71


 3976 02d5 898201   		.uleb128 0x4109
 3977 02d8 00       		.byte	0
 3978 02d9 11       		.uleb128 0x11
 3979 02da 01       		.uleb128 0x1
 3980 02db 31       		.uleb128 0x31
 3981 02dc 13       		.uleb128 0x13
 3982 02dd 00       		.byte	0
 3983 02de 00       		.byte	0
 3984 02df 38       		.uleb128 0x38
 3985 02e0 2E       		.uleb128 0x2e
 3986 02e1 01       		.byte	0x1
 3987 02e2 3F       		.uleb128 0x3f
 3988 02e3 19       		.uleb128 0x19
 3989 02e4 03       		.uleb128 0x3
 3990 02e5 0E       		.uleb128 0xe
 3991 02e6 3A       		.uleb128 0x3a
 3992 02e7 0B       		.uleb128 0xb
 3993 02e8 3B       		.uleb128 0x3b
 3994 02e9 0B       		.uleb128 0xb
 3995 02ea 27       		.uleb128 0x27
 3996 02eb 19       		.uleb128 0x19
 3997 02ec 49       		.uleb128 0x49
 3998 02ed 13       		.uleb128 0x13
 3999 02ee 11       		.uleb128 0x11
 4000 02ef 01       		.uleb128 0x1
 4001 02f0 12       		.uleb128 0x12
 4002 02f1 06       		.uleb128 0x6
 4003 02f2 40       		.uleb128 0x40
 4004 02f3 18       		.uleb128 0x18
 4005 02f4 9742     		.uleb128 0x2117
 4006 02f6 19       		.uleb128 0x19
 4007 02f7 01       		.uleb128 0x1
 4008 02f8 13       		.uleb128 0x13
 4009 02f9 00       		.byte	0
 4010 02fa 00       		.byte	0
 4011 02fb 39       		.uleb128 0x39
 4012 02fc 34       		.uleb128 0x34
 4013 02fd 00       		.byte	0
 4014 02fe 03       		.uleb128 0x3
 4015 02ff 08       		.uleb128 0x8
 4016 0300 3A       		.uleb128 0x3a
 4017 0301 0B       		.uleb128 0xb
 4018 0302 3B       		.uleb128 0x3b
 4019 0303 0B       		.uleb128 0xb
 4020 0304 49       		.uleb128 0x49
 4021 0305 13       		.uleb128 0x13
 4022 0306 02       		.uleb128 0x2
 4023 0307 17       		.uleb128 0x17
 4024 0308 00       		.byte	0
 4025 0309 00       		.byte	0
 4026 030a 3A       		.uleb128 0x3a
 4027 030b 34       		.uleb128 0x34
 4028 030c 00       		.byte	0
 4029 030d 03       		.uleb128 0x3
 4030 030e 08       		.uleb128 0x8
 4031 030f 3A       		.uleb128 0x3a
 4032 0310 0B       		.uleb128 0xb
ARM GAS  /tmp/ccT99met.s 			page 72


 4033 0311 3B       		.uleb128 0x3b
 4034 0312 0B       		.uleb128 0xb
 4035 0313 49       		.uleb128 0x49
 4036 0314 13       		.uleb128 0x13
 4037 0315 02       		.uleb128 0x2
 4038 0316 18       		.uleb128 0x18
 4039 0317 00       		.byte	0
 4040 0318 00       		.byte	0
 4041 0319 3B       		.uleb128 0x3b
 4042 031a 34       		.uleb128 0x34
 4043 031b 00       		.byte	0
 4044 031c 03       		.uleb128 0x3
 4045 031d 0E       		.uleb128 0xe
 4046 031e 3A       		.uleb128 0x3a
 4047 031f 0B       		.uleb128 0xb
 4048 0320 3B       		.uleb128 0x3b
 4049 0321 05       		.uleb128 0x5
 4050 0322 49       		.uleb128 0x49
 4051 0323 13       		.uleb128 0x13
 4052 0324 3F       		.uleb128 0x3f
 4053 0325 19       		.uleb128 0x19
 4054 0326 3C       		.uleb128 0x3c
 4055 0327 19       		.uleb128 0x19
 4056 0328 00       		.byte	0
 4057 0329 00       		.byte	0
 4058 032a 3C       		.uleb128 0x3c
 4059 032b 34       		.uleb128 0x34
 4060 032c 00       		.byte	0
 4061 032d 03       		.uleb128 0x3
 4062 032e 08       		.uleb128 0x8
 4063 032f 3A       		.uleb128 0x3a
 4064 0330 0B       		.uleb128 0xb
 4065 0331 3B       		.uleb128 0x3b
 4066 0332 05       		.uleb128 0x5
 4067 0333 49       		.uleb128 0x49
 4068 0334 13       		.uleb128 0x13
 4069 0335 3F       		.uleb128 0x3f
 4070 0336 19       		.uleb128 0x19
 4071 0337 3C       		.uleb128 0x3c
 4072 0338 19       		.uleb128 0x19
 4073 0339 00       		.byte	0
 4074 033a 00       		.byte	0
 4075 033b 3D       		.uleb128 0x3d
 4076 033c 2E       		.uleb128 0x2e
 4077 033d 00       		.byte	0
 4078 033e 3F       		.uleb128 0x3f
 4079 033f 19       		.uleb128 0x19
 4080 0340 3C       		.uleb128 0x3c
 4081 0341 19       		.uleb128 0x19
 4082 0342 6E       		.uleb128 0x6e
 4083 0343 0E       		.uleb128 0xe
 4084 0344 03       		.uleb128 0x3
 4085 0345 0E       		.uleb128 0xe
 4086 0346 3A       		.uleb128 0x3a
 4087 0347 0B       		.uleb128 0xb
 4088 0348 3B       		.uleb128 0x3b
 4089 0349 0B       		.uleb128 0xb
ARM GAS  /tmp/ccT99met.s 			page 73


 4090 034a 00       		.byte	0
 4091 034b 00       		.byte	0
 4092 034c 3E       		.uleb128 0x3e
 4093 034d 2E       		.uleb128 0x2e
 4094 034e 00       		.byte	0
 4095 034f 3F       		.uleb128 0x3f
 4096 0350 19       		.uleb128 0x19
 4097 0351 3C       		.uleb128 0x3c
 4098 0352 19       		.uleb128 0x19
 4099 0353 6E       		.uleb128 0x6e
 4100 0354 0E       		.uleb128 0xe
 4101 0355 03       		.uleb128 0x3
 4102 0356 0E       		.uleb128 0xe
 4103 0357 3A       		.uleb128 0x3a
 4104 0358 0B       		.uleb128 0xb
 4105 0359 3B       		.uleb128 0x3b
 4106 035a 05       		.uleb128 0x5
 4107 035b 00       		.byte	0
 4108 035c 00       		.byte	0
 4109 035d 00       		.byte	0
 4110              		.section	.debug_loc,"",%progbits
 4111              	.Ldebug_loc0:
 4112              	.LLST0:
 4113 0000 00000000 		.4byte	.LVL0
 4114 0004 02000000 		.4byte	.LVL1
 4115 0008 0100     		.2byte	0x1
 4116 000a 50       		.byte	0x50
 4117 000b 02000000 		.4byte	.LVL1
 4118 000f 05000000 		.4byte	.LVL2-1
 4119 0013 0300     		.2byte	0x3
 4120 0015 70       		.byte	0x70
 4121 0016 74       		.sleb128 -12
 4122 0017 9F       		.byte	0x9f
 4123 0018 05000000 		.4byte	.LVL2-1
 4124 001c 06000000 		.4byte	.LFE267
 4125 0020 0400     		.2byte	0x4
 4126 0022 F3       		.byte	0xf3
 4127 0023 01       		.uleb128 0x1
 4128 0024 50       		.byte	0x50
 4129 0025 9F       		.byte	0x9f
 4130 0026 00000000 		.4byte	0
 4131 002a 00000000 		.4byte	0
 4132              	.LLST1:
 4133 002e 00000000 		.4byte	.LVL0
 4134 0032 05000000 		.4byte	.LVL2-1
 4135 0036 0100     		.2byte	0x1
 4136 0038 51       		.byte	0x51
 4137 0039 05000000 		.4byte	.LVL2-1
 4138 003d 06000000 		.4byte	.LFE267
 4139 0041 0400     		.2byte	0x4
 4140 0043 F3       		.byte	0xf3
 4141 0044 01       		.uleb128 0x1
 4142 0045 51       		.byte	0x51
 4143 0046 9F       		.byte	0x9f
 4144 0047 00000000 		.4byte	0
 4145 004b 00000000 		.4byte	0
 4146              	.LLST2:
ARM GAS  /tmp/ccT99met.s 			page 74


 4147 004f 00000000 		.4byte	.LVL0
 4148 0053 05000000 		.4byte	.LVL2-1
 4149 0057 0100     		.2byte	0x1
 4150 0059 52       		.byte	0x52
 4151 005a 05000000 		.4byte	.LVL2-1
 4152 005e 06000000 		.4byte	.LFE267
 4153 0062 0400     		.2byte	0x4
 4154 0064 F3       		.byte	0xf3
 4155 0065 01       		.uleb128 0x1
 4156 0066 52       		.byte	0x52
 4157 0067 9F       		.byte	0x9f
 4158 0068 00000000 		.4byte	0
 4159 006c 00000000 		.4byte	0
 4160              	.LLST3:
 4161 0070 00000000 		.4byte	.LVL0
 4162 0074 05000000 		.4byte	.LVL2-1
 4163 0078 0100     		.2byte	0x1
 4164 007a 53       		.byte	0x53
 4165 007b 05000000 		.4byte	.LVL2-1
 4166 007f 06000000 		.4byte	.LFE267
 4167 0083 0400     		.2byte	0x4
 4168 0085 F3       		.byte	0xf3
 4169 0086 01       		.uleb128 0x1
 4170 0087 53       		.byte	0x53
 4171 0088 9F       		.byte	0x9f
 4172 0089 00000000 		.4byte	0
 4173 008d 00000000 		.4byte	0
 4174              	.LLST4:
 4175 0091 00000000 		.4byte	.LVL3
 4176 0095 02000000 		.4byte	.LVL4
 4177 0099 0100     		.2byte	0x1
 4178 009b 50       		.byte	0x50
 4179 009c 02000000 		.4byte	.LVL4
 4180 00a0 09000000 		.4byte	.LVL5-1
 4181 00a4 0300     		.2byte	0x3
 4182 00a6 70       		.byte	0x70
 4183 00a7 74       		.sleb128 -12
 4184 00a8 9F       		.byte	0x9f
 4185 00a9 09000000 		.4byte	.LVL5-1
 4186 00ad 0A000000 		.4byte	.LFE261
 4187 00b1 0400     		.2byte	0x4
 4188 00b3 F3       		.byte	0xf3
 4189 00b4 01       		.uleb128 0x1
 4190 00b5 50       		.byte	0x50
 4191 00b6 9F       		.byte	0x9f
 4192 00b7 00000000 		.4byte	0
 4193 00bb 00000000 		.4byte	0
 4194              	.LLST5:
 4195 00bf 00000000 		.4byte	.LVL3
 4196 00c3 09000000 		.4byte	.LVL5-1
 4197 00c7 0100     		.2byte	0x1
 4198 00c9 51       		.byte	0x51
 4199 00ca 09000000 		.4byte	.LVL5-1
 4200 00ce 0A000000 		.4byte	.LFE261
 4201 00d2 0400     		.2byte	0x4
 4202 00d4 F3       		.byte	0xf3
 4203 00d5 01       		.uleb128 0x1
ARM GAS  /tmp/ccT99met.s 			page 75


 4204 00d6 51       		.byte	0x51
 4205 00d7 9F       		.byte	0x9f
 4206 00d8 00000000 		.4byte	0
 4207 00dc 00000000 		.4byte	0
 4208              	.LLST6:
 4209 00e0 00000000 		.4byte	.LVL3
 4210 00e4 09000000 		.4byte	.LVL5-1
 4211 00e8 0100     		.2byte	0x1
 4212 00ea 52       		.byte	0x52
 4213 00eb 09000000 		.4byte	.LVL5-1
 4214 00ef 0A000000 		.4byte	.LFE261
 4215 00f3 0400     		.2byte	0x4
 4216 00f5 F3       		.byte	0xf3
 4217 00f6 01       		.uleb128 0x1
 4218 00f7 52       		.byte	0x52
 4219 00f8 9F       		.byte	0x9f
 4220 00f9 00000000 		.4byte	0
 4221 00fd 00000000 		.4byte	0
 4222              	.LLST7:
 4223 0101 00000000 		.4byte	.LVL6
 4224 0105 02000000 		.4byte	.LVL7
 4225 0109 0100     		.2byte	0x1
 4226 010b 50       		.byte	0x50
 4227 010c 02000000 		.4byte	.LVL7
 4228 0110 05000000 		.4byte	.LVL8-1
 4229 0114 0300     		.2byte	0x3
 4230 0116 70       		.byte	0x70
 4231 0117 50       		.sleb128 -48
 4232 0118 9F       		.byte	0x9f
 4233 0119 05000000 		.4byte	.LVL8-1
 4234 011d 06000000 		.4byte	.LFE266
 4235 0121 0400     		.2byte	0x4
 4236 0123 F3       		.byte	0xf3
 4237 0124 01       		.uleb128 0x1
 4238 0125 50       		.byte	0x50
 4239 0126 9F       		.byte	0x9f
 4240 0127 00000000 		.4byte	0
 4241 012b 00000000 		.4byte	0
 4242              	.LLST8:
 4243 012f 00000000 		.4byte	.LVL6
 4244 0133 05000000 		.4byte	.LVL8-1
 4245 0137 0100     		.2byte	0x1
 4246 0139 51       		.byte	0x51
 4247 013a 05000000 		.4byte	.LVL8-1
 4248 013e 06000000 		.4byte	.LFE266
 4249 0142 0400     		.2byte	0x4
 4250 0144 F3       		.byte	0xf3
 4251 0145 01       		.uleb128 0x1
 4252 0146 51       		.byte	0x51
 4253 0147 9F       		.byte	0x9f
 4254 0148 00000000 		.4byte	0
 4255 014c 00000000 		.4byte	0
 4256              	.LLST9:
 4257 0150 00000000 		.4byte	.LVL6
 4258 0154 05000000 		.4byte	.LVL8-1
 4259 0158 0100     		.2byte	0x1
 4260 015a 52       		.byte	0x52
ARM GAS  /tmp/ccT99met.s 			page 76


 4261 015b 05000000 		.4byte	.LVL8-1
 4262 015f 06000000 		.4byte	.LFE266
 4263 0163 0400     		.2byte	0x4
 4264 0165 F3       		.byte	0xf3
 4265 0166 01       		.uleb128 0x1
 4266 0167 52       		.byte	0x52
 4267 0168 9F       		.byte	0x9f
 4268 0169 00000000 		.4byte	0
 4269 016d 00000000 		.4byte	0
 4270              	.LLST10:
 4271 0171 00000000 		.4byte	.LVL6
 4272 0175 05000000 		.4byte	.LVL8-1
 4273 0179 0100     		.2byte	0x1
 4274 017b 53       		.byte	0x53
 4275 017c 05000000 		.4byte	.LVL8-1
 4276 0180 06000000 		.4byte	.LFE266
 4277 0184 0400     		.2byte	0x4
 4278 0186 F3       		.byte	0xf3
 4279 0187 01       		.uleb128 0x1
 4280 0188 53       		.byte	0x53
 4281 0189 9F       		.byte	0x9f
 4282 018a 00000000 		.4byte	0
 4283 018e 00000000 		.4byte	0
 4284              	.LLST11:
 4285 0192 00000000 		.4byte	.LVL9
 4286 0196 02000000 		.4byte	.LVL10
 4287 019a 0100     		.2byte	0x1
 4288 019c 50       		.byte	0x50
 4289 019d 02000000 		.4byte	.LVL10
 4290 01a1 09000000 		.4byte	.LVL11-1
 4291 01a5 0300     		.2byte	0x3
 4292 01a7 70       		.byte	0x70
 4293 01a8 50       		.sleb128 -48
 4294 01a9 9F       		.byte	0x9f
 4295 01aa 09000000 		.4byte	.LVL11-1
 4296 01ae 0A000000 		.4byte	.LFE260
 4297 01b2 0400     		.2byte	0x4
 4298 01b4 F3       		.byte	0xf3
 4299 01b5 01       		.uleb128 0x1
 4300 01b6 50       		.byte	0x50
 4301 01b7 9F       		.byte	0x9f
 4302 01b8 00000000 		.4byte	0
 4303 01bc 00000000 		.4byte	0
 4304              	.LLST12:
 4305 01c0 00000000 		.4byte	.LVL9
 4306 01c4 09000000 		.4byte	.LVL11-1
 4307 01c8 0100     		.2byte	0x1
 4308 01ca 51       		.byte	0x51
 4309 01cb 09000000 		.4byte	.LVL11-1
 4310 01cf 0A000000 		.4byte	.LFE260
 4311 01d3 0400     		.2byte	0x4
 4312 01d5 F3       		.byte	0xf3
 4313 01d6 01       		.uleb128 0x1
 4314 01d7 51       		.byte	0x51
 4315 01d8 9F       		.byte	0x9f
 4316 01d9 00000000 		.4byte	0
 4317 01dd 00000000 		.4byte	0
ARM GAS  /tmp/ccT99met.s 			page 77


 4318              	.LLST13:
 4319 01e1 00000000 		.4byte	.LVL9
 4320 01e5 09000000 		.4byte	.LVL11-1
 4321 01e9 0100     		.2byte	0x1
 4322 01eb 52       		.byte	0x52
 4323 01ec 09000000 		.4byte	.LVL11-1
 4324 01f0 0A000000 		.4byte	.LFE260
 4325 01f4 0400     		.2byte	0x4
 4326 01f6 F3       		.byte	0xf3
 4327 01f7 01       		.uleb128 0x1
 4328 01f8 52       		.byte	0x52
 4329 01f9 9F       		.byte	0x9f
 4330 01fa 00000000 		.4byte	0
 4331 01fe 00000000 		.4byte	0
 4332              	.LLST14:
 4333 0202 00000000 		.4byte	.LVL12
 4334 0206 02000000 		.4byte	.LVL13
 4335 020a 0100     		.2byte	0x1
 4336 020c 50       		.byte	0x50
 4337 020d 02000000 		.4byte	.LVL13
 4338 0211 05000000 		.4byte	.LVL14-1
 4339 0215 0300     		.2byte	0x3
 4340 0217 70       		.byte	0x70
 4341 0218 74       		.sleb128 -12
 4342 0219 9F       		.byte	0x9f
 4343 021a 05000000 		.4byte	.LVL14-1
 4344 021e 06000000 		.4byte	.LFE265
 4345 0222 0400     		.2byte	0x4
 4346 0224 F3       		.byte	0xf3
 4347 0225 01       		.uleb128 0x1
 4348 0226 50       		.byte	0x50
 4349 0227 9F       		.byte	0x9f
 4350 0228 00000000 		.4byte	0
 4351 022c 00000000 		.4byte	0
 4352              	.LLST15:
 4353 0230 00000000 		.4byte	.LVL12
 4354 0234 05000000 		.4byte	.LVL14-1
 4355 0238 0100     		.2byte	0x1
 4356 023a 51       		.byte	0x51
 4357 023b 05000000 		.4byte	.LVL14-1
 4358 023f 06000000 		.4byte	.LFE265
 4359 0243 0400     		.2byte	0x4
 4360 0245 F3       		.byte	0xf3
 4361 0246 01       		.uleb128 0x1
 4362 0247 51       		.byte	0x51
 4363 0248 9F       		.byte	0x9f
 4364 0249 00000000 		.4byte	0
 4365 024d 00000000 		.4byte	0
 4366              	.LLST16:
 4367 0251 00000000 		.4byte	.LVL15
 4368 0255 02000000 		.4byte	.LVL16
 4369 0259 0100     		.2byte	0x1
 4370 025b 50       		.byte	0x50
 4371 025c 02000000 		.4byte	.LVL16
 4372 0260 09000000 		.4byte	.LVL17-1
 4373 0264 0300     		.2byte	0x3
 4374 0266 70       		.byte	0x70
ARM GAS  /tmp/ccT99met.s 			page 78


 4375 0267 74       		.sleb128 -12
 4376 0268 9F       		.byte	0x9f
 4377 0269 09000000 		.4byte	.LVL17-1
 4378 026d 0A000000 		.4byte	.LFE263
 4379 0271 0400     		.2byte	0x4
 4380 0273 F3       		.byte	0xf3
 4381 0274 01       		.uleb128 0x1
 4382 0275 50       		.byte	0x50
 4383 0276 9F       		.byte	0x9f
 4384 0277 00000000 		.4byte	0
 4385 027b 00000000 		.4byte	0
 4386              	.LLST17:
 4387 027f 00000000 		.4byte	.LVL18
 4388 0283 02000000 		.4byte	.LVL19
 4389 0287 0100     		.2byte	0x1
 4390 0289 50       		.byte	0x50
 4391 028a 02000000 		.4byte	.LVL19
 4392 028e 05000000 		.4byte	.LVL20-1
 4393 0292 0300     		.2byte	0x3
 4394 0294 70       		.byte	0x70
 4395 0295 50       		.sleb128 -48
 4396 0296 9F       		.byte	0x9f
 4397 0297 05000000 		.4byte	.LVL20-1
 4398 029b 06000000 		.4byte	.LFE264
 4399 029f 0400     		.2byte	0x4
 4400 02a1 F3       		.byte	0xf3
 4401 02a2 01       		.uleb128 0x1
 4402 02a3 50       		.byte	0x50
 4403 02a4 9F       		.byte	0x9f
 4404 02a5 00000000 		.4byte	0
 4405 02a9 00000000 		.4byte	0
 4406              	.LLST18:
 4407 02ad 00000000 		.4byte	.LVL18
 4408 02b1 05000000 		.4byte	.LVL20-1
 4409 02b5 0100     		.2byte	0x1
 4410 02b7 51       		.byte	0x51
 4411 02b8 05000000 		.4byte	.LVL20-1
 4412 02bc 06000000 		.4byte	.LFE264
 4413 02c0 0400     		.2byte	0x4
 4414 02c2 F3       		.byte	0xf3
 4415 02c3 01       		.uleb128 0x1
 4416 02c4 51       		.byte	0x51
 4417 02c5 9F       		.byte	0x9f
 4418 02c6 00000000 		.4byte	0
 4419 02ca 00000000 		.4byte	0
 4420              	.LLST19:
 4421 02ce 00000000 		.4byte	.LVL18
 4422 02d2 05000000 		.4byte	.LVL20-1
 4423 02d6 0100     		.2byte	0x1
 4424 02d8 52       		.byte	0x52
 4425 02d9 05000000 		.4byte	.LVL20-1
 4426 02dd 06000000 		.4byte	.LFE264
 4427 02e1 0400     		.2byte	0x4
 4428 02e3 F3       		.byte	0xf3
 4429 02e4 01       		.uleb128 0x1
 4430 02e5 52       		.byte	0x52
 4431 02e6 9F       		.byte	0x9f
ARM GAS  /tmp/ccT99met.s 			page 79


 4432 02e7 00000000 		.4byte	0
 4433 02eb 00000000 		.4byte	0
 4434              	.LLST20:
 4435 02ef 00000000 		.4byte	.LVL21
 4436 02f3 02000000 		.4byte	.LVL22
 4437 02f7 0100     		.2byte	0x1
 4438 02f9 50       		.byte	0x50
 4439 02fa 02000000 		.4byte	.LVL22
 4440 02fe 09000000 		.4byte	.LVL23-1
 4441 0302 0300     		.2byte	0x3
 4442 0304 70       		.byte	0x70
 4443 0305 50       		.sleb128 -48
 4444 0306 9F       		.byte	0x9f
 4445 0307 09000000 		.4byte	.LVL23-1
 4446 030b 0A000000 		.4byte	.LFE262
 4447 030f 0400     		.2byte	0x4
 4448 0311 F3       		.byte	0xf3
 4449 0312 01       		.uleb128 0x1
 4450 0313 50       		.byte	0x50
 4451 0314 9F       		.byte	0x9f
 4452 0315 00000000 		.4byte	0
 4453 0319 00000000 		.4byte	0
 4454              	.LLST21:
 4455 031d 00000000 		.4byte	.LVL21
 4456 0321 09000000 		.4byte	.LVL23-1
 4457 0325 0100     		.2byte	0x1
 4458 0327 51       		.byte	0x51
 4459 0328 09000000 		.4byte	.LVL23-1
 4460 032c 0A000000 		.4byte	.LFE262
 4461 0330 0400     		.2byte	0x4
 4462 0332 F3       		.byte	0xf3
 4463 0333 01       		.uleb128 0x1
 4464 0334 51       		.byte	0x51
 4465 0335 9F       		.byte	0x9f
 4466 0336 00000000 		.4byte	0
 4467 033a 00000000 		.4byte	0
 4468              	.LLST22:
 4469 033e 00000000 		.4byte	.LVL25
 4470 0342 0C000000 		.4byte	.LVL26
 4471 0346 0100     		.2byte	0x1
 4472 0348 50       		.byte	0x50
 4473 0349 0C000000 		.4byte	.LVL26
 4474 034d 3C000000 		.4byte	.LVL32
 4475 0351 0100     		.2byte	0x1
 4476 0353 54       		.byte	0x54
 4477 0354 3C000000 		.4byte	.LVL32
 4478 0358 40000000 		.4byte	.LFE269
 4479 035c 0400     		.2byte	0x4
 4480 035e F3       		.byte	0xf3
 4481 035f 01       		.uleb128 0x1
 4482 0360 50       		.byte	0x50
 4483 0361 9F       		.byte	0x9f
 4484 0362 00000000 		.4byte	0
 4485 0366 00000000 		.4byte	0
 4486              	.LLST23:
 4487 036a 00000000 		.4byte	.LVL25
 4488 036e 1A000000 		.4byte	.LVL27
ARM GAS  /tmp/ccT99met.s 			page 80


 4489 0372 0100     		.2byte	0x1
 4490 0374 51       		.byte	0x51
 4491 0375 1A000000 		.4byte	.LVL27
 4492 0379 25000000 		.4byte	.LVL30-1
 4493 037d 0100     		.2byte	0x1
 4494 037f 53       		.byte	0x53
 4495 0380 25000000 		.4byte	.LVL30-1
 4496 0384 40000000 		.4byte	.LFE269
 4497 0388 0400     		.2byte	0x4
 4498 038a F3       		.byte	0xf3
 4499 038b 01       		.uleb128 0x1
 4500 038c 51       		.byte	0x51
 4501 038d 9F       		.byte	0x9f
 4502 038e 00000000 		.4byte	0
 4503 0392 00000000 		.4byte	0
 4504              	.LLST24:
 4505 0396 00000000 		.4byte	.LVL25
 4506 039a 22000000 		.4byte	.LVL29
 4507 039e 0100     		.2byte	0x1
 4508 03a0 52       		.byte	0x52
 4509 03a1 22000000 		.4byte	.LVL29
 4510 03a5 3C000000 		.4byte	.LVL32
 4511 03a9 0100     		.2byte	0x1
 4512 03ab 55       		.byte	0x55
 4513 03ac 3C000000 		.4byte	.LVL32
 4514 03b0 40000000 		.4byte	.LFE269
 4515 03b4 0400     		.2byte	0x4
 4516 03b6 F3       		.byte	0xf3
 4517 03b7 01       		.uleb128 0x1
 4518 03b8 52       		.byte	0x52
 4519 03b9 9F       		.byte	0x9f
 4520 03ba 00000000 		.4byte	0
 4521 03be 00000000 		.4byte	0
 4522              	.LLST25:
 4523 03c2 0C000000 		.4byte	.LVL26
 4524 03c6 1E000000 		.4byte	.LVL28
 4525 03ca 0100     		.2byte	0x1
 4526 03cc 50       		.byte	0x50
 4527 03cd 1E000000 		.4byte	.LVL28
 4528 03d1 3C000000 		.4byte	.LVL32
 4529 03d5 0300     		.2byte	0x3
 4530 03d7 74       		.byte	0x74
 4531 03d8 04       		.sleb128 4
 4532 03d9 9F       		.byte	0x9f
 4533 03da 3C000000 		.4byte	.LVL32
 4534 03de 40000000 		.4byte	.LFE269
 4535 03e2 0600     		.2byte	0x6
 4536 03e4 F3       		.byte	0xf3
 4537 03e5 01       		.uleb128 0x1
 4538 03e6 50       		.byte	0x50
 4539 03e7 23       		.byte	0x23
 4540 03e8 04       		.uleb128 0x4
 4541 03e9 9F       		.byte	0x9f
 4542 03ea 00000000 		.4byte	0
 4543 03ee 00000000 		.4byte	0
 4544              	.LLST26:
 4545 03f2 0C000000 		.4byte	.LVL26
ARM GAS  /tmp/ccT99met.s 			page 81


 4546 03f6 1E000000 		.4byte	.LVL28
 4547 03fa 0100     		.2byte	0x1
 4548 03fc 50       		.byte	0x50
 4549 03fd 1E000000 		.4byte	.LVL28
 4550 0401 3C000000 		.4byte	.LVL32
 4551 0405 0300     		.2byte	0x3
 4552 0407 74       		.byte	0x74
 4553 0408 04       		.sleb128 4
 4554 0409 9F       		.byte	0x9f
 4555 040a 3C000000 		.4byte	.LVL32
 4556 040e 40000000 		.4byte	.LFE269
 4557 0412 0600     		.2byte	0x6
 4558 0414 F3       		.byte	0xf3
 4559 0415 01       		.uleb128 0x1
 4560 0416 50       		.byte	0x50
 4561 0417 23       		.byte	0x23
 4562 0418 04       		.uleb128 0x4
 4563 0419 9F       		.byte	0x9f
 4564 041a 00000000 		.4byte	0
 4565 041e 00000000 		.4byte	0
 4566              	.LLST27:
 4567 0422 00000000 		.4byte	.LVL33
 4568 0426 0D000000 		.4byte	.LVL34-1
 4569 042a 0100     		.2byte	0x1
 4570 042c 50       		.byte	0x50
 4571 042d 0D000000 		.4byte	.LVL34-1
 4572 0431 1A000000 		.4byte	.LFE270
 4573 0435 0100     		.2byte	0x1
 4574 0437 54       		.byte	0x54
 4575 0438 00000000 		.4byte	0
 4576 043c 00000000 		.4byte	0
 4577              	.LLST28:
 4578 0440 00000000 		.4byte	.LVL33
 4579 0444 0D000000 		.4byte	.LVL34-1
 4580 0448 0100     		.2byte	0x1
 4581 044a 51       		.byte	0x51
 4582 044b 0D000000 		.4byte	.LVL34-1
 4583 044f 1A000000 		.4byte	.LFE270
 4584 0453 0400     		.2byte	0x4
 4585 0455 F3       		.byte	0xf3
 4586 0456 01       		.uleb128 0x1
 4587 0457 51       		.byte	0x51
 4588 0458 9F       		.byte	0x9f
 4589 0459 00000000 		.4byte	0
 4590 045d 00000000 		.4byte	0
 4591              	.LLST29:
 4592 0461 00000000 		.4byte	.LVL36
 4593 0465 0D000000 		.4byte	.LVL37-1
 4594 0469 0100     		.2byte	0x1
 4595 046b 50       		.byte	0x50
 4596 046c 0D000000 		.4byte	.LVL37-1
 4597 0470 2E000000 		.4byte	.LFE271
 4598 0474 0100     		.2byte	0x1
 4599 0476 54       		.byte	0x54
 4600 0477 00000000 		.4byte	0
 4601 047b 00000000 		.4byte	0
 4602              	.LLST30:
ARM GAS  /tmp/ccT99met.s 			page 82


 4603 047f 00000000 		.4byte	.LVL41
 4604 0483 10000000 		.4byte	.LVL44
 4605 0487 0100     		.2byte	0x1
 4606 0489 50       		.byte	0x50
 4607 048a 10000000 		.4byte	.LVL44
 4608 048e 1A000000 		.4byte	.LVL46
 4609 0492 0100     		.2byte	0x1
 4610 0494 54       		.byte	0x54
 4611 0495 1A000000 		.4byte	.LVL46
 4612 0499 1E000000 		.4byte	.LVL48
 4613 049d 0100     		.2byte	0x1
 4614 049f 50       		.byte	0x50
 4615 04a0 1E000000 		.4byte	.LVL48
 4616 04a4 38000000 		.4byte	.LVL53
 4617 04a8 0100     		.2byte	0x1
 4618 04aa 54       		.byte	0x54
 4619 04ab 38000000 		.4byte	.LVL53
 4620 04af 3B000000 		.4byte	.LVL54-1
 4621 04b3 0300     		.2byte	0x3
 4622 04b5 70       		.byte	0x70
 4623 04b6 7C       		.sleb128 -4
 4624 04b7 9F       		.byte	0x9f
 4625 04b8 3B000000 		.4byte	.LVL54-1
 4626 04bc 3C000000 		.4byte	.LFE272
 4627 04c0 0400     		.2byte	0x4
 4628 04c2 F3       		.byte	0xf3
 4629 04c3 01       		.uleb128 0x1
 4630 04c4 50       		.byte	0x50
 4631 04c5 9F       		.byte	0x9f
 4632 04c6 00000000 		.4byte	0
 4633 04ca 00000000 		.4byte	0
 4634              	.LLST31:
 4635 04ce 00000000 		.4byte	.LVL41
 4636 04d2 0C000000 		.4byte	.LVL43
 4637 04d6 0100     		.2byte	0x1
 4638 04d8 51       		.byte	0x51
 4639 04d9 0C000000 		.4byte	.LVL43
 4640 04dd 1A000000 		.4byte	.LVL46
 4641 04e1 0400     		.2byte	0x4
 4642 04e3 F3       		.byte	0xf3
 4643 04e4 01       		.uleb128 0x1
 4644 04e5 51       		.byte	0x51
 4645 04e6 9F       		.byte	0x9f
 4646 04e7 1A000000 		.4byte	.LVL46
 4647 04eb 1C000000 		.4byte	.LVL47
 4648 04ef 0100     		.2byte	0x1
 4649 04f1 51       		.byte	0x51
 4650 04f2 1C000000 		.4byte	.LVL47
 4651 04f6 3C000000 		.4byte	.LFE272
 4652 04fa 0400     		.2byte	0x4
 4653 04fc F3       		.byte	0xf3
 4654 04fd 01       		.uleb128 0x1
 4655 04fe 51       		.byte	0x51
 4656 04ff 9F       		.byte	0x9f
 4657 0500 00000000 		.4byte	0
 4658 0504 00000000 		.4byte	0
 4659              	.LLST32:
ARM GAS  /tmp/ccT99met.s 			page 83


 4660 0508 1A000000 		.4byte	.LVL46
 4661 050c 30000000 		.4byte	.LVL51
 4662 0510 0200     		.2byte	0x2
 4663 0512 34       		.byte	0x34
 4664 0513 9F       		.byte	0x9f
 4665 0514 00000000 		.4byte	0
 4666 0518 00000000 		.4byte	0
 4667              	.LLST33:
 4668 051c 1A000000 		.4byte	.LVL46
 4669 0520 1E000000 		.4byte	.LVL48
 4670 0524 0300     		.2byte	0x3
 4671 0526 70       		.byte	0x70
 4672 0527 04       		.sleb128 4
 4673 0528 9F       		.byte	0x9f
 4674 0529 1E000000 		.4byte	.LVL48
 4675 052d 21000000 		.4byte	.LVL49-1
 4676 0531 0100     		.2byte	0x1
 4677 0533 50       		.byte	0x50
 4678 0534 21000000 		.4byte	.LVL49-1
 4679 0538 30000000 		.4byte	.LVL51
 4680 053c 0300     		.2byte	0x3
 4681 053e 74       		.byte	0x74
 4682 053f 04       		.sleb128 4
 4683 0540 9F       		.byte	0x9f
 4684 0541 00000000 		.4byte	0
 4685 0545 00000000 		.4byte	0
 4686              	.LLST34:
 4687 0549 30000000 		.4byte	.LVL51
 4688 054d 32000000 		.4byte	.LVL52
 4689 0551 0300     		.2byte	0x3
 4690 0553 74       		.byte	0x74
 4691 0554 04       		.sleb128 4
 4692 0555 9F       		.byte	0x9f
 4693 0556 32000000 		.4byte	.LVL52
 4694 055a 3B000000 		.4byte	.LVL54-1
 4695 055e 0100     		.2byte	0x1
 4696 0560 50       		.byte	0x50
 4697 0561 3B000000 		.4byte	.LVL54-1
 4698 0565 3C000000 		.4byte	.LFE272
 4699 0569 0600     		.2byte	0x6
 4700 056b F3       		.byte	0xf3
 4701 056c 01       		.uleb128 0x1
 4702 056d 50       		.byte	0x50
 4703 056e 23       		.byte	0x23
 4704 056f 04       		.uleb128 0x4
 4705 0570 9F       		.byte	0x9f
 4706 0571 00000000 		.4byte	0
 4707 0575 00000000 		.4byte	0
 4708              	.LLST35:
 4709 0579 00000000 		.4byte	.LVL55
 4710 057d 06000000 		.4byte	.LVL56
 4711 0581 0100     		.2byte	0x1
 4712 0583 50       		.byte	0x50
 4713 0584 06000000 		.4byte	.LVL56
 4714 0588 1E000000 		.4byte	.LFE273
 4715 058c 0100     		.2byte	0x1
 4716 058e 54       		.byte	0x54
ARM GAS  /tmp/ccT99met.s 			page 84


 4717 058f 00000000 		.4byte	0
 4718 0593 00000000 		.4byte	0
 4719              	.LLST36:
 4720 0597 0A000000 		.4byte	.LVL57
 4721 059b 14000000 		.4byte	.LVL59
 4722 059f 0100     		.2byte	0x1
 4723 05a1 50       		.byte	0x50
 4724 05a2 14000000 		.4byte	.LVL59
 4725 05a6 1E000000 		.4byte	.LFE273
 4726 05aa 0100     		.2byte	0x1
 4727 05ac 55       		.byte	0x55
 4728 05ad 00000000 		.4byte	0
 4729 05b1 00000000 		.4byte	0
 4730              	.LLST37:
 4731 05b5 12000000 		.4byte	.LVL58
 4732 05b9 14000000 		.4byte	.LVL59
 4733 05bd 0300     		.2byte	0x3
 4734 05bf 74       		.byte	0x74
 4735 05c0 04       		.sleb128 4
 4736 05c1 9F       		.byte	0x9f
 4737 05c2 14000000 		.4byte	.LVL59
 4738 05c6 19000000 		.4byte	.LVL60-1
 4739 05ca 0100     		.2byte	0x1
 4740 05cc 50       		.byte	0x50
 4741 05cd 19000000 		.4byte	.LVL60-1
 4742 05d1 1E000000 		.4byte	.LFE273
 4743 05d5 0300     		.2byte	0x3
 4744 05d7 74       		.byte	0x74
 4745 05d8 04       		.sleb128 4
 4746 05d9 9F       		.byte	0x9f
 4747 05da 00000000 		.4byte	0
 4748 05de 00000000 		.4byte	0
 4749              		.section	.debug_aranges,"",%progbits
 4750 0000 84000000 		.4byte	0x84
 4751 0004 0200     		.2byte	0x2
 4752 0006 00000000 		.4byte	.Ldebug_info0
 4753 000a 04       		.byte	0x4
 4754 000b 00       		.byte	0
 4755 000c 0000     		.2byte	0
 4756 000e 0000     		.2byte	0
 4757 0010 00000000 		.4byte	.LFB267
 4758 0014 06000000 		.4byte	.LFE267-.LFB267
 4759 0018 00000000 		.4byte	.LFB261
 4760 001c 0A000000 		.4byte	.LFE261-.LFB261
 4761 0020 00000000 		.4byte	.LFB266
 4762 0024 06000000 		.4byte	.LFE266-.LFB266
 4763 0028 00000000 		.4byte	.LFB260
 4764 002c 0A000000 		.4byte	.LFE260-.LFB260
 4765 0030 00000000 		.4byte	.LFB265
 4766 0034 06000000 		.4byte	.LFE265-.LFB265
 4767 0038 00000000 		.4byte	.LFB263
 4768 003c 0A000000 		.4byte	.LFE263-.LFB263
 4769 0040 00000000 		.4byte	.LFB264
 4770 0044 06000000 		.4byte	.LFE264-.LFB264
 4771 0048 00000000 		.4byte	.LFB262
 4772 004c 0A000000 		.4byte	.LFE262-.LFB262
 4773 0050 00000000 		.4byte	.LFB268
ARM GAS  /tmp/ccT99met.s 			page 85


 4774 0054 04000000 		.4byte	.LFE268-.LFB268
 4775 0058 00000000 		.4byte	.LFB269
 4776 005c 40000000 		.4byte	.LFE269-.LFB269
 4777 0060 00000000 		.4byte	.LFB270
 4778 0064 1A000000 		.4byte	.LFE270-.LFB270
 4779 0068 00000000 		.4byte	.LFB271
 4780 006c 2E000000 		.4byte	.LFE271-.LFB271
 4781 0070 00000000 		.4byte	.LFB272
 4782 0074 3C000000 		.4byte	.LFE272-.LFB272
 4783 0078 00000000 		.4byte	.LFB273
 4784 007c 1E000000 		.4byte	.LFE273-.LFB273
 4785 0080 00000000 		.4byte	0
 4786 0084 00000000 		.4byte	0
 4787              		.section	.debug_ranges,"",%progbits
 4788              	.Ldebug_ranges0:
 4789 0000 02000000 		.4byte	.LBB69
 4790 0004 04000000 		.4byte	.LBE69
 4791 0008 06000000 		.4byte	.LBB78
 4792 000c 0A000000 		.4byte	.LBE78
 4793 0010 00000000 		.4byte	0
 4794 0014 00000000 		.4byte	0
 4795 0018 02000000 		.4byte	.LBB85
 4796 001c 04000000 		.4byte	.LBE85
 4797 0020 06000000 		.4byte	.LBB94
 4798 0024 0A000000 		.4byte	.LBE94
 4799 0028 00000000 		.4byte	0
 4800 002c 00000000 		.4byte	0
 4801 0030 30000000 		.4byte	.LBB105
 4802 0034 34000000 		.4byte	.LBE105
 4803 0038 38000000 		.4byte	.LBB108
 4804 003c 3C000000 		.4byte	.LBE108
 4805 0040 00000000 		.4byte	0
 4806 0044 00000000 		.4byte	0
 4807 0048 00000000 		.4byte	.LFB267
 4808 004c 06000000 		.4byte	.LFE267
 4809 0050 00000000 		.4byte	.LFB261
 4810 0054 0A000000 		.4byte	.LFE261
 4811 0058 00000000 		.4byte	.LFB266
 4812 005c 06000000 		.4byte	.LFE266
 4813 0060 00000000 		.4byte	.LFB260
 4814 0064 0A000000 		.4byte	.LFE260
 4815 0068 00000000 		.4byte	.LFB265
 4816 006c 06000000 		.4byte	.LFE265
 4817 0070 00000000 		.4byte	.LFB263
 4818 0074 0A000000 		.4byte	.LFE263
 4819 0078 00000000 		.4byte	.LFB264
 4820 007c 06000000 		.4byte	.LFE264
 4821 0080 00000000 		.4byte	.LFB262
 4822 0084 0A000000 		.4byte	.LFE262
 4823 0088 00000000 		.4byte	.LFB268
 4824 008c 04000000 		.4byte	.LFE268
 4825 0090 00000000 		.4byte	.LFB269
 4826 0094 40000000 		.4byte	.LFE269
 4827 0098 00000000 		.4byte	.LFB270
 4828 009c 1A000000 		.4byte	.LFE270
 4829 00a0 00000000 		.4byte	.LFB271
 4830 00a4 2E000000 		.4byte	.LFE271
ARM GAS  /tmp/ccT99met.s 			page 86


 4831 00a8 00000000 		.4byte	.LFB272
 4832 00ac 3C000000 		.4byte	.LFE272
 4833 00b0 00000000 		.4byte	.LFB273
 4834 00b4 1E000000 		.4byte	.LFE273
 4835 00b8 00000000 		.4byte	0
 4836 00bc 00000000 		.4byte	0
 4837              		.section	.debug_line,"",%progbits
 4838              	.Ldebug_line0:
 4839 0000 F1030000 		.section	.debug_str,"MS",%progbits,1
 4839      02007902 
 4839      00000201 
 4839      FB0E0D00 
 4839      01010101 
 4840              	.LASF178:
 4841 0000 63684F51 		.ascii	"chOQPutTimeout\000"
 4841      50757454 
 4841      696D656F 
 4841      757400
 4842              	.LASF24:
 4843 000f 74726566 		.ascii	"trefs_t\000"
 4843      735F7400 
 4844              	.LASF55:
 4845 0017 72656164 		.ascii	"ready_list_t\000"
 4845      795F6C69 
 4845      73745F74 
 4845      00
 4846              	.LASF4:
 4847 0024 73697A65 		.ascii	"size_t\000"
 4847      5F7400
 4848              	.LASF92:
 4849 002b 7264796D 		.ascii	"rdymsg\000"
 4849      736700
 4850              	.LASF20:
 4851 0032 75696E74 		.ascii	"uint64_t\000"
 4851      36345F74 
 4851      00
 4852              	.LASF5:
 4853 003b 5F5F7569 		.ascii	"__uint8_t\000"
 4853      6E74385F 
 4853      7400
 4854              	.LASF89:
 4855 0045 706F7274 		.ascii	"port_intctx\000"
 4855      5F696E74 
 4855      63747800 
 4856              	.LASF74:
 4857 0051 73797374 		.ascii	"system_debug_t\000"
 4857      656D5F64 
 4857      65627567 
 4857      5F7400
 4858              	.LASF175:
 4859 0060 63684951 		.ascii	"chIQReadTimeout\000"
 4859      52656164 
 4859      54696D65 
 4859      6F757400 
 4860              	.LASF151:
 4861 0070 706F7274 		.ascii	"port_lock\000"
 4861      5F6C6F63 
ARM GAS  /tmp/ccT99met.s 			page 87


 4861      6B00
 4862              	.LASF180:
 4863 007a 63684951 		.ascii	"chIQObjectInit\000"
 4863      4F626A65 
 4863      6374496E 
 4863      697400
 4864              	.LASF15:
 4865 0089 6C6F6E67 		.ascii	"long long unsigned int\000"
 4865      206C6F6E 
 4865      6720756E 
 4865      7369676E 
 4865      65642069 
 4866              	.LASF162:
 4867 00a0 6F73616C 		.ascii	"osalEventBroadcastFlagsI\000"
 4867      4576656E 
 4867      7442726F 
 4867      61646361 
 4867      7374466C 
 4868              	.LASF93:
 4869 00b9 65786974 		.ascii	"exitcode\000"
 4869      636F6465 
 4869      00
 4870              	.LASF81:
 4871 00c2 6D61696E 		.ascii	"mainthread\000"
 4871      74687265 
 4871      616400
 4872              	.LASF10:
 4873 00cd 5F5F696E 		.ascii	"__int32_t\000"
 4873      7433325F 
 4873      7400
 4874              	.LASF71:
 4875 00d7 76697274 		.ascii	"virtual_timers_list_t\000"
 4875      75616C5F 
 4875      74696D65 
 4875      72735F6C 
 4875      6973745F 
 4876              	.LASF174:
 4877 00ed 49544D5F 		.ascii	"ITM_RxBuffer\000"
 4877      52784275 
 4877      66666572 
 4877      00
 4878              	.LASF118:
 4879 00fa 696F5F71 		.ascii	"io_queue_t\000"
 4879      75657565 
 4879      5F7400
 4880              	.LASF54:
 4881 0105 63685F74 		.ascii	"ch_threads_queue\000"
 4881      68726561 
 4881      64735F71 
 4881      75657565 
 4881      00
 4882              	.LASF166:
 4883 0116 73644F62 		.ascii	"sdObjectInit\000"
 4883      6A656374 
 4883      496E6974 
 4883      00
 4884              	.LASF150:
ARM GAS  /tmp/ccT99met.s 			page 88


 4885 0123 72656164 		.ascii	"readt\000"
 4885      7400
 4886              	.LASF120:
 4887 0129 715F7761 		.ascii	"q_waiting\000"
 4887      6974696E 
 4887      6700
 4888              	.LASF1:
 4889 0133 6C6F6E67 		.ascii	"long long int\000"
 4889      206C6F6E 
 4889      6720696E 
 4889      7400
 4890              	.LASF3:
 4891 0141 7369676E 		.ascii	"signed char\000"
 4891      65642063 
 4891      68617200 
 4892              	.LASF84:
 4893 014d 47545052 		.ascii	"GTPR\000"
 4893      00
 4894              	.LASF48:
 4895 0152 705F6D70 		.ascii	"p_mpool\000"
 4895      6F6F6C00 
 4896              	.LASF158:
 4897 015a 6F73616C 		.ascii	"osalEventObjectInit\000"
 4897      4576656E 
 4897      744F626A 
 4897      65637449 
 4897      6E697400 
 4898              	.LASF103:
 4899 016e 6D5F7175 		.ascii	"m_queue\000"
 4899      65756500 
 4900              	.LASF152:
 4901 0176 706F7274 		.ascii	"port_unlock\000"
 4901      5F756E6C 
 4901      6F636B00 
 4902              	.LASF138:
 4903 0182 73746174 		.ascii	"state\000"
 4903      6500
 4904              	.LASF78:
 4905 0188 63685F73 		.ascii	"ch_system\000"
 4905      79737465 
 4905      6D00
 4906              	.LASF11:
 4907 0192 6C6F6E67 		.ascii	"long int\000"
 4907      20696E74 
 4907      00
 4908              	.LASF115:
 4909 019b 6576656E 		.ascii	"event_source\000"
 4909      745F736F 
 4909      75726365 
 4909      00
 4910              	.LASF23:
 4911 01a8 74737461 		.ascii	"tstate_t\000"
 4911      74655F74 
 4911      00
 4912              	.LASF189:
 4913 01b1 63684F51 		.ascii	"chOQGetI\000"
 4913      47657449 
ARM GAS  /tmp/ccT99met.s 			page 89


 4913      00
 4914              	.LASF122:
 4915 01ba 715F6275 		.ascii	"q_buffer\000"
 4915      66666572 
 4915      00
 4916              	.LASF187:
 4917 01c3 63684576 		.ascii	"chEvtBroadcastFlagsI\000"
 4917      7442726F 
 4917      61646361 
 4917      7374466C 
 4917      61677349 
 4918              	.LASF133:
 4919 01d8 53445F53 		.ascii	"SD_STOP\000"
 4919      544F5000 
 4920              	.LASF36:
 4921 01e0 705F6E65 		.ascii	"p_newer\000"
 4921      77657200 
 4922              	.LASF100:
 4923 01e8 735F7175 		.ascii	"s_queue\000"
 4923      65756500 
 4924              	.LASF9:
 4925 01f0 73686F72 		.ascii	"short unsigned int\000"
 4925      7420756E 
 4925      7369676E 
 4925      65642069 
 4925      6E7400
 4926              	.LASF183:
 4927 0203 63685363 		.ascii	"chSchRescheduleS\000"
 4927      68526573 
 4927      63686564 
 4927      756C6553 
 4927      00
 4928              	.LASF60:
 4929 0214 725F6E65 		.ascii	"r_newer\000"
 4929      77657200 
 4930              	.LASF86:
 4931 021c 72656761 		.ascii	"regarm_t\000"
 4931      726D5F74 
 4931      00
 4932              	.LASF67:
 4933 0225 76745F70 		.ascii	"vt_prev\000"
 4933      72657600 
 4934              	.LASF80:
 4935 022d 76746C69 		.ascii	"vtlist\000"
 4935      737400
 4936              	.LASF188:
 4937 0234 63684951 		.ascii	"chIQPutI\000"
 4937      50757449 
 4937      00
 4938              	.LASF160:
 4939 023d 6F73616C 		.ascii	"osalSysLock\000"
 4939      5379734C 
 4939      6F636B00 
 4940              	.LASF107:
 4941 0249 6D757465 		.ascii	"mutex_t\000"
 4941      785F7400 
 4942              	.LASF153:
ARM GAS  /tmp/ccT99met.s 			page 90


 4943 0251 76616C75 		.ascii	"value\000"
 4943      6500
 4944              	.LASF119:
 4945 0257 696F5F71 		.ascii	"io_queue\000"
 4945      75657565 
 4945      00
 4946              	.LASF117:
 4947 0260 6576656E 		.ascii	"event_source_t\000"
 4947      745F736F 
 4947      75726365 
 4947      5F7400
 4948              	.LASF82:
 4949 026f 69646C65 		.ascii	"idle_thread_wa\000"
 4949      5F746872 
 4949      6561645F 
 4949      776100
 4950              	.LASF29:
 4951 027e 636E745F 		.ascii	"cnt_t\000"
 4951      7400
 4952              	.LASF141:
 4953 0284 75736172 		.ascii	"usart\000"
 4953      7400
 4954              	.LASF0:
 4955 028a 756E7369 		.ascii	"unsigned int\000"
 4955      676E6564 
 4955      20696E74 
 4955      00
 4956              	.LASF66:
 4957 0297 76745F6E 		.ascii	"vt_next\000"
 4957      65787400 
 4958              	.LASF17:
 4959 029f 75696E74 		.ascii	"uint16_t\000"
 4959      31365F74 
 4959      00
 4960              	.LASF144:
 4961 02a8 53657269 		.ascii	"SerialDriverVMT\000"
 4961      616C4472 
 4961      69766572 
 4961      564D5400 
 4962              	.LASF186:
 4963 02b8 63684951 		.ascii	"chIQResetI\000"
 4963      52657365 
 4963      744900
 4964              	.LASF167:
 4965 02c3 696E6F74 		.ascii	"inotify\000"
 4965      69667900 
 4966              	.LASF96:
 4967 02cb 77747365 		.ascii	"wtsemp\000"
 4967      6D7000
 4968              	.LASF68:
 4969 02d2 76745F64 		.ascii	"vt_delta\000"
 4969      656C7461 
 4969      00
 4970              	.LASF43:
 4971 02db 705F6D73 		.ascii	"p_msgqueue\000"
 4971      67717565 
 4971      756500
ARM GAS  /tmp/ccT99met.s 			page 91


 4972              	.LASF179:
 4973 02e6 73645F6C 		.ascii	"sd_lld_init\000"
 4973      6C645F69 
 4973      6E697400 
 4974              	.LASF148:
 4975 02f2 67657474 		.ascii	"gett\000"
 4975      00
 4976              	.LASF101:
 4977 02f7 735F636E 		.ascii	"s_cnt\000"
 4977      7400
 4978              	.LASF137:
 4979 02fd 6576656E 		.ascii	"event\000"
 4979      7400
 4980              	.LASF157:
 4981 0303 63684576 		.ascii	"chEvtObjectInit\000"
 4981      744F626A 
 4981      65637449 
 4981      6E697400 
 4982              	.LASF124:
 4983 0313 715F7772 		.ascii	"q_wrptr\000"
 4983      70747200 
 4984              	.LASF51:
 4985 031b 63685F74 		.ascii	"ch_thread\000"
 4985      68726561 
 4985      6400
 4986              	.LASF114:
 4987 0325 656C5F77 		.ascii	"el_wflags\000"
 4987      666C6167 
 4987      7300
 4988              	.LASF26:
 4989 032f 6D73675F 		.ascii	"msg_t\000"
 4989      7400
 4990              	.LASF140:
 4991 0335 6F717565 		.ascii	"oqueue\000"
 4991      756500
 4992              	.LASF110:
 4993 033c 656C5F6E 		.ascii	"el_next\000"
 4993      65787400 
 4994              	.LASF77:
 4995 0344 63685F73 		.ascii	"ch_system_t\000"
 4995      79737465 
 4995      6D5F7400 
 4996              	.LASF85:
 4997 0350 55534152 		.ascii	"USART_TypeDef\000"
 4997      545F5479 
 4997      70654465 
 4997      6600
 4998              	.LASF149:
 4999 035e 77726974 		.ascii	"writet\000"
 4999      657400
 5000              	.LASF22:
 5001 0365 746D6F64 		.ascii	"tmode_t\000"
 5001      655F7400 
 5002              	.LASF56:
 5003 036d 63685F72 		.ascii	"ch_ready_list\000"
 5003      65616479 
 5003      5F6C6973 
ARM GAS  /tmp/ccT99met.s 			page 92


 5003      7400
 5004              	.LASF27:
 5005 037b 6576656E 		.ascii	"eventmask_t\000"
 5005      746D6173 
 5005      6B5F7400 
 5006              	.LASF142:
 5007 0387 73706565 		.ascii	"speed\000"
 5007      6400
 5008              	.LASF128:
 5009 038d 716E6F74 		.ascii	"qnotify_t\000"
 5009      6966795F 
 5009      7400
 5010              	.LASF87:
 5011 0397 73746B61 		.ascii	"stkalign_t\000"
 5011      6C69676E 
 5011      5F7400
 5012              	.LASF176:
 5013 03a2 63684F51 		.ascii	"chOQWriteTimeout\000"
 5013      57726974 
 5013      6554696D 
 5013      656F7574 
 5013      00
 5014              	.LASF190:
 5015 03b3 474E5520 		.ascii	"GNU C11 5.2.0 -mcpu=cortex-m4 -mfloat-abi=hard -mfp"
 5015      43313120 
 5015      352E322E 
 5015      30202D6D 
 5015      6370753D 
 5016 03e6 753D6670 		.ascii	"u=fpv4-sp-d16 -mno-thumb-interwork -mthumb -ggdb -O"
 5016      76342D73 
 5016      702D6431 
 5016      36202D6D 
 5016      6E6F2D74 
 5017 0419 32202D66 		.ascii	"2 -fomit-frame-pointer -falign-functions=16 -ffunct"
 5017      6F6D6974 
 5017      2D667261 
 5017      6D652D70 
 5017      6F696E74 
 5018 044c 696F6E2D 		.ascii	"ion-sections -fdata-sections -fno-common -fsingle-p"
 5018      73656374 
 5018      696F6E73 
 5018      202D6664 
 5018      6174612D 
 5019 047f 72656369 		.ascii	"recision-constant\000"
 5019      73696F6E 
 5019      2D636F6E 
 5019      7374616E 
 5019      7400
 5020              	.LASF145:
 5021 0491 77726974 		.ascii	"write\000"
 5021      6500
 5022              	.LASF129:
 5023 0497 696E7075 		.ascii	"input_queue_t\000"
 5023      745F7175 
 5023      6575655F 
 5023      7400
 5024              	.LASF147:
ARM GAS  /tmp/ccT99met.s 			page 93


 5025 04a5 70757474 		.ascii	"putt\000"
 5025      00
 5026              	.LASF130:
 5027 04aa 6F757470 		.ascii	"output_queue_t\000"
 5027      75745F71 
 5027      75657565 
 5027      5F7400
 5028              	.LASF192:
 5029 04b9 2F686F6D 		.ascii	"/home/sssilvar/Documents/embebidos/ChibiOS/iflab/pr"
 5029      652F7373 
 5029      73696C76 
 5029      61722F44 
 5029      6F63756D 
 5030 04ec 6F6A6563 		.ascii	"ojects/UART_ADC\000"
 5030      74732F55 
 5030      4152545F 
 5030      41444300 
 5031              	.LASF83:
 5032 04fc 73697A65 		.ascii	"sizetype\000"
 5032      74797065 
 5032      00
 5033              	.LASF49:
 5034 0505 74687265 		.ascii	"thread_reference_t\000"
 5034      61645F72 
 5034      65666572 
 5034      656E6365 
 5034      5F7400
 5035              	.LASF72:
 5036 0518 63685F76 		.ascii	"ch_virtual_timers_list\000"
 5036      69727475 
 5036      616C5F74 
 5036      696D6572 
 5036      735F6C69 
 5037              	.LASF121:
 5038 052f 715F636F 		.ascii	"q_counter\000"
 5038      756E7465 
 5038      7200
 5039              	.LASF95:
 5040 0539 77747472 		.ascii	"wttrp\000"
 5040      7000
 5041              	.LASF34:
 5042 053f 705F7072 		.ascii	"p_prio\000"
 5042      696F00
 5043              	.LASF73:
 5044 0546 76745F6C 		.ascii	"vt_lasttime\000"
 5044      61737474 
 5044      696D6500 
 5045              	.LASF37:
 5046 0552 705F6F6C 		.ascii	"p_older\000"
 5046      64657200 
 5047              	.LASF59:
 5048 055a 725F6374 		.ascii	"r_ctx\000"
 5048      7800
 5049              	.LASF91:
 5050 0560 746D5F63 		.ascii	"tm_calibration_t\000"
 5050      616C6962 
 5050      72617469 
ARM GAS  /tmp/ccT99met.s 			page 94


 5050      6F6E5F74 
 5050      00
 5051              	.LASF171:
 5052 0571 73645374 		.ascii	"sdStop\000"
 5052      6F7000
 5053              	.LASF41:
 5054 0578 705F7265 		.ascii	"p_refs\000"
 5054      667300
 5055              	.LASF62:
 5056 057f 725F6375 		.ascii	"r_current\000"
 5056      7272656E 
 5056      7400
 5057              	.LASF61:
 5058 0589 725F6F6C 		.ascii	"r_older\000"
 5058      64657200 
 5059              	.LASF112:
 5060 0591 656C5F65 		.ascii	"el_events\000"
 5060      76656E74 
 5060      7300
 5061              	.LASF143:
 5062 059b 53657269 		.ascii	"SerialConfig\000"
 5062      616C436F 
 5062      6E666967 
 5062      00
 5063              	.LASF14:
 5064 05a8 5F5F7569 		.ascii	"__uint64_t\000"
 5064      6E743634 
 5064      5F7400
 5065              	.LASF161:
 5066 05b3 6F73616C 		.ascii	"osalOsRescheduleS\000"
 5066      4F735265 
 5066      73636865 
 5066      64756C65 
 5066      5300
 5067              	.LASF64:
 5068 05c5 76697274 		.ascii	"virtual_timer_t\000"
 5068      75616C5F 
 5068      74696D65 
 5068      725F7400 
 5069              	.LASF33:
 5070 05d5 705F7072 		.ascii	"p_prev\000"
 5070      657600
 5071              	.LASF25:
 5072 05dc 74707269 		.ascii	"tprio_t\000"
 5072      6F5F7400 
 5073              	.LASF125:
 5074 05e4 715F7264 		.ascii	"q_rdptr\000"
 5074      70747200 
 5075              	.LASF75:
 5076 05ec 63685F73 		.ascii	"ch_system_debug\000"
 5076      79737465 
 5076      6D5F6465 
 5076      62756700 
 5077              	.LASF131:
 5078 05fc 5F426F6F 		.ascii	"_Bool\000"
 5078      6C00
 5079              	.LASF18:
ARM GAS  /tmp/ccT99met.s 			page 95


 5080 0602 696E7433 		.ascii	"int32_t\000"
 5080      325F7400 
 5081              	.LASF6:
 5082 060a 756E7369 		.ascii	"unsigned char\000"
 5082      676E6564 
 5082      20636861 
 5082      7200
 5083              	.LASF182:
 5084 0618 73645F6C 		.ascii	"sd_lld_start\000"
 5084      6C645F73 
 5084      74617274 
 5084      00
 5085              	.LASF111:
 5086 0625 656C5F6C 		.ascii	"el_listener\000"
 5086      69737465 
 5086      6E657200 
 5087              	.LASF113:
 5088 0631 656C5F66 		.ascii	"el_flags\000"
 5088      6C616773 
 5088      00
 5089              	.LASF39:
 5090 063a 705F7374 		.ascii	"p_state\000"
 5090      61746500 
 5091              	.LASF46:
 5092 0642 705F6D74 		.ascii	"p_mtxlist\000"
 5092      786C6973 
 5092      7400
 5093              	.LASF7:
 5094 064c 73686F72 		.ascii	"short int\000"
 5094      7420696E 
 5094      7400
 5095              	.LASF58:
 5096 0656 725F7072 		.ascii	"r_prio\000"
 5096      696F00
 5097              	.LASF98:
 5098 065d 65776D61 		.ascii	"ewmask\000"
 5098      736B00
 5099              	.LASF32:
 5100 0664 705F6E65 		.ascii	"p_next\000"
 5100      787400
 5101              	.LASF40:
 5102 066b 705F666C 		.ascii	"p_flags\000"
 5102      61677300 
 5103              	.LASF172:
 5104 0673 5F5F6675 		.ascii	"__func__\000"
 5104      6E635F5F 
 5104      00
 5105              	.LASF38:
 5106 067c 705F6E61 		.ascii	"p_name\000"
 5106      6D6500
 5107              	.LASF154:
 5108 0683 63685379 		.ascii	"chSysLock\000"
 5108      734C6F63 
 5108      6B00
 5109              	.LASF159:
 5110 068d 6F73616C 		.ascii	"osalSysUnlock\000"
 5110      53797355 
ARM GAS  /tmp/ccT99met.s 			page 96


 5110      6E6C6F63 
 5110      6B00
 5111              	.LASF53:
 5112 069b 74687265 		.ascii	"threads_queue_t\000"
 5112      6164735F 
 5112      71756575 
 5112      655F7400 
 5113              	.LASF99:
 5114 06ab 63685F73 		.ascii	"ch_semaphore\000"
 5114      656D6170 
 5114      686F7265 
 5114      00
 5115              	.LASF45:
 5116 06b8 705F6570 		.ascii	"p_epending\000"
 5116      656E6469 
 5116      6E6700
 5117              	.LASF132:
 5118 06c3 53445F55 		.ascii	"SD_UNINIT\000"
 5118      4E494E49 
 5118      5400
 5119              	.LASF19:
 5120 06cd 75696E74 		.ascii	"uint32_t\000"
 5120      33325F74 
 5120      00
 5121              	.LASF97:
 5122 06d6 77746D74 		.ascii	"wtmtxp\000"
 5122      787000
 5123              	.LASF57:
 5124 06dd 725F7175 		.ascii	"r_queue\000"
 5124      65756500 
 5125              	.LASF52:
 5126 06e5 63685F74 		.ascii	"ch_threads_list\000"
 5126      68726561 
 5126      64735F6C 
 5126      69737400 
 5127              	.LASF136:
 5128 06f5 53657269 		.ascii	"SerialDriver\000"
 5128      616C4472 
 5128      69766572 
 5128      00
 5129              	.LASF13:
 5130 0702 6C6F6E67 		.ascii	"long unsigned int\000"
 5130      20756E73 
 5130      69676E65 
 5130      6420696E 
 5130      7400
 5131              	.LASF146:
 5132 0714 72656164 		.ascii	"read\000"
 5132      00
 5133              	.LASF106:
 5134 0719 63686172 		.ascii	"char\000"
 5134      00
 5135              	.LASF173:
 5136 071e 7364496E 		.ascii	"sdIncomingDataI\000"
 5136      636F6D69 
 5136      6E674461 
 5136      74614900 
ARM GAS  /tmp/ccT99met.s 			page 97


 5137              	.LASF170:
 5138 072e 636F6E66 		.ascii	"config\000"
 5138      696700
 5139              	.LASF169:
 5140 0735 73645374 		.ascii	"sdStart\000"
 5140      61727400 
 5141              	.LASF8:
 5142 073d 5F5F7569 		.ascii	"__uint16_t\000"
 5142      6E743136 
 5142      5F7400
 5143              	.LASF31:
 5144 0748 74687265 		.ascii	"thread_t\000"
 5144      61645F74 
 5144      00
 5145              	.LASF2:
 5146 0751 6C6F6E67 		.ascii	"long double\000"
 5146      20646F75 
 5146      626C6500 
 5147              	.LASF105:
 5148 075d 6D5F6E65 		.ascii	"m_next\000"
 5148      787400
 5149              	.LASF30:
 5150 0764 73797374 		.ascii	"systime_t\000"
 5150      696D655F 
 5150      7400
 5151              	.LASF47:
 5152 076e 705F7265 		.ascii	"p_realprio\000"
 5152      616C7072 
 5152      696F00
 5153              	.LASF63:
 5154 0779 76746675 		.ascii	"vtfunc_t\000"
 5154      6E635F74 
 5154      00
 5155              	.LASF12:
 5156 0782 5F5F7569 		.ascii	"__uint32_t\000"
 5156      6E743332 
 5156      5F7400
 5157              	.LASF155:
 5158 078d 5F5F7365 		.ascii	"__set_BASEPRI\000"
 5158      745F4241 
 5158      53455052 
 5158      4900
 5159              	.LASF76:
 5160 079b 70616E69 		.ascii	"panic_msg\000"
 5160      635F6D73 
 5160      6700
 5161              	.LASF90:
 5162 07a5 6F666673 		.ascii	"offset\000"
 5162      657400
 5163              	.LASF108:
 5164 07ac 6576656E 		.ascii	"event_listener_t\000"
 5164      745F6C69 
 5164      7374656E 
 5164      65725F74 
 5164      00
 5165              	.LASF185:
 5166 07bd 63684F51 		.ascii	"chOQResetI\000"
ARM GAS  /tmp/ccT99met.s 			page 98


 5166      52657365 
 5166      744900
 5167              	.LASF88:
 5168 07c8 636F6E74 		.ascii	"context\000"
 5168      65787400 
 5169              	.LASF65:
 5170 07d0 63685F76 		.ascii	"ch_virtual_timer\000"
 5170      69727475 
 5170      616C5F74 
 5170      696D6572 
 5170      00
 5171              	.LASF21:
 5172 07e1 7274636E 		.ascii	"rtcnt_t\000"
 5172      745F7400 
 5173              	.LASF134:
 5174 07e9 53445F52 		.ascii	"SD_READY\000"
 5174      45414459 
 5174      00
 5175              	.LASF70:
 5176 07f2 76745F70 		.ascii	"vt_par\000"
 5176      617200
 5177              	.LASF28:
 5178 07f9 6576656E 		.ascii	"eventflags_t\000"
 5178      74666C61 
 5178      67735F74 
 5178      00
 5179              	.LASF181:
 5180 0806 63684F51 		.ascii	"chOQObjectInit\000"
 5180      4F626A65 
 5180      6374496E 
 5180      697400
 5181              	.LASF135:
 5182 0815 73647374 		.ascii	"sdstate_t\000"
 5182      6174655F 
 5182      7400
 5183              	.LASF123:
 5184 081f 715F746F 		.ascii	"q_top\000"
 5184      7000
 5185              	.LASF102:
 5186 0825 63685F6D 		.ascii	"ch_mutex\000"
 5186      75746578 
 5186      00
 5187              	.LASF116:
 5188 082e 65735F6E 		.ascii	"es_next\000"
 5188      65787400 
 5189              	.LASF193:
 5190 0836 63684951 		.ascii	"chIQIsEmptyI\000"
 5190      4973456D 
 5190      70747949 
 5190      00
 5191              	.LASF126:
 5192 0843 715F6E6F 		.ascii	"q_notify\000"
 5192      74696679 
 5192      00
 5193              	.LASF79:
 5194 084c 726C6973 		.ascii	"rlist\000"
 5194      7400
ARM GAS  /tmp/ccT99met.s 			page 99


 5195              	.LASF194:
 5196 0852 73645265 		.ascii	"sdRequestDataI\000"
 5196      71756573 
 5196      74446174 
 5196      614900
 5197              	.LASF16:
 5198 0861 75696E74 		.ascii	"uint8_t\000"
 5198      385F7400 
 5199              	.LASF191:
 5200 0869 2E2E2F2E 		.ascii	"../../os/hal/src/serial.c\000"
 5200      2E2F6F73 
 5200      2F68616C 
 5200      2F737263 
 5200      2F736572 
 5201              	.LASF163:
 5202 0883 666C6167 		.ascii	"flags\000"
 5202      7300
 5203              	.LASF168:
 5204 0889 6F6E6F74 		.ascii	"onotify\000"
 5204      69667900 
 5205              	.LASF94:
 5206 0891 77746F62 		.ascii	"wtobjp\000"
 5206      6A7000
 5207              	.LASF139:
 5208 0898 69717565 		.ascii	"iqueue\000"
 5208      756500
 5209              	.LASF50:
 5210 089f 74687265 		.ascii	"threads_list_t\000"
 5210      6164735F 
 5210      6C697374 
 5210      5F7400
 5211              	.LASF156:
 5212 08ae 63685379 		.ascii	"chSysUnlock\000"
 5212      73556E6C 
 5212      6F636B00 
 5213              	.LASF44:
 5214 08ba 705F6D73 		.ascii	"p_msg\000"
 5214      6700
 5215              	.LASF184:
 5216 08c0 73645F6C 		.ascii	"sd_lld_stop\000"
 5216      6C645F73 
 5216      746F7000 
 5217              	.LASF164:
 5218 08cc 74696D65 		.ascii	"timeout\000"
 5218      6F757400 
 5219              	.LASF165:
 5220 08d4 7364496E 		.ascii	"sdInit\000"
 5220      697400
 5221              	.LASF127:
 5222 08db 715F6C69 		.ascii	"q_link\000"
 5222      6E6B00
 5223              	.LASF104:
 5224 08e2 6D5F6F77 		.ascii	"m_owner\000"
 5224      6E657200 
 5225              	.LASF35:
 5226 08ea 705F6374 		.ascii	"p_ctx\000"
 5226      7800
ARM GAS  /tmp/ccT99met.s 			page 100


 5227              	.LASF69:
 5228 08f0 76745F66 		.ascii	"vt_func\000"
 5228      756E6300 
 5229              	.LASF177:
 5230 08f8 63684951 		.ascii	"chIQGetTimeout\000"
 5230      47657454 
 5230      696D656F 
 5230      757400
 5231              	.LASF109:
 5232 0907 6576656E 		.ascii	"event_listener\000"
 5232      745F6C69 
 5232      7374656E 
 5232      657200
 5233              	.LASF42:
 5234 0916 705F7761 		.ascii	"p_waiting\000"
 5234      6974696E 
 5234      6700
 5235              		.ident	"GCC: (Fedora 5.2.0-2.fc22) 5.2.0"
ARM GAS  /tmp/ccT99met.s 			page 101


DEFINED SYMBOLS
                            *ABS*:0000000000000000 serial.c
     /tmp/ccT99met.s:22     .text.readt:0000000000000000 $t
     /tmp/ccT99met.s:27     .text.readt:0000000000000000 readt
     /tmp/ccT99met.s:45     .text.read:0000000000000000 $t
     /tmp/ccT99met.s:50     .text.read:0000000000000000 read
     /tmp/ccT99met.s:68     .text.writet:0000000000000000 $t
     /tmp/ccT99met.s:73     .text.writet:0000000000000000 writet
     /tmp/ccT99met.s:90     .text.write:0000000000000000 $t
     /tmp/ccT99met.s:95     .text.write:0000000000000000 write
     /tmp/ccT99met.s:113    .text.gett:0000000000000000 $t
     /tmp/ccT99met.s:118    .text.gett:0000000000000000 gett
     /tmp/ccT99met.s:135    .text.get:0000000000000000 $t
     /tmp/ccT99met.s:140    .text.get:0000000000000000 get
     /tmp/ccT99met.s:158    .text.putt:0000000000000000 $t
     /tmp/ccT99met.s:163    .text.putt:0000000000000000 putt
     /tmp/ccT99met.s:180    .text.put:0000000000000000 $t
     /tmp/ccT99met.s:185    .text.put:0000000000000000 put
     /tmp/ccT99met.s:203    .text.sdInit:0000000000000000 $t
     /tmp/ccT99met.s:209    .text.sdInit:0000000000000000 sdInit
     /tmp/ccT99met.s:223    .text.sdObjectInit:0000000000000000 $t
     /tmp/ccT99met.s:229    .text.sdObjectInit:0000000000000000 sdObjectInit
     /tmp/ccT99met.s:297    .text.sdObjectInit:000000000000003c $d
     /tmp/ccT99met.s:302    .text.sdStart:0000000000000000 $t
     /tmp/ccT99met.s:308    .text.sdStart:0000000000000000 sdStart
     /tmp/ccT99met.s:383    .text.sdStop:0000000000000000 $t
     /tmp/ccT99met.s:389    .text.sdStop:0000000000000000 sdStop
     /tmp/ccT99met.s:478    .text.sdIncomingDataI:0000000000000000 $t
     /tmp/ccT99met.s:484    .text.sdIncomingDataI:0000000000000000 sdIncomingDataI
     /tmp/ccT99met.s:565    .text.sdRequestDataI:0000000000000000 $t
     /tmp/ccT99met.s:571    .text.sdRequestDataI:0000000000000000 sdRequestDataI
     /tmp/ccT99met.s:616    .rodata.vmt:0000000000000000 $d
     /tmp/ccT99met.s:620    .rodata.vmt:0000000000000000 vmt
                     .debug_frame:0000000000000010 $d

UNDEFINED SYMBOLS
chIQReadTimeout
chOQWriteTimeout
chIQGetTimeout
chOQPutTimeout
sd_lld_init
chIQObjectInit
chOQObjectInit
sd_lld_start
sd_lld_stop
chOQResetI
chIQResetI
chSchRescheduleS
chIQPutI
chEvtBroadcastFlagsI
chOQGetI
