ARM GAS  /tmp/ccT99met.s 			page 1


   1              		.syntax unified
   2              		.cpu cortex-m4
   3              		.eabi_attribute 27, 1
   4              		.eabi_attribute 28, 1
   5              		.fpu fpv4-sp-d16
   6              		.eabi_attribute 20, 1
   7              		.eabi_attribute 21, 1
   8              		.eabi_attribute 23, 3
   9              		.eabi_attribute 24, 1
  10              		.eabi_attribute 25, 1
  11              		.eabi_attribute 26, 1
  12              		.eabi_attribute 30, 2
  13              		.eabi_attribute 34, 1
  14              		.eabi_attribute 18, 4
  15              		.thumb
  16              		.syntax unified
  17              		.file	"serial.c"
  18              		.text
  19              	.Ltext0:
  20              		.cfi_sections	.debug_frame
  21              		.section	.text.readt,"ax",%progbits
  22              		.align	2
  23              		.p2align 4,,15
  24              		.thumb
  25              		.thumb_func
  26              		.type	readt, %function
  27              	readt:
  28              	.LFB267:
  29              		.file 1 "../../os/hal/src/serial.c"
  30              		.loc 1 87 0
  31              		.cfi_startproc
  32              		@ args = 0, pretend = 0, frame = 0
  33              		@ frame_needed = 0, uses_anonymous_args = 0
  34              		@ link register save eliminated.
  35              	.LVL0:
  36              		.loc 1 89 0
  37 0000 0C30     		adds	r0, r0, #12
  38              	.LVL1:
  39 0002 FFF7FEBF 		b	chIQReadTimeout
  40              	.LVL2:
  41              		.cfi_endproc
  42              	.LFE267:
  43              		.size	readt, .-readt
  44 0006 00BFAFF3 		.section	.text.read,"ax",%progbits
  44      0080AFF3 
  44      0080
  45              		.align	2
  46              		.p2align 4,,15
  47              		.thumb
  48              		.thumb_func
  49              		.type	read, %function
  50              	read:
  51              	.LFB261:
  52              		.loc 1 56 0
  53              		.cfi_startproc
  54              		@ args = 0, pretend = 0, frame = 0
  55              		@ frame_needed = 0, uses_anonymous_args = 0
ARM GAS  /tmp/ccT99met.s 			page 2


  56              		@ link register save eliminated.
  57              	.LVL3:
  58              		.loc 1 58 0
  59 0000 0C30     		adds	r0, r0, #12
  60              	.LVL4:
  61 0002 4FF0FF33 		mov	r3, #-1
  62 0006 FFF7FEBF 		b	chIQReadTimeout
  63              	.LVL5:
  64              		.cfi_endproc
  65              	.LFE261:
  66              		.size	read, .-read
  67 000a 00BFAFF3 		.section	.text.writet,"ax",%progbits
  67      0080
  68              		.align	2
  69              		.p2align 4,,15
  70              		.thumb
  71              		.thumb_func
  72              		.type	writet, %function
  73              	writet:
  74              	.LFB266:
  75              		.loc 1 82 0
  76              		.cfi_startproc
  77              		@ args = 0, pretend = 0, frame = 0
  78              		@ frame_needed = 0, uses_anonymous_args = 0
  79              		@ link register save eliminated.
  80              	.LVL6:
  81              		.loc 1 84 0
  82 0000 3030     		adds	r0, r0, #48
  83              	.LVL7:
  84 0002 FFF7FEBF 		b	chOQWriteTimeout
  85              	.LVL8:
  86              		.cfi_endproc
  87              	.LFE266:
  88              		.size	writet, .-writet
  89 0006 00BFAFF3 		.section	.text.write,"ax",%progbits
  89      0080AFF3 
  89      0080
  90              		.align	2
  91              		.p2align 4,,15
  92              		.thumb
  93              		.thumb_func
  94              		.type	write, %function
  95              	write:
  96              	.LFB260:
  97              		.loc 1 50 0
  98              		.cfi_startproc
  99              		@ args = 0, pretend = 0, frame = 0
 100              		@ frame_needed = 0, uses_anonymous_args = 0
 101              		@ link register save eliminated.
 102              	.LVL9:
 103              		.loc 1 52 0
 104 0000 3030     		adds	r0, r0, #48
 105              	.LVL10:
 106 0002 4FF0FF33 		mov	r3, #-1
 107 0006 FFF7FEBF 		b	chOQWriteTimeout
 108              	.LVL11:
 109              		.cfi_endproc
ARM GAS  /tmp/ccT99met.s 			page 3


 110              	.LFE260:
 111              		.size	write, .-write
 112 000a 00BFAFF3 		.section	.text.gett,"ax",%progbits
 112      0080
 113              		.align	2
 114              		.p2align 4,,15
 115              		.thumb
 116              		.thumb_func
 117              		.type	gett, %function
 118              	gett:
 119              	.LFB265:
 120              		.loc 1 77 0
 121              		.cfi_startproc
 122              		@ args = 0, pretend = 0, frame = 0
 123              		@ frame_needed = 0, uses_anonymous_args = 0
 124              		@ link register save eliminated.
 125              	.LVL12:
 126              		.loc 1 79 0
 127 0000 0C30     		adds	r0, r0, #12
 128              	.LVL13:
 129 0002 FFF7FEBF 		b	chIQGetTimeout
 130              	.LVL14:
 131              		.cfi_endproc
 132              	.LFE265:
 133              		.size	gett, .-gett
 134 0006 00BFAFF3 		.section	.text.get,"ax",%progbits
 134      0080AFF3 
 134      0080
 135              		.align	2
 136              		.p2align 4,,15
 137              		.thumb
 138              		.thumb_func
 139              		.type	get, %function
 140              	get:
 141              	.LFB263:
 142              		.loc 1 67 0
 143              		.cfi_startproc
 144              		@ args = 0, pretend = 0, frame = 0
 145              		@ frame_needed = 0, uses_anonymous_args = 0
 146              		@ link register save eliminated.
 147              	.LVL15:
 148              		.loc 1 69 0
 149 0000 0C30     		adds	r0, r0, #12
 150              	.LVL16:
 151 0002 4FF0FF31 		mov	r1, #-1
 152 0006 FFF7FEBF 		b	chIQGetTimeout
 153              	.LVL17:
 154              		.cfi_endproc
 155              	.LFE263:
 156              		.size	get, .-get
 157 000a 00BFAFF3 		.section	.text.putt,"ax",%progbits
 157      0080
 158              		.align	2
 159              		.p2align 4,,15
 160              		.thumb
 161              		.thumb_func
 162              		.type	putt, %function
ARM GAS  /tmp/ccT99met.s 			page 4


 163              	putt:
 164              	.LFB264:
 165              		.loc 1 72 0
 166              		.cfi_startproc
 167              		@ args = 0, pretend = 0, frame = 0
 168              		@ frame_needed = 0, uses_anonymous_args = 0
 169              		@ link register save eliminated.
 170              	.LVL18:
 171              		.loc 1 74 0
 172 0000 3030     		adds	r0, r0, #48
 173              	.LVL19:
 174 0002 FFF7FEBF 		b	chOQPutTimeout
 175              	.LVL20:
 176              		.cfi_endproc
 177              	.LFE264:
 178              		.size	putt, .-putt
 179 0006 00BFAFF3 		.section	.text.put,"ax",%progbits
 179      0080AFF3 
 179      0080
 180              		.align	2
 181              		.p2align 4,,15
 182              		.thumb
 183              		.thumb_func
 184              		.type	put, %function
 185              	put:
 186              	.LFB262:
 187              		.loc 1 62 0
 188              		.cfi_startproc
 189              		@ args = 0, pretend = 0, frame = 0
 190              		@ frame_needed = 0, uses_anonymous_args = 0
 191              		@ link register save eliminated.
 192              	.LVL21:
 193              		.loc 1 64 0
 194 0000 3030     		adds	r0, r0, #48
 195              	.LVL22:
 196 0002 4FF0FF32 		mov	r2, #-1
 197 0006 FFF7FEBF 		b	chOQPutTimeout
 198              	.LVL23:
 199              		.cfi_endproc
 200              	.LFE262:
 201              		.size	put, .-put
 202 000a 00BFAFF3 		.section	.text.sdInit,"ax",%progbits
 202      0080
 203              		.align	2
 204              		.p2align 4,,15
 205              		.global	sdInit
 206              		.thumb
 207              		.thumb_func
 208              		.type	sdInit, %function
 209              	sdInit:
 210              	.LFB268:
 211              		.loc 1 108 0
 212              		.cfi_startproc
 213              		@ args = 0, pretend = 0, frame = 0
 214              		@ frame_needed = 0, uses_anonymous_args = 0
 215              		@ link register save eliminated.
 216              		.loc 1 110 0
ARM GAS  /tmp/ccT99met.s 			page 5


 217 0000 FFF7FEBF 		b	sd_lld_init
 218              	.LVL24:
 219              		.cfi_endproc
 220              	.LFE268:
 221              		.size	sdInit, .-sdInit
 222 0004 AFF30080 		.section	.text.sdObjectInit,"ax",%progbits
 222      AFF30080 
 222      AFF30080 
 223              		.align	2
 224              		.p2align 4,,15
 225              		.global	sdObjectInit
 226              		.thumb
 227              		.thumb_func
 228              		.type	sdObjectInit, %function
 229              	sdObjectInit:
 230              	.LFB269:
 231              		.loc 1 128 0
 232              		.cfi_startproc
 233              		@ args = 0, pretend = 0, frame = 0
 234              		@ frame_needed = 0, uses_anonymous_args = 0
 235              	.LVL25:
 236 0000 70B5     		push	{r4, r5, r6, lr}
 237              		.cfi_def_cfa_offset 16
 238              		.cfi_offset 4, -16
 239              		.cfi_offset 5, -12
 240              		.cfi_offset 6, -8
 241              		.cfi_offset 14, -4
 242              		.loc 1 130 0
 243 0002 0E4B     		ldr	r3, .L12
 244              		.loc 1 128 0
 245 0004 0446     		mov	r4, r0
 246 0006 82B0     		sub	sp, sp, #8
 247              		.cfi_def_cfa_offset 24
 248              		.loc 1 130 0
 249 0008 40F8043B 		str	r3, [r0], #4
 250              	.LVL26:
 251              		.loc 1 132 0
 252 000c 0126     		movs	r6, #1
 253              		.loc 1 133 0
 254 000e 0094     		str	r4, [sp]
 255              		.loc 1 128 0
 256 0010 1546     		mov	r5, r2
 257              		.loc 1 133 0
 258 0012 0B46     		mov	r3, r1
 259              	.LBB66:
 260              	.LBB67:
 261              	.LBB68:
 262              		.file 2 "../../os/rt/include/chevents.h"
 263              		.loc 2 172 0
 264 0014 6060     		str	r0, [r4, #4]
 265              	.LBE68:
 266              	.LBE67:
 267              	.LBE66:
 268              		.loc 1 133 0
 269 0016 04F15401 		add	r1, r4, #84
 270              	.LVL27:
 271 001a 04F10C00 		add	r0, r4, #12
ARM GAS  /tmp/ccT99met.s 			page 6


 272              	.LVL28:
 273              		.loc 1 132 0
 274 001e 2672     		strb	r6, [r4, #8]
 275              		.loc 1 133 0
 276 0020 1022     		movs	r2, #16
 277              	.LVL29:
 278 0022 FFF7FEFF 		bl	chIQObjectInit
 279              	.LVL30:
 280              		.loc 1 134 0
 281 0026 0094     		str	r4, [sp]
 282 0028 2B46     		mov	r3, r5
 283 002a 04F16401 		add	r1, r4, #100
 284 002e 04F13000 		add	r0, r4, #48
 285 0032 1022     		movs	r2, #16
 286 0034 FFF7FEFF 		bl	chOQObjectInit
 287              	.LVL31:
 288              		.loc 1 135 0
 289 0038 02B0     		add	sp, sp, #8
 290              		.cfi_def_cfa_offset 16
 291              		@ sp needed
 292 003a 70BD     		pop	{r4, r5, r6, pc}
 293              	.LVL32:
 294              	.L13:
 295              		.align	2
 296              	.L12:
 297 003c 00000000 		.word	.LANCHOR0
 298              		.cfi_endproc
 299              	.LFE269:
 300              		.size	sdObjectInit, .-sdObjectInit
 301              		.section	.text.sdStart,"ax",%progbits
 302              		.align	2
 303              		.p2align 4,,15
 304              		.global	sdStart
 305              		.thumb
 306              		.thumb_func
 307              		.type	sdStart, %function
 308              	sdStart:
 309              	.LFB270:
 310              		.loc 1 147 0
 311              		.cfi_startproc
 312              		@ args = 0, pretend = 0, frame = 0
 313              		@ frame_needed = 0, uses_anonymous_args = 0
 314              	.LVL33:
 315 0000 10B5     		push	{r4, lr}
 316              		.cfi_def_cfa_offset 8
 317              		.cfi_offset 4, -8
 318              		.cfi_offset 14, -4
 319              	.LBB69:
 320              	.LBB70:
 321              	.LBB71:
 322              	.LBB72:
 323              	.LBB73:
 324              		.file 3 "../../os/ext/CMSIS/include/core_cmFunc.h"
 325              		.loc 3 546 0
 326 0002 2023     		movs	r3, #32
 327              	.LBE73:
 328              	.LBE72:
ARM GAS  /tmp/ccT99met.s 			page 7


 329              	.LBE71:
 330              	.LBE70:
 331              	.LBE69:
 332              		.loc 1 147 0
 333 0004 0446     		mov	r4, r0
 334              	.LBB78:
 335              	.LBB77:
 336              	.LBB76:
 337              	.LBB75:
 338              	.LBB74:
 339              		.loc 3 546 0
 340              		.syntax unified
 341              	@ 546 "../../os/ext/CMSIS/include/core_cmFunc.h" 1
 342 0006 83F31188 		MSR basepri, r3
 343              	@ 0 "" 2
 344              		.thumb
 345              		.syntax unified
 346              	.LBE74:
 347              	.LBE75:
 348              	.LBE76:
 349              	.LBE77:
 350              	.LBE78:
 351              		.loc 1 154 0
 352 000a FFF7FEFF 		bl	sd_lld_start
 353              	.LVL34:
 354              		.loc 1 155 0
 355 000e 0223     		movs	r3, #2
 356 0010 2372     		strb	r3, [r4, #8]
 357              	.LVL35:
 358              	.LBB79:
 359              	.LBB80:
 360              	.LBB81:
 361              	.LBB82:
 362              	.LBB83:
 363              	.LBB84:
 364              		.loc 3 546 0
 365 0012 0023     		movs	r3, #0
 366              		.syntax unified
 367              	@ 546 "../../os/ext/CMSIS/include/core_cmFunc.h" 1
 368 0014 83F31188 		MSR basepri, r3
 369              	@ 0 "" 2
 370              		.thumb
 371              		.syntax unified
 372 0018 10BD     		pop	{r4, pc}
 373              	.LBE84:
 374              	.LBE83:
 375              	.LBE82:
 376              	.LBE81:
 377              	.LBE80:
 378              	.LBE79:
 379              		.cfi_endproc
 380              	.LFE270:
 381              		.size	sdStart, .-sdStart
 382 001a 00BFAFF3 		.section	.text.sdStop,"ax",%progbits
 382      0080
 383              		.align	2
 384              		.p2align 4,,15
ARM GAS  /tmp/ccT99met.s 			page 8


 385              		.global	sdStop
 386              		.thumb
 387              		.thumb_func
 388              		.type	sdStop, %function
 389              	sdStop:
 390              	.LFB271:
 391              		.loc 1 168 0
 392              		.cfi_startproc
 393              		@ args = 0, pretend = 0, frame = 0
 394              		@ frame_needed = 0, uses_anonymous_args = 0
 395              	.LVL36:
 396 0000 10B5     		push	{r4, lr}
 397              		.cfi_def_cfa_offset 8
 398              		.cfi_offset 4, -8
 399              		.cfi_offset 14, -4
 400              	.LBB85:
 401              	.LBB86:
 402              	.LBB87:
 403              	.LBB88:
 404              	.LBB89:
 405              		.loc 3 546 0
 406 0002 2023     		movs	r3, #32
 407              	.LBE89:
 408              	.LBE88:
 409              	.LBE87:
 410              	.LBE86:
 411              	.LBE85:
 412              		.loc 1 168 0
 413 0004 0446     		mov	r4, r0
 414              	.LBB94:
 415              	.LBB93:
 416              	.LBB92:
 417              	.LBB91:
 418              	.LBB90:
 419              		.loc 3 546 0
 420              		.syntax unified
 421              	@ 546 "../../os/ext/CMSIS/include/core_cmFunc.h" 1
 422 0006 83F31188 		MSR basepri, r3
 423              	@ 0 "" 2
 424              		.thumb
 425              		.syntax unified
 426              	.LBE90:
 427              	.LBE91:
 428              	.LBE92:
 429              	.LBE93:
 430              	.LBE94:
 431              		.loc 1 175 0
 432 000a FFF7FEFF 		bl	sd_lld_stop
 433              	.LVL37:
 434              		.loc 1 176 0
 435 000e 0123     		movs	r3, #1
 436 0010 2372     		strb	r3, [r4, #8]
 437              		.loc 1 177 0
 438 0012 04F13000 		add	r0, r4, #48
 439 0016 FFF7FEFF 		bl	chOQResetI
 440              	.LVL38:
 441              		.loc 1 178 0
ARM GAS  /tmp/ccT99met.s 			page 9


 442 001a 04F10C00 		add	r0, r4, #12
 443 001e FFF7FEFF 		bl	chIQResetI
 444              	.LVL39:
 445              	.LBB95:
 446              	.LBB96:
 447              		.file 4 "../../os/hal/osal/rt/osal.h"
 448              		.loc 4 554 0
 449 0022 FFF7FEFF 		bl	chSchRescheduleS
 450              	.LVL40:
 451              	.LBE96:
 452              	.LBE95:
 453              	.LBB97:
 454              	.LBB98:
 455              	.LBB99:
 456              	.LBB100:
 457              	.LBB101:
 458              	.LBB102:
 459              		.loc 3 546 0
 460 0026 0023     		movs	r3, #0
 461              		.syntax unified
 462              	@ 546 "../../os/ext/CMSIS/include/core_cmFunc.h" 1
 463 0028 83F31188 		MSR basepri, r3
 464              	@ 0 "" 2
 465              		.thumb
 466              		.syntax unified
 467 002c 10BD     		pop	{r4, pc}
 468              	.LBE102:
 469              	.LBE101:
 470              	.LBE100:
 471              	.LBE99:
 472              	.LBE98:
 473              	.LBE97:
 474              		.cfi_endproc
 475              	.LFE271:
 476              		.size	sdStop, .-sdStop
 477 002e 00BF     		.section	.text.sdIncomingDataI,"ax",%progbits
 478              		.align	2
 479              		.p2align 4,,15
 480              		.global	sdIncomingDataI
 481              		.thumb
 482              		.thumb_func
 483              		.type	sdIncomingDataI, %function
 484              	sdIncomingDataI:
 485              	.LFB272:
 486              		.loc 1 199 0
 487              		.cfi_startproc
 488              		@ args = 0, pretend = 0, frame = 0
 489              		@ frame_needed = 0, uses_anonymous_args = 0
 490              	.LVL41:
 491 0000 38B5     		push	{r3, r4, r5, lr}
 492              		.cfi_def_cfa_offset 16
 493              		.cfi_offset 3, -16
 494              		.cfi_offset 4, -12
 495              		.cfi_offset 5, -8
 496              		.cfi_offset 14, -4
 497              		.loc 1 204 0
 498 0002 4369     		ldr	r3, [r0, #20]
ARM GAS  /tmp/ccT99met.s 			page 10


 499              		.loc 1 199 0
 500 0004 0446     		mov	r4, r0
 501              	.LVL42:
 502 0006 0D46     		mov	r5, r1
 503              		.loc 1 204 0
 504 0008 3BB1     		cbz	r3, .L23
 505              		.loc 1 206 0
 506 000a 2946     		mov	r1, r5
 507              	.LVL43:
 508 000c 04F10C00 		add	r0, r4, #12
 509              	.LVL44:
 510 0010 FFF7FEFF 		bl	chIQPutI
 511              	.LVL45:
 512 0014 0028     		cmp	r0, #0
 513 0016 0BDB     		blt	.L24
 514              	.L18:
 515 0018 38BD     		pop	{r3, r4, r5, pc}
 516              	.LVL46:
 517              	.L23:
 518              	.LBB103:
 519              	.LBB104:
 520              		.loc 4 798 0
 521 001a 0421     		movs	r1, #4
 522              	.LVL47:
 523 001c 0844     		add	r0, r0, r1
 524              	.LVL48:
 525 001e FFF7FEFF 		bl	chEvtBroadcastFlagsI
 526              	.LVL49:
 527              	.LBE104:
 528              	.LBE103:
 529              		.loc 1 206 0
 530 0022 2946     		mov	r1, r5
 531 0024 04F10C00 		add	r0, r4, #12
 532 0028 FFF7FEFF 		bl	chIQPutI
 533              	.LVL50:
 534 002c 0028     		cmp	r0, #0
 535 002e F3DA     		bge	.L18
 536              	.LVL51:
 537              	.L24:
 538              	.LBB105:
 539              	.LBB106:
 540              		.loc 4 798 0
 541 0030 201D     		adds	r0, r4, #4
 542              	.LVL52:
 543 0032 8021     		movs	r1, #128
 544              	.LBE106:
 545              	.LBE105:
 546              		.loc 1 208 0
 547 0034 BDE83840 		pop	{r3, r4, r5, lr}
 548              		.cfi_restore 14
 549              		.cfi_restore 5
 550              		.cfi_restore 4
 551              		.cfi_restore 3
 552              		.cfi_def_cfa_offset 0
 553              	.LVL53:
 554              	.LBB108:
 555              	.LBB107:
ARM GAS  /tmp/ccT99met.s 			page 11


 556              		.loc 4 798 0
 557 0038 FFF7FEBF 		b	chEvtBroadcastFlagsI
 558              	.LVL54:
 559              	.LBE107:
 560              	.LBE108:
 561              		.cfi_endproc
 562              	.LFE272:
 563              		.size	sdIncomingDataI, .-sdIncomingDataI
 564 003c AFF30080 		.section	.text.sdRequestDataI,"ax",%progbits
 565              		.align	2
 566              		.p2align 4,,15
 567              		.global	sdRequestDataI
 568              		.thumb
 569              		.thumb_func
 570              		.type	sdRequestDataI, %function
 571              	sdRequestDataI:
 572              	.LFB273:
 573              		.loc 1 225 0
 574              		.cfi_startproc
 575              		@ args = 0, pretend = 0, frame = 0
 576              		@ frame_needed = 0, uses_anonymous_args = 0
 577              	.LVL55:
 578 0000 38B5     		push	{r3, r4, r5, lr}
 579              		.cfi_def_cfa_offset 16
 580              		.cfi_offset 3, -16
 581              		.cfi_offset 4, -12
 582              		.cfi_offset 5, -8
 583              		.cfi_offset 14, -4
 584              		.loc 1 225 0
 585 0002 0446     		mov	r4, r0
 586              		.loc 1 231 0
 587 0004 3030     		adds	r0, r0, #48
 588              	.LVL56:
 589 0006 FFF7FEFF 		bl	chOQGetI
 590              	.LVL57:
 591              		.loc 1 232 0
 592 000a 051E     		subs	r5, r0, #0
 593 000c 01DB     		blt	.L28
 594              		.loc 1 235 0
 595 000e 2846     		mov	r0, r5
 596 0010 38BD     		pop	{r3, r4, r5, pc}
 597              	.LVL58:
 598              	.L28:
 599              	.LBB109:
 600              	.LBB110:
 601              		.loc 4 798 0
 602 0012 201D     		adds	r0, r4, #4
 603              	.LVL59:
 604 0014 0821     		movs	r1, #8
 605 0016 FFF7FEFF 		bl	chEvtBroadcastFlagsI
 606              	.LVL60:
 607              	.LBE110:
 608              	.LBE109:
 609              		.loc 1 235 0
 610 001a 2846     		mov	r0, r5
 611 001c 38BD     		pop	{r3, r4, r5, pc}
 612              		.cfi_endproc
ARM GAS  /tmp/ccT99met.s 			page 12


 613              	.LFE273:
 614              		.size	sdRequestDataI, .-sdRequestDataI
 615 001e 00BF     		.section	.rodata.vmt,"a",%progbits
 616              		.align	2
 617              		.set	.LANCHOR0,. + 0
 618              		.type	vmt, %object
 619              		.size	vmt, 32
 620              	vmt:
 621 0000 00000000 		.word	write
 622 0004 00000000 		.word	read
 623 0008 00000000 		.word	put
 624 000c 00000000 		.word	get
 625 0010 00000000 		.word	putt
 626 0014 00000000 		.word	gett
 627 0018 00000000 		.word	writet
 628 001c 00000000 		.word	readt
 629              		.text
 630              	.Letext0:
 631              		.file 5 "/usr/lib/gcc/arm-none-eabi/5.2.0/include/stddef.h"
 632              		.file 6 "/usr/arm-none-eabi/include/machine/_default_types.h"
 633              		.file 7 "/usr/arm-none-eabi/include/stdint.h"
 634              		.file 8 "../../os/rt/ports/ARMCMx/compilers/GCC/chtypes.h"
 635              		.file 9 "../../os/rt/include/chsystypes.h"
 636              		.file 10 "../../os/rt/include/chschd.h"
 637              		.file 11 "../../os/ext/CMSIS/ST/stm32f401xc.h"
 638              		.file 12 "../../os/rt/ports/ARMCMx/chcore.h"
 639              		.file 13 "../../os/rt/ports/ARMCMx/chcore_v7m.h"
 640              		.file 14 "../../os/rt/include/chtm.h"
 641              		.file 15 "../../os/rt/include/chsem.h"
 642              		.file 16 "../../os/rt/include/chmtx.h"
 643              		.file 17 "../../os/rt/include/chqueues.h"
 644              		.file 18 "../../os/hal/include/serial.h"
 645              		.file 19 "../../os/hal/ports/STM32/LLD/USARTv1/serial_lld.h"
 646              		.file 20 "../../os/rt/include/chsys.h"
 647              		.file 21 "../../os/ext/CMSIS/include/core_cm4.h"