ARM GAS  /tmp/ccg6pkLu.s 			page 1


   1              		.syntax unified
   2              		.cpu cortex-m4
   3              		.eabi_attribute 27, 1
   4              		.eabi_attribute 28, 1
   5              		.fpu fpv4-sp-d16
   6              		.eabi_attribute 20, 1
   7              		.eabi_attribute 21, 1
   8              		.eabi_attribute 23, 3
   9              		.eabi_attribute 24, 1
  10              		.eabi_attribute 25, 1
  11              		.eabi_attribute 26, 1
  12              		.eabi_attribute 30, 2
  13              		.eabi_attribute 34, 1
  14              		.eabi_attribute 18, 4
  15              		.thumb
  16              		.syntax unified
  17              		.file	"testthd.c"
  18              		.text
  19              	.Ltext0:
  20              		.cfi_sections	.debug_frame
  21              		.section	.text.thd1_execute,"ax",%progbits
  22              		.align	2
  23              		.p2align 4,,15
  24              		.thumb
  25              		.thumb_func
  26              		.type	thd1_execute, %function
  27              	thd1_execute:
  28              	.LFB230:
  29              		.file 1 "../../test/rt/testthd.c"
  30              		.loc 1 65 0
  31              		.cfi_startproc
  32              		@ args = 0, pretend = 0, frame = 0
  33              		@ frame_needed = 0, uses_anonymous_args = 0
  34 0000 F0B5     		push	{r4, r5, r6, r7, lr}
  35              		.cfi_def_cfa_offset 20
  36              		.cfi_offset 4, -20
  37              		.cfi_offset 5, -16
  38              		.cfi_offset 6, -12
  39              		.cfi_offset 7, -8
  40              		.cfi_offset 14, -4
  41              	.LBB257:
  42              	.LBB258:
  43              	.LBB259:
  44              	.LBB260:
  45              		.file 2 "../../os/rt/include/chthreads.h"
  46              		.loc 2 176 0
  47 0002 274F     		ldr	r7, .L3
  48              	.LBE260:
  49              	.LBE259:
  50              	.LBE258:
  51              	.LBE257:
  52              		.loc 1 67 0
  53 0004 274E     		ldr	r6, .L3+4
  54              	.LBB262:
  55              	.LBB261:
  56              		.loc 2 189 0
  57 0006 BB69     		ldr	r3, [r7, #24]
ARM GAS  /tmp/ccg6pkLu.s 			page 2


  58              	.LBE261:
  59              	.LBE262:
  60              		.loc 1 67 0
  61 0008 274D     		ldr	r5, .L3+8
  62 000a 9A68     		ldr	r2, [r3, #8]
  63 000c 274B     		ldr	r3, .L3+12
  64 000e 3068     		ldr	r0, [r6]
  65 0010 274C     		ldr	r4, .L3+16
  66              		.loc 1 65 0
  67 0012 83B0     		sub	sp, sp, #12
  68              		.cfi_def_cfa_offset 32
  69              		.loc 1 67 0
  70 0014 053A     		subs	r2, r2, #5
  71 0016 0093     		str	r3, [sp]
  72 0018 4FF4E871 		mov	r1, #464
  73 001c 2B46     		mov	r3, r5
  74 001e FFF7FEFF 		bl	chThdCreateStatic
  75              	.LVL0:
  76              	.LBB263:
  77              	.LBB264:
  78              		.loc 2 189 0
  79 0022 BB69     		ldr	r3, [r7, #24]
  80              	.LBE264:
  81              	.LBE263:
  82              		.loc 1 68 0
  83 0024 2349     		ldr	r1, .L3+20
  84 0026 9A68     		ldr	r2, [r3, #8]
  85 0028 7368     		ldr	r3, [r6, #4]
  86              		.loc 1 67 0
  87 002a 2060     		str	r0, [r4]
  88              		.loc 1 68 0
  89 002c 0091     		str	r1, [sp]
  90 002e 043A     		subs	r2, r2, #4
  91 0030 1846     		mov	r0, r3
  92 0032 4FF4E871 		mov	r1, #464
  93 0036 2B46     		mov	r3, r5
  94 0038 FFF7FEFF 		bl	chThdCreateStatic
  95              	.LVL1:
  96              	.LBB265:
  97              	.LBB266:
  98              		.loc 2 189 0
  99 003c BA69     		ldr	r2, [r7, #24]
 100              	.LBE266:
 101              	.LBE265:
 102              		.loc 1 69 0
 103 003e B368     		ldr	r3, [r6, #8]
 104 0040 9268     		ldr	r2, [r2, #8]
 105 0042 1D49     		ldr	r1, .L3+24
 106              		.loc 1 68 0
 107 0044 6060     		str	r0, [r4, #4]
 108              		.loc 1 69 0
 109 0046 0091     		str	r1, [sp]
 110 0048 033A     		subs	r2, r2, #3
 111 004a 1846     		mov	r0, r3
 112 004c 4FF4E871 		mov	r1, #464
 113 0050 2B46     		mov	r3, r5
 114 0052 FFF7FEFF 		bl	chThdCreateStatic
ARM GAS  /tmp/ccg6pkLu.s 			page 3


 115              	.LVL2:
 116              	.LBB267:
 117              	.LBB268:
 118              		.loc 2 189 0
 119 0056 BA69     		ldr	r2, [r7, #24]
 120              	.LBE268:
 121              	.LBE267:
 122              		.loc 1 70 0
 123 0058 F368     		ldr	r3, [r6, #12]
 124 005a 9268     		ldr	r2, [r2, #8]
 125 005c 1749     		ldr	r1, .L3+28
 126              		.loc 1 69 0
 127 005e A060     		str	r0, [r4, #8]
 128              		.loc 1 70 0
 129 0060 0091     		str	r1, [sp]
 130 0062 023A     		subs	r2, r2, #2
 131 0064 1846     		mov	r0, r3
 132 0066 4FF4E871 		mov	r1, #464
 133 006a 2B46     		mov	r3, r5
 134 006c FFF7FEFF 		bl	chThdCreateStatic
 135              	.LVL3:
 136              	.LBB269:
 137              	.LBB270:
 138              		.loc 2 189 0
 139 0070 BA69     		ldr	r2, [r7, #24]
 140              	.LBE270:
 141              	.LBE269:
 142              		.loc 1 71 0
 143 0072 3369     		ldr	r3, [r6, #16]
 144 0074 9268     		ldr	r2, [r2, #8]
 145 0076 1249     		ldr	r1, .L3+32
 146              		.loc 1 70 0
 147 0078 E060     		str	r0, [r4, #12]
 148              		.loc 1 71 0
 149 007a 013A     		subs	r2, r2, #1
 150 007c 0091     		str	r1, [sp]
 151 007e 1846     		mov	r0, r3
 152 0080 4FF4E871 		mov	r1, #464
 153 0084 2B46     		mov	r3, r5
 154 0086 FFF7FEFF 		bl	chThdCreateStatic
 155              	.LVL4:
 156 008a 2061     		str	r0, [r4, #16]
 157              		.loc 1 72 0
 158 008c FFF7FEFF 		bl	test_wait_threads
 159              	.LVL5:
 160              		.loc 1 73 0
 161 0090 0C49     		ldr	r1, .L3+36
 162 0092 0120     		movs	r0, #1
 163              		.loc 1 74 0
 164 0094 03B0     		add	sp, sp, #12
 165              		.cfi_def_cfa_offset 20
 166              		@ sp needed
 167 0096 BDE8F040 		pop	{r4, r5, r6, r7, lr}
 168              		.cfi_restore 14
 169              		.cfi_restore 7
 170              		.cfi_restore 6
 171              		.cfi_restore 5
ARM GAS  /tmp/ccg6pkLu.s 			page 4


 172              		.cfi_restore 4
 173              		.cfi_def_cfa_offset 0
 174              		.loc 1 73 0
 175 009a FFF7FEBF 		b	_test_assert_sequence
 176              	.LVL6:
 177              	.L4:
 178 009e 00BF     		.align	2
 179              	.L3:
 180 00a0 00000000 		.word	ch
 181 00a4 00000000 		.word	wa
 182 00a8 00000000 		.word	thread
 183 00ac 00000000 		.word	.LC0
 184 00b0 00000000 		.word	threads
 185 00b4 04000000 		.word	.LC1
 186 00b8 08000000 		.word	.LC2
 187 00bc 0C000000 		.word	.LC3
 188 00c0 10000000 		.word	.LC4
 189 00c4 14000000 		.word	.LC5
 190              		.cfi_endproc
 191              	.LFE230:
 192              		.size	thd1_execute, .-thd1_execute
 193 00c8 AFF30080 		.section	.text.thread,"ax",%progbits
 193      AFF30080 
 194              		.align	2
 195              		.p2align 4,,15
 196              		.thumb
 197              		.thumb_func
 198              		.type	thread, %function
 199              	thread:
 200              	.LFB229:
 201              		.loc 1 60 0
 202              		.cfi_startproc
 203              		@ args = 0, pretend = 0, frame = 0
 204              		@ frame_needed = 0, uses_anonymous_args = 0
 205              		@ link register save eliminated.
 206              	.LVL7:
 207              		.loc 1 62 0
 208 0000 0078     		ldrb	r0, [r0]	@ zero_extendqisi2
 209              	.LVL8:
 210 0002 FFF7FEBF 		b	test_emit_token
 211              	.LVL9:
 212              		.cfi_endproc
 213              	.LFE229:
 214              		.size	thread, .-thread
 215 0006 00BFAFF3 		.section	.text.thd2_execute,"ax",%progbits
 215      0080AFF3 
 215      0080
 216              		.align	2
 217              		.p2align 4,,15
 218              		.thumb
 219              		.thumb_func
 220              		.type	thd2_execute, %function
 221              	thd2_execute:
 222              	.LFB231:
 223              		.loc 1 93 0
 224              		.cfi_startproc
 225              		@ args = 0, pretend = 0, frame = 0
ARM GAS  /tmp/ccg6pkLu.s 			page 5


 226              		@ frame_needed = 0, uses_anonymous_args = 0
 227 0000 F0B5     		push	{r4, r5, r6, r7, lr}
 228              		.cfi_def_cfa_offset 20
 229              		.cfi_offset 4, -20
 230              		.cfi_offset 5, -16
 231              		.cfi_offset 6, -12
 232              		.cfi_offset 7, -8
 233              		.cfi_offset 14, -4
 234              	.LBB271:
 235              	.LBB272:
 236              	.LBB273:
 237              	.LBB274:
 238              		.loc 2 176 0
 239 0002 2B4F     		ldr	r7, .L8
 240              	.LBE274:
 241              	.LBE273:
 242              	.LBE272:
 243              	.LBE271:
 244              		.loc 1 95 0
 245 0004 2B4E     		ldr	r6, .L8+4
 246              	.LBB276:
 247              	.LBB275:
 248              		.loc 2 189 0
 249 0006 BB69     		ldr	r3, [r7, #24]
 250              	.LBE275:
 251              	.LBE276:
 252              		.loc 1 95 0
 253 0008 2B4D     		ldr	r5, .L8+8
 254 000a 9A68     		ldr	r2, [r3, #8]
 255 000c 2B4B     		ldr	r3, .L8+12
 256 000e 7068     		ldr	r0, [r6, #4]
 257 0010 2B4C     		ldr	r4, .L8+16
 258              		.loc 1 93 0
 259 0012 83B0     		sub	sp, sp, #12
 260              		.cfi_def_cfa_offset 32
 261              		.loc 1 95 0
 262 0014 043A     		subs	r2, r2, #4
 263 0016 0093     		str	r3, [sp]
 264 0018 4FF4E871 		mov	r1, #464
 265 001c 2B46     		mov	r3, r5
 266 001e FFF7FEFF 		bl	chThdCreateStatic
 267              	.LVL10:
 268              	.LBB277:
 269              	.LBB278:
 270              		.loc 2 189 0
 271 0022 BB69     		ldr	r3, [r7, #24]
 272              	.LBE278:
 273              	.LBE277:
 274              		.loc 1 96 0
 275 0024 2749     		ldr	r1, .L8+20
 276 0026 9A68     		ldr	r2, [r3, #8]
 277 0028 3368     		ldr	r3, [r6]
 278              		.loc 1 95 0
 279 002a 6060     		str	r0, [r4, #4]
 280              		.loc 1 96 0
 281 002c 0091     		str	r1, [sp]
 282 002e 053A     		subs	r2, r2, #5
ARM GAS  /tmp/ccg6pkLu.s 			page 6


 283 0030 1846     		mov	r0, r3
 284 0032 4FF4E871 		mov	r1, #464
 285 0036 2B46     		mov	r3, r5
 286 0038 FFF7FEFF 		bl	chThdCreateStatic
 287              	.LVL11:
 288              	.LBB279:
 289              	.LBB280:
 290              		.loc 2 189 0
 291 003c BA69     		ldr	r2, [r7, #24]
 292              	.LBE280:
 293              	.LBE279:
 294              		.loc 1 97 0
 295 003e 3369     		ldr	r3, [r6, #16]
 296 0040 9268     		ldr	r2, [r2, #8]
 297 0042 2149     		ldr	r1, .L8+24
 298              		.loc 1 96 0
 299 0044 2060     		str	r0, [r4]
 300              		.loc 1 97 0
 301 0046 0091     		str	r1, [sp]
 302 0048 013A     		subs	r2, r2, #1
 303 004a 1846     		mov	r0, r3
 304 004c 4FF4E871 		mov	r1, #464
 305 0050 2B46     		mov	r3, r5
 306 0052 FFF7FEFF 		bl	chThdCreateStatic
 307              	.LVL12:
 308              	.LBB281:
 309              	.LBB282:
 310              		.loc 2 189 0
 311 0056 BA69     		ldr	r2, [r7, #24]
 312              	.LBE282:
 313              	.LBE281:
 314              		.loc 1 98 0
 315 0058 F368     		ldr	r3, [r6, #12]
 316 005a 9268     		ldr	r2, [r2, #8]
 317 005c 1B49     		ldr	r1, .L8+28
 318              		.loc 1 97 0
 319 005e 2061     		str	r0, [r4, #16]
 320              		.loc 1 98 0
 321 0060 0091     		str	r1, [sp]
 322 0062 023A     		subs	r2, r2, #2
 323 0064 1846     		mov	r0, r3
 324 0066 4FF4E871 		mov	r1, #464
 325 006a 2B46     		mov	r3, r5
 326 006c FFF7FEFF 		bl	chThdCreateStatic
 327              	.LVL13:
 328              	.LBB283:
 329              	.LBB284:
 330              	.LBB285:
 331              	.LBB286:
 332              		.file 3 "../../os/ext/CMSIS/include/core_cmFunc.h"
 333              		.loc 3 546 0
 334 0070 2023     		movs	r3, #32
 335              	.LBE286:
 336              	.LBE285:
 337              	.LBE284:
 338              	.LBE283:
 339              		.loc 1 98 0
ARM GAS  /tmp/ccg6pkLu.s 			page 7


 340 0072 E060     		str	r0, [r4, #12]
 341              	.LVL14:
 342              	.LBB290:
 343              	.LBB289:
 344              	.LBB288:
 345              	.LBB287:
 346              		.loc 3 546 0
 347              		.syntax unified
 348              	@ 546 "../../os/ext/CMSIS/include/core_cmFunc.h" 1
 349 0074 83F31188 		MSR basepri, r3
 350              	@ 0 "" 2
 351              		.thumb
 352              		.syntax unified
 353              	.LBE287:
 354              	.LBE288:
 355              	.LBE289:
 356              	.LBE290:
 357              	.LBB291:
 358              	.LBB292:
 359              		.loc 2 189 0
 360 0078 BB69     		ldr	r3, [r7, #24]
 361              	.LBE292:
 362              	.LBE291:
 363              		.loc 1 101 0
 364 007a B068     		ldr	r0, [r6, #8]
 365 007c 9A68     		ldr	r2, [r3, #8]
 366 007e 144B     		ldr	r3, .L8+32
 367 0080 0093     		str	r3, [sp]
 368 0082 033A     		subs	r2, r2, #3
 369 0084 2B46     		mov	r3, r5
 370 0086 4FF4E871 		mov	r1, #464
 371 008a FFF7FEFF 		bl	chThdCreateI
 372              	.LVL15:
 373              	.LBB293:
 374              	.LBB294:
 375              	.LBB295:
 376              	.LBB296:
 377              	.LBB297:
 378              		.loc 3 546 0
 379 008e 0023     		movs	r3, #0
 380              	.LBE297:
 381              	.LBE296:
 382              	.LBE295:
 383              	.LBE294:
 384              	.LBE293:
 385              		.loc 1 101 0
 386 0090 A060     		str	r0, [r4, #8]
 387              	.LVL16:
 388              	.LBB302:
 389              	.LBB301:
 390              	.LBB300:
 391              	.LBB299:
 392              	.LBB298:
 393              		.loc 3 546 0
 394              		.syntax unified
 395              	@ 546 "../../os/ext/CMSIS/include/core_cmFunc.h" 1
 396 0092 83F31188 		MSR basepri, r3
ARM GAS  /tmp/ccg6pkLu.s 			page 8


 397              	@ 0 "" 2
 398              		.thumb
 399              		.syntax unified
 400              	.LBE298:
 401              	.LBE299:
 402              	.LBE300:
 403              	.LBE301:
 404              	.LBE302:
 405              		.loc 1 103 0
 406 0096 A068     		ldr	r0, [r4, #8]
 407 0098 FFF7FEFF 		bl	chThdStart
 408              	.LVL17:
 409              		.loc 1 104 0
 410 009c FFF7FEFF 		bl	test_wait_threads
 411              	.LVL18:
 412              		.loc 1 105 0
 413 00a0 0C49     		ldr	r1, .L8+36
 414 00a2 0120     		movs	r0, #1
 415              		.loc 1 106 0
 416 00a4 03B0     		add	sp, sp, #12
 417              		.cfi_def_cfa_offset 20
 418              		@ sp needed
 419 00a6 BDE8F040 		pop	{r4, r5, r6, r7, lr}
 420              		.cfi_restore 14
 421              		.cfi_restore 7
 422              		.cfi_restore 6
 423              		.cfi_restore 5
 424              		.cfi_restore 4
 425              		.cfi_def_cfa_offset 0
 426              		.loc 1 105 0
 427 00aa FFF7FEBF 		b	_test_assert_sequence
 428              	.LVL19:
 429              	.L9:
 430 00ae 00BF     		.align	2
 431              	.L8:
 432 00b0 00000000 		.word	ch
 433 00b4 00000000 		.word	wa
 434 00b8 00000000 		.word	thread
 435 00bc 04000000 		.word	.LC1
 436 00c0 00000000 		.word	threads
 437 00c4 00000000 		.word	.LC0
 438 00c8 10000000 		.word	.LC4
 439 00cc 0C000000 		.word	.LC3
 440 00d0 08000000 		.word	.LC2
 441 00d4 14000000 		.word	.LC5
 442              		.cfi_endproc
 443              	.LFE231:
 444              		.size	thd2_execute, .-thd2_execute
 445 00d8 AFF30080 		.section	.text.thd3_execute,"ax",%progbits
 445      AFF30080 
 446              		.align	2
 447              		.p2align 4,,15
 448              		.thumb
 449              		.thumb_func
 450              		.type	thd3_execute, %function
 451              	thd3_execute:
 452              	.LFB232:
ARM GAS  /tmp/ccg6pkLu.s 			page 9


 453              		.loc 1 125 0
 454              		.cfi_startproc
 455              		@ args = 0, pretend = 0, frame = 0
 456              		@ frame_needed = 0, uses_anonymous_args = 0
 457 0000 F8B5     		push	{r3, r4, r5, r6, r7, lr}
 458              		.cfi_def_cfa_offset 24
 459              		.cfi_offset 3, -24
 460              		.cfi_offset 4, -20
 461              		.cfi_offset 5, -16
 462              		.cfi_offset 6, -12
 463              		.cfi_offset 7, -8
 464              		.cfi_offset 14, -4
 465              	.LBB303:
 466              	.LBB304:
 467              	.LBB305:
 468              	.LBB306:
 469              		.loc 2 176 0
 470 0002 494E     		ldr	r6, .L17
 471              	.LBE306:
 472              	.LBE305:
 473              		.loc 2 189 0
 474 0004 B369     		ldr	r3, [r6, #24]
 475 0006 9C68     		ldr	r4, [r3, #8]
 476              	.LBE304:
 477              	.LBE303:
 478              		.loc 1 129 0
 479 0008 651C     		adds	r5, r4, #1
 480 000a 2846     		mov	r0, r5
 481 000c FFF7FEFF 		bl	chThdSetPriority
 482              	.LVL20:
 483              		.loc 1 130 0
 484 0010 011B     		subs	r1, r0, r4
 485 0012 B1FA81F1 		clz	r1, r1
 486              		.loc 1 129 0
 487 0016 0746     		mov	r7, r0
 488              	.LVL21:
 489              		.loc 1 130 0
 490 0018 4909     		lsrs	r1, r1, #5
 491 001a 0120     		movs	r0, #1
 492              	.LVL22:
 493 001c FFF7FEFF 		bl	_test_assert
 494              	.LVL23:
 495 0020 00B1     		cbz	r0, .L16
 496              	.LVL24:
 497              	.L10:
 498 0022 F8BD     		pop	{r3, r4, r5, r6, r7, pc}
 499              	.LVL25:
 500              	.L16:
 501              	.LBB307:
 502              	.LBB308:
 503              		.loc 2 189 0
 504 0024 B369     		ldr	r3, [r6, #24]
 505              	.LBE308:
 506              	.LBE307:
 507              		.loc 1 132 0
 508 0026 9968     		ldr	r1, [r3, #8]
 509 0028 491B     		subs	r1, r1, r5
ARM GAS  /tmp/ccg6pkLu.s 			page 10


 510 002a B1FA81F1 		clz	r1, r1
 511 002e 0220     		movs	r0, #2
 512 0030 4909     		lsrs	r1, r1, #5
 513 0032 FFF7FEFF 		bl	_test_assert
 514              	.LVL26:
 515 0036 0028     		cmp	r0, #0
 516 0038 F3D1     		bne	.L10
 517              		.loc 1 134 0
 518 003a 3846     		mov	r0, r7
 519 003c FFF7FEFF 		bl	chThdSetPriority
 520              	.LVL27:
 521              		.loc 1 135 0
 522 0040 291A     		subs	r1, r5, r0
 523 0042 B1FA81F1 		clz	r1, r1
 524 0046 4909     		lsrs	r1, r1, #5
 525 0048 0320     		movs	r0, #3
 526              	.LVL28:
 527 004a FFF7FEFF 		bl	_test_assert
 528              	.LVL29:
 529 004e 0028     		cmp	r0, #0
 530 0050 E7D1     		bne	.L10
 531              	.LBB309:
 532              	.LBB310:
 533              		.loc 2 189 0
 534 0052 B369     		ldr	r3, [r6, #24]
 535              	.LBE310:
 536              	.LBE309:
 537              		.loc 1 137 0
 538 0054 9968     		ldr	r1, [r3, #8]
 539 0056 091B     		subs	r1, r1, r4
 540 0058 B1FA81F1 		clz	r1, r1
 541 005c 0420     		movs	r0, #4
 542 005e 4909     		lsrs	r1, r1, #5
 543 0060 FFF7FEFF 		bl	_test_assert
 544              	.LVL30:
 545 0064 0028     		cmp	r0, #0
 546 0066 DCD1     		bne	.L10
 547              	.LVL31:
 548              	.LBB311:
 549              	.LBB312:
 550              	.LBB313:
 551              	.LBB314:
 552              		.loc 3 546 0
 553 0068 2023     		movs	r3, #32
 554              		.syntax unified
 555              	@ 546 "../../os/ext/CMSIS/include/core_cmFunc.h" 1
 556 006a 83F31188 		MSR basepri, r3
 557              	@ 0 "" 2
 558              		.thumb
 559              		.syntax unified
 560              	.LBE314:
 561              	.LBE313:
 562              	.LBE312:
 563              	.LBE311:
 564              	.LBB315:
 565              	.LBB316:
 566              		.loc 2 176 0
ARM GAS  /tmp/ccg6pkLu.s 			page 11


 567 006e B269     		ldr	r2, [r6, #24]
 568              	.LBE316:
 569              	.LBE315:
 570              		.loc 1 143 0
 571 0070 9368     		ldr	r3, [r2, #8]
 572 0072 0233     		adds	r3, r3, #2
 573 0074 9360     		str	r3, [r2, #8]
 574              	.LVL32:
 575              	.LBB317:
 576              	.LBB318:
 577              	.LBB319:
 578              	.LBB320:
 579              	.LBB321:
 580              		.loc 3 546 0
 581              		.syntax unified
 582              	@ 546 "../../os/ext/CMSIS/include/core_cmFunc.h" 1
 583 0076 80F31188 		MSR basepri, r0
 584              	@ 0 "" 2
 585              		.thumb
 586              		.syntax unified
 587              	.LBE321:
 588              	.LBE320:
 589              	.LBE319:
 590              	.LBE318:
 591              	.LBE317:
 592              	.LBB322:
 593              	.LBB323:
 594              		.loc 2 189 0
 595 007a B369     		ldr	r3, [r6, #24]
 596              	.LBE323:
 597              	.LBE322:
 598              		.loc 1 145 0
 599 007c 9968     		ldr	r1, [r3, #8]
 600 007e A71C     		adds	r7, r4, #2
 601 0080 C91B     		subs	r1, r1, r7
 602 0082 B1FA81F1 		clz	r1, r1
 603 0086 4909     		lsrs	r1, r1, #5
 604 0088 0520     		movs	r0, #5
 605 008a FFF7FEFF 		bl	_test_assert
 606              	.LVL33:
 607 008e 0028     		cmp	r0, #0
 608 0090 C7D1     		bne	.L10
 609              		.loc 1 149 0
 610 0092 2846     		mov	r0, r5
 611 0094 FFF7FEFF 		bl	chThdSetPriority
 612              	.LVL34:
 613              		.loc 1 150 0
 614 0098 011B     		subs	r1, r0, r4
 615 009a B1FA81F1 		clz	r1, r1
 616 009e 4909     		lsrs	r1, r1, #5
 617 00a0 0620     		movs	r0, #6
 618              	.LVL35:
 619 00a2 FFF7FEFF 		bl	_test_assert
 620              	.LVL36:
 621 00a6 0028     		cmp	r0, #0
 622 00a8 BBD1     		bne	.L10
 623              		.loc 1 152 0
ARM GAS  /tmp/ccg6pkLu.s 			page 12


 624 00aa B369     		ldr	r3, [r6, #24]
 625 00ac 9968     		ldr	r1, [r3, #8]
 626 00ae C91B     		subs	r1, r1, r7
 627 00b0 B1FA81F1 		clz	r1, r1
 628 00b4 0720     		movs	r0, #7
 629 00b6 4909     		lsrs	r1, r1, #5
 630 00b8 FFF7FEFF 		bl	_test_assert
 631              	.LVL37:
 632 00bc 0028     		cmp	r0, #0
 633 00be B0D1     		bne	.L10
 634              		.loc 1 154 0
 635 00c0 B369     		ldr	r3, [r6, #24]
 636 00c2 D96B     		ldr	r1, [r3, #60]
 637 00c4 491B     		subs	r1, r1, r5
 638 00c6 B1FA81F1 		clz	r1, r1
 639 00ca 0820     		movs	r0, #8
 640 00cc 4909     		lsrs	r1, r1, #5
 641 00ce FFF7FEFF 		bl	_test_assert
 642              	.LVL38:
 643 00d2 0028     		cmp	r0, #0
 644 00d4 A5D1     		bne	.L10
 645              		.loc 1 158 0
 646 00d6 E71C     		adds	r7, r4, #3
 647 00d8 3846     		mov	r0, r7
 648 00da FFF7FEFF 		bl	chThdSetPriority
 649              	.LVL39:
 650              		.loc 1 159 0
 651 00de 281A     		subs	r0, r5, r0
 652              	.LVL40:
 653 00e0 4142     		rsbs	r1, r0, #0
 654 00e2 4141     		adcs	r1, r1, r0
 655 00e4 0920     		movs	r0, #9
 656 00e6 FFF7FEFF 		bl	_test_assert
 657              	.LVL41:
 658 00ea 0028     		cmp	r0, #0
 659 00ec 99D1     		bne	.L10
 660              		.loc 1 161 0
 661 00ee B369     		ldr	r3, [r6, #24]
 662 00f0 9968     		ldr	r1, [r3, #8]
 663 00f2 CA1B     		subs	r2, r1, r7
 664 00f4 5142     		rsbs	r1, r2, #0
 665 00f6 5141     		adcs	r1, r1, r2
 666 00f8 0A20     		movs	r0, #10
 667 00fa FFF7FEFF 		bl	_test_assert
 668              	.LVL42:
 669 00fe 0028     		cmp	r0, #0
 670 0100 8FD1     		bne	.L10
 671              		.loc 1 163 0
 672 0102 B369     		ldr	r3, [r6, #24]
 673 0104 D96B     		ldr	r1, [r3, #60]
 674 0106 CB1B     		subs	r3, r1, r7
 675 0108 5942     		rsbs	r1, r3, #0
 676 010a 5941     		adcs	r1, r1, r3
 677 010c 0B20     		movs	r0, #11
 678 010e FFF7FEFF 		bl	_test_assert
 679              	.LVL43:
 680 0112 0028     		cmp	r0, #0
ARM GAS  /tmp/ccg6pkLu.s 			page 13


 681 0114 85D1     		bne	.L10
 682              	.LVL44:
 683              	.LBB324:
 684              	.LBB325:
 685              	.LBB326:
 686              	.LBB327:
 687              		.loc 3 546 0
 688 0116 2023     		movs	r3, #32
 689              		.syntax unified
 690              	@ 546 "../../os/ext/CMSIS/include/core_cmFunc.h" 1
 691 0118 83F31188 		MSR basepri, r3
 692              	@ 0 "" 2
 693              		.thumb
 694              		.syntax unified
 695              	.LBE327:
 696              	.LBE326:
 697              	.LBE325:
 698              	.LBE324:
 699              	.LBB328:
 700              	.LBB329:
 701              		.loc 2 176 0
 702 011c B369     		ldr	r3, [r6, #24]
 703              	.LBE329:
 704              	.LBE328:
 705              		.loc 1 167 0
 706 011e 9C60     		str	r4, [r3, #8]
 707              		.loc 1 168 0
 708 0120 DC63     		str	r4, [r3, #60]
 709              	.LVL45:
 710              	.LBB330:
 711              	.LBB331:
 712              	.LBB332:
 713              	.LBB333:
 714              	.LBB334:
 715              		.loc 3 546 0
 716              		.syntax unified
 717              	@ 546 "../../os/ext/CMSIS/include/core_cmFunc.h" 1
 718 0122 80F31188 		MSR basepri, r0
 719              	@ 0 "" 2
 720              		.thumb
 721              		.syntax unified
 722 0126 7CE7     		b	.L10
 723              	.L18:
 724              		.align	2
 725              	.L17:
 726 0128 00000000 		.word	ch
 727              	.LBE334:
 728              	.LBE333:
 729              	.LBE332:
 730              	.LBE331:
 731              	.LBE330:
 732              		.cfi_endproc
 733              	.LFE232:
 734              		.size	thd3_execute, .-thd3_execute
 735 012c AFF30080 		.section	.text.thd4_execute,"ax",%progbits
 736              		.align	2
 737              		.p2align 4,,15
ARM GAS  /tmp/ccg6pkLu.s 			page 14


 738              		.thumb
 739              		.thumb_func
 740              		.type	thd4_execute, %function
 741              	thd4_execute:
 742              	.LFB233:
 743              		.loc 1 188 0
 744              		.cfi_startproc
 745              		@ args = 0, pretend = 0, frame = 0
 746              		@ frame_needed = 0, uses_anonymous_args = 0
 747 0000 70B5     		push	{r4, r5, r6, lr}
 748              		.cfi_def_cfa_offset 16
 749              		.cfi_offset 4, -16
 750              		.cfi_offset 5, -12
 751              		.cfi_offset 6, -8
 752              		.cfi_offset 14, -4
 753              		.loc 1 191 0
 754 0002 FFF7FEFF 		bl	test_wait_tick
 755              	.LVL46:
 756              	.LBB427:
 757              	.LBB428:
 758              	.LBB429:
 759              	.LBB430:
 760              	.LBB431:
 761              	.LBB432:
 762              		.loc 3 546 0
 763 0006 2026     		movs	r6, #32
 764              		.syntax unified
 765              	@ 546 "../../os/ext/CMSIS/include/core_cmFunc.h" 1
 766 0008 86F31188 		MSR basepri, r6
 767              	@ 0 "" 2
 768              		.thumb
 769              		.syntax unified
 770              	.LBE432:
 771              	.LBE431:
 772              	.LBE430:
 773              	.LBE429:
 774              	.LBB433:
 775              	.LBB434:
 776              	.LBB435:
 777              	.LBB436:
 778              		.file 4 "../../os/hal/ports/STM32/LLD/TIMv1/st_lld.h"
 779              		.loc 4 129 0
 780 000c 4FF08045 		mov	r5, #1073741824
 781              	.LBE436:
 782              	.LBE435:
 783              	.LBE434:
 784              	.LBE433:
 785              	.LBB440:
 786              	.LBB441:
 787              	.LBB442:
 788              	.LBB443:
 789              	.LBB444:
 790              		.loc 3 546 0
 791 0010 0023     		movs	r3, #0
 792              	.LBE444:
 793              	.LBE443:
 794              	.LBE442:
ARM GAS  /tmp/ccg6pkLu.s 			page 15


 795              	.LBE441:
 796              	.LBE440:
 797              	.LBB449:
 798              	.LBB439:
 799              	.LBB438:
 800              	.LBB437:
 801              		.loc 4 129 0
 802 0012 6C6A     		ldr	r4, [r5, #36]
 803              	.LVL47:
 804              	.LBE437:
 805              	.LBE438:
 806              	.LBE439:
 807              	.LBE449:
 808              	.LBB450:
 809              	.LBB448:
 810              	.LBB447:
 811              	.LBB446:
 812              	.LBB445:
 813              		.loc 3 546 0
 814              		.syntax unified
 815              	@ 546 "../../os/ext/CMSIS/include/core_cmFunc.h" 1
 816 0014 83F31188 		MSR basepri, r3
 817              	@ 0 "" 2
 818              		.thumb
 819              		.syntax unified
 820              	.LBE445:
 821              	.LBE446:
 822              	.LBE447:
 823              	.LBE448:
 824              	.LBE450:
 825              	.LBE428:
 826              	.LBE427:
 827              		.loc 1 195 0
 828 0018 4FF47A70 		mov	r0, #1000
 829 001c FFF7FEFF 		bl	chThdSleep
 830              	.LVL48:
 831              		.loc 1 196 0
 832 0020 04F2EB32 		addw	r2, r4, #1003
 833 0024 04F57A71 		add	r1, r4, #1000
 834 0028 0120     		movs	r0, #1
 835 002a FFF7FEFF 		bl	_test_assert_time_window
 836              	.LVL49:
 837 002e 00B1     		cbz	r0, .L24
 838              	.L19:
 839 0030 70BD     		pop	{r4, r5, r6, pc}
 840              	.L24:
 841              	.LVL50:
 842              	.LBB451:
 843              	.LBB452:
 844              	.LBB453:
 845              	.LBB454:
 846              	.LBB455:
 847              	.LBB456:
 848              		.loc 3 546 0
 849              		.syntax unified
 850              	@ 546 "../../os/ext/CMSIS/include/core_cmFunc.h" 1
 851 0032 86F31188 		MSR basepri, r6
ARM GAS  /tmp/ccg6pkLu.s 			page 16


 852              	@ 0 "" 2
 853              		.thumb
 854              		.syntax unified
 855              	.LBE456:
 856              	.LBE455:
 857              	.LBE454:
 858              	.LBE453:
 859              	.LBB457:
 860              	.LBB458:
 861              	.LBB459:
 862              	.LBB460:
 863              		.loc 4 129 0
 864 0036 6C6A     		ldr	r4, [r5, #36]
 865              	.LVL51:
 866              	.LBE460:
 867              	.LBE459:
 868              	.LBE458:
 869              	.LBE457:
 870              	.LBB461:
 871              	.LBB462:
 872              	.LBB463:
 873              	.LBB464:
 874              	.LBB465:
 875              		.loc 3 546 0
 876              		.syntax unified
 877              	@ 546 "../../os/ext/CMSIS/include/core_cmFunc.h" 1
 878 0038 80F31188 		MSR basepri, r0
 879              	@ 0 "" 2
 880              		.thumb
 881              		.syntax unified
 882              	.LBE465:
 883              	.LBE464:
 884              	.LBE463:
 885              	.LBE462:
 886              	.LBE461:
 887              	.LBE452:
 888              	.LBE451:
 889              		.loc 1 202 0
 890 003c 4FF47A70 		mov	r0, #1000
 891 0040 FFF7FEFF 		bl	chThdSleep
 892              	.LVL52:
 893              		.loc 1 203 0
 894 0044 04F2EB32 		addw	r2, r4, #1003
 895 0048 04F57A71 		add	r1, r4, #1000
 896 004c 0220     		movs	r0, #2
 897 004e FFF7FEFF 		bl	_test_assert_time_window
 898              	.LVL53:
 899 0052 0028     		cmp	r0, #0
 900 0054 ECD1     		bne	.L19
 901              	.LVL54:
 902              	.LBB466:
 903              	.LBB467:
 904              	.LBB468:
 905              	.LBB469:
 906              	.LBB470:
 907              	.LBB471:
 908              	.LBB472:
ARM GAS  /tmp/ccg6pkLu.s 			page 17


 909              	.LBB473:
 910              		.loc 3 546 0
 911              		.syntax unified
 912              	@ 546 "../../os/ext/CMSIS/include/core_cmFunc.h" 1
 913 0056 86F31188 		MSR basepri, r6
 914              	@ 0 "" 2
 915              		.thumb
 916              		.syntax unified
 917              	.LBE473:
 918              	.LBE472:
 919              	.LBE471:
 920              	.LBE470:
 921              	.LBB474:
 922              	.LBB475:
 923              	.LBB476:
 924              	.LBB477:
 925              		.loc 4 129 0
 926 005a 6C6A     		ldr	r4, [r5, #36]
 927              	.LVL55:
 928              	.LBE477:
 929              	.LBE476:
 930              	.LBE475:
 931              	.LBE474:
 932              	.LBB478:
 933              	.LBB479:
 934              	.LBB480:
 935              	.LBB481:
 936              	.LBB482:
 937              		.loc 3 546 0
 938              		.syntax unified
 939              	@ 546 "../../os/ext/CMSIS/include/core_cmFunc.h" 1
 940 005c 80F31188 		MSR basepri, r0
 941              	@ 0 "" 2
 942              		.thumb
 943              		.syntax unified
 944              	.LBE482:
 945              	.LBE481:
 946              	.LBE480:
 947              	.LBE479:
 948              	.LBE478:
 949              	.LBE469:
 950              	.LBE468:
 951              		.loc 1 209 0
 952 0060 42F21070 		movw	r0, #10000
 953 0064 FFF7FEFF 		bl	chThdSleep
 954              	.LVL56:
 955              		.loc 1 210 0
 956 0068 04F51C52 		add	r2, r4, #9984
 957 006c 1146     		mov	r1, r2
 958 006e 1031     		adds	r1, r1, #16
 959 0070 1332     		adds	r2, r2, #19
 960 0072 0320     		movs	r0, #3
 961 0074 FFF7FEFF 		bl	_test_assert_time_window
 962              	.LVL57:
 963 0078 0028     		cmp	r0, #0
 964 007a D9D1     		bne	.L19
 965              	.LVL58:
ARM GAS  /tmp/ccg6pkLu.s 			page 18


 966              	.LBB483:
 967              	.LBB484:
 968              	.LBB485:
 969              	.LBB486:
 970              	.LBB487:
 971              	.LBB488:
 972              		.loc 3 546 0
 973              		.syntax unified
 974              	@ 546 "../../os/ext/CMSIS/include/core_cmFunc.h" 1
 975 007c 86F31188 		MSR basepri, r6
 976              	@ 0 "" 2
 977              		.thumb
 978              		.syntax unified
 979              	.LBE488:
 980              	.LBE487:
 981              	.LBE486:
 982              	.LBE485:
 983              	.LBB489:
 984              	.LBB490:
 985              	.LBB491:
 986              	.LBB492:
 987              		.loc 4 129 0
 988 0080 6C6A     		ldr	r4, [r5, #36]
 989              	.LVL59:
 990              	.LBE492:
 991              	.LBE491:
 992              	.LBE490:
 993              	.LBE489:
 994              	.LBB493:
 995              	.LBB494:
 996              	.LBB495:
 997              	.LBB496:
 998              	.LBB497:
 999              		.loc 3 546 0
 1000              		.syntax unified
 1001              	@ 546 "../../os/ext/CMSIS/include/core_cmFunc.h" 1
 1002 0082 80F31188 		MSR basepri, r0
 1003              	@ 0 "" 2
 1004              		.thumb
 1005              		.syntax unified
 1006              	.LBE497:
 1007              	.LBE496:
 1008              	.LBE495:
 1009              	.LBE494:
 1010              	.LBE493:
 1011              	.LBE484:
 1012              	.LBE483:
 1013              		.loc 1 215 0
 1014 0086 04F57A75 		add	r5, r4, #1000
 1015              	.LVL60:
 1016              		.loc 1 216 0
 1017 008a 2846     		mov	r0, r5
 1018 008c FFF7FEFF 		bl	chThdSleepUntil
 1019              	.LVL61:
 1020              		.loc 1 217 0
 1021 0090 2946     		mov	r1, r5
 1022 0092 04F2EB32 		addw	r2, r4, #1003
ARM GAS  /tmp/ccg6pkLu.s 			page 19


 1023 0096 0420     		movs	r0, #4
 1024              	.LBE467:
 1025              	.LBE466:
 1026              		.loc 1 220 0
 1027 0098 BDE87040 		pop	{r4, r5, r6, lr}
 1028              		.cfi_restore 14
 1029              		.cfi_restore 6
 1030              		.cfi_restore 5
 1031              		.cfi_restore 4
 1032              		.cfi_def_cfa_offset 0
 1033              	.LVL62:
 1034              	.LBB499:
 1035              	.LBB498:
 1036              		.loc 1 217 0
 1037 009c FFF7FEBF 		b	_test_assert_time_window
 1038              	.LVL63:
 1039              	.LBE498:
 1040              	.LBE499:
 1041              		.cfi_endproc
 1042              	.LFE233:
 1043              		.size	thd4_execute, .-thd4_execute
 1044              		.global	patternthd
 1045              		.global	testthd4
 1046              		.global	testthd3
 1047              		.global	testthd2
 1048              		.global	testthd1
 1049              		.section	.rodata.testthd1,"a",%progbits
 1050              		.align	2
 1051              		.type	testthd1, %object
 1052              		.size	testthd1, 16
 1053              	testthd1:
 1054 0000 64000000 		.word	.LC9
 1055 0004 00000000 		.word	0
 1056 0008 00000000 		.word	0
 1057 000c 00000000 		.word	thd1_execute
 1058              		.section	.rodata.testthd2,"a",%progbits
 1059              		.align	2
 1060              		.type	testthd2, %object
 1061              		.size	testthd2, 16
 1062              	testthd2:
 1063 0000 48000000 		.word	.LC8
 1064 0004 00000000 		.word	0
 1065 0008 00000000 		.word	0
 1066 000c 00000000 		.word	thd2_execute
 1067              		.section	.rodata.testthd3,"a",%progbits
 1068              		.align	2
 1069              		.type	testthd3, %object
 1070              		.size	testthd3, 16
 1071              	testthd3:
 1072 0000 2C000000 		.word	.LC7
 1073 0004 00000000 		.word	0
 1074 0008 00000000 		.word	0
 1075 000c 00000000 		.word	thd3_execute
 1076              		.section	.rodata.testthd4,"a",%progbits
 1077              		.align	2
 1078              		.type	testthd4, %object
 1079              		.size	testthd4, 16
ARM GAS  /tmp/ccg6pkLu.s 			page 20


 1080              	testthd4:
 1081 0000 1C000000 		.word	.LC6
 1082 0004 00000000 		.word	0
 1083 0008 00000000 		.word	0
 1084 000c 00000000 		.word	thd4_execute
 1085              		.section	.rodata.patternthd,"a",%progbits
 1086              		.align	2
 1087              		.type	patternthd, %object
 1088              		.size	patternthd, 20
 1089              	patternthd:
 1090 0000 00000000 		.word	testthd1
 1091 0004 00000000 		.word	testthd2
 1092 0008 00000000 		.word	testthd3
 1093 000c 00000000 		.word	testthd4
 1094 0010 00000000 		.word	0
 1095              		.section	.rodata.str1.4,"aMS",%progbits,1
 1096              		.align	2
 1097              	.LC0:
 1098 0000 4500     		.ascii	"E\000"
 1099 0002 0000     		.space	2
 1100              	.LC1:
 1101 0004 4400     		.ascii	"D\000"
 1102 0006 0000     		.space	2
 1103              	.LC2:
 1104 0008 4300     		.ascii	"C\000"
 1105 000a 0000     		.space	2
 1106              	.LC3:
 1107 000c 4200     		.ascii	"B\000"
 1108 000e 0000     		.space	2
 1109              	.LC4:
 1110 0010 4100     		.ascii	"A\000"
 1111 0012 0000     		.space	2
 1112              	.LC5:
 1113 0014 41424344 		.ascii	"ABCDE\000"
 1113      4500
 1114 001a 0000     		.space	2
 1115              	.LC6:
 1116 001c 54687265 		.ascii	"Threads, delays\000"
 1116      6164732C 
 1116      2064656C 
 1116      61797300 
 1117              	.LC7:
 1118 002c 54687265 		.ascii	"Threads, priority change\000"
 1118      6164732C 
 1118      20707269 
 1118      6F726974 
 1118      79206368 
 1119 0045 000000   		.space	3
 1120              	.LC8:
 1121 0048 54687265 		.ascii	"Threads, enqueuing test #2\000"
 1121      6164732C 
 1121      20656E71 
 1121      75657569 
 1121      6E672074 
 1122 0063 00       		.space	1
 1123              	.LC9:
 1124 0064 54687265 		.ascii	"Threads, enqueuing test #1\000"
ARM GAS  /tmp/ccg6pkLu.s 			page 21


 1124      6164732C 
 1124      20656E71 
 1124      75657569 
 1124      6E672074 
 1125 007f 00       		.text
 1126              	.Letext0:
 1127              		.file 5 "/usr/lib/gcc/arm-none-eabi/5.2.0/include/stddef.h"
 1128              		.file 6 "/usr/arm-none-eabi/include/machine/_default_types.h"
 1129              		.file 7 "/usr/arm-none-eabi/include/stdint.h"
 1130              		.file 8 "../../os/rt/ports/ARMCMx/compilers/GCC/chtypes.h"
 1131              		.file 9 "../../os/rt/include/chsystypes.h"
 1132              		.file 10 "../../os/rt/include/chschd.h"
 1133              		.file 11 "../../os/rt/ports/ARMCMx/chcore.h"
 1134              		.file 12 "../../os/rt/ports/ARMCMx/chcore_v7m.h"
 1135              		.file 13 "../../os/hal/ports/STM32/LLD/TIMv1/stm32_tim.h"
 1136              		.file 14 "../../os/rt/include/chtm.h"
 1137              		.file 15 "../../os/rt/include/chsem.h"
 1138              		.file 16 "../../os/rt/include/chmtx.h"
 1139              		.file 17 "../../test/rt/test.h"
 1140              		.file 18 "../../os/rt/ports/ARMCMx/chcore_timer.h"
 1141              		.file 19 "../../os/rt/include/chsys.h"
 1142              		.file 20 "../../os/rt/include/chvt.h"
 1143              		.file 21 "../../os/ext/CMSIS/include/core_cm4.h"