ARM GAS  /tmp/ccjxRoGC.s 			page 1


   1              		.syntax unified
   2              		.cpu cortex-m4
   3              		.eabi_attribute 27, 1
   4              		.eabi_attribute 28, 1
   5              		.fpu fpv4-sp-d16
   6              		.eabi_attribute 20, 1
   7              		.eabi_attribute 21, 1
   8              		.eabi_attribute 23, 3
   9              		.eabi_attribute 24, 1
  10              		.eabi_attribute 25, 1
  11              		.eabi_attribute 26, 1
  12              		.eabi_attribute 30, 2
  13              		.eabi_attribute 34, 1
  14              		.eabi_attribute 18, 4
  15              		.thumb
  16              		.syntax unified
  17              		.file	"testmtx.c"
  18              		.text
  19              	.Ltext0:
  20              		.cfi_sections	.debug_frame
  21              		.section	.text.mtx1_execute,"ax",%progbits
  22              		.align	2
  23              		.p2align 4,,15
  24              		.thumb
  25              		.thumb_func
  26              		.type	mtx1_execute, %function
  27              	mtx1_execute:
  28              	.LFB231:
  29              		.file 1 "../../test/rt/testmtx.c"
  30              		.loc 1 96 0
  31              		.cfi_startproc
  32              		@ args = 0, pretend = 0, frame = 0
  33              		@ frame_needed = 0, uses_anonymous_args = 0
  34 0000 F0B5     		push	{r4, r5, r6, r7, lr}
  35              		.cfi_def_cfa_offset 20
  36              		.cfi_offset 4, -20
  37              		.cfi_offset 5, -16
  38              		.cfi_offset 6, -12
  39              		.cfi_offset 7, -8
  40              		.cfi_offset 14, -4
  41              	.LBB138:
  42              	.LBB139:
  43              	.LBB140:
  44              	.LBB141:
  45              		.file 2 "../../os/rt/include/chthreads.h"
  46              		.loc 2 176 0
  47 0002 2B4F     		ldr	r7, .L6
  48              	.LBE141:
  49              	.LBE140:
  50              	.LBE139:
  51              	.LBE138:
  52              		.loc 1 100 0
  53 0004 2B4E     		ldr	r6, .L6+4
  54              	.LBB144:
  55              	.LBB142:
  56              		.loc 2 189 0
  57 0006 BB69     		ldr	r3, [r7, #24]
ARM GAS  /tmp/ccjxRoGC.s 			page 2


  58              	.LBE142:
  59              	.LBE144:
  60              		.loc 1 99 0
  61 0008 2B48     		ldr	r0, .L6+8
  62              	.LBB145:
  63              	.LBB143:
  64              		.loc 2 189 0
  65 000a 9C68     		ldr	r4, [r3, #8]
  66              	.LBE143:
  67              	.LBE145:
  68              		.loc 1 100 0
  69 000c 2B4D     		ldr	r5, .L6+12
  70              		.loc 1 96 0
  71 000e 83B0     		sub	sp, sp, #12
  72              		.cfi_def_cfa_offset 32
  73              		.loc 1 99 0
  74 0010 FFF7FEFF 		bl	chMtxLock
  75              	.LVL0:
  76              		.loc 1 100 0
  77 0014 2A4B     		ldr	r3, .L6+16
  78 0016 0093     		str	r3, [sp]
  79 0018 621C     		adds	r2, r4, #1
  80 001a 2A4B     		ldr	r3, .L6+20
  81 001c 3068     		ldr	r0, [r6]
  82 001e 4FF4E871 		mov	r1, #464
  83 0022 FFF7FEFF 		bl	chThdCreateStatic
  84              	.LVL1:
  85              		.loc 1 101 0
  86 0026 7168     		ldr	r1, [r6, #4]
  87 0028 274B     		ldr	r3, .L6+24
  88              		.loc 1 100 0
  89 002a 2860     		str	r0, [r5]
  90              		.loc 1 101 0
  91 002c A21C     		adds	r2, r4, #2
  92 002e 0846     		mov	r0, r1
  93 0030 0093     		str	r3, [sp]
  94 0032 4FF4E871 		mov	r1, #464
  95 0036 234B     		ldr	r3, .L6+20
  96 0038 FFF7FEFF 		bl	chThdCreateStatic
  97              	.LVL2:
  98              		.loc 1 102 0
  99 003c B168     		ldr	r1, [r6, #8]
 100 003e 234B     		ldr	r3, .L6+28
 101              		.loc 1 101 0
 102 0040 6860     		str	r0, [r5, #4]
 103              		.loc 1 102 0
 104 0042 E21C     		adds	r2, r4, #3
 105 0044 0846     		mov	r0, r1
 106 0046 0093     		str	r3, [sp]
 107 0048 4FF4E871 		mov	r1, #464
 108 004c 1D4B     		ldr	r3, .L6+20
 109 004e FFF7FEFF 		bl	chThdCreateStatic
 110              	.LVL3:
 111              		.loc 1 103 0
 112 0052 F168     		ldr	r1, [r6, #12]
 113 0054 1E4B     		ldr	r3, .L6+32
 114              		.loc 1 102 0
ARM GAS  /tmp/ccjxRoGC.s 			page 3


 115 0056 A860     		str	r0, [r5, #8]
 116              		.loc 1 103 0
 117 0058 221D     		adds	r2, r4, #4
 118 005a 0846     		mov	r0, r1
 119 005c 0093     		str	r3, [sp]
 120 005e 4FF4E871 		mov	r1, #464
 121 0062 184B     		ldr	r3, .L6+20
 122 0064 FFF7FEFF 		bl	chThdCreateStatic
 123              	.LVL4:
 124              		.loc 1 104 0
 125 0068 3169     		ldr	r1, [r6, #16]
 126 006a 1A4B     		ldr	r3, .L6+36
 127              		.loc 1 103 0
 128 006c E860     		str	r0, [r5, #12]
 129              		.loc 1 104 0
 130 006e 621D     		adds	r2, r4, #5
 131 0070 0846     		mov	r0, r1
 132 0072 0093     		str	r3, [sp]
 133 0074 4FF4E871 		mov	r1, #464
 134 0078 124B     		ldr	r3, .L6+20
 135 007a FFF7FEFF 		bl	chThdCreateStatic
 136              	.LVL5:
 137 007e 2861     		str	r0, [r5, #16]
 138              		.loc 1 105 0
 139 0080 0D48     		ldr	r0, .L6+8
 140 0082 FFF7FEFF 		bl	chMtxUnlock
 141              	.LVL6:
 142              		.loc 1 106 0
 143 0086 FFF7FEFF 		bl	test_wait_threads
 144              	.LVL7:
 145              	.LBB146:
 146              	.LBB147:
 147              		.loc 2 189 0
 148 008a BB69     		ldr	r3, [r7, #24]
 149              	.LBE147:
 150              	.LBE146:
 151              		.loc 1 107 0
 152 008c 9968     		ldr	r1, [r3, #8]
 153 008e 091B     		subs	r1, r1, r4
 154 0090 B1FA81F1 		clz	r1, r1
 155 0094 0120     		movs	r0, #1
 156 0096 4909     		lsrs	r1, r1, #5
 157 0098 FFF7FEFF 		bl	_test_assert
 158              	.LVL8:
 159 009c 08B1     		cbz	r0, .L5
 160              		.loc 1 109 0
 161 009e 03B0     		add	sp, sp, #12
 162              		.cfi_remember_state
 163              		.cfi_def_cfa_offset 20
 164              		@ sp needed
 165 00a0 F0BD     		pop	{r4, r5, r6, r7, pc}
 166              	.L5:
 167              		.cfi_restore_state
 168              		.loc 1 108 0
 169 00a2 0D49     		ldr	r1, .L6+40
 170 00a4 0220     		movs	r0, #2
 171              		.loc 1 109 0
ARM GAS  /tmp/ccjxRoGC.s 			page 4


 172 00a6 03B0     		add	sp, sp, #12
 173              		.cfi_def_cfa_offset 20
 174              		@ sp needed
 175 00a8 BDE8F040 		pop	{r4, r5, r6, r7, lr}
 176              		.cfi_restore 14
 177              		.cfi_restore 7
 178              		.cfi_restore 6
 179              		.cfi_restore 5
 180              		.cfi_restore 4
 181              		.cfi_def_cfa_offset 0
 182              		.loc 1 108 0
 183 00ac FFF7FEBF 		b	_test_assert_sequence
 184              	.LVL9:
 185              	.L7:
 186              		.align	2
 187              	.L6:
 188 00b0 00000000 		.word	ch
 189 00b4 00000000 		.word	wa
 190 00b8 00000000 		.word	.LANCHOR0
 191 00bc 00000000 		.word	threads
 192 00c0 00000000 		.word	.LC0
 193 00c4 00000000 		.word	thread1
 194 00c8 04000000 		.word	.LC1
 195 00cc 08000000 		.word	.LC2
 196 00d0 0C000000 		.word	.LC3
 197 00d4 10000000 		.word	.LC4
 198 00d8 14000000 		.word	.LC5
 199              		.cfi_endproc
 200              	.LFE231:
 201              		.size	mtx1_execute, .-mtx1_execute
 202 00dc AFF30080 		.section	.text.thread1,"ax",%progbits
 203              		.align	2
 204              		.p2align 4,,15
 205              		.thumb
 206              		.thumb_func
 207              		.type	thread1, %function
 208              	thread1:
 209              	.LFB230:
 210              		.loc 1 89 0
 211              		.cfi_startproc
 212              		@ args = 0, pretend = 0, frame = 0
 213              		@ frame_needed = 0, uses_anonymous_args = 0
 214              	.LVL10:
 215 0000 38B5     		push	{r3, r4, r5, lr}
 216              		.cfi_def_cfa_offset 16
 217              		.cfi_offset 3, -16
 218              		.cfi_offset 4, -12
 219              		.cfi_offset 5, -8
 220              		.cfi_offset 14, -4
 221              		.loc 1 91 0
 222 0002 064C     		ldr	r4, .L10
 223              		.loc 1 89 0
 224 0004 0546     		mov	r5, r0
 225              		.loc 1 91 0
 226 0006 2046     		mov	r0, r4
 227              	.LVL11:
 228 0008 FFF7FEFF 		bl	chMtxLock
ARM GAS  /tmp/ccjxRoGC.s 			page 5


 229              	.LVL12:
 230              		.loc 1 92 0
 231 000c 2878     		ldrb	r0, [r5]	@ zero_extendqisi2
 232 000e FFF7FEFF 		bl	test_emit_token
 233              	.LVL13:
 234              		.loc 1 93 0
 235 0012 2046     		mov	r0, r4
 236              		.loc 1 94 0
 237 0014 BDE83840 		pop	{r3, r4, r5, lr}
 238              		.cfi_restore 14
 239              		.cfi_restore 5
 240              		.cfi_restore 4
 241              		.cfi_restore 3
 242              		.cfi_def_cfa_offset 0
 243              	.LVL14:
 244              		.loc 1 93 0
 245 0018 FFF7FEBF 		b	chMtxUnlock
 246              	.LVL15:
 247              	.L11:
 248              		.align	2
 249              	.L10:
 250 001c 00000000 		.word	.LANCHOR0
 251              		.cfi_endproc
 252              	.LFE230:
 253              		.size	thread1, .-thread1
 254              		.section	.text.thread12,"ax",%progbits
 255              		.align	2
 256              		.p2align 4,,15
 257              		.thumb
 258              		.thumb_func
 259              		.type	thread12, %function
 260              	thread12:
 261              	.LFB245:
 262              		.loc 1 576 0
 263              		.cfi_startproc
 264              		@ args = 0, pretend = 0, frame = 0
 265              		@ frame_needed = 0, uses_anonymous_args = 0
 266              	.LVL16:
 267 0000 38B5     		push	{r3, r4, r5, lr}
 268              		.cfi_def_cfa_offset 16
 269              		.cfi_offset 3, -16
 270              		.cfi_offset 4, -12
 271              		.cfi_offset 5, -8
 272              		.cfi_offset 14, -4
 273              		.loc 1 578 0
 274 0002 064C     		ldr	r4, .L14
 275              		.loc 1 576 0
 276 0004 0546     		mov	r5, r0
 277              		.loc 1 578 0
 278 0006 2046     		mov	r0, r4
 279              	.LVL17:
 280 0008 FFF7FEFF 		bl	chMtxLock
 281              	.LVL18:
 282              		.loc 1 579 0
 283 000c 2878     		ldrb	r0, [r5]	@ zero_extendqisi2
 284 000e FFF7FEFF 		bl	test_emit_token
 285              	.LVL19:
ARM GAS  /tmp/ccjxRoGC.s 			page 6


 286              		.loc 1 580 0
 287 0012 2046     		mov	r0, r4
 288              		.loc 1 581 0
 289 0014 BDE83840 		pop	{r3, r4, r5, lr}
 290              		.cfi_restore 14
 291              		.cfi_restore 5
 292              		.cfi_restore 4
 293              		.cfi_restore 3
 294              		.cfi_def_cfa_offset 0
 295              	.LVL20:
 296              		.loc 1 580 0
 297 0018 FFF7FEBF 		b	chMtxUnlock
 298              	.LVL21:
 299              	.L15:
 300              		.align	2
 301              	.L14:
 302 001c 00000000 		.word	.LANCHOR1
 303              		.cfi_endproc
 304              	.LFE245:
 305              		.size	thread12, .-thread12
 306              		.section	.text.mtx4_setup,"ax",%progbits
 307              		.align	2
 308              		.p2align 4,,15
 309              		.thumb
 310              		.thumb_func
 311              		.type	mtx4_setup, %function
 312              	mtx4_setup:
 313              	.LFB232:
 314              		.loc 1 332 0
 315              		.cfi_startproc
 316              		@ args = 0, pretend = 0, frame = 0
 317              		@ frame_needed = 0, uses_anonymous_args = 0
 318 0000 08B5     		push	{r3, lr}
 319              		.cfi_def_cfa_offset 8
 320              		.cfi_offset 3, -8
 321              		.cfi_offset 14, -4
 322              		.loc 1 334 0
 323 0002 0448     		ldr	r0, .L18
 324 0004 FFF7FEFF 		bl	chMtxObjectInit
 325              	.LVL22:
 326              		.loc 1 335 0
 327 0008 0348     		ldr	r0, .L18+4
 328              		.loc 1 336 0
 329 000a BDE80840 		pop	{r3, lr}
 330              		.cfi_restore 14
 331              		.cfi_restore 3
 332              		.cfi_def_cfa_offset 0
 333              		.loc 1 335 0
 334 000e FFF7FEBF 		b	chMtxObjectInit
 335              	.LVL23:
 336              	.L19:
 337 0012 00BF     		.align	2
 338              	.L18:
 339 0014 00000000 		.word	.LANCHOR0
 340 0018 00000000 		.word	.LANCHOR1
 341              		.cfi_endproc
 342              	.LFE232:
ARM GAS  /tmp/ccjxRoGC.s 			page 7


 343              		.size	mtx4_setup, .-mtx4_setup
 344 001c AFF30080 		.section	.text.mtx5_setup,"ax",%progbits
 345              		.align	2
 346              		.p2align 4,,15
 347              		.thumb
 348              		.thumb_func
 349              		.type	mtx5_setup, %function
 350              	mtx5_setup:
 351              	.LFB236:
 352              		.loc 1 418 0
 353              		.cfi_startproc
 354              		@ args = 0, pretend = 0, frame = 0
 355              		@ frame_needed = 0, uses_anonymous_args = 0
 356              		@ link register save eliminated.
 357              		.loc 1 420 0
 358 0000 0148     		ldr	r0, .L21
 359 0002 FFF7FEBF 		b	chMtxObjectInit
 360              	.LVL24:
 361              	.L22:
 362 0006 00BF     		.align	2
 363              	.L21:
 364 0008 00000000 		.word	.LANCHOR0
 365              		.cfi_endproc
 366              	.LFE236:
 367              		.size	mtx5_setup, .-mtx5_setup
 368 000c AFF30080 		.section	.text.mtx1_setup,"ax",%progbits
 369              		.align	2
 370              		.p2align 4,,15
 371              		.thumb
 372              		.thumb_func
 373              		.type	mtx1_setup, %function
 374              	mtx1_setup:
 375              	.LFB248:
 376              		.cfi_startproc
 377              		@ args = 0, pretend = 0, frame = 0
 378              		@ frame_needed = 0, uses_anonymous_args = 0
 379              		@ link register save eliminated.
 380 0000 FFF7FEBF 		b	mtx5_setup
 381              		.cfi_endproc
 382              	.LFE248:
 383              		.size	mtx1_setup, .-mtx1_setup
 384 0004 AFF30080 		.section	.text.thread4b,"ax",%progbits
 384      AFF30080 
 384      AFF30080 
 385              		.align	2
 386              		.p2align 4,,15
 387              		.thumb
 388              		.thumb_func
 389              		.type	thread4b, %function
 390              	thread4b:
 391              	.LFB234:
 392              		.loc 1 346 0
 393              		.cfi_startproc
 394              		@ args = 0, pretend = 0, frame = 0
 395              		@ frame_needed = 0, uses_anonymous_args = 0
 396              	.LVL25:
 397              		.loc 1 346 0
ARM GAS  /tmp/ccjxRoGC.s 			page 8


 398 0000 10B5     		push	{r4, lr}
 399              		.cfi_def_cfa_offset 8
 400              		.cfi_offset 4, -8
 401              		.cfi_offset 14, -4
 402              		.loc 1 350 0
 403 0002 064C     		ldr	r4, .L26
 404              		.loc 1 349 0
 405 0004 40F2DC50 		movw	r0, #1500
 406              	.LVL26:
 407 0008 FFF7FEFF 		bl	chThdSleep
 408              	.LVL27:
 409              		.loc 1 350 0
 410 000c 2046     		mov	r0, r4
 411 000e FFF7FEFF 		bl	chMtxLock
 412              	.LVL28:
 413              		.loc 1 351 0
 414 0012 2046     		mov	r0, r4
 415              		.loc 1 352 0
 416 0014 BDE81040 		pop	{r4, lr}
 417              		.cfi_restore 14
 418              		.cfi_restore 4
 419              		.cfi_def_cfa_offset 0
 420              		.loc 1 351 0
 421 0018 FFF7FEBF 		b	chMtxUnlock
 422              	.LVL29:
 423              	.L27:
 424              		.align	2
 425              	.L26:
 426 001c 00000000 		.word	.LANCHOR0
 427              		.cfi_endproc
 428              	.LFE234:
 429              		.size	thread4b, .-thread4b
 430              		.section	.text.thread4a,"ax",%progbits
 431              		.align	2
 432              		.p2align 4,,15
 433              		.thumb
 434              		.thumb_func
 435              		.type	thread4a, %function
 436              	thread4a:
 437              	.LFB233:
 438              		.loc 1 338 0
 439              		.cfi_startproc
 440              		@ args = 0, pretend = 0, frame = 0
 441              		@ frame_needed = 0, uses_anonymous_args = 0
 442              	.LVL30:
 443 0000 10B5     		push	{r4, lr}
 444              		.cfi_def_cfa_offset 8
 445              		.cfi_offset 4, -8
 446              		.cfi_offset 14, -4
 447              		.loc 1 342 0
 448 0002 064C     		ldr	r4, .L30
 449              		.loc 1 341 0
 450 0004 4FF4FA70 		mov	r0, #500
 451              	.LVL31:
 452 0008 FFF7FEFF 		bl	chThdSleep
 453              	.LVL32:
 454              		.loc 1 342 0
ARM GAS  /tmp/ccjxRoGC.s 			page 9


 455 000c 2046     		mov	r0, r4
 456 000e FFF7FEFF 		bl	chMtxLock
 457              	.LVL33:
 458              		.loc 1 343 0
 459 0012 2046     		mov	r0, r4
 460              		.loc 1 344 0
 461 0014 BDE81040 		pop	{r4, lr}
 462              		.cfi_restore 14
 463              		.cfi_restore 4
 464              		.cfi_def_cfa_offset 0
 465              		.loc 1 343 0
 466 0018 FFF7FEBF 		b	chMtxUnlock
 467              	.LVL34:
 468              	.L31:
 469              		.align	2
 470              	.L30:
 471 001c 00000000 		.word	.LANCHOR1
 472              		.cfi_endproc
 473              	.LFE233:
 474              		.size	thread4a, .-thread4a
 475              		.section	.text.mtx4_execute,"ax",%progbits
 476              		.align	2
 477              		.p2align 4,,15
 478              		.thumb
 479              		.thumb_func
 480              		.type	mtx4_execute, %function
 481              	mtx4_execute:
 482              	.LFB235:
 483              		.loc 1 354 0
 484              		.cfi_startproc
 485              		@ args = 0, pretend = 0, frame = 8
 486              		@ frame_needed = 0, uses_anonymous_args = 0
 487 0000 2DE9F046 		push	{r4, r5, r6, r7, r9, r10, lr}
 488              		.cfi_def_cfa_offset 28
 489              		.cfi_offset 4, -28
 490              		.cfi_offset 5, -24
 491              		.cfi_offset 6, -20
 492              		.cfi_offset 7, -16
 493              		.cfi_offset 9, -12
 494              		.cfi_offset 10, -8
 495              		.cfi_offset 14, -4
 496              	.LBB148:
 497              	.LBB149:
 498              	.LBB150:
 499              	.LBB151:
 500              		.loc 2 176 0
 501 0004 8E4D     		ldr	r5, .L38
 502              	.LBE151:
 503              	.LBE150:
 504              	.LBE149:
 505              	.LBE148:
 506              		.loc 1 360 0
 507 0006 8F4E     		ldr	r6, .L38+4
 508              	.LBB154:
 509              	.LBB152:
 510              		.loc 2 189 0
 511 0008 AB69     		ldr	r3, [r5, #24]
ARM GAS  /tmp/ccjxRoGC.s 			page 10


 512              	.LBE152:
 513              	.LBE154:
 514              		.loc 1 360 0
 515 000a 3268     		ldr	r2, [r6]
 516              	.LBB155:
 517              	.LBB153:
 518              		.loc 2 189 0
 519 000c 9C68     		ldr	r4, [r3, #8]
 520              	.LBE153:
 521              	.LBE155:
 522              		.loc 1 360 0
 523 000e 8E4B     		ldr	r3, .L38+8
 524 0010 8E4F     		ldr	r7, .L38+12
 525              		.loc 1 354 0
 526 0012 85B0     		sub	sp, sp, #20
 527              		.cfi_def_cfa_offset 48
 528              		.loc 1 358 0
 529 0014 04F10109 		add	r9, r4, #1
 530              	.LVL35:
 531              		.loc 1 360 0
 532 0018 1046     		mov	r0, r2
 533 001a 0392     		str	r2, [sp, #12]
 534 001c 0093     		str	r3, [sp]
 535 001e 4A46     		mov	r2, r9
 536 0020 8B4B     		ldr	r3, .L38+16
 537 0022 4FF4E871 		mov	r1, #464
 538 0026 FFF7FEFF 		bl	chThdCreateStatic
 539              	.LVL36:
 540              		.loc 1 361 0
 541 002a 7668     		ldr	r6, [r6, #4]
 542 002c 894B     		ldr	r3, .L38+20
 543              		.loc 1 360 0
 544 002e 3860     		str	r0, [r7]
 545              		.loc 1 359 0
 546 0030 04F1020A 		add	r10, r4, #2
 547              	.LVL37:
 548              		.loc 1 361 0
 549 0034 4FF4E871 		mov	r1, #464
 550 0038 5246     		mov	r2, r10
 551 003a 0093     		str	r3, [sp]
 552 003c 3046     		mov	r0, r6
 553 003e 864B     		ldr	r3, .L38+24
 554 0040 FFF7FEFF 		bl	chThdCreateStatic
 555              	.LVL38:
 556 0044 7860     		str	r0, [r7, #4]
 557              		.loc 1 362 0
 558 0046 8548     		ldr	r0, .L38+28
 559 0048 FFF7FEFF 		bl	chMtxLock
 560              	.LVL39:
 561              	.LBB156:
 562              	.LBB157:
 563              		.loc 2 189 0
 564 004c AB69     		ldr	r3, [r5, #24]
 565              	.LBE157:
 566              	.LBE156:
 567              		.loc 1 363 0
 568 004e 9968     		ldr	r1, [r3, #8]
ARM GAS  /tmp/ccjxRoGC.s 			page 11


 569 0050 091B     		subs	r1, r1, r4
 570 0052 B1FA81F1 		clz	r1, r1
 571 0056 0120     		movs	r0, #1
 572 0058 4909     		lsrs	r1, r1, #5
 573 005a FFF7FEFF 		bl	_test_assert
 574              	.LVL40:
 575 005e 10B1     		cbz	r0, .L37
 576              	.L32:
 577              		.loc 1 399 0
 578 0060 05B0     		add	sp, sp, #20
 579              		.cfi_remember_state
 580              		.cfi_def_cfa_offset 28
 581              		@ sp needed
 582 0062 BDE8F086 		pop	{r4, r5, r6, r7, r9, r10, pc}
 583              	.LVL41:
 584              	.L37:
 585              		.cfi_restore_state
 586              		.loc 1 364 0
 587 0066 4FF47A70 		mov	r0, #1000
 588 006a FFF7FEFF 		bl	chThdSleep
 589              	.LVL42:
 590              	.LBB158:
 591              	.LBB159:
 592              		.loc 2 189 0
 593 006e AB69     		ldr	r3, [r5, #24]
 594              	.LBE159:
 595              	.LBE158:
 596              		.loc 1 365 0
 597 0070 9968     		ldr	r1, [r3, #8]
 598 0072 C9EB0101 		rsb	r1, r9, r1
 599 0076 B1FA81F1 		clz	r1, r1
 600 007a 0220     		movs	r0, #2
 601 007c 4909     		lsrs	r1, r1, #5
 602 007e FFF7FEFF 		bl	_test_assert
 603              	.LVL43:
 604 0082 0028     		cmp	r0, #0
 605 0084 ECD1     		bne	.L32
 606              		.loc 1 366 0
 607 0086 7648     		ldr	r0, .L38+32
 608 0088 FFF7FEFF 		bl	chMtxLock
 609              	.LVL44:
 610              	.LBB160:
 611              	.LBB161:
 612              		.loc 2 189 0
 613 008c AB69     		ldr	r3, [r5, #24]
 614              	.LBE161:
 615              	.LBE160:
 616              		.loc 1 367 0
 617 008e 9968     		ldr	r1, [r3, #8]
 618 0090 C9EB0101 		rsb	r1, r9, r1
 619 0094 B1FA81F1 		clz	r1, r1
 620 0098 0320     		movs	r0, #3
 621 009a 4909     		lsrs	r1, r1, #5
 622 009c FFF7FEFF 		bl	_test_assert
 623              	.LVL45:
 624 00a0 0028     		cmp	r0, #0
 625 00a2 DDD1     		bne	.L32
ARM GAS  /tmp/ccjxRoGC.s 			page 12


 626              		.loc 1 368 0
 627 00a4 4FF47A70 		mov	r0, #1000
 628 00a8 FFF7FEFF 		bl	chThdSleep
 629              	.LVL46:
 630              	.LBB162:
 631              	.LBB163:
 632              		.loc 2 189 0
 633 00ac AB69     		ldr	r3, [r5, #24]
 634              	.LBE163:
 635              	.LBE162:
 636              		.loc 1 369 0
 637 00ae 9968     		ldr	r1, [r3, #8]
 638 00b0 CAEB0101 		rsb	r1, r10, r1
 639 00b4 B1FA81F1 		clz	r1, r1
 640 00b8 0420     		movs	r0, #4
 641 00ba 4909     		lsrs	r1, r1, #5
 642 00bc FFF7FEFF 		bl	_test_assert
 643              	.LVL47:
 644 00c0 0028     		cmp	r0, #0
 645 00c2 CDD1     		bne	.L32
 646              		.loc 1 370 0
 647 00c4 6648     		ldr	r0, .L38+32
 648 00c6 FFF7FEFF 		bl	chMtxUnlock
 649              	.LVL48:
 650              	.LBB164:
 651              	.LBB165:
 652              		.loc 2 189 0
 653 00ca AB69     		ldr	r3, [r5, #24]
 654              	.LBE165:
 655              	.LBE164:
 656              		.loc 1 371 0
 657 00cc 9968     		ldr	r1, [r3, #8]
 658 00ce C9EB0101 		rsb	r1, r9, r1
 659 00d2 B1FA81F1 		clz	r1, r1
 660 00d6 0520     		movs	r0, #5
 661 00d8 4909     		lsrs	r1, r1, #5
 662 00da FFF7FEFF 		bl	_test_assert
 663              	.LVL49:
 664 00de 0028     		cmp	r0, #0
 665 00e0 BED1     		bne	.L32
 666              		.loc 1 372 0
 667 00e2 4FF47A70 		mov	r0, #1000
 668 00e6 FFF7FEFF 		bl	chThdSleep
 669              	.LVL50:
 670              	.LBB166:
 671              	.LBB167:
 672              		.loc 2 189 0
 673 00ea AB69     		ldr	r3, [r5, #24]
 674              	.LBE167:
 675              	.LBE166:
 676              		.loc 1 373 0
 677 00ec 9968     		ldr	r1, [r3, #8]
 678 00ee C9EB0101 		rsb	r1, r9, r1
 679 00f2 B1FA81F1 		clz	r1, r1
 680 00f6 0620     		movs	r0, #6
 681 00f8 4909     		lsrs	r1, r1, #5
 682 00fa FFF7FEFF 		bl	_test_assert
ARM GAS  /tmp/ccjxRoGC.s 			page 13


 683              	.LVL51:
 684 00fe 0028     		cmp	r0, #0
 685 0100 AED1     		bne	.L32
 686              		.loc 1 374 0
 687 0102 FFF7FEFF 		bl	chMtxUnlockAll
 688              	.LVL52:
 689              	.LBB168:
 690              	.LBB169:
 691              		.loc 2 189 0
 692 0106 AB69     		ldr	r3, [r5, #24]
 693              	.LBE169:
 694              	.LBE168:
 695              		.loc 1 375 0
 696 0108 9968     		ldr	r1, [r3, #8]
 697 010a 091B     		subs	r1, r1, r4
 698 010c B1FA81F1 		clz	r1, r1
 699 0110 0720     		movs	r0, #7
 700 0112 4909     		lsrs	r1, r1, #5
 701 0114 FFF7FEFF 		bl	_test_assert
 702              	.LVL53:
 703 0118 0028     		cmp	r0, #0
 704 011a A1D1     		bne	.L32
 705              		.loc 1 376 0
 706 011c FFF7FEFF 		bl	test_wait_threads
 707              	.LVL54:
 708              		.loc 1 379 0
 709 0120 504B     		ldr	r3, .L38+36
 710 0122 0093     		str	r3, [sp]
 711 0124 4A46     		mov	r2, r9
 712 0126 4A4B     		ldr	r3, .L38+16
 713 0128 0398     		ldr	r0, [sp, #12]
 714 012a 4FF4E871 		mov	r1, #464
 715 012e FFF7FEFF 		bl	chThdCreateStatic
 716              	.LVL55:
 717              		.loc 1 380 0
 718 0132 4D4B     		ldr	r3, .L38+40
 719              		.loc 1 379 0
 720 0134 3860     		str	r0, [r7]
 721              		.loc 1 380 0
 722 0136 4FF4E871 		mov	r1, #464
 723 013a 0093     		str	r3, [sp]
 724 013c 5246     		mov	r2, r10
 725 013e 464B     		ldr	r3, .L38+24
 726 0140 3046     		mov	r0, r6
 727 0142 FFF7FEFF 		bl	chThdCreateStatic
 728              	.LVL56:
 729 0146 7860     		str	r0, [r7, #4]
 730              		.loc 1 381 0
 731 0148 4448     		ldr	r0, .L38+28
 732 014a FFF7FEFF 		bl	chMtxLock
 733              	.LVL57:
 734              	.LBB170:
 735              	.LBB171:
 736              		.loc 2 189 0
 737 014e AB69     		ldr	r3, [r5, #24]
 738              	.LBE171:
 739              	.LBE170:
ARM GAS  /tmp/ccjxRoGC.s 			page 14


 740              		.loc 1 382 0
 741 0150 9968     		ldr	r1, [r3, #8]
 742 0152 091B     		subs	r1, r1, r4
 743 0154 B1FA81F1 		clz	r1, r1
 744 0158 0820     		movs	r0, #8
 745 015a 4909     		lsrs	r1, r1, #5
 746 015c FFF7FEFF 		bl	_test_assert
 747              	.LVL58:
 748 0160 0028     		cmp	r0, #0
 749 0162 7FF47DAF 		bne	.L32
 750              		.loc 1 383 0
 751 0166 4FF47A70 		mov	r0, #1000
 752 016a FFF7FEFF 		bl	chThdSleep
 753              	.LVL59:
 754              	.LBB172:
 755              	.LBB173:
 756              		.loc 2 189 0
 757 016e AB69     		ldr	r3, [r5, #24]
 758              	.LBE173:
 759              	.LBE172:
 760              		.loc 1 384 0
 761 0170 9968     		ldr	r1, [r3, #8]
 762 0172 C9EB010C 		rsb	ip, r9, r1
 763 0176 DCF10001 		rsbs	r1, ip, #0
 764 017a 41EB0C01 		adc	r1, r1, ip
 765 017e 0920     		movs	r0, #9
 766 0180 FFF7FEFF 		bl	_test_assert
 767              	.LVL60:
 768 0184 0028     		cmp	r0, #0
 769 0186 7FF46BAF 		bne	.L32
 770              		.loc 1 385 0
 771 018a 3548     		ldr	r0, .L38+32
 772 018c FFF7FEFF 		bl	chMtxLock
 773              	.LVL61:
 774              	.LBB174:
 775              	.LBB175:
 776              		.loc 2 189 0
 777 0190 AB69     		ldr	r3, [r5, #24]
 778              	.LBE175:
 779              	.LBE174:
 780              		.loc 1 386 0
 781 0192 9968     		ldr	r1, [r3, #8]
 782 0194 C9EB010E 		rsb	lr, r9, r1
 783 0198 DEF10001 		rsbs	r1, lr, #0
 784 019c 41EB0E01 		adc	r1, r1, lr
 785 01a0 0A20     		movs	r0, #10
 786 01a2 FFF7FEFF 		bl	_test_assert
 787              	.LVL62:
 788 01a6 0028     		cmp	r0, #0
 789 01a8 7FF45AAF 		bne	.L32
 790              		.loc 1 387 0
 791 01ac 4FF47A70 		mov	r0, #1000
 792 01b0 FFF7FEFF 		bl	chThdSleep
 793              	.LVL63:
 794              	.LBB176:
 795              	.LBB177:
 796              		.loc 2 189 0
ARM GAS  /tmp/ccjxRoGC.s 			page 15


 797 01b4 AB69     		ldr	r3, [r5, #24]
 798              	.LBE177:
 799              	.LBE176:
 800              		.loc 1 388 0
 801 01b6 9968     		ldr	r1, [r3, #8]
 802 01b8 CAEB0107 		rsb	r7, r10, r1
 803 01bc 7942     		rsbs	r1, r7, #0
 804 01be 4FF00B00 		mov	r0, #11
 805 01c2 7941     		adcs	r1, r1, r7
 806 01c4 FFF7FEFF 		bl	_test_assert
 807              	.LVL64:
 808 01c8 0646     		mov	r6, r0
 809 01ca 0028     		cmp	r0, #0
 810 01cc 7FF448AF 		bne	.L32
 811              	.LVL65:
 812              	.LBB178:
 813              	.LBB179:
 814              	.LBB180:
 815              	.LBB181:
 816              		.file 3 "../../os/ext/CMSIS/include/core_cmFunc.h"
 817              		.loc 3 546 0
 818 01d0 2023     		movs	r3, #32
 819              		.syntax unified
 820              	@ 546 "../../os/ext/CMSIS/include/core_cmFunc.h" 1
 821 01d2 83F31188 		MSR basepri, r3
 822              	@ 0 "" 2
 823              		.thumb
 824              		.syntax unified
 825              	.LBE181:
 826              	.LBE180:
 827              	.LBE179:
 828              	.LBE178:
 829              		.loc 1 390 0
 830 01d6 2248     		ldr	r0, .L38+32
 831 01d8 FFF7FEFF 		bl	chMtxUnlockS
 832              	.LVL66:
 833              		.loc 1 391 0
 834 01dc FFF7FEFF 		bl	chSchRescheduleS
 835              	.LVL67:
 836              	.LBB182:
 837              	.LBB183:
 838              	.LBB184:
 839              	.LBB185:
 840              	.LBB186:
 841              		.loc 3 546 0
 842              		.syntax unified
 843              	@ 546 "../../os/ext/CMSIS/include/core_cmFunc.h" 1
 844 01e0 86F31188 		MSR basepri, r6
 845              	@ 0 "" 2
 846              		.thumb
 847              		.syntax unified
 848              	.LBE186:
 849              	.LBE185:
 850              	.LBE184:
 851              	.LBE183:
 852              	.LBE182:
 853              	.LBB187:
ARM GAS  /tmp/ccjxRoGC.s 			page 16


 854              	.LBB188:
 855              		.loc 2 189 0
 856 01e4 AB69     		ldr	r3, [r5, #24]
 857              	.LBE188:
 858              	.LBE187:
 859              		.loc 1 393 0
 860 01e6 9968     		ldr	r1, [r3, #8]
 861 01e8 C9EB0106 		rsb	r6, r9, r1
 862 01ec 7142     		rsbs	r1, r6, #0
 863 01ee 7141     		adcs	r1, r1, r6
 864 01f0 0C20     		movs	r0, #12
 865 01f2 FFF7FEFF 		bl	_test_assert
 866              	.LVL68:
 867 01f6 0028     		cmp	r0, #0
 868 01f8 7FF432AF 		bne	.L32
 869              		.loc 1 394 0
 870 01fc 4FF47A70 		mov	r0, #1000
 871 0200 FFF7FEFF 		bl	chThdSleep
 872              	.LVL69:
 873              	.LBB189:
 874              	.LBB190:
 875              		.loc 2 189 0
 876 0204 AB69     		ldr	r3, [r5, #24]
 877              	.LBE190:
 878              	.LBE189:
 879              		.loc 1 395 0
 880 0206 9968     		ldr	r1, [r3, #8]
 881 0208 C9EB0102 		rsb	r2, r9, r1
 882 020c 5142     		rsbs	r1, r2, #0
 883 020e 5141     		adcs	r1, r1, r2
 884 0210 0D20     		movs	r0, #13
 885 0212 FFF7FEFF 		bl	_test_assert
 886              	.LVL70:
 887 0216 0028     		cmp	r0, #0
 888 0218 7FF422AF 		bne	.L32
 889              		.loc 1 396 0
 890 021c FFF7FEFF 		bl	chMtxUnlockAll
 891              	.LVL71:
 892              	.LBB191:
 893              	.LBB192:
 894              		.loc 2 189 0
 895 0220 AB69     		ldr	r3, [r5, #24]
 896              	.LBE192:
 897              	.LBE191:
 898              		.loc 1 397 0
 899 0222 9968     		ldr	r1, [r3, #8]
 900 0224 0B1B     		subs	r3, r1, r4
 901 0226 5942     		rsbs	r1, r3, #0
 902 0228 5941     		adcs	r1, r1, r3
 903 022a 0E20     		movs	r0, #14
 904 022c FFF7FEFF 		bl	_test_assert
 905              	.LVL72:
 906 0230 0028     		cmp	r0, #0
 907 0232 7FF415AF 		bne	.L32
 908              		.loc 1 399 0
 909 0236 05B0     		add	sp, sp, #20
 910              		.cfi_def_cfa_offset 28
ARM GAS  /tmp/ccjxRoGC.s 			page 17


 911              		@ sp needed
 912 0238 BDE8F046 		pop	{r4, r5, r6, r7, r9, r10, lr}
 913              		.cfi_restore 14
 914              		.cfi_restore 10
 915              		.cfi_restore 9
 916              		.cfi_restore 7
 917              		.cfi_restore 6
 918              		.cfi_restore 5
 919              		.cfi_restore 4
 920              		.cfi_def_cfa_offset 0
 921              	.LVL73:
 922              		.loc 1 398 0
 923 023c FFF7FEBF 		b	test_wait_threads
 924              	.LVL74:
 925              	.L39:
 926              		.align	2
 927              	.L38:
 928 0240 00000000 		.word	ch
 929 0244 00000000 		.word	wa
 930 0248 0C000000 		.word	.LC3
 931 024c 00000000 		.word	threads
 932 0250 00000000 		.word	thread4a
 933 0254 10000000 		.word	.LC4
 934 0258 00000000 		.word	thread4b
 935 025c 00000000 		.word	.LANCHOR1
 936 0260 00000000 		.word	.LANCHOR0
 937 0264 04000000 		.word	.LC1
 938 0268 08000000 		.word	.LC2
 939              		.cfi_endproc
 940              	.LFE235:
 941              		.size	mtx4_execute, .-mtx4_execute
 942 026c AFF30080 		.section	.text.mtx5_execute,"ax",%progbits
 943              		.align	2
 944              		.p2align 4,,15
 945              		.thumb
 946              		.thumb_func
 947              		.type	mtx5_execute, %function
 948              	mtx5_execute:
 949              	.LFB237:
 950              		.loc 1 423 0
 951              		.cfi_startproc
 952              		@ args = 0, pretend = 0, frame = 0
 953              		@ frame_needed = 0, uses_anonymous_args = 0
 954 0000 F8B5     		push	{r3, r4, r5, r6, r7, lr}
 955              		.cfi_def_cfa_offset 24
 956              		.cfi_offset 3, -24
 957              		.cfi_offset 4, -20
 958              		.cfi_offset 5, -16
 959              		.cfi_offset 6, -12
 960              		.cfi_offset 7, -8
 961              		.cfi_offset 14, -4
 962              	.LBB193:
 963              	.LBB194:
 964              	.LBB195:
 965              	.LBB196:
 966              		.loc 2 176 0
 967 0002 2B4D     		ldr	r5, .L46
ARM GAS  /tmp/ccjxRoGC.s 			page 18


 968              	.LBE196:
 969              	.LBE195:
 970              	.LBE194:
 971              	.LBE193:
 972              		.loc 1 429 0
 973 0004 2B4C     		ldr	r4, .L46+4
 974              	.LBB199:
 975              	.LBB197:
 976              		.loc 2 189 0
 977 0006 AB69     		ldr	r3, [r5, #24]
 978              	.LBE197:
 979              	.LBE199:
 980              		.loc 1 429 0
 981 0008 2046     		mov	r0, r4
 982              	.LBB200:
 983              	.LBB198:
 984              		.loc 2 189 0
 985 000a 9E68     		ldr	r6, [r3, #8]
 986              	.LBE198:
 987              	.LBE200:
 988              		.loc 1 429 0
 989 000c FFF7FEFF 		bl	chMtxTryLock
 990              	.LVL75:
 991              		.loc 1 430 0
 992 0010 0146     		mov	r1, r0
 993 0012 0120     		movs	r0, #1
 994              	.LVL76:
 995 0014 FFF7FEFF 		bl	_test_assert
 996              	.LVL77:
 997 0018 00B1     		cbz	r0, .L45
 998              	.L40:
 999 001a F8BD     		pop	{r3, r4, r5, r6, r7, pc}
 1000              	.L45:
 1001              		.loc 1 432 0
 1002 001c 2046     		mov	r0, r4
 1003 001e FFF7FEFF 		bl	chMtxTryLock
 1004              	.LVL78:
 1005              		.loc 1 433 0
 1006 0022 80F00101 		eor	r1, r0, #1
 1007 0026 C9B2     		uxtb	r1, r1
 1008 0028 0220     		movs	r0, #2
 1009              	.LVL79:
 1010 002a FFF7FEFF 		bl	_test_assert
 1011              	.LVL80:
 1012 002e 0746     		mov	r7, r0
 1013 0030 0028     		cmp	r0, #0
 1014 0032 F2D1     		bne	.L40
 1015              	.LVL81:
 1016              	.LBB201:
 1017              	.LBB202:
 1018              	.LBB203:
 1019              	.LBB204:
 1020              		.loc 3 546 0
 1021 0034 2023     		movs	r3, #32
 1022              		.syntax unified
 1023              	@ 546 "../../os/ext/CMSIS/include/core_cmFunc.h" 1
 1024 0036 83F31188 		MSR basepri, r3
ARM GAS  /tmp/ccjxRoGC.s 			page 19


 1025              	@ 0 "" 2
 1026              		.thumb
 1027              		.syntax unified
 1028              	.LBE204:
 1029              	.LBE203:
 1030              	.LBE202:
 1031              	.LBE201:
 1032              		.loc 1 436 0
 1033 003a 2046     		mov	r0, r4
 1034 003c FFF7FEFF 		bl	chMtxUnlockS
 1035              	.LVL82:
 1036              	.LBB205:
 1037              	.LBB206:
 1038              	.LBB207:
 1039              	.LBB208:
 1040              	.LBB209:
 1041              		.loc 3 546 0
 1042              		.syntax unified
 1043              	@ 546 "../../os/ext/CMSIS/include/core_cmFunc.h" 1
 1044 0040 87F31188 		MSR basepri, r7
 1045              	@ 0 "" 2
 1046              	.LVL83:
 1047              		.thumb
 1048              		.syntax unified
 1049              	.LBE209:
 1050              	.LBE208:
 1051              	.LBE207:
 1052              	.LBE206:
 1053              	.LBE205:
 1054              		.loc 1 439 0
 1055 0044 2168     		ldr	r1, [r4]
 1056 0046 091B     		subs	r1, r1, r4
 1057 0048 B1FA81F1 		clz	r1, r1
 1058 004c 0320     		movs	r0, #3
 1059 004e 4909     		lsrs	r1, r1, #5
 1060 0050 FFF7FEFF 		bl	_test_assert
 1061              	.LVL84:
 1062 0054 0028     		cmp	r0, #0
 1063 0056 E0D1     		bne	.L40
 1064              		.loc 1 440 0
 1065 0058 A168     		ldr	r1, [r4, #8]
 1066 005a B1FA81F1 		clz	r1, r1
 1067 005e 4909     		lsrs	r1, r1, #5
 1068 0060 0420     		movs	r0, #4
 1069 0062 FFF7FEFF 		bl	_test_assert
 1070              	.LVL85:
 1071 0066 0028     		cmp	r0, #0
 1072 0068 D7D1     		bne	.L40
 1073              	.LBB210:
 1074              	.LBB211:
 1075              		.loc 2 189 0
 1076 006a AB69     		ldr	r3, [r5, #24]
 1077              	.LBE211:
 1078              	.LBE210:
 1079              		.loc 1 441 0
 1080 006c 9968     		ldr	r1, [r3, #8]
 1081 006e 891B     		subs	r1, r1, r6
ARM GAS  /tmp/ccjxRoGC.s 			page 20


 1082 0070 B1FA81F1 		clz	r1, r1
 1083 0074 0520     		movs	r0, #5
 1084 0076 4909     		lsrs	r1, r1, #5
 1085 0078 FFF7FEFF 		bl	_test_assert
 1086              	.LVL86:
 1087 007c 0028     		cmp	r0, #0
 1088 007e CCD1     		bne	.L40
 1089              		.loc 1 444 0
 1090 0080 2046     		mov	r0, r4
 1091 0082 FFF7FEFF 		bl	chMtxLock
 1092              	.LVL87:
 1093              		.loc 1 445 0
 1094 0086 FFF7FEFF 		bl	chMtxUnlockAll
 1095              	.LVL88:
 1096              		.loc 1 446 0
 1097 008a 2168     		ldr	r1, [r4]
 1098 008c 091B     		subs	r1, r1, r4
 1099 008e B1FA81F1 		clz	r1, r1
 1100 0092 0620     		movs	r0, #6
 1101 0094 4909     		lsrs	r1, r1, #5
 1102 0096 FFF7FEFF 		bl	_test_assert
 1103              	.LVL89:
 1104 009a 0028     		cmp	r0, #0
 1105 009c BDD1     		bne	.L40
 1106              		.loc 1 447 0
 1107 009e A168     		ldr	r1, [r4, #8]
 1108 00a0 B1FA81F1 		clz	r1, r1
 1109 00a4 4909     		lsrs	r1, r1, #5
 1110 00a6 0720     		movs	r0, #7
 1111              		.loc 1 448 0
 1112 00a8 BDE8F840 		pop	{r3, r4, r5, r6, r7, lr}
 1113              		.cfi_restore 14
 1114              		.cfi_restore 7
 1115              		.cfi_restore 6
 1116              		.cfi_restore 5
 1117              		.cfi_restore 4
 1118              		.cfi_restore 3
 1119              		.cfi_def_cfa_offset 0
 1120              		.loc 1 447 0
 1121 00ac FFF7FEBF 		b	_test_assert
 1122              	.LVL90:
 1123              	.L47:
 1124              		.align	2
 1125              	.L46:
 1126 00b0 00000000 		.word	ch
 1127 00b4 00000000 		.word	.LANCHOR0
 1128              		.cfi_endproc
 1129              	.LFE237:
 1130              		.size	mtx5_execute, .-mtx5_execute
 1131 00b8 AFF30080 		.section	.text.mtx6_execute,"ax",%progbits
 1131      AFF30080 
 1132              		.align	2
 1133              		.p2align 4,,15
 1134              		.thumb
 1135              		.thumb_func
 1136              		.type	mtx6_execute, %function
 1137              	mtx6_execute:
ARM GAS  /tmp/ccjxRoGC.s 			page 21


 1138              	.LFB240:
 1139              		.loc 1 483 0
 1140              		.cfi_startproc
 1141              		@ args = 0, pretend = 0, frame = 0
 1142              		@ frame_needed = 0, uses_anonymous_args = 0
 1143 0000 F0B5     		push	{r4, r5, r6, r7, lr}
 1144              		.cfi_def_cfa_offset 20
 1145              		.cfi_offset 4, -20
 1146              		.cfi_offset 5, -16
 1147              		.cfi_offset 6, -12
 1148              		.cfi_offset 7, -8
 1149              		.cfi_offset 14, -4
 1150              	.LBB212:
 1151              	.LBB213:
 1152              	.LBB214:
 1153              	.LBB215:
 1154              		.loc 2 176 0
 1155 0002 2F4B     		ldr	r3, .L50
 1156              	.LBE215:
 1157              	.LBE214:
 1158              	.LBE213:
 1159              	.LBE212:
 1160              		.loc 1 486 0
 1161 0004 2F4F     		ldr	r7, .L50+4
 1162              	.LBB218:
 1163              	.LBB216:
 1164              		.loc 2 189 0
 1165 0006 9B69     		ldr	r3, [r3, #24]
 1166              	.LBE216:
 1167              	.LBE218:
 1168              		.loc 1 486 0
 1169 0008 2F4D     		ldr	r5, .L50+8
 1170              	.LBB219:
 1171              	.LBB217:
 1172              		.loc 2 189 0
 1173 000a 9E68     		ldr	r6, [r3, #8]
 1174              	.LBE217:
 1175              	.LBE219:
 1176              		.loc 1 486 0
 1177 000c 2F4B     		ldr	r3, .L50+12
 1178 000e 3868     		ldr	r0, [r7]
 1179 0010 2F4C     		ldr	r4, .L50+16
 1180              		.loc 1 483 0
 1181 0012 83B0     		sub	sp, sp, #12
 1182              		.cfi_def_cfa_offset 32
 1183              		.loc 1 486 0
 1184 0014 721C     		adds	r2, r6, #1
 1185 0016 0093     		str	r3, [sp]
 1186 0018 4FF4E871 		mov	r1, #464
 1187 001c 2B46     		mov	r3, r5
 1188 001e FFF7FEFF 		bl	chThdCreateStatic
 1189              	.LVL91:
 1190              		.loc 1 487 0
 1191 0022 7B68     		ldr	r3, [r7, #4]
 1192 0024 2B49     		ldr	r1, .L50+20
 1193              		.loc 1 486 0
 1194 0026 2060     		str	r0, [r4]
ARM GAS  /tmp/ccjxRoGC.s 			page 22


 1195              		.loc 1 487 0
 1196 0028 B21C     		adds	r2, r6, #2
 1197 002a 0091     		str	r1, [sp]
 1198 002c 1846     		mov	r0, r3
 1199 002e 4FF4E871 		mov	r1, #464
 1200 0032 2B46     		mov	r3, r5
 1201 0034 FFF7FEFF 		bl	chThdCreateStatic
 1202              	.LVL92:
 1203              		.loc 1 488 0
 1204 0038 BB68     		ldr	r3, [r7, #8]
 1205 003a 2749     		ldr	r1, .L50+24
 1206              		.loc 1 487 0
 1207 003c 6060     		str	r0, [r4, #4]
 1208              		.loc 1 488 0
 1209 003e F21C     		adds	r2, r6, #3
 1210 0040 0091     		str	r1, [sp]
 1211 0042 1846     		mov	r0, r3
 1212 0044 4FF4E871 		mov	r1, #464
 1213 0048 2B46     		mov	r3, r5
 1214 004a FFF7FEFF 		bl	chThdCreateStatic
 1215              	.LVL93:
 1216              		.loc 1 489 0
 1217 004e FB68     		ldr	r3, [r7, #12]
 1218 0050 2249     		ldr	r1, .L50+28
 1219              		.loc 1 488 0
 1220 0052 A060     		str	r0, [r4, #8]
 1221              		.loc 1 489 0
 1222 0054 321D     		adds	r2, r6, #4
 1223 0056 0091     		str	r1, [sp]
 1224 0058 1846     		mov	r0, r3
 1225 005a 4FF4E871 		mov	r1, #464
 1226 005e 2B46     		mov	r3, r5
 1227 0060 FFF7FEFF 		bl	chThdCreateStatic
 1228              	.LVL94:
 1229              		.loc 1 490 0
 1230 0064 3B69     		ldr	r3, [r7, #16]
 1231 0066 1E49     		ldr	r1, .L50+32
 1232              		.loc 1 489 0
 1233 0068 E060     		str	r0, [r4, #12]
 1234              		.loc 1 490 0
 1235 006a 721D     		adds	r2, r6, #5
 1236 006c 0091     		str	r1, [sp]
 1237 006e 1846     		mov	r0, r3
 1238 0070 4FF4E871 		mov	r1, #464
 1239 0074 2B46     		mov	r3, r5
 1240 0076 FFF7FEFF 		bl	chThdCreateStatic
 1241              	.LVL95:
 1242              	.LBB220:
 1243              	.LBB221:
 1244              	.LBB222:
 1245              	.LBB223:
 1246              		.loc 3 546 0
 1247 007a 2023     		movs	r3, #32
 1248              	.LBE223:
 1249              	.LBE222:
 1250              	.LBE221:
 1251              	.LBE220:
ARM GAS  /tmp/ccjxRoGC.s 			page 23


 1252              		.loc 1 490 0
 1253 007c 2061     		str	r0, [r4, #16]
 1254              	.LVL96:
 1255              	.LBB227:
 1256              	.LBB226:
 1257              	.LBB225:
 1258              	.LBB224:
 1259              		.loc 3 546 0
 1260              		.syntax unified
 1261              	@ 546 "../../os/ext/CMSIS/include/core_cmFunc.h" 1
 1262 007e 83F31188 		MSR basepri, r3
 1263              	@ 0 "" 2
 1264              		.thumb
 1265              		.syntax unified
 1266              	.LBE224:
 1267              	.LBE225:
 1268              	.LBE226:
 1269              	.LBE227:
 1270              		.loc 1 492 0
 1271 0082 184C     		ldr	r4, .L50+36
 1272 0084 2046     		mov	r0, r4
 1273 0086 FFF7FEFF 		bl	chCondSignalI
 1274              	.LVL97:
 1275              		.loc 1 493 0
 1276 008a 2046     		mov	r0, r4
 1277 008c FFF7FEFF 		bl	chCondSignalI
 1278              	.LVL98:
 1279              		.loc 1 494 0
 1280 0090 2046     		mov	r0, r4
 1281 0092 FFF7FEFF 		bl	chCondSignalI
 1282              	.LVL99:
 1283              		.loc 1 495 0
 1284 0096 2046     		mov	r0, r4
 1285 0098 FFF7FEFF 		bl	chCondSignalI
 1286              	.LVL100:
 1287              		.loc 1 496 0
 1288 009c 2046     		mov	r0, r4
 1289 009e FFF7FEFF 		bl	chCondSignalI
 1290              	.LVL101:
 1291              		.loc 1 497 0
 1292 00a2 FFF7FEFF 		bl	chSchRescheduleS
 1293              	.LVL102:
 1294              	.LBB228:
 1295              	.LBB229:
 1296              	.LBB230:
 1297              	.LBB231:
 1298              	.LBB232:
 1299              		.loc 3 546 0
 1300 00a6 0023     		movs	r3, #0
 1301              		.syntax unified
 1302              	@ 546 "../../os/ext/CMSIS/include/core_cmFunc.h" 1
 1303 00a8 83F31188 		MSR basepri, r3
 1304              	@ 0 "" 2
 1305              		.thumb
 1306              		.syntax unified
 1307              	.LBE232:
 1308              	.LBE231:
ARM GAS  /tmp/ccjxRoGC.s 			page 24


 1309              	.LBE230:
 1310              	.LBE229:
 1311              	.LBE228:
 1312              		.loc 1 499 0
 1313 00ac FFF7FEFF 		bl	test_wait_threads
 1314              	.LVL103:
 1315              		.loc 1 500 0
 1316 00b0 0D49     		ldr	r1, .L50+40
 1317 00b2 0120     		movs	r0, #1
 1318              		.loc 1 501 0
 1319 00b4 03B0     		add	sp, sp, #12
 1320              		.cfi_def_cfa_offset 20
 1321              		@ sp needed
 1322 00b6 BDE8F040 		pop	{r4, r5, r6, r7, lr}
 1323              		.cfi_restore 14
 1324              		.cfi_restore 7
 1325              		.cfi_restore 6
 1326              		.cfi_restore 5
 1327              		.cfi_restore 4
 1328              		.cfi_def_cfa_offset 0
 1329              		.loc 1 500 0
 1330 00ba FFF7FEBF 		b	_test_assert_sequence
 1331              	.LVL104:
 1332              	.L51:
 1333 00be 00BF     		.align	2
 1334              	.L50:
 1335 00c0 00000000 		.word	ch
 1336 00c4 00000000 		.word	wa
 1337 00c8 00000000 		.word	thread10
 1338 00cc 00000000 		.word	.LC0
 1339 00d0 00000000 		.word	threads
 1340 00d4 04000000 		.word	.LC1
 1341 00d8 08000000 		.word	.LC2
 1342 00dc 0C000000 		.word	.LC3
 1343 00e0 10000000 		.word	.LC4
 1344 00e4 00000000 		.word	.LANCHOR2
 1345 00e8 14000000 		.word	.LC5
 1346              		.cfi_endproc
 1347              	.LFE240:
 1348              		.size	mtx6_execute, .-mtx6_execute
 1349 00ec AFF30080 		.section	.text.thread10,"ax",%progbits
 1350              		.align	2
 1351              		.p2align 4,,15
 1352              		.thumb
 1353              		.thumb_func
 1354              		.type	thread10, %function
 1355              	thread10:
 1356              	.LFB239:
 1357              		.loc 1 475 0
 1358              		.cfi_startproc
 1359              		@ args = 0, pretend = 0, frame = 0
 1360              		@ frame_needed = 0, uses_anonymous_args = 0
 1361              	.LVL105:
 1362 0000 38B5     		push	{r3, r4, r5, lr}
 1363              		.cfi_def_cfa_offset 16
 1364              		.cfi_offset 3, -16
 1365              		.cfi_offset 4, -12
ARM GAS  /tmp/ccjxRoGC.s 			page 25


 1366              		.cfi_offset 5, -8
 1367              		.cfi_offset 14, -4
 1368              		.loc 1 477 0
 1369 0002 084C     		ldr	r4, .L54
 1370              		.loc 1 475 0
 1371 0004 0546     		mov	r5, r0
 1372              		.loc 1 477 0
 1373 0006 2046     		mov	r0, r4
 1374              	.LVL106:
 1375 0008 FFF7FEFF 		bl	chMtxLock
 1376              	.LVL107:
 1377              		.loc 1 478 0
 1378 000c 0648     		ldr	r0, .L54+4
 1379 000e FFF7FEFF 		bl	chCondWait
 1380              	.LVL108:
 1381              		.loc 1 479 0
 1382 0012 2878     		ldrb	r0, [r5]	@ zero_extendqisi2
 1383 0014 FFF7FEFF 		bl	test_emit_token
 1384              	.LVL109:
 1385              		.loc 1 480 0
 1386 0018 2046     		mov	r0, r4
 1387              		.loc 1 481 0
 1388 001a BDE83840 		pop	{r3, r4, r5, lr}
 1389              		.cfi_restore 14
 1390              		.cfi_restore 5
 1391              		.cfi_restore 4
 1392              		.cfi_restore 3
 1393              		.cfi_def_cfa_offset 0
 1394              	.LVL110:
 1395              		.loc 1 480 0
 1396 001e FFF7FEBF 		b	chMtxUnlock
 1397              	.LVL111:
 1398              	.L55:
 1399 0022 00BF     		.align	2
 1400              	.L54:
 1401 0024 00000000 		.word	.LANCHOR0
 1402 0028 00000000 		.word	.LANCHOR2
 1403              		.cfi_endproc
 1404              	.LFE239:
 1405              		.size	thread10, .-thread10
 1406 002c AFF30080 		.section	.text.mtx7_setup,"ax",%progbits
 1407              		.align	2
 1408              		.p2align 4,,15
 1409              		.thumb
 1410              		.thumb_func
 1411              		.type	mtx7_setup, %function
 1412              	mtx7_setup:
 1413              	.LFB241:
 1414              		.loc 1 520 0
 1415              		.cfi_startproc
 1416              		@ args = 0, pretend = 0, frame = 0
 1417              		@ frame_needed = 0, uses_anonymous_args = 0
 1418 0000 08B5     		push	{r3, lr}
 1419              		.cfi_def_cfa_offset 8
 1420              		.cfi_offset 3, -8
 1421              		.cfi_offset 14, -4
 1422              		.loc 1 522 0
ARM GAS  /tmp/ccjxRoGC.s 			page 26


 1423 0002 0448     		ldr	r0, .L58
 1424 0004 FFF7FEFF 		bl	chCondObjectInit
 1425              	.LVL112:
 1426              		.loc 1 523 0
 1427 0008 0348     		ldr	r0, .L58+4
 1428              		.loc 1 524 0
 1429 000a BDE80840 		pop	{r3, lr}
 1430              		.cfi_restore 14
 1431              		.cfi_restore 3
 1432              		.cfi_def_cfa_offset 0
 1433              		.loc 1 523 0
 1434 000e FFF7FEBF 		b	chMtxObjectInit
 1435              	.LVL113:
 1436              	.L59:
 1437 0012 00BF     		.align	2
 1438              	.L58:
 1439 0014 00000000 		.word	.LANCHOR2
 1440 0018 00000000 		.word	.LANCHOR0
 1441              		.cfi_endproc
 1442              	.LFE241:
 1443              		.size	mtx7_setup, .-mtx7_setup
 1444 001c AFF30080 		.section	.text.mtx6_setup,"ax",%progbits
 1445              		.align	2
 1446              		.p2align 4,,15
 1447              		.thumb
 1448              		.thumb_func
 1449              		.type	mtx6_setup, %function
 1450              	mtx6_setup:
 1451              	.LFB250:
 1452              		.cfi_startproc
 1453              		@ args = 0, pretend = 0, frame = 0
 1454              		@ frame_needed = 0, uses_anonymous_args = 0
 1455              		@ link register save eliminated.
 1456 0000 FFF7FEBF 		b	mtx7_setup
 1457              		.cfi_endproc
 1458              	.LFE250:
 1459              		.size	mtx6_setup, .-mtx6_setup
 1460 0004 AFF30080 		.section	.text.mtx8_setup,"ax",%progbits
 1460      AFF30080 
 1460      AFF30080 
 1461              		.align	2
 1462              		.p2align 4,,15
 1463              		.thumb
 1464              		.thumb_func
 1465              		.type	mtx8_setup, %function
 1466              	mtx8_setup:
 1467              	.LFB243:
 1468              		.loc 1 555 0
 1469              		.cfi_startproc
 1470              		@ args = 0, pretend = 0, frame = 0
 1471              		@ frame_needed = 0, uses_anonymous_args = 0
 1472              		.loc 1 555 0
 1473 0000 08B5     		push	{r3, lr}
 1474              		.cfi_def_cfa_offset 8
 1475              		.cfi_offset 3, -8
 1476              		.cfi_offset 14, -4
 1477              		.loc 1 557 0
ARM GAS  /tmp/ccjxRoGC.s 			page 27


 1478 0002 0548     		ldr	r0, .L63
 1479 0004 FFF7FEFF 		bl	chCondObjectInit
 1480              	.LVL114:
 1481              		.loc 1 558 0
 1482 0008 0448     		ldr	r0, .L63+4
 1483 000a FFF7FEFF 		bl	chMtxObjectInit
 1484              	.LVL115:
 1485              		.loc 1 559 0
 1486 000e 0448     		ldr	r0, .L63+8
 1487              		.loc 1 560 0
 1488 0010 BDE80840 		pop	{r3, lr}
 1489              		.cfi_restore 14
 1490              		.cfi_restore 3
 1491              		.cfi_def_cfa_offset 0
 1492              		.loc 1 559 0
 1493 0014 FFF7FEBF 		b	chMtxObjectInit
 1494              	.LVL116:
 1495              	.L64:
 1496              		.align	2
 1497              	.L63:
 1498 0018 00000000 		.word	.LANCHOR2
 1499 001c 00000000 		.word	.LANCHOR0
 1500 0020 00000000 		.word	.LANCHOR1
 1501              		.cfi_endproc
 1502              	.LFE243:
 1503              		.size	mtx8_setup, .-mtx8_setup
 1504 0024 AFF30080 		.section	.text.mtx7_execute,"ax",%progbits
 1504      AFF30080 
 1504      AFF30080 
 1505              		.align	2
 1506              		.p2align 4,,15
 1507              		.thumb
 1508              		.thumb_func
 1509              		.type	mtx7_execute, %function
 1510              	mtx7_execute:
 1511              	.LFB242:
 1512              		.loc 1 526 0
 1513              		.cfi_startproc
 1514              		@ args = 0, pretend = 0, frame = 0
 1515              		@ frame_needed = 0, uses_anonymous_args = 0
 1516 0000 F0B5     		push	{r4, r5, r6, r7, lr}
 1517              		.cfi_def_cfa_offset 20
 1518              		.cfi_offset 4, -20
 1519              		.cfi_offset 5, -16
 1520              		.cfi_offset 6, -12
 1521              		.cfi_offset 7, -8
 1522              		.cfi_offset 14, -4
 1523              	.LBB233:
 1524              	.LBB234:
 1525              	.LBB235:
 1526              	.LBB236:
 1527              		.loc 2 176 0
 1528 0002 244B     		ldr	r3, .L67
 1529              	.LBE236:
 1530              	.LBE235:
 1531              	.LBE234:
 1532              	.LBE233:
ARM GAS  /tmp/ccjxRoGC.s 			page 28


 1533              		.loc 1 529 0
 1534 0004 244F     		ldr	r7, .L67+4
 1535              	.LBB239:
 1536              	.LBB237:
 1537              		.loc 2 189 0
 1538 0006 9B69     		ldr	r3, [r3, #24]
 1539              	.LBE237:
 1540              	.LBE239:
 1541              		.loc 1 529 0
 1542 0008 244D     		ldr	r5, .L67+8
 1543              	.LBB240:
 1544              	.LBB238:
 1545              		.loc 2 189 0
 1546 000a 9E68     		ldr	r6, [r3, #8]
 1547              	.LBE238:
 1548              	.LBE240:
 1549              		.loc 1 529 0
 1550 000c 244B     		ldr	r3, .L67+12
 1551 000e 3868     		ldr	r0, [r7]
 1552 0010 244C     		ldr	r4, .L67+16
 1553              		.loc 1 526 0
 1554 0012 83B0     		sub	sp, sp, #12
 1555              		.cfi_def_cfa_offset 32
 1556              		.loc 1 529 0
 1557 0014 721C     		adds	r2, r6, #1
 1558 0016 0093     		str	r3, [sp]
 1559 0018 4FF4E871 		mov	r1, #464
 1560 001c 2B46     		mov	r3, r5
 1561 001e FFF7FEFF 		bl	chThdCreateStatic
 1562              	.LVL117:
 1563              		.loc 1 530 0
 1564 0022 7B68     		ldr	r3, [r7, #4]
 1565 0024 2049     		ldr	r1, .L67+20
 1566              		.loc 1 529 0
 1567 0026 2060     		str	r0, [r4]
 1568              		.loc 1 530 0
 1569 0028 B21C     		adds	r2, r6, #2
 1570 002a 0091     		str	r1, [sp]
 1571 002c 1846     		mov	r0, r3
 1572 002e 4FF4E871 		mov	r1, #464
 1573 0032 2B46     		mov	r3, r5
 1574 0034 FFF7FEFF 		bl	chThdCreateStatic
 1575              	.LVL118:
 1576              		.loc 1 531 0
 1577 0038 BB68     		ldr	r3, [r7, #8]
 1578 003a 1C49     		ldr	r1, .L67+24
 1579              		.loc 1 530 0
 1580 003c 6060     		str	r0, [r4, #4]
 1581              		.loc 1 531 0
 1582 003e F21C     		adds	r2, r6, #3
 1583 0040 0091     		str	r1, [sp]
 1584 0042 1846     		mov	r0, r3
 1585 0044 4FF4E871 		mov	r1, #464
 1586 0048 2B46     		mov	r3, r5
 1587 004a FFF7FEFF 		bl	chThdCreateStatic
 1588              	.LVL119:
 1589              		.loc 1 532 0
ARM GAS  /tmp/ccjxRoGC.s 			page 29


 1590 004e FB68     		ldr	r3, [r7, #12]
 1591 0050 1749     		ldr	r1, .L67+28
 1592              		.loc 1 531 0
 1593 0052 A060     		str	r0, [r4, #8]
 1594              		.loc 1 532 0
 1595 0054 321D     		adds	r2, r6, #4
 1596 0056 0091     		str	r1, [sp]
 1597 0058 1846     		mov	r0, r3
 1598 005a 4FF4E871 		mov	r1, #464
 1599 005e 2B46     		mov	r3, r5
 1600 0060 FFF7FEFF 		bl	chThdCreateStatic
 1601              	.LVL120:
 1602              		.loc 1 533 0
 1603 0064 3B69     		ldr	r3, [r7, #16]
 1604 0066 1349     		ldr	r1, .L67+32
 1605              		.loc 1 532 0
 1606 0068 E060     		str	r0, [r4, #12]
 1607              		.loc 1 533 0
 1608 006a 721D     		adds	r2, r6, #5
 1609 006c 0091     		str	r1, [sp]
 1610 006e 1846     		mov	r0, r3
 1611 0070 4FF4E871 		mov	r1, #464
 1612 0074 2B46     		mov	r3, r5
 1613 0076 FFF7FEFF 		bl	chThdCreateStatic
 1614              	.LVL121:
 1615 007a 2061     		str	r0, [r4, #16]
 1616              		.loc 1 534 0
 1617 007c 0E48     		ldr	r0, .L67+36
 1618 007e FFF7FEFF 		bl	chCondBroadcast
 1619              	.LVL122:
 1620              		.loc 1 535 0
 1621 0082 FFF7FEFF 		bl	test_wait_threads
 1622              	.LVL123:
 1623              		.loc 1 536 0
 1624 0086 0D49     		ldr	r1, .L67+40
 1625 0088 0120     		movs	r0, #1
 1626              		.loc 1 537 0
 1627 008a 03B0     		add	sp, sp, #12
 1628              		.cfi_def_cfa_offset 20
 1629              		@ sp needed
 1630 008c BDE8F040 		pop	{r4, r5, r6, r7, lr}
 1631              		.cfi_restore 14
 1632              		.cfi_restore 7
 1633              		.cfi_restore 6
 1634              		.cfi_restore 5
 1635              		.cfi_restore 4
 1636              		.cfi_def_cfa_offset 0
 1637              		.loc 1 536 0
 1638 0090 FFF7FEBF 		b	_test_assert_sequence
 1639              	.LVL124:
 1640              	.L68:
 1641              		.align	2
 1642              	.L67:
 1643 0094 00000000 		.word	ch
 1644 0098 00000000 		.word	wa
 1645 009c 00000000 		.word	thread10
 1646 00a0 00000000 		.word	.LC0
ARM GAS  /tmp/ccjxRoGC.s 			page 30


 1647 00a4 00000000 		.word	threads
 1648 00a8 04000000 		.word	.LC1
 1649 00ac 08000000 		.word	.LC2
 1650 00b0 0C000000 		.word	.LC3
 1651 00b4 10000000 		.word	.LC4
 1652 00b8 00000000 		.word	.LANCHOR2
 1653 00bc 14000000 		.word	.LC5
 1654              		.cfi_endproc
 1655              	.LFE242:
 1656              		.size	mtx7_execute, .-mtx7_execute
 1657              		.section	.text.mtx8_execute,"ax",%progbits
 1658              		.align	2
 1659              		.p2align 4,,15
 1660              		.thumb
 1661              		.thumb_func
 1662              		.type	mtx8_execute, %function
 1663              	mtx8_execute:
 1664              	.LFB246:
 1665              		.loc 1 583 0
 1666              		.cfi_startproc
 1667              		@ args = 0, pretend = 0, frame = 0
 1668              		@ frame_needed = 0, uses_anonymous_args = 0
 1669 0000 F0B5     		push	{r4, r5, r6, r7, lr}
 1670              		.cfi_def_cfa_offset 20
 1671              		.cfi_offset 4, -20
 1672              		.cfi_offset 5, -16
 1673              		.cfi_offset 6, -12
 1674              		.cfi_offset 7, -8
 1675              		.cfi_offset 14, -4
 1676              	.LBB241:
 1677              	.LBB242:
 1678              	.LBB243:
 1679              	.LBB244:
 1680              		.loc 2 176 0
 1681 0002 1B4B     		ldr	r3, .L71
 1682              	.LBE244:
 1683              	.LBE243:
 1684              	.LBE242:
 1685              	.LBE241:
 1686              		.loc 1 586 0
 1687 0004 1B4E     		ldr	r6, .L71+4
 1688              	.LBB247:
 1689              	.LBB245:
 1690              		.loc 2 189 0
 1691 0006 9B69     		ldr	r3, [r3, #24]
 1692              	.LBE245:
 1693              	.LBE247:
 1694              		.loc 1 586 0
 1695 0008 3068     		ldr	r0, [r6]
 1696              	.LBB248:
 1697              	.LBB246:
 1698              		.loc 2 189 0
 1699 000a 9D68     		ldr	r5, [r3, #8]
 1700              	.LBE246:
 1701              	.LBE248:
 1702              		.loc 1 586 0
 1703 000c 1A4B     		ldr	r3, .L71+8
ARM GAS  /tmp/ccjxRoGC.s 			page 31


 1704 000e 1B4C     		ldr	r4, .L71+12
 1705              		.loc 1 589 0
 1706 0010 1B4F     		ldr	r7, .L71+16
 1707              		.loc 1 583 0
 1708 0012 83B0     		sub	sp, sp, #12
 1709              		.cfi_def_cfa_offset 32
 1710              		.loc 1 586 0
 1711 0014 6A1C     		adds	r2, r5, #1
 1712 0016 0093     		str	r3, [sp]
 1713 0018 4FF4E871 		mov	r1, #464
 1714 001c 194B     		ldr	r3, .L71+20
 1715 001e FFF7FEFF 		bl	chThdCreateStatic
 1716              	.LVL125:
 1717              		.loc 1 587 0
 1718 0022 7168     		ldr	r1, [r6, #4]
 1719 0024 184B     		ldr	r3, .L71+24
 1720              		.loc 1 586 0
 1721 0026 2060     		str	r0, [r4]
 1722              		.loc 1 587 0
 1723 0028 AA1C     		adds	r2, r5, #2
 1724 002a 0093     		str	r3, [sp]
 1725 002c 0846     		mov	r0, r1
 1726 002e 174B     		ldr	r3, .L71+28
 1727 0030 4FF4E871 		mov	r1, #464
 1728 0034 FFF7FEFF 		bl	chThdCreateStatic
 1729              	.LVL126:
 1730              		.loc 1 588 0
 1731 0038 B168     		ldr	r1, [r6, #8]
 1732 003a 154B     		ldr	r3, .L71+32
 1733              		.loc 1 587 0
 1734 003c 6060     		str	r0, [r4, #4]
 1735              		.loc 1 588 0
 1736 003e EA1C     		adds	r2, r5, #3
 1737 0040 0093     		str	r3, [sp]
 1738 0042 0846     		mov	r0, r1
 1739 0044 134B     		ldr	r3, .L71+36
 1740 0046 4FF4E871 		mov	r1, #464
 1741 004a FFF7FEFF 		bl	chThdCreateStatic
 1742              	.LVL127:
 1743 004e A060     		str	r0, [r4, #8]
 1744              		.loc 1 589 0
 1745 0050 3846     		mov	r0, r7
 1746 0052 FFF7FEFF 		bl	chCondSignal
 1747              	.LVL128:
 1748              		.loc 1 590 0
 1749 0056 3846     		mov	r0, r7
 1750 0058 FFF7FEFF 		bl	chCondSignal
 1751              	.LVL129:
 1752              		.loc 1 591 0
 1753 005c FFF7FEFF 		bl	test_wait_threads
 1754              	.LVL130:
 1755              		.loc 1 592 0
 1756 0060 0D49     		ldr	r1, .L71+40
 1757 0062 0120     		movs	r0, #1
 1758              		.loc 1 593 0
 1759 0064 03B0     		add	sp, sp, #12
 1760              		.cfi_def_cfa_offset 20
ARM GAS  /tmp/ccjxRoGC.s 			page 32


 1761              		@ sp needed
 1762 0066 BDE8F040 		pop	{r4, r5, r6, r7, lr}
 1763              		.cfi_restore 14
 1764              		.cfi_restore 7
 1765              		.cfi_restore 6
 1766              		.cfi_restore 5
 1767              		.cfi_restore 4
 1768              		.cfi_def_cfa_offset 0
 1769              		.loc 1 592 0
 1770 006a FFF7FEBF 		b	_test_assert_sequence
 1771              	.LVL131:
 1772              	.L72:
 1773 006e 00BF     		.align	2
 1774              	.L71:
 1775 0070 00000000 		.word	ch
 1776 0074 00000000 		.word	wa
 1777 0078 10000000 		.word	.LC4
 1778 007c 00000000 		.word	threads
 1779 0080 00000000 		.word	.LANCHOR2
 1780 0084 00000000 		.word	thread11
 1781 0088 08000000 		.word	.LC2
 1782 008c 00000000 		.word	thread10
 1783 0090 0C000000 		.word	.LC3
 1784 0094 00000000 		.word	thread12
 1785 0098 1C000000 		.word	.LC6
 1786              		.cfi_endproc
 1787              	.LFE246:
 1788              		.size	mtx8_execute, .-mtx8_execute
 1789 009c AFF30080 		.section	.text.thread11,"ax",%progbits
 1790              		.align	2
 1791              		.p2align 4,,15
 1792              		.thumb
 1793              		.thumb_func
 1794              		.type	thread11, %function
 1795              	thread11:
 1796              	.LFB244:
 1797              		.loc 1 562 0
 1798              		.cfi_startproc
 1799              		@ args = 0, pretend = 0, frame = 0
 1800              		@ frame_needed = 0, uses_anonymous_args = 0
 1801              	.LVL132:
 1802 0000 70B5     		push	{r4, r5, r6, lr}
 1803              		.cfi_def_cfa_offset 16
 1804              		.cfi_offset 4, -16
 1805              		.cfi_offset 5, -12
 1806              		.cfi_offset 6, -8
 1807              		.cfi_offset 14, -4
 1808              		.loc 1 564 0
 1809 0002 0C4C     		ldr	r4, .L75
 1810              		.loc 1 565 0
 1811 0004 0C4D     		ldr	r5, .L75+4
 1812              		.loc 1 562 0
 1813 0006 0646     		mov	r6, r0
 1814              		.loc 1 564 0
 1815 0008 2046     		mov	r0, r4
 1816              	.LVL133:
 1817 000a FFF7FEFF 		bl	chMtxLock
ARM GAS  /tmp/ccjxRoGC.s 			page 33


 1818              	.LVL134:
 1819              		.loc 1 565 0
 1820 000e 2846     		mov	r0, r5
 1821 0010 FFF7FEFF 		bl	chMtxLock
 1822              	.LVL135:
 1823              		.loc 1 567 0
 1824 0014 4FF0FF31 		mov	r1, #-1
 1825 0018 0848     		ldr	r0, .L75+8
 1826 001a FFF7FEFF 		bl	chCondWaitTimeout
 1827              	.LVL136:
 1828              		.loc 1 571 0
 1829 001e 3078     		ldrb	r0, [r6]	@ zero_extendqisi2
 1830 0020 FFF7FEFF 		bl	test_emit_token
 1831              	.LVL137:
 1832              		.loc 1 572 0
 1833 0024 2846     		mov	r0, r5
 1834 0026 FFF7FEFF 		bl	chMtxUnlock
 1835              	.LVL138:
 1836              		.loc 1 573 0
 1837 002a 2046     		mov	r0, r4
 1838              		.loc 1 574 0
 1839 002c BDE87040 		pop	{r4, r5, r6, lr}
 1840              		.cfi_restore 14
 1841              		.cfi_restore 6
 1842              		.cfi_restore 5
 1843              		.cfi_restore 4
 1844              		.cfi_def_cfa_offset 0
 1845              	.LVL139:
 1846              		.loc 1 573 0
 1847 0030 FFF7FEBF 		b	chMtxUnlock
 1848              	.LVL140:
 1849              	.L76:
 1850              		.align	2
 1851              	.L75:
 1852 0034 00000000 		.word	.LANCHOR1
 1853 0038 00000000 		.word	.LANCHOR0
 1854 003c 00000000 		.word	.LANCHOR2
 1855              		.cfi_endproc
 1856              	.LFE244:
 1857              		.size	thread11, .-thread11
 1858              		.global	patternmtx
 1859              		.global	testmtx8
 1860              		.global	testmtx7
 1861              		.global	testmtx6
 1862              		.global	testmtx5
 1863              		.global	testmtx4
 1864              		.global	testmtx1
 1865              		.section	.rodata.testmtx5,"a",%progbits
 1866              		.align	2
 1867              		.type	testmtx5, %object
 1868              		.size	testmtx5, 16
 1869              	testmtx5:
 1870 0000 64000000 		.word	.LC10
 1871 0004 00000000 		.word	mtx5_setup
 1872 0008 00000000 		.word	0
 1873 000c 00000000 		.word	mtx5_execute
 1874              		.section	.rodata.testmtx6,"a",%progbits
ARM GAS  /tmp/ccjxRoGC.s 			page 34


 1875              		.align	2
 1876              		.type	testmtx6, %object
 1877              		.size	testmtx6, 16
 1878              	testmtx6:
 1879 0000 4C000000 		.word	.LC9
 1880 0004 00000000 		.word	mtx6_setup
 1881 0008 00000000 		.word	0
 1882 000c 00000000 		.word	mtx6_execute
 1883              		.section	.rodata.testmtx7,"a",%progbits
 1884              		.align	2
 1885              		.type	testmtx7, %object
 1886              		.size	testmtx7, 16
 1887              	testmtx7:
 1888 0000 34000000 		.word	.LC8
 1889 0004 00000000 		.word	mtx7_setup
 1890 0008 00000000 		.word	0
 1891 000c 00000000 		.word	mtx7_execute
 1892              		.section	.rodata.testmtx8,"a",%progbits
 1893              		.align	2
 1894              		.type	testmtx8, %object
 1895              		.size	testmtx8, 16
 1896              	testmtx8:
 1897 0000 20000000 		.word	.LC7
 1898 0004 00000000 		.word	mtx8_setup
 1899 0008 00000000 		.word	0
 1900 000c 00000000 		.word	mtx8_execute
 1901              		.section	.data.m1,"aw",%progbits
 1902              		.align	2
 1903              		.set	.LANCHOR0,. + 0
 1904              		.type	m1, %object
 1905              		.size	m1, 16
 1906              	m1:
 1907 0000 00000000 		.word	m1
 1908 0004 00000000 		.word	m1
 1909 0008 00000000 		.word	0
 1910 000c 00000000 		.word	0
 1911              		.section	.data.m2,"aw",%progbits
 1912              		.align	2
 1913              		.set	.LANCHOR1,. + 0
 1914              		.type	m2, %object
 1915              		.size	m2, 16
 1916              	m2:
 1917 0000 00000000 		.word	m2
 1918 0004 00000000 		.word	m2
 1919 0008 00000000 		.word	0
 1920 000c 00000000 		.word	0
 1921              		.section	.rodata.str1.4,"aMS",%progbits,1
 1922              		.align	2
 1923              	.LC0:
 1924 0000 4500     		.ascii	"E\000"
 1925 0002 0000     		.space	2
 1926              	.LC1:
 1927 0004 4400     		.ascii	"D\000"
 1928 0006 0000     		.space	2
 1929              	.LC2:
 1930 0008 4300     		.ascii	"C\000"
 1931 000a 0000     		.space	2
ARM GAS  /tmp/ccjxRoGC.s 			page 35


 1932              	.LC3:
 1933 000c 4200     		.ascii	"B\000"
 1934 000e 0000     		.space	2
 1935              	.LC4:
 1936 0010 4100     		.ascii	"A\000"
 1937 0012 0000     		.space	2
 1938              	.LC5:
 1939 0014 41424344 		.ascii	"ABCDE\000"
 1939      4500
 1940 001a 0000     		.space	2
 1941              	.LC6:
 1942 001c 41424300 		.ascii	"ABC\000"
 1943              	.LC7:
 1944 0020 436F6E64 		.ascii	"CondVar, boost test\000"
 1944      5661722C 
 1944      20626F6F 
 1944      73742074 
 1944      65737400 
 1945              	.LC8:
 1946 0034 436F6E64 		.ascii	"CondVar, broadcast test\000"
 1946      5661722C 
 1946      2062726F 
 1946      61646361 
 1946      73742074 
 1947              	.LC9:
 1948 004c 436F6E64 		.ascii	"CondVar, signal test\000"
 1948      5661722C 
 1948      20736967 
 1948      6E616C20 
 1948      74657374 
 1949 0061 000000   		.space	3
 1950              	.LC10:
 1951 0064 4D757465 		.ascii	"Mutexes, status\000"
 1951      7865732C 
 1951      20737461 
 1951      74757300 
 1952              	.LC11:
 1953 0074 4D757465 		.ascii	"Mutexes, priority return\000"
 1953      7865732C 
 1953      20707269 
 1953      6F726974 
 1953      79207265 
 1954 008d 000000   		.space	3
 1955              	.LC12:
 1956 0090 4D757465 		.ascii	"Mutexes, priority enqueuing test\000"
 1956      7865732C 
 1956      20707269 
 1956      6F726974 
 1956      7920656E 
 1957 00b1 000000   		.section	.rodata.patternmtx,"a",%progbits
 1958              		.align	2
 1959              		.type	patternmtx, %object
 1960              		.size	patternmtx, 28
 1961              	patternmtx:
 1962 0000 00000000 		.word	testmtx1
 1963 0004 00000000 		.word	testmtx4
 1964 0008 00000000 		.word	testmtx5
ARM GAS  /tmp/ccjxRoGC.s 			page 36


 1965 000c 00000000 		.word	testmtx6
 1966 0010 00000000 		.word	testmtx7
 1967 0014 00000000 		.word	testmtx8
 1968 0018 00000000 		.word	0
 1969              		.section	.data.c1,"aw",%progbits
 1970              		.align	2
 1971              		.set	.LANCHOR2,. + 0
 1972              		.type	c1, %object
 1973              		.size	c1, 8
 1974              	c1:
 1975 0000 00000000 		.word	c1
 1976 0004 00000000 		.word	c1
 1977              		.section	.rodata.testmtx1,"a",%progbits
 1978              		.align	2
 1979              		.type	testmtx1, %object
 1980              		.size	testmtx1, 16
 1981              	testmtx1:
 1982 0000 90000000 		.word	.LC12
 1983 0004 00000000 		.word	mtx1_setup
 1984 0008 00000000 		.word	0
 1985 000c 00000000 		.word	mtx1_execute
 1986              		.section	.rodata.testmtx4,"a",%progbits
 1987              		.align	2
 1988              		.type	testmtx4, %object
 1989              		.size	testmtx4, 16
 1990              	testmtx4:
 1991 0000 74000000 		.word	.LC11
 1992 0004 00000000 		.word	mtx4_setup
 1993 0008 00000000 		.word	0
 1994 000c 00000000 		.word	mtx4_execute
 1995              		.text
 1996              	.Letext0:
 1997              		.file 4 "/usr/lib/gcc/arm-none-eabi/5.2.0/include/stddef.h"
 1998              		.file 5 "/usr/arm-none-eabi/include/machine/_default_types.h"
 1999              		.file 6 "/usr/arm-none-eabi/include/stdint.h"
 2000              		.file 7 "../../os/rt/ports/ARMCMx/compilers/GCC/chtypes.h"
 2001              		.file 8 "../../os/rt/include/chsystypes.h"
 2002              		.file 9 "../../os/rt/include/chschd.h"
 2003              		.file 10 "../../os/rt/ports/ARMCMx/chcore.h"
 2004              		.file 11 "../../os/rt/ports/ARMCMx/chcore_v7m.h"
 2005              		.file 12 "../../os/rt/include/chtm.h"
 2006              		.file 13 "../../os/rt/include/chsem.h"
 2007              		.file 14 "../../os/rt/include/chmtx.h"
 2008              		.file 15 "../../os/rt/include/chcond.h"
 2009              		.file 16 "../../test/rt/test.h"
 2010              		.file 17 "../../os/rt/include/chsys.h"
 2011              		.file 18 "../../os/ext/CMSIS/include/core_cm4.h"