ARM GAS  /tmp/cciy8LS1.s 			page 1


   1              		.syntax unified
   2              		.cpu cortex-m4
   3              		.eabi_attribute 27, 1
   4              		.eabi_attribute 28, 1
   5              		.fpu fpv4-sp-d16
   6              		.eabi_attribute 20, 1
   7              		.eabi_attribute 21, 1
   8              		.eabi_attribute 23, 3
   9              		.eabi_attribute 24, 1
  10              		.eabi_attribute 25, 1
  11              		.eabi_attribute 26, 1
  12              		.eabi_attribute 30, 2
  13              		.eabi_attribute 34, 1
  14              		.eabi_attribute 18, 4
  15              		.thumb
  16              		.syntax unified
  17              		.file	"testheap.c"
  18              		.text
  19              	.Ltext0:
  20              		.cfi_sections	.debug_frame
  21              		.section	.text.heap1_execute,"ax",%progbits
  22              		.align	2
  23              		.p2align 4,,15
  24              		.thumb
  25              		.thumb_func
  26              		.type	heap1_execute, %function
  27              	heap1_execute:
  28              	.LFB230:
  29              		.file 1 "../../test/rt/testheap.c"
  30              		.loc 1 69 0
  31              		.cfi_startproc
  32              		@ args = 0, pretend = 0, frame = 8
  33              		@ frame_needed = 0, uses_anonymous_args = 0
  34 0000 70B5     		push	{r4, r5, r6, lr}
  35              		.cfi_def_cfa_offset 16
  36              		.cfi_offset 4, -16
  37              		.cfi_offset 5, -12
  38              		.cfi_offset 6, -8
  39              		.cfi_offset 14, -4
  40 0002 82B0     		sub	sp, sp, #8
  41              		.cfi_def_cfa_offset 24
  42              		.loc 1 74 0
  43 0004 FFF7FEFF 		bl	chCoreGetStatusX
  44              	.LVL0:
  45              		.loc 1 80 0
  46 0008 01A9     		add	r1, sp, #4
  47 000a 0020     		movs	r0, #0
  48 000c FFF7FEFF 		bl	chHeapStatus
  49              	.LVL1:
  50              		.loc 1 81 0
  51 0010 1021     		movs	r1, #16
  52 0012 0020     		movs	r0, #0
  53 0014 FFF7FEFF 		bl	chHeapAlloc
  54              	.LVL2:
  55              		.loc 1 82 0
  56 0018 011C     		adds	r1, r0, #0
  57 001a 0546     		mov	r5, r0
ARM GAS  /tmp/cciy8LS1.s 			page 2


  58 001c 18BF     		it	ne
  59 001e 0121     		movne	r1, #1
  60 0020 0120     		movs	r0, #1
  61              	.LVL3:
  62 0022 FFF7FEFF 		bl	_test_assert
  63              	.LVL4:
  64 0026 08B1     		cbz	r0, .L8
  65              	.LVL5:
  66              	.L1:
  67              		.loc 1 140 0
  68 0028 02B0     		add	sp, sp, #8
  69              		.cfi_remember_state
  70              		.cfi_def_cfa_offset 16
  71              		@ sp needed
  72 002a 70BD     		pop	{r4, r5, r6, pc}
  73              	.LVL6:
  74              	.L8:
  75              		.cfi_restore_state
  76 002c 0446     		mov	r4, r0
  77              		.loc 1 83 0
  78 002e 2846     		mov	r0, r5
  79 0030 FFF7FEFF 		bl	chHeapFree
  80              	.LVL7:
  81              		.loc 1 84 0
  82 0034 6FF0FF01 		mvn	r1, #255
  83 0038 2046     		mov	r0, r4
  84 003a FFF7FEFF 		bl	chHeapAlloc
  85              	.LVL8:
  86              		.loc 1 85 0
  87 003e B0FA80F1 		clz	r1, r0
  88 0042 4909     		lsrs	r1, r1, #5
  89 0044 0220     		movs	r0, #2
  90              	.LVL9:
  91 0046 FFF7FEFF 		bl	_test_assert
  92              	.LVL10:
  93 004a 0028     		cmp	r0, #0
  94 004c ECD1     		bne	.L1
  95              		.loc 1 88 0
  96 004e 01A9     		add	r1, sp, #4
  97 0050 7B48     		ldr	r0, .L9
  98 0052 FFF7FEFF 		bl	chHeapStatus
  99              	.LVL11:
 100              		.loc 1 91 0
 101 0056 1021     		movs	r1, #16
 102 0058 7948     		ldr	r0, .L9
 103 005a FFF7FEFF 		bl	chHeapAlloc
 104              	.LVL12:
 105              		.loc 1 92 0
 106 005e 1021     		movs	r1, #16
 107              		.loc 1 91 0
 108 0060 0646     		mov	r6, r0
 109              	.LVL13:
 110              		.loc 1 92 0
 111 0062 7748     		ldr	r0, .L9
 112              	.LVL14:
 113 0064 FFF7FEFF 		bl	chHeapAlloc
 114              	.LVL15:
ARM GAS  /tmp/cciy8LS1.s 			page 3


 115              		.loc 1 93 0
 116 0068 1021     		movs	r1, #16
 117              		.loc 1 92 0
 118 006a 0546     		mov	r5, r0
 119              	.LVL16:
 120              		.loc 1 93 0
 121 006c 7448     		ldr	r0, .L9
 122              	.LVL17:
 123 006e FFF7FEFF 		bl	chHeapAlloc
 124              	.LVL18:
 125 0072 0446     		mov	r4, r0
 126              	.LVL19:
 127              		.loc 1 94 0
 128 0074 3046     		mov	r0, r6
 129              	.LVL20:
 130 0076 FFF7FEFF 		bl	chHeapFree
 131              	.LVL21:
 132              		.loc 1 95 0
 133 007a 2846     		mov	r0, r5
 134 007c FFF7FEFF 		bl	chHeapFree
 135              	.LVL22:
 136              		.loc 1 96 0
 137 0080 2046     		mov	r0, r4
 138 0082 FFF7FEFF 		bl	chHeapFree
 139              	.LVL23:
 140              		.loc 1 97 0
 141 0086 6946     		mov	r1, sp
 142 0088 6D48     		ldr	r0, .L9
 143 008a FFF7FEFF 		bl	chHeapStatus
 144              	.LVL24:
 145 008e A0F10101 		sub	r1, r0, #1
 146 0092 B1FA81F1 		clz	r1, r1
 147 0096 4909     		lsrs	r1, r1, #5
 148 0098 0320     		movs	r0, #3
 149 009a FFF7FEFF 		bl	_test_assert
 150              	.LVL25:
 151 009e 0028     		cmp	r0, #0
 152 00a0 C2D1     		bne	.L1
 153              		.loc 1 100 0
 154 00a2 1021     		movs	r1, #16
 155 00a4 6648     		ldr	r0, .L9
 156 00a6 FFF7FEFF 		bl	chHeapAlloc
 157              	.LVL26:
 158              		.loc 1 101 0
 159 00aa 1021     		movs	r1, #16
 160              		.loc 1 100 0
 161 00ac 0446     		mov	r4, r0
 162              	.LVL27:
 163              		.loc 1 101 0
 164 00ae 6448     		ldr	r0, .L9
 165              	.LVL28:
 166 00b0 FFF7FEFF 		bl	chHeapAlloc
 167              	.LVL29:
 168              		.loc 1 102 0
 169 00b4 1021     		movs	r1, #16
 170              		.loc 1 101 0
 171 00b6 0546     		mov	r5, r0
ARM GAS  /tmp/cciy8LS1.s 			page 4


 172              	.LVL30:
 173              		.loc 1 102 0
 174 00b8 6148     		ldr	r0, .L9
 175              	.LVL31:
 176 00ba FFF7FEFF 		bl	chHeapAlloc
 177              	.LVL32:
 178              		.loc 1 103 0
 179 00be FFF7FEFF 		bl	chHeapFree
 180              	.LVL33:
 181              		.loc 1 104 0
 182 00c2 2846     		mov	r0, r5
 183 00c4 FFF7FEFF 		bl	chHeapFree
 184              	.LVL34:
 185              		.loc 1 105 0
 186 00c8 2046     		mov	r0, r4
 187 00ca FFF7FEFF 		bl	chHeapFree
 188              	.LVL35:
 189              		.loc 1 106 0
 190 00ce 6946     		mov	r1, sp
 191 00d0 5B48     		ldr	r0, .L9
 192 00d2 FFF7FEFF 		bl	chHeapStatus
 193              	.LVL36:
 194 00d6 A0F10101 		sub	r1, r0, #1
 195 00da B1FA81F1 		clz	r1, r1
 196 00de 4909     		lsrs	r1, r1, #5
 197 00e0 0420     		movs	r0, #4
 198 00e2 FFF7FEFF 		bl	_test_assert
 199              	.LVL37:
 200 00e6 0028     		cmp	r0, #0
 201 00e8 9ED1     		bne	.L1
 202              		.loc 1 109 0
 203 00ea 1121     		movs	r1, #17
 204 00ec 5448     		ldr	r0, .L9
 205 00ee FFF7FEFF 		bl	chHeapAlloc
 206              	.LVL38:
 207              		.loc 1 110 0
 208 00f2 1021     		movs	r1, #16
 209              		.loc 1 109 0
 210 00f4 0446     		mov	r4, r0
 211              	.LVL39:
 212              		.loc 1 110 0
 213 00f6 5248     		ldr	r0, .L9
 214              	.LVL40:
 215 00f8 FFF7FEFF 		bl	chHeapAlloc
 216              	.LVL41:
 217 00fc 0546     		mov	r5, r0
 218              	.LVL42:
 219              		.loc 1 111 0
 220 00fe 2046     		mov	r0, r4
 221              	.LVL43:
 222 0100 FFF7FEFF 		bl	chHeapFree
 223              	.LVL44:
 224              		.loc 1 112 0
 225 0104 6946     		mov	r1, sp
 226 0106 4E48     		ldr	r0, .L9
 227 0108 FFF7FEFF 		bl	chHeapStatus
 228              	.LVL45:
ARM GAS  /tmp/cciy8LS1.s 			page 5


 229 010c A0F10201 		sub	r1, r0, #2
 230 0110 B1FA81F1 		clz	r1, r1
 231 0114 4909     		lsrs	r1, r1, #5
 232 0116 0520     		movs	r0, #5
 233 0118 FFF7FEFF 		bl	_test_assert
 234              	.LVL46:
 235 011c 0028     		cmp	r0, #0
 236 011e 83D1     		bne	.L1
 237              		.loc 1 113 0
 238 0120 1021     		movs	r1, #16
 239 0122 4748     		ldr	r0, .L9
 240 0124 FFF7FEFF 		bl	chHeapAlloc
 241              	.LVL47:
 242              		.loc 1 116 0
 243 0128 6946     		mov	r1, sp
 244              		.loc 1 113 0
 245 012a 0446     		mov	r4, r0
 246              	.LVL48:
 247              		.loc 1 116 0
 248 012c 4448     		ldr	r0, .L9
 249              	.LVL49:
 250 012e FFF7FEFF 		bl	chHeapStatus
 251              	.LVL50:
 252 0132 0128     		cmp	r0, #1
 253 0134 00F08180 		beq	.L5
 254              		.loc 1 116 0 is_stmt 0 discriminator 2
 255 0138 6946     		mov	r1, sp
 256 013a 4148     		ldr	r0, .L9
 257 013c FFF7FEFF 		bl	chHeapStatus
 258              	.LVL51:
 259 0140 A0F10201 		sub	r1, r0, #2
 260 0144 B1FA81F1 		clz	r1, r1
 261 0148 4909     		lsrs	r1, r1, #5
 262              	.L3:
 263              		.loc 1 116 0 discriminator 6
 264 014a 0620     		movs	r0, #6
 265 014c FFF7FEFF 		bl	_test_assert
 266              	.LVL52:
 267 0150 0028     		cmp	r0, #0
 268 0152 7FF469AF 		bne	.L1
 269              		.loc 1 118 0 is_stmt 1
 270 0156 2846     		mov	r0, r5
 271 0158 FFF7FEFF 		bl	chHeapFree
 272              	.LVL53:
 273              		.loc 1 119 0
 274 015c 2046     		mov	r0, r4
 275 015e FFF7FEFF 		bl	chHeapFree
 276              	.LVL54:
 277              		.loc 1 120 0
 278 0162 6946     		mov	r1, sp
 279 0164 3648     		ldr	r0, .L9
 280 0166 FFF7FEFF 		bl	chHeapStatus
 281              	.LVL55:
 282 016a 461E     		subs	r6, r0, #1
 283 016c 7142     		rsbs	r1, r6, #0
 284 016e 7141     		adcs	r1, r1, r6
 285 0170 0720     		movs	r0, #7
ARM GAS  /tmp/cciy8LS1.s 			page 6


 286 0172 FFF7FEFF 		bl	_test_assert
 287              	.LVL56:
 288 0176 0028     		cmp	r0, #0
 289 0178 7FF456AF 		bne	.L1
 290              		.loc 1 123 0
 291 017c 1021     		movs	r1, #16
 292 017e 3048     		ldr	r0, .L9
 293 0180 FFF7FEFF 		bl	chHeapAlloc
 294              	.LVL57:
 295              		.loc 1 124 0
 296 0184 1021     		movs	r1, #16
 297              		.loc 1 123 0
 298 0186 0546     		mov	r5, r0
 299              	.LVL58:
 300              		.loc 1 124 0
 301 0188 2D48     		ldr	r0, .L9
 302              	.LVL59:
 303 018a FFF7FEFF 		bl	chHeapAlloc
 304              	.LVL60:
 305 018e 0446     		mov	r4, r0
 306              	.LVL61:
 307              		.loc 1 125 0
 308 0190 2846     		mov	r0, r5
 309              	.LVL62:
 310 0192 FFF7FEFF 		bl	chHeapFree
 311              	.LVL63:
 312              		.loc 1 126 0
 313 0196 6946     		mov	r1, sp
 314 0198 2948     		ldr	r0, .L9
 315 019a FFF7FEFF 		bl	chHeapStatus
 316              	.LVL64:
 317 019e 851E     		subs	r5, r0, #2
 318              	.LVL65:
 319 01a0 6942     		rsbs	r1, r5, #0
 320 01a2 6941     		adcs	r1, r1, r5
 321 01a4 0820     		movs	r0, #8
 322 01a6 FFF7FEFF 		bl	_test_assert
 323              	.LVL66:
 324 01aa 0028     		cmp	r0, #0
 325 01ac 7FF43CAF 		bne	.L1
 326              		.loc 1 127 0
 327 01b0 2021     		movs	r1, #32
 328 01b2 2348     		ldr	r0, .L9
 329 01b4 FFF7FEFF 		bl	chHeapAlloc
 330              	.LVL67:
 331              		.loc 1 128 0
 332 01b8 FFF7FEFF 		bl	chHeapFree
 333              	.LVL68:
 334              		.loc 1 129 0
 335 01bc 2046     		mov	r0, r4
 336 01be FFF7FEFF 		bl	chHeapFree
 337              	.LVL69:
 338              		.loc 1 130 0
 339 01c2 6946     		mov	r1, sp
 340 01c4 1E48     		ldr	r0, .L9
 341 01c6 FFF7FEFF 		bl	chHeapStatus
 342              	.LVL70:
ARM GAS  /tmp/cciy8LS1.s 			page 7


 343 01ca 0138     		subs	r0, r0, #1
 344 01cc 4142     		rsbs	r1, r0, #0
 345 01ce 4141     		adcs	r1, r1, r0
 346 01d0 0920     		movs	r0, #9
 347 01d2 FFF7FEFF 		bl	_test_assert
 348              	.LVL71:
 349 01d6 0028     		cmp	r0, #0
 350 01d8 7FF426AF 		bne	.L1
 351              		.loc 1 133 0
 352 01dc 6946     		mov	r1, sp
 353 01de 1848     		ldr	r0, .L9
 354 01e0 FFF7FEFF 		bl	chHeapStatus
 355              	.LVL72:
 356              		.loc 1 134 0
 357 01e4 0099     		ldr	r1, [sp]
 358 01e6 1648     		ldr	r0, .L9
 359 01e8 FFF7FEFF 		bl	chHeapAlloc
 360              	.LVL73:
 361              		.loc 1 135 0
 362 01ec 6946     		mov	r1, sp
 363              		.loc 1 134 0
 364 01ee 0446     		mov	r4, r0
 365              	.LVL74:
 366              		.loc 1 135 0
 367 01f0 1348     		ldr	r0, .L9
 368              	.LVL75:
 369 01f2 FFF7FEFF 		bl	chHeapStatus
 370              	.LVL76:
 371 01f6 B0FA80F1 		clz	r1, r0
 372 01fa 4909     		lsrs	r1, r1, #5
 373 01fc 0A20     		movs	r0, #10
 374 01fe FFF7FEFF 		bl	_test_assert
 375              	.LVL77:
 376 0202 0028     		cmp	r0, #0
 377 0204 7FF410AF 		bne	.L1
 378              		.loc 1 136 0
 379 0208 2046     		mov	r0, r4
 380 020a FFF7FEFF 		bl	chHeapFree
 381              	.LVL78:
 382              		.loc 1 138 0
 383 020e 6946     		mov	r1, sp
 384 0210 0B48     		ldr	r0, .L9
 385 0212 FFF7FEFF 		bl	chHeapStatus
 386              	.LVL79:
 387 0216 421E     		subs	r2, r0, #1
 388 0218 5142     		rsbs	r1, r2, #0
 389 021a 5141     		adcs	r1, r1, r2
 390 021c 0B20     		movs	r0, #11
 391 021e FFF7FEFF 		bl	_test_assert
 392              	.LVL80:
 393 0222 0028     		cmp	r0, #0
 394 0224 7FF400AF 		bne	.L1
 395              		.loc 1 139 0
 396 0228 9DE80A00 		ldmia	sp, {r1, r3}
 397 022c CB1A     		subs	r3, r1, r3
 398 022e 5942     		rsbs	r1, r3, #0
 399 0230 5941     		adcs	r1, r1, r3
ARM GAS  /tmp/cciy8LS1.s 			page 8


 400 0232 0C20     		movs	r0, #12
 401 0234 FFF7FEFF 		bl	_test_assert
 402              	.LVL81:
 403 0238 F6E6     		b	.L1
 404              	.LVL82:
 405              	.L5:
 406 023a 0146     		mov	r1, r0
 407 023c 85E7     		b	.L3
 408              	.L10:
 409 023e 00BF     		.align	2
 410              	.L9:
 411 0240 00000000 		.word	.LANCHOR0
 412              		.cfi_endproc
 413              	.LFE230:
 414              		.size	heap1_execute, .-heap1_execute
 415 0244 AFF30080 		.section	.text.heap1_setup,"ax",%progbits
 415      AFF30080 
 415      AFF30080 
 416              		.align	2
 417              		.p2align 4,,15
 418              		.thumb
 419              		.thumb_func
 420              		.type	heap1_setup, %function
 421              	heap1_setup:
 422              	.LFB229:
 423              		.loc 1 64 0
 424              		.cfi_startproc
 425              		@ args = 0, pretend = 0, frame = 0
 426              		@ frame_needed = 0, uses_anonymous_args = 0
 427              		@ link register save eliminated.
 428              		.loc 1 66 0
 429 0000 4FF41162 		mov	r2, #2320
 430 0004 0149     		ldr	r1, .L12
 431 0006 0248     		ldr	r0, .L12+4
 432 0008 FFF7FEBF 		b	chHeapObjectInit
 433              	.LVL83:
 434              	.L13:
 435              		.align	2
 436              	.L12:
 437 000c 00000000 		.word	test
 438 0010 00000000 		.word	.LANCHOR0
 439              		.cfi_endproc
 440              	.LFE229:
 441              		.size	heap1_setup, .-heap1_setup
 442              		.global	patternheap
 443              		.global	testheap1
 444 0014 AFF30080 		.section	.rodata.patternheap,"a",%progbits
 444      AFF30080 
 444      AFF30080 
 445              		.align	2
 446              		.type	patternheap, %object
 447              		.size	patternheap, 8
 448              	patternheap:
 449 0000 00000000 		.word	testheap1
 450 0004 00000000 		.word	0
 451              		.section	.rodata.str1.4,"aMS",%progbits,1
 452              		.align	2
ARM GAS  /tmp/cciy8LS1.s 			page 9


 453              	.LC0:
 454 0000 48656170 		.ascii	"Heap, allocation and fragmentation test\000"
 454      2C20616C 
 454      6C6F6361 
 454      74696F6E 
 454      20616E64 
 455              		.section	.rodata.testheap1,"a",%progbits
 456              		.align	2
 457              		.type	testheap1, %object
 458              		.size	testheap1, 16
 459              	testheap1:
 460 0000 00000000 		.word	.LC0
 461 0004 00000000 		.word	heap1_setup
 462 0008 00000000 		.word	0
 463 000c 00000000 		.word	heap1_execute
 464              		.section	.bss.test_heap,"aw",%nobits
 465              		.align	3
 466              		.set	.LANCHOR0,. + 0
 467              		.type	test_heap, %object
 468              		.size	test_heap, 32
 469              	test_heap:
 470 0000 00000000 		.space	32
 470      00000000 
 470      00000000 
 470      00000000 
 470      00000000 
 471              		.text
 472              	.Letext0:
 473              		.file 2 "/usr/lib/gcc/arm-none-eabi/5.2.0/include/stddef.h"
 474              		.file 3 "/usr/arm-none-eabi/include/machine/_default_types.h"
 475              		.file 4 "/usr/arm-none-eabi/include/stdint.h"
 476              		.file 5 "../../os/rt/ports/ARMCMx/compilers/GCC/chtypes.h"
 477              		.file 6 "../../os/rt/include/chsystypes.h"
 478              		.file 7 "../../os/rt/include/chschd.h"
 479              		.file 8 "../../os/rt/ports/ARMCMx/chcore.h"
 480              		.file 9 "../../os/rt/ports/ARMCMx/chcore_v7m.h"
 481              		.file 10 "../../os/rt/include/chtm.h"
 482              		.file 11 "../../os/rt/include/chsem.h"
 483              		.file 12 "../../os/rt/include/chmtx.h"
 484              		.file 13 "../../os/rt/include/chmemcore.h"
 485              		.file 14 "../../os/rt/include/chheap.h"
 486              		.file 15 "../../test/rt/test.h"
 487              		.file 16 "../../os/ext/CMSIS/include/core_cm4.h"
 488              		.section	.debug_info,"",%progbits
 489              	.Ldebug_info0:
 490 0000 DF0E0000 		.4byte	0xedf
 491 0004 0400     		.2byte	0x4
 492 0006 00000000 		.4byte	.Ldebug_abbrev0
 493 000a 04       		.byte	0x4
 494 000b 01       		.uleb128 0x1
 495 000c 82020000 		.4byte	.LASF134
 496 0010 0C       		.byte	0xc
 497 0011 55060000 		.4byte	.LASF135
 498 0015 6A030000 		.4byte	.LASF136
 499 0019 00000000 		.4byte	.Ldebug_ranges0+0
 500 001d 00000000 		.4byte	0
 501 0021 00000000 		.4byte	.Ldebug_line0
ARM GAS  /tmp/cciy8LS1.s 			page 10


 502 0025 02       		.uleb128 0x2
 503 0026 04       		.byte	0x4
 504 0027 05       		.byte	0x5
 505 0028 696E7400 		.ascii	"int\000"
 506 002c 03       		.uleb128 0x3
 507 002d 0D000000 		.4byte	.LASF4
 508 0031 02       		.byte	0x2
 509 0032 D8       		.byte	0xd8
 510 0033 37000000 		.4byte	0x37
 511 0037 04       		.uleb128 0x4
 512 0038 04       		.byte	0x4
 513 0039 07       		.byte	0x7
 514 003a B2010000 		.4byte	.LASF0
 515 003e 04       		.uleb128 0x4
 516 003f 08       		.byte	0x8
 517 0040 05       		.byte	0x5
 518 0041 D6000000 		.4byte	.LASF1
 519 0045 04       		.uleb128 0x4
 520 0046 08       		.byte	0x8
 521 0047 04       		.byte	0x4
 522 0048 E0030000 		.4byte	.LASF2
 523 004c 04       		.uleb128 0x4
 524 004d 01       		.byte	0x1
 525 004e 06       		.byte	0x6
 526 004f E4000000 		.4byte	.LASF3
 527 0053 03       		.uleb128 0x3
 528 0054 24000000 		.4byte	.LASF5
 529 0058 03       		.byte	0x3
 530 0059 1D       		.byte	0x1d
 531 005a 5E000000 		.4byte	0x5e
 532 005e 04       		.uleb128 0x4
 533 005f 01       		.byte	0x1
 534 0060 08       		.byte	0x8
 535 0061 8D040000 		.4byte	.LASF6
 536 0065 04       		.uleb128 0x4
 537 0066 02       		.byte	0x2
 538 0067 05       		.byte	0x5
 539 0068 B1040000 		.4byte	.LASF7
 540 006c 04       		.uleb128 0x4
 541 006d 02       		.byte	0x2
 542 006e 07       		.byte	0x7
 543 006f F6010000 		.4byte	.LASF8
 544 0073 03       		.uleb128 0x3
 545 0074 52020000 		.4byte	.LASF9
 546 0078 03       		.byte	0x3
 547 0079 3F       		.byte	0x3f
 548 007a 7E000000 		.4byte	0x7e
 549 007e 04       		.uleb128 0x4
 550 007f 04       		.byte	0x4
 551 0080 05       		.byte	0x5
 552 0081 39010000 		.4byte	.LASF10
 553 0085 03       		.uleb128 0x3
 554 0086 9C050000 		.4byte	.LASF11
 555 008a 03       		.byte	0x3
 556 008b 41       		.byte	0x41
 557 008c 90000000 		.4byte	0x90
 558 0090 04       		.uleb128 0x4
ARM GAS  /tmp/cciy8LS1.s 			page 11


 559 0091 04       		.byte	0x4
 560 0092 07       		.byte	0x7
 561 0093 4A050000 		.4byte	.LASF12
 562 0097 03       		.uleb128 0x3
 563 0098 2F040000 		.4byte	.LASF13
 564 009c 03       		.byte	0x3
 565 009d 5B       		.byte	0x5b
 566 009e A2000000 		.4byte	0xa2
 567 00a2 04       		.uleb128 0x4
 568 00a3 08       		.byte	0x8
 569 00a4 07       		.byte	0x7
 570 00a5 56000000 		.4byte	.LASF14
 571 00a9 03       		.uleb128 0x3
 572 00aa 03060000 		.4byte	.LASF15
 573 00ae 04       		.byte	0x4
 574 00af 15       		.byte	0x15
 575 00b0 53000000 		.4byte	0x53
 576 00b4 03       		.uleb128 0x3
 577 00b5 85040000 		.4byte	.LASF16
 578 00b9 04       		.byte	0x4
 579 00ba 2C       		.byte	0x2c
 580 00bb 73000000 		.4byte	0x73
 581 00bf 03       		.uleb128 0x3
 582 00c0 1D050000 		.4byte	.LASF17
 583 00c4 04       		.byte	0x4
 584 00c5 2D       		.byte	0x2d
 585 00c6 85000000 		.4byte	0x85
 586 00ca 03       		.uleb128 0x3
 587 00cb 1B000000 		.4byte	.LASF18
 588 00cf 04       		.byte	0x4
 589 00d0 39       		.byte	0x39
 590 00d1 97000000 		.4byte	0x97
 591 00d5 05       		.uleb128 0x5
 592 00d6 B4000000 		.4byte	0xb4
 593 00da 03       		.uleb128 0x3
 594 00db D1050000 		.4byte	.LASF19
 595 00df 05       		.byte	0x5
 596 00e0 45       		.byte	0x45
 597 00e1 BF000000 		.4byte	0xbf
 598 00e5 03       		.uleb128 0x3
 599 00e6 30020000 		.4byte	.LASF20
 600 00ea 05       		.byte	0x5
 601 00eb 48       		.byte	0x48
 602 00ec A9000000 		.4byte	0xa9
 603 00f0 03       		.uleb128 0x3
 604 00f1 42010000 		.4byte	.LASF21
 605 00f5 05       		.byte	0x5
 606 00f6 49       		.byte	0x49
 607 00f7 A9000000 		.4byte	0xa9
 608 00fb 03       		.uleb128 0x3
 609 00fc 3A040000 		.4byte	.LASF22
 610 0100 05       		.byte	0x5
 611 0101 4A       		.byte	0x4a
 612 0102 A9000000 		.4byte	0xa9
 613 0106 03       		.uleb128 0x3
 614 0107 61040000 		.4byte	.LASF23
 615 010b 05       		.byte	0x5
ARM GAS  /tmp/cciy8LS1.s 			page 12


 616 010c 4C       		.byte	0x4c
 617 010d BF000000 		.4byte	0xbf
 618 0111 03       		.uleb128 0x3
 619 0112 1E020000 		.4byte	.LASF24
 620 0116 05       		.byte	0x5
 621 0117 4D       		.byte	0x4d
 622 0118 B4000000 		.4byte	0xb4
 623 011c 03       		.uleb128 0x3
 624 011d 46020000 		.4byte	.LASF25
 625 0121 05       		.byte	0x5
 626 0122 4F       		.byte	0x4f
 627 0123 BF000000 		.4byte	0xbf
 628 0127 03       		.uleb128 0x3
 629 0128 AC010000 		.4byte	.LASF26
 630 012c 05       		.byte	0x5
 631 012d 51       		.byte	0x51
 632 012e B4000000 		.4byte	0xb4
 633 0132 03       		.uleb128 0x3
 634 0133 7E050000 		.4byte	.LASF27
 635 0137 06       		.byte	0x6
 636 0138 33       		.byte	0x33
 637 0139 BF000000 		.4byte	0xbf
 638 013d 03       		.uleb128 0x3
 639 013e 61050000 		.4byte	.LASF28
 640 0142 06       		.byte	0x6
 641 0143 3F       		.byte	0x3f
 642 0144 48010000 		.4byte	0x148
 643 0148 06       		.uleb128 0x6
 644 0149 09020000 		.4byte	.LASF48
 645 014d 44       		.byte	0x44
 646 014e 07       		.byte	0x7
 647 014f C2       		.byte	0xc2
 648 0150 35020000 		.4byte	0x235
 649 0154 07       		.uleb128 0x7
 650 0155 D1040000 		.4byte	.LASF29
 651 0159 07       		.byte	0x7
 652 015a C3       		.byte	0xc3
 653 015b 40020000 		.4byte	0x240
 654 015f 00       		.byte	0
 655 0160 07       		.uleb128 0x7
 656 0161 52040000 		.4byte	.LASF30
 657 0165 07       		.byte	0x7
 658 0166 C5       		.byte	0xc5
 659 0167 40020000 		.4byte	0x240
 660 016b 04       		.byte	0x4
 661 016c 07       		.uleb128 0x7
 662 016d BB000000 		.4byte	.LASF31
 663 0171 07       		.byte	0x7
 664 0172 C7       		.byte	0xc7
 665 0173 06010000 		.4byte	0x106
 666 0177 08       		.byte	0x8
 667 0178 07       		.uleb128 0x7
 668 0179 76060000 		.4byte	.LASF32
 669 017d 07       		.byte	0x7
 670 017e C8       		.byte	0xc8
 671 017f 70040000 		.4byte	0x470
 672 0183 0C       		.byte	0xc
ARM GAS  /tmp/cciy8LS1.s 			page 13


 673 0184 07       		.uleb128 0x7
 674 0185 60010000 		.4byte	.LASF33
 675 0189 07       		.byte	0x7
 676 018a CA       		.byte	0xca
 677 018b 40020000 		.4byte	0x240
 678 018f 10       		.byte	0x10
 679 0190 07       		.uleb128 0x7
 680 0191 F8030000 		.4byte	.LASF34
 681 0195 07       		.byte	0x7
 682 0196 CB       		.byte	0xcb
 683 0197 40020000 		.4byte	0x240
 684 019b 14       		.byte	0x14
 685 019c 07       		.uleb128 0x7
 686 019d 27060000 		.4byte	.LASF35
 687 01a1 07       		.byte	0x7
 688 01a2 D2       		.byte	0xd2
 689 01a3 B5060000 		.4byte	0x6b5
 690 01a7 18       		.byte	0x18
 691 01a8 07       		.uleb128 0x7
 692 01a9 BB040000 		.4byte	.LASF36
 693 01ad 07       		.byte	0x7
 694 01ae DD       		.byte	0xdd
 695 01af F0000000 		.4byte	0xf0
 696 01b3 1C       		.byte	0x1c
 697 01b4 07       		.uleb128 0x7
 698 01b5 D8040000 		.4byte	.LASF37
 699 01b9 07       		.byte	0x7
 700 01ba E1       		.byte	0xe1
 701 01bb E5000000 		.4byte	0xe5
 702 01bf 1D       		.byte	0x1d
 703 01c0 07       		.uleb128 0x7
 704 01c1 F6050000 		.4byte	.LASF38
 705 01c5 07       		.byte	0x7
 706 01c6 E6       		.byte	0xe6
 707 01c7 FB000000 		.4byte	0xfb
 708 01cb 1E       		.byte	0x1e
 709 01cc 08       		.uleb128 0x8
 710 01cd 705F7500 		.ascii	"p_u\000"
 711 01d1 07       		.byte	0x7
 712 01d2 3101     		.2byte	0x131
 713 01d4 F0050000 		.4byte	0x5f0
 714 01d8 20       		.byte	0x20
 715 01d9 09       		.uleb128 0x9
 716 01da 60030000 		.4byte	.LASF39
 717 01de 07       		.byte	0x7
 718 01df 3601     		.2byte	0x136
 719 01e1 46020000 		.4byte	0x246
 720 01e5 24       		.byte	0x24
 721 01e6 09       		.uleb128 0x9
 722 01e7 D7010000 		.4byte	.LASF40
 723 01eb 07       		.byte	0x7
 724 01ec 3C01     		.2byte	0x13c
 725 01ee 6A020000 		.4byte	0x26a
 726 01f2 28       		.byte	0x28
 727 01f3 09       		.uleb128 0x9
 728 01f4 4F060000 		.4byte	.LASF41
 729 01f8 07       		.byte	0x7
ARM GAS  /tmp/cciy8LS1.s 			page 14


 730 01f9 4001     		.2byte	0x140
 731 01fb 11010000 		.4byte	0x111
 732 01ff 30       		.byte	0x30
 733 0200 09       		.uleb128 0x9
 734 0201 12050000 		.4byte	.LASF42
 735 0205 07       		.byte	0x7
 736 0206 4601     		.2byte	0x146
 737 0208 1C010000 		.4byte	0x11c
 738 020c 34       		.byte	0x34
 739 020d 09       		.uleb128 0x9
 740 020e A7040000 		.4byte	.LASF43
 741 0212 07       		.byte	0x7
 742 0213 4D01     		.2byte	0x14d
 743 0215 AF060000 		.4byte	0x6af
 744 0219 38       		.byte	0x38
 745 021a 09       		.uleb128 0x9
 746 021b 88050000 		.4byte	.LASF44
 747 021f 07       		.byte	0x7
 748 0220 5101     		.2byte	0x151
 749 0222 06010000 		.4byte	0x106
 750 0226 3C       		.byte	0x3c
 751 0227 09       		.uleb128 0x9
 752 0228 F6000000 		.4byte	.LASF45
 753 022c 07       		.byte	0x7
 754 022d 5801     		.2byte	0x158
 755 022f 1D030000 		.4byte	0x31d
 756 0233 40       		.byte	0x40
 757 0234 00       		.byte	0
 758 0235 03       		.uleb128 0x3
 759 0236 B6030000 		.4byte	.LASF46
 760 023a 06       		.byte	0x6
 761 023b 44       		.byte	0x44
 762 023c 40020000 		.4byte	0x240
 763 0240 0A       		.uleb128 0xa
 764 0241 04       		.byte	0x4
 765 0242 3D010000 		.4byte	0x13d
 766 0246 03       		.uleb128 0x3
 767 0247 40060000 		.4byte	.LASF47
 768 024b 06       		.byte	0x6
 769 024c 49       		.byte	0x49
 770 024d 51020000 		.4byte	0x251
 771 0251 06       		.uleb128 0x6
 772 0252 35050000 		.4byte	.LASF49
 773 0256 04       		.byte	0x4
 774 0257 07       		.byte	0x7
 775 0258 B0       		.byte	0xb0
 776 0259 6A020000 		.4byte	0x26a
 777 025d 07       		.uleb128 0x7
 778 025e D1040000 		.4byte	.LASF29
 779 0262 07       		.byte	0x7
 780 0263 B1       		.byte	0xb1
 781 0264 40020000 		.4byte	0x240
 782 0268 00       		.byte	0
 783 0269 00       		.byte	0
 784 026a 03       		.uleb128 0x3
 785 026b E0040000 		.4byte	.LASF50
 786 026f 06       		.byte	0x6
ARM GAS  /tmp/cciy8LS1.s 			page 15


 787 0270 50       		.byte	0x50
 788 0271 75020000 		.4byte	0x275
 789 0275 06       		.uleb128 0x6
 790 0276 AA000000 		.4byte	.LASF51
 791 027a 08       		.byte	0x8
 792 027b 07       		.byte	0x7
 793 027c B7       		.byte	0xb7
 794 027d 9A020000 		.4byte	0x29a
 795 0281 07       		.uleb128 0x7
 796 0282 D1040000 		.4byte	.LASF29
 797 0286 07       		.byte	0x7
 798 0287 B8       		.byte	0xb8
 799 0288 40020000 		.4byte	0x240
 800 028c 00       		.byte	0
 801 028d 07       		.uleb128 0x7
 802 028e 52040000 		.4byte	.LASF30
 803 0292 07       		.byte	0x7
 804 0293 B9       		.byte	0xb9
 805 0294 40020000 		.4byte	0x240
 806 0298 04       		.byte	0x4
 807 0299 00       		.byte	0
 808 029a 03       		.uleb128 0x3
 809 029b 00000000 		.4byte	.LASF52
 810 029f 06       		.byte	0x6
 811 02a0 57       		.byte	0x57
 812 02a1 A5020000 		.4byte	0x2a5
 813 02a5 0B       		.uleb128 0xb
 814 02a6 38020000 		.4byte	.LASF53
 815 02aa 1C       		.byte	0x1c
 816 02ab 07       		.byte	0x7
 817 02ac 9001     		.2byte	0x190
 818 02ae 01030000 		.4byte	0x301
 819 02b2 09       		.uleb128 0x9
 820 02b3 2D050000 		.4byte	.LASF54
 821 02b7 07       		.byte	0x7
 822 02b8 9101     		.2byte	0x191
 823 02ba 6A020000 		.4byte	0x26a
 824 02be 00       		.byte	0
 825 02bf 09       		.uleb128 0x9
 826 02c0 C3040000 		.4byte	.LASF55
 827 02c4 07       		.byte	0x7
 828 02c5 9201     		.2byte	0x192
 829 02c7 06010000 		.4byte	0x106
 830 02cb 08       		.byte	0x8
 831 02cc 09       		.uleb128 0x9
 832 02cd 00040000 		.4byte	.LASF56
 833 02d1 07       		.byte	0x7
 834 02d2 9401     		.2byte	0x194
 835 02d4 70040000 		.4byte	0x470
 836 02d8 0C       		.byte	0xc
 837 02d9 09       		.uleb128 0x9
 838 02da 70010000 		.4byte	.LASF57
 839 02de 07       		.byte	0x7
 840 02df 9701     		.2byte	0x197
 841 02e1 40020000 		.4byte	0x240
 842 02e5 10       		.byte	0x10
 843 02e6 09       		.uleb128 0x9
ARM GAS  /tmp/cciy8LS1.s 			page 16


 844 02e7 27040000 		.4byte	.LASF58
 845 02eb 07       		.byte	0x7
 846 02ec 9801     		.2byte	0x198
 847 02ee 40020000 		.4byte	0x240
 848 02f2 14       		.byte	0x14
 849 02f3 09       		.uleb128 0x9
 850 02f4 1D040000 		.4byte	.LASF59
 851 02f8 07       		.byte	0x7
 852 02f9 9B01     		.2byte	0x19b
 853 02fb 40020000 		.4byte	0x240
 854 02ff 18       		.byte	0x18
 855 0300 00       		.byte	0
 856 0301 03       		.uleb128 0x3
 857 0302 93050000 		.4byte	.LASF60
 858 0306 06       		.byte	0x6
 859 0307 5C       		.byte	0x5c
 860 0308 0C030000 		.4byte	0x30c
 861 030c 0A       		.uleb128 0xa
 862 030d 04       		.byte	0x4
 863 030e 12030000 		.4byte	0x312
 864 0312 0C       		.uleb128 0xc
 865 0313 1D030000 		.4byte	0x31d
 866 0317 0D       		.uleb128 0xd
 867 0318 1D030000 		.4byte	0x31d
 868 031c 00       		.byte	0
 869 031d 0E       		.uleb128 0xe
 870 031e 04       		.byte	0x4
 871 031f 03       		.uleb128 0x3
 872 0320 42040000 		.4byte	.LASF61
 873 0324 06       		.byte	0x6
 874 0325 61       		.byte	0x61
 875 0326 2A030000 		.4byte	0x32a
 876 032a 0B       		.uleb128 0xb
 877 032b C0050000 		.4byte	.LASF62
 878 032f 14       		.byte	0x14
 879 0330 07       		.byte	0x7
 880 0331 6B01     		.2byte	0x16b
 881 0333 79030000 		.4byte	0x379
 882 0337 09       		.uleb128 0x9
 883 0338 BF010000 		.4byte	.LASF63
 884 033c 07       		.byte	0x7
 885 033d 6C01     		.2byte	0x16c
 886 033f C7060000 		.4byte	0x6c7
 887 0343 00       		.byte	0
 888 0344 09       		.uleb128 0x9
 889 0345 81010000 		.4byte	.LASF64
 890 0349 07       		.byte	0x7
 891 034a 6D01     		.2byte	0x16d
 892 034c C7060000 		.4byte	0x6c7
 893 0350 04       		.byte	0x4
 894 0351 09       		.uleb128 0x9
 895 0352 CE010000 		.4byte	.LASF65
 896 0356 07       		.byte	0x7
 897 0357 6E01     		.2byte	0x16e
 898 0359 32010000 		.4byte	0x132
 899 035d 08       		.byte	0x8
 900 035e 09       		.uleb128 0x9
ARM GAS  /tmp/cciy8LS1.s 			page 17


 901 035f 7C060000 		.4byte	.LASF66
 902 0363 07       		.byte	0x7
 903 0364 6F01     		.2byte	0x16f
 904 0366 01030000 		.4byte	0x301
 905 036a 0C       		.byte	0xc
 906 036b 09       		.uleb128 0x9
 907 036c D9050000 		.4byte	.LASF67
 908 0370 07       		.byte	0x7
 909 0371 7101     		.2byte	0x171
 910 0373 1D030000 		.4byte	0x31d
 911 0377 10       		.byte	0x10
 912 0378 00       		.byte	0
 913 0379 03       		.uleb128 0x3
 914 037a 82000000 		.4byte	.LASF68
 915 037e 06       		.byte	0x6
 916 037f 66       		.byte	0x66
 917 0380 84030000 		.4byte	0x384
 918 0384 0B       		.uleb128 0xb
 919 0385 C9030000 		.4byte	.LASF69
 920 0389 10       		.byte	0x10
 921 038a 07       		.byte	0x7
 922 038b 7B01     		.2byte	0x17b
 923 038d C6030000 		.4byte	0x3c6
 924 0391 09       		.uleb128 0x9
 925 0392 BF010000 		.4byte	.LASF63
 926 0396 07       		.byte	0x7
 927 0397 7C01     		.2byte	0x17c
 928 0399 C7060000 		.4byte	0x6c7
 929 039d 00       		.byte	0
 930 039e 09       		.uleb128 0x9
 931 039f 81010000 		.4byte	.LASF64
 932 03a3 07       		.byte	0x7
 933 03a4 7E01     		.2byte	0x17e
 934 03a6 C7060000 		.4byte	0x6c7
 935 03aa 04       		.byte	0x4
 936 03ab 09       		.uleb128 0x9
 937 03ac CE010000 		.4byte	.LASF65
 938 03b0 07       		.byte	0x7
 939 03b1 8001     		.2byte	0x180
 940 03b3 32010000 		.4byte	0x132
 941 03b7 08       		.byte	0x8
 942 03b8 09       		.uleb128 0x9
 943 03b9 EC030000 		.4byte	.LASF70
 944 03bd 07       		.byte	0x7
 945 03be 8801     		.2byte	0x188
 946 03c0 32010000 		.4byte	0x132
 947 03c4 0C       		.byte	0xc
 948 03c5 00       		.byte	0
 949 03c6 03       		.uleb128 0x3
 950 03c7 3A000000 		.4byte	.LASF71
 951 03cb 06       		.byte	0x6
 952 03cc 6B       		.byte	0x6b
 953 03cd D1030000 		.4byte	0x3d1
 954 03d1 0B       		.uleb128 0xb
 955 03d2 75040000 		.4byte	.LASF72
 956 03d6 04       		.byte	0x4
 957 03d7 07       		.byte	0x7
ARM GAS  /tmp/cciy8LS1.s 			page 18


 958 03d8 A201     		.2byte	0x1a2
 959 03da EC030000 		.4byte	0x3ec
 960 03de 09       		.uleb128 0x9
 961 03df A7050000 		.4byte	.LASF73
 962 03e3 07       		.byte	0x7
 963 03e4 AA01     		.2byte	0x1aa
 964 03e6 CD060000 		.4byte	0x6cd
 965 03ea 00       		.byte	0
 966 03eb 00       		.byte	0
 967 03ec 03       		.uleb128 0x3
 968 03ed 24020000 		.4byte	.LASF74
 969 03f1 06       		.byte	0x6
 970 03f2 70       		.byte	0x70
 971 03f3 F7030000 		.4byte	0x3f7
 972 03f7 0F       		.uleb128 0xf
 973 03f8 2F010000 		.4byte	.LASF75
 974 03fc D801     		.2byte	0x1d8
 975 03fe 07       		.byte	0x7
 976 03ff C201     		.2byte	0x1c2
 977 0401 53040000 		.4byte	0x453
 978 0405 09       		.uleb128 0x9
 979 0406 FD050000 		.4byte	.LASF76
 980 040a 07       		.byte	0x7
 981 040b C601     		.2byte	0x1c6
 982 040d 9A020000 		.4byte	0x29a
 983 0411 00       		.byte	0
 984 0412 09       		.uleb128 0x9
 985 0413 11010000 		.4byte	.LASF77
 986 0417 07       		.byte	0x7
 987 0418 CA01     		.2byte	0x1ca
 988 041a 79030000 		.4byte	0x379
 989 041e 1C       		.byte	0x1c
 990 041f 08       		.uleb128 0x8
 991 0420 64626700 		.ascii	"dbg\000"
 992 0424 07       		.byte	0x7
 993 0425 CE01     		.2byte	0x1ce
 994 0427 C6030000 		.4byte	0x3c6
 995 042b 2C       		.byte	0x2c
 996 042c 09       		.uleb128 0x9
 997 042d 13020000 		.4byte	.LASF78
 998 0431 07       		.byte	0x7
 999 0432 D201     		.2byte	0x1d2
 1000 0434 3D010000 		.4byte	0x13d
 1001 0438 30       		.byte	0x30
 1002 0439 08       		.uleb128 0x8
 1003 043a 746D00   		.ascii	"tm\000"
 1004 043d 07       		.byte	0x7
 1005 043e D701     		.2byte	0x1d7
 1006 0440 E5050000 		.4byte	0x5e5
 1007 0444 74       		.byte	0x74
 1008 0445 09       		.uleb128 0x9
 1009 0446 9D010000 		.4byte	.LASF79
 1010 044a 07       		.byte	0x7
 1011 044b E301     		.2byte	0x1e3
 1012 044d D2060000 		.4byte	0x6d2
 1013 0451 78       		.byte	0x78
 1014 0452 00       		.byte	0
ARM GAS  /tmp/cciy8LS1.s 			page 19


 1015 0453 04       		.uleb128 0x4
 1016 0454 04       		.byte	0x4
 1017 0455 07       		.byte	0x7
 1018 0456 AD030000 		.4byte	.LASF80
 1019 045a 03       		.uleb128 0x3
 1020 045b 78010000 		.4byte	.LASF81
 1021 045f 08       		.byte	0x8
 1022 0460 65       		.byte	0x65
 1023 0461 1D030000 		.4byte	0x31d
 1024 0465 03       		.uleb128 0x3
 1025 0466 5C020000 		.4byte	.LASF82
 1026 046a 08       		.byte	0x8
 1027 046b 6D       		.byte	0x6d
 1028 046c CA000000 		.4byte	0xca
 1029 0470 06       		.uleb128 0x6
 1030 0471 B8050000 		.4byte	.LASF83
 1031 0475 04       		.byte	0x4
 1032 0476 08       		.byte	0x8
 1033 0477 89       		.byte	0x89
 1034 0478 89040000 		.4byte	0x489
 1035 047c 10       		.uleb128 0x10
 1036 047d 72313300 		.ascii	"r13\000"
 1037 0481 08       		.byte	0x8
 1038 0482 8A       		.byte	0x8a
 1039 0483 CA050000 		.4byte	0x5ca
 1040 0487 00       		.byte	0
 1041 0488 00       		.byte	0
 1042 0489 06       		.uleb128 0x6
 1043 048a 2E000000 		.4byte	.LASF84
 1044 048e 64       		.byte	0x64
 1045 048f 09       		.byte	0x9
 1046 0490 F4       		.byte	0xf4
 1047 0491 CA050000 		.4byte	0x5ca
 1048 0495 10       		.uleb128 0x10
 1049 0496 73313600 		.ascii	"s16\000"
 1050 049a 09       		.byte	0x9
 1051 049b F6       		.byte	0xf6
 1052 049c 5A040000 		.4byte	0x45a
 1053 04a0 00       		.byte	0
 1054 04a1 10       		.uleb128 0x10
 1055 04a2 73313700 		.ascii	"s17\000"
 1056 04a6 09       		.byte	0x9
 1057 04a7 F7       		.byte	0xf7
 1058 04a8 5A040000 		.4byte	0x45a
 1059 04ac 04       		.byte	0x4
 1060 04ad 10       		.uleb128 0x10
 1061 04ae 73313800 		.ascii	"s18\000"
 1062 04b2 09       		.byte	0x9
 1063 04b3 F8       		.byte	0xf8
 1064 04b4 5A040000 		.4byte	0x45a
 1065 04b8 08       		.byte	0x8
 1066 04b9 10       		.uleb128 0x10
 1067 04ba 73313900 		.ascii	"s19\000"
 1068 04be 09       		.byte	0x9
 1069 04bf F9       		.byte	0xf9
 1070 04c0 5A040000 		.4byte	0x45a
 1071 04c4 0C       		.byte	0xc
ARM GAS  /tmp/cciy8LS1.s 			page 20


 1072 04c5 10       		.uleb128 0x10
 1073 04c6 73323000 		.ascii	"s20\000"
 1074 04ca 09       		.byte	0x9
 1075 04cb FA       		.byte	0xfa
 1076 04cc 5A040000 		.4byte	0x45a
 1077 04d0 10       		.byte	0x10
 1078 04d1 10       		.uleb128 0x10
 1079 04d2 73323100 		.ascii	"s21\000"
 1080 04d6 09       		.byte	0x9
 1081 04d7 FB       		.byte	0xfb
 1082 04d8 5A040000 		.4byte	0x45a
 1083 04dc 14       		.byte	0x14
 1084 04dd 10       		.uleb128 0x10
 1085 04de 73323200 		.ascii	"s22\000"
 1086 04e2 09       		.byte	0x9
 1087 04e3 FC       		.byte	0xfc
 1088 04e4 5A040000 		.4byte	0x45a
 1089 04e8 18       		.byte	0x18
 1090 04e9 10       		.uleb128 0x10
 1091 04ea 73323300 		.ascii	"s23\000"
 1092 04ee 09       		.byte	0x9
 1093 04ef FD       		.byte	0xfd
 1094 04f0 5A040000 		.4byte	0x45a
 1095 04f4 1C       		.byte	0x1c
 1096 04f5 10       		.uleb128 0x10
 1097 04f6 73323400 		.ascii	"s24\000"
 1098 04fa 09       		.byte	0x9
 1099 04fb FE       		.byte	0xfe
 1100 04fc 5A040000 		.4byte	0x45a
 1101 0500 20       		.byte	0x20
 1102 0501 10       		.uleb128 0x10
 1103 0502 73323500 		.ascii	"s25\000"
 1104 0506 09       		.byte	0x9
 1105 0507 FF       		.byte	0xff
 1106 0508 5A040000 		.4byte	0x45a
 1107 050c 24       		.byte	0x24
 1108 050d 08       		.uleb128 0x8
 1109 050e 73323600 		.ascii	"s26\000"
 1110 0512 09       		.byte	0x9
 1111 0513 0001     		.2byte	0x100
 1112 0515 5A040000 		.4byte	0x45a
 1113 0519 28       		.byte	0x28
 1114 051a 08       		.uleb128 0x8
 1115 051b 73323700 		.ascii	"s27\000"
 1116 051f 09       		.byte	0x9
 1117 0520 0101     		.2byte	0x101
 1118 0522 5A040000 		.4byte	0x45a
 1119 0526 2C       		.byte	0x2c
 1120 0527 08       		.uleb128 0x8
 1121 0528 73323800 		.ascii	"s28\000"
 1122 052c 09       		.byte	0x9
 1123 052d 0201     		.2byte	0x102
 1124 052f 5A040000 		.4byte	0x45a
 1125 0533 30       		.byte	0x30
 1126 0534 08       		.uleb128 0x8
 1127 0535 73323900 		.ascii	"s29\000"
 1128 0539 09       		.byte	0x9
ARM GAS  /tmp/cciy8LS1.s 			page 21


 1129 053a 0301     		.2byte	0x103
 1130 053c 5A040000 		.4byte	0x45a
 1131 0540 34       		.byte	0x34
 1132 0541 08       		.uleb128 0x8
 1133 0542 73333000 		.ascii	"s30\000"
 1134 0546 09       		.byte	0x9
 1135 0547 0401     		.2byte	0x104
 1136 0549 5A040000 		.4byte	0x45a
 1137 054d 38       		.byte	0x38
 1138 054e 08       		.uleb128 0x8
 1139 054f 73333100 		.ascii	"s31\000"
 1140 0553 09       		.byte	0x9
 1141 0554 0501     		.2byte	0x105
 1142 0556 5A040000 		.4byte	0x45a
 1143 055a 3C       		.byte	0x3c
 1144 055b 08       		.uleb128 0x8
 1145 055c 723400   		.ascii	"r4\000"
 1146 055f 09       		.byte	0x9
 1147 0560 0701     		.2byte	0x107
 1148 0562 5A040000 		.4byte	0x45a
 1149 0566 40       		.byte	0x40
 1150 0567 08       		.uleb128 0x8
 1151 0568 723500   		.ascii	"r5\000"
 1152 056b 09       		.byte	0x9
 1153 056c 0801     		.2byte	0x108
 1154 056e 5A040000 		.4byte	0x45a
 1155 0572 44       		.byte	0x44
 1156 0573 08       		.uleb128 0x8
 1157 0574 723600   		.ascii	"r6\000"
 1158 0577 09       		.byte	0x9
 1159 0578 0901     		.2byte	0x109
 1160 057a 5A040000 		.4byte	0x45a
 1161 057e 48       		.byte	0x48
 1162 057f 08       		.uleb128 0x8
 1163 0580 723700   		.ascii	"r7\000"
 1164 0583 09       		.byte	0x9
 1165 0584 0A01     		.2byte	0x10a
 1166 0586 5A040000 		.4byte	0x45a
 1167 058a 4C       		.byte	0x4c
 1168 058b 08       		.uleb128 0x8
 1169 058c 723800   		.ascii	"r8\000"
 1170 058f 09       		.byte	0x9
 1171 0590 0B01     		.2byte	0x10b
 1172 0592 5A040000 		.4byte	0x45a
 1173 0596 50       		.byte	0x50
 1174 0597 08       		.uleb128 0x8
 1175 0598 723900   		.ascii	"r9\000"
 1176 059b 09       		.byte	0x9
 1177 059c 0C01     		.2byte	0x10c
 1178 059e 5A040000 		.4byte	0x45a
 1179 05a2 54       		.byte	0x54
 1180 05a3 08       		.uleb128 0x8
 1181 05a4 72313000 		.ascii	"r10\000"
 1182 05a8 09       		.byte	0x9
 1183 05a9 0D01     		.2byte	0x10d
 1184 05ab 5A040000 		.4byte	0x45a
 1185 05af 58       		.byte	0x58
ARM GAS  /tmp/cciy8LS1.s 			page 22


 1186 05b0 08       		.uleb128 0x8
 1187 05b1 72313100 		.ascii	"r11\000"
 1188 05b5 09       		.byte	0x9
 1189 05b6 0E01     		.2byte	0x10e
 1190 05b8 5A040000 		.4byte	0x45a
 1191 05bc 5C       		.byte	0x5c
 1192 05bd 08       		.uleb128 0x8
 1193 05be 6C7200   		.ascii	"lr\000"
 1194 05c1 09       		.byte	0x9
 1195 05c2 0F01     		.2byte	0x10f
 1196 05c4 5A040000 		.4byte	0x45a
 1197 05c8 60       		.byte	0x60
 1198 05c9 00       		.byte	0
 1199 05ca 0A       		.uleb128 0xa
 1200 05cb 04       		.byte	0x4
 1201 05cc 89040000 		.4byte	0x489
 1202 05d0 11       		.uleb128 0x11
 1203 05d1 04       		.byte	0x4
 1204 05d2 0A       		.byte	0xa
 1205 05d3 38       		.byte	0x38
 1206 05d4 E5050000 		.4byte	0x5e5
 1207 05d8 07       		.uleb128 0x7
 1208 05d9 B1050000 		.4byte	.LASF85
 1209 05dd 0A       		.byte	0xa
 1210 05de 3C       		.byte	0x3c
 1211 05df DA000000 		.4byte	0xda
 1212 05e3 00       		.byte	0
 1213 05e4 00       		.byte	0
 1214 05e5 03       		.uleb128 0x3
 1215 05e6 06040000 		.4byte	.LASF86
 1216 05ea 0A       		.byte	0xa
 1217 05eb 3D       		.byte	0x3d
 1218 05ec D0050000 		.4byte	0x5d0
 1219 05f0 12       		.uleb128 0x12
 1220 05f1 04       		.byte	0x4
 1221 05f2 07       		.byte	0x7
 1222 05f3 FA       		.byte	0xfa
 1223 05f4 4D060000 		.4byte	0x64d
 1224 05f8 13       		.uleb128 0x13
 1225 05f9 14000000 		.4byte	.LASF87
 1226 05fd 07       		.byte	0x7
 1227 05fe 0101     		.2byte	0x101
 1228 0600 11010000 		.4byte	0x111
 1229 0604 13       		.uleb128 0x13
 1230 0605 6D000000 		.4byte	.LASF88
 1231 0609 07       		.byte	0x7
 1232 060a 0801     		.2byte	0x108
 1233 060c 11010000 		.4byte	0x111
 1234 0610 13       		.uleb128 0x13
 1235 0611 20060000 		.4byte	.LASF89
 1236 0615 07       		.byte	0x7
 1237 0616 0F01     		.2byte	0x10f
 1238 0618 1D030000 		.4byte	0x31d
 1239 061c 13       		.uleb128 0x13
 1240 061d 29010000 		.4byte	.LASF90
 1241 0621 07       		.byte	0x7
 1242 0622 1601     		.2byte	0x116
ARM GAS  /tmp/cciy8LS1.s 			page 23


 1243 0624 4D060000 		.4byte	0x64d
 1244 0628 13       		.uleb128 0x13
 1245 0629 C7010000 		.4byte	.LASF91
 1246 062d 07       		.byte	0x7
 1247 062e 1E01     		.2byte	0x11e
 1248 0630 78060000 		.4byte	0x678
 1249 0634 13       		.uleb128 0x13
 1250 0635 26050000 		.4byte	.LASF92
 1251 0639 07       		.byte	0x7
 1252 063a 2701     		.2byte	0x127
 1253 063c AF060000 		.4byte	0x6af
 1254 0640 13       		.uleb128 0x13
 1255 0641 CA040000 		.4byte	.LASF93
 1256 0645 07       		.byte	0x7
 1257 0646 2F01     		.2byte	0x12f
 1258 0648 1C010000 		.4byte	0x11c
 1259 064c 00       		.byte	0
 1260 064d 0A       		.uleb128 0xa
 1261 064e 04       		.byte	0x4
 1262 064f 35020000 		.4byte	0x235
 1263 0653 06       		.uleb128 0x6
 1264 0654 05050000 		.4byte	.LASF94
 1265 0658 0C       		.byte	0xc
 1266 0659 0B       		.byte	0xb
 1267 065a 34       		.byte	0x34
 1268 065b 78060000 		.4byte	0x678
 1269 065f 07       		.uleb128 0x7
 1270 0660 68010000 		.4byte	.LASF95
 1271 0664 0B       		.byte	0xb
 1272 0665 35       		.byte	0x35
 1273 0666 6A020000 		.4byte	0x26a
 1274 066a 00       		.byte	0
 1275 066b 07       		.uleb128 0x7
 1276 066c F0010000 		.4byte	.LASF96
 1277 0670 0B       		.byte	0xb
 1278 0671 37       		.byte	0x37
 1279 0672 27010000 		.4byte	0x127
 1280 0676 08       		.byte	0x8
 1281 0677 00       		.byte	0
 1282 0678 0A       		.uleb128 0xa
 1283 0679 04       		.byte	0x4
 1284 067a 53060000 		.4byte	0x653
 1285 067e 06       		.uleb128 0x6
 1286 067f ED050000 		.4byte	.LASF97
 1287 0683 10       		.byte	0x10
 1288 0684 0C       		.byte	0xc
 1289 0685 39       		.byte	0x39
 1290 0686 AF060000 		.4byte	0x6af
 1291 068a 07       		.uleb128 0x7
 1292 068b FE000000 		.4byte	.LASF98
 1293 068f 0C       		.byte	0xc
 1294 0690 3A       		.byte	0x3a
 1295 0691 6A020000 		.4byte	0x26a
 1296 0695 00       		.byte	0
 1297 0696 07       		.uleb128 0x7
 1298 0697 6E060000 		.4byte	.LASF99
 1299 069b 0C       		.byte	0xc
ARM GAS  /tmp/cciy8LS1.s 			page 24


 1300 069c 3C       		.byte	0x3c
 1301 069d 40020000 		.4byte	0x240
 1302 06a1 08       		.byte	0x8
 1303 06a2 07       		.uleb128 0x7
 1304 06a3 77050000 		.4byte	.LASF100
 1305 06a7 0C       		.byte	0xc
 1306 06a8 3E       		.byte	0x3e
 1307 06a9 ED060000 		.4byte	0x6ed
 1308 06ad 0C       		.byte	0xc
 1309 06ae 00       		.byte	0
 1310 06af 0A       		.uleb128 0xa
 1311 06b0 04       		.byte	0x4
 1312 06b1 7E060000 		.4byte	0x67e
 1313 06b5 0A       		.uleb128 0xa
 1314 06b6 04       		.byte	0x4
 1315 06b7 C2060000 		.4byte	0x6c2
 1316 06bb 04       		.uleb128 0x4
 1317 06bc 01       		.byte	0x1
 1318 06bd 08       		.byte	0x8
 1319 06be 5C050000 		.4byte	.LASF101
 1320 06c2 14       		.uleb128 0x14
 1321 06c3 BB060000 		.4byte	0x6bb
 1322 06c7 0A       		.uleb128 0xa
 1323 06c8 04       		.byte	0x4
 1324 06c9 1F030000 		.4byte	0x31f
 1325 06cd 05       		.uleb128 0x5
 1326 06ce B5060000 		.4byte	0x6b5
 1327 06d2 15       		.uleb128 0x15
 1328 06d3 65040000 		.4byte	0x465
 1329 06d7 E2060000 		.4byte	0x6e2
 1330 06db 16       		.uleb128 0x16
 1331 06dc 53040000 		.4byte	0x453
 1332 06e0 2B       		.byte	0x2b
 1333 06e1 00       		.byte	0
 1334 06e2 03       		.uleb128 0x3
 1335 06e3 CE000000 		.4byte	.LASF102
 1336 06e7 0C       		.byte	0xc
 1337 06e8 34       		.byte	0x34
 1338 06e9 7E060000 		.4byte	0x67e
 1339 06ed 0A       		.uleb128 0xa
 1340 06ee 04       		.byte	0x4
 1341 06ef E2060000 		.4byte	0x6e2
 1342 06f3 03       		.uleb128 0x3
 1343 06f4 49000000 		.4byte	.LASF103
 1344 06f8 0D       		.byte	0xd
 1345 06f9 36       		.byte	0x36
 1346 06fa FE060000 		.4byte	0x6fe
 1347 06fe 0A       		.uleb128 0xa
 1348 06ff 04       		.byte	0x4
 1349 0700 04070000 		.4byte	0x704
 1350 0704 17       		.uleb128 0x17
 1351 0705 1D030000 		.4byte	0x31d
 1352 0709 13070000 		.4byte	0x713
 1353 070d 0D       		.uleb128 0xd
 1354 070e 2C000000 		.4byte	0x2c
 1355 0712 00       		.byte	0
 1356 0713 03       		.uleb128 0x3
ARM GAS  /tmp/cciy8LS1.s 			page 25


 1357 0714 4B010000 		.4byte	.LASF104
 1358 0718 0E       		.byte	0xe
 1359 0719 3C       		.byte	0x3c
 1360 071a 1E070000 		.4byte	0x71e
 1361 071e 06       		.uleb128 0x6
 1362 071f 84060000 		.4byte	.LASF105
 1363 0723 20       		.byte	0x20
 1364 0724 0E       		.byte	0xe
 1365 0725 4F       		.byte	0x4f
 1366 0726 4F070000 		.4byte	0x74f
 1367 072a 07       		.uleb128 0x7
 1368 072b 15060000 		.4byte	.LASF106
 1369 072f 0E       		.byte	0xe
 1370 0730 50       		.byte	0x50
 1371 0731 F3060000 		.4byte	0x6f3
 1372 0735 00       		.byte	0
 1373 0736 07       		.uleb128 0x7
 1374 0737 76000000 		.4byte	.LASF107
 1375 073b 0E       		.byte	0xe
 1376 073c 52       		.byte	0x52
 1377 073d 6E070000 		.4byte	0x76e
 1378 0741 08       		.byte	0x8
 1379 0742 07       		.uleb128 0x7
 1380 0743 F0000000 		.4byte	.LASF108
 1381 0747 0E       		.byte	0xe
 1382 0748 54       		.byte	0x54
 1383 0749 E2060000 		.4byte	0x6e2
 1384 074d 10       		.byte	0x10
 1385 074e 00       		.byte	0
 1386 074f 12       		.uleb128 0x12
 1387 0750 04       		.byte	0x4
 1388 0751 0E       		.byte	0xe
 1389 0752 44       		.byte	0x44
 1390 0753 6E070000 		.4byte	0x76e
 1391 0757 18       		.uleb128 0x18
 1392 0758 A5000000 		.4byte	.LASF109
 1393 075c 0E       		.byte	0xe
 1394 075d 45       		.byte	0x45
 1395 075e 8F070000 		.4byte	0x78f
 1396 0762 18       		.uleb128 0x18
 1397 0763 45050000 		.4byte	.LASF110
 1398 0767 0E       		.byte	0xe
 1399 0768 46       		.byte	0x46
 1400 0769 95070000 		.4byte	0x795
 1401 076d 00       		.byte	0
 1402 076e 19       		.uleb128 0x19
 1403 076f 9B040000 		.4byte	.LASF118
 1404 0773 08       		.byte	0x8
 1405 0774 0E       		.byte	0xe
 1406 0775 41       		.byte	0x41
 1407 0776 8F070000 		.4byte	0x78f
 1408 077a 18       		.uleb128 0x18
 1409 077b 97010000 		.4byte	.LASF111
 1410 077f 0E       		.byte	0xe
 1411 0780 42       		.byte	0x42
 1412 0781 65040000 		.4byte	0x465
 1413 0785 1A       		.uleb128 0x1a
ARM GAS  /tmp/cciy8LS1.s 			page 26


 1414 0786 6800     		.ascii	"h\000"
 1415 0788 0E       		.byte	0xe
 1416 0789 49       		.byte	0x49
 1417 078a 9B070000 		.4byte	0x79b
 1418 078e 00       		.byte	0
 1419 078f 0A       		.uleb128 0xa
 1420 0790 04       		.byte	0x4
 1421 0791 6E070000 		.4byte	0x76e
 1422 0795 0A       		.uleb128 0xa
 1423 0796 04       		.byte	0x4
 1424 0797 13070000 		.4byte	0x713
 1425 079b 11       		.uleb128 0x11
 1426 079c 08       		.byte	0x8
 1427 079d 0E       		.byte	0xe
 1428 079e 43       		.byte	0x43
 1429 079f BA070000 		.4byte	0x7ba
 1430 07a3 10       		.uleb128 0x10
 1431 07a4 7500     		.ascii	"u\000"
 1432 07a6 0E       		.byte	0xe
 1433 07a7 47       		.byte	0x47
 1434 07a8 4F070000 		.4byte	0x74f
 1435 07ac 00       		.byte	0
 1436 07ad 07       		.uleb128 0x7
 1437 07ae 2E060000 		.4byte	.LASF112
 1438 07b2 0E       		.byte	0xe
 1439 07b3 48       		.byte	0x48
 1440 07b4 2C000000 		.4byte	0x2c
 1441 07b8 04       		.byte	0x4
 1442 07b9 00       		.byte	0
 1443 07ba 06       		.uleb128 0x6
 1444 07bb FC040000 		.4byte	.LASF113
 1445 07bf 10       		.byte	0x10
 1446 07c0 0F       		.byte	0xf
 1447 07c1 3B       		.byte	0x3b
 1448 07c2 F7070000 		.4byte	0x7f7
 1449 07c6 07       		.uleb128 0x7
 1450 07c7 EB010000 		.4byte	.LASF114
 1451 07cb 0F       		.byte	0xf
 1452 07cc 3C       		.byte	0x3c
 1453 07cd B5060000 		.4byte	0x6b5
 1454 07d1 00       		.byte	0
 1455 07d2 07       		.uleb128 0x7
 1456 07d3 17040000 		.4byte	.LASF115
 1457 07d7 0F       		.byte	0xf
 1458 07d8 3D       		.byte	0x3d
 1459 07d9 F8070000 		.4byte	0x7f8
 1460 07dd 04       		.byte	0x4
 1461 07de 07       		.uleb128 0x7
 1462 07df E2010000 		.4byte	.LASF116
 1463 07e3 0F       		.byte	0xf
 1464 07e4 3E       		.byte	0x3e
 1465 07e5 F8070000 		.4byte	0x7f8
 1466 07e9 08       		.byte	0x8
 1467 07ea 07       		.uleb128 0x7
 1468 07eb 59040000 		.4byte	.LASF117
 1469 07ef 0F       		.byte	0xf
 1470 07f0 3F       		.byte	0x3f
ARM GAS  /tmp/cciy8LS1.s 			page 27


 1471 07f1 F8070000 		.4byte	0x7f8
 1472 07f5 0C       		.byte	0xc
 1473 07f6 00       		.byte	0
 1474 07f7 1B       		.uleb128 0x1b
 1475 07f8 0A       		.uleb128 0xa
 1476 07f9 04       		.byte	0x4
 1477 07fa F7070000 		.4byte	0x7f7
 1478 07fe 1C       		.uleb128 0x1c
 1479 07ff 1009     		.2byte	0x910
 1480 0801 0F       		.byte	0xf
 1481 0802 44       		.byte	0x44
 1482 0803 43080000 		.4byte	0x843
 1483 0807 10       		.uleb128 0x10
 1484 0808 543000   		.ascii	"T0\000"
 1485 080b 0F       		.byte	0xf
 1486 080c 45       		.byte	0x45
 1487 080d 43080000 		.4byte	0x843
 1488 0811 00       		.byte	0
 1489 0812 1D       		.uleb128 0x1d
 1490 0813 543100   		.ascii	"T1\000"
 1491 0816 0F       		.byte	0xf
 1492 0817 46       		.byte	0x46
 1493 0818 43080000 		.4byte	0x843
 1494 081c D001     		.2byte	0x1d0
 1495 081e 1D       		.uleb128 0x1d
 1496 081f 543200   		.ascii	"T2\000"
 1497 0822 0F       		.byte	0xf
 1498 0823 47       		.byte	0x47
 1499 0824 43080000 		.4byte	0x843
 1500 0828 A003     		.2byte	0x3a0
 1501 082a 1D       		.uleb128 0x1d
 1502 082b 543300   		.ascii	"T3\000"
 1503 082e 0F       		.byte	0xf
 1504 082f 48       		.byte	0x48
 1505 0830 43080000 		.4byte	0x843
 1506 0834 7005     		.2byte	0x570
 1507 0836 1D       		.uleb128 0x1d
 1508 0837 543400   		.ascii	"T4\000"
 1509 083a 0F       		.byte	0xf
 1510 083b 49       		.byte	0x49
 1511 083c 43080000 		.4byte	0x843
 1512 0840 4007     		.2byte	0x740
 1513 0842 00       		.byte	0
 1514 0843 15       		.uleb128 0x15
 1515 0844 65040000 		.4byte	0x465
 1516 0848 53080000 		.4byte	0x853
 1517 084c 16       		.uleb128 0x16
 1518 084d 53040000 		.4byte	0x453
 1519 0851 39       		.byte	0x39
 1520 0852 00       		.byte	0
 1521 0853 1E       		.uleb128 0x1e
 1522 0854 E0050000 		.4byte	.LASF119
 1523 0858 1009     		.2byte	0x910
 1524 085a 0F       		.byte	0xf
 1525 085b 43       		.byte	0x43
 1526 085c 76080000 		.4byte	0x876
 1527 0860 1A       		.uleb128 0x1a
ARM GAS  /tmp/cciy8LS1.s 			page 28


 1528 0861 776100   		.ascii	"wa\000"
 1529 0864 0F       		.byte	0xf
 1530 0865 4A       		.byte	0x4a
 1531 0866 FE070000 		.4byte	0x7fe
 1532 086a 18       		.uleb128 0x18
 1533 086b 59010000 		.4byte	.LASF120
 1534 086f 0F       		.byte	0xf
 1535 0870 4B       		.byte	0x4b
 1536 0871 76080000 		.4byte	0x876
 1537 0875 00       		.byte	0
 1538 0876 15       		.uleb128 0x15
 1539 0877 A9000000 		.4byte	0xa9
 1540 087b 87080000 		.4byte	0x887
 1541 087f 1F       		.uleb128 0x1f
 1542 0880 53040000 		.4byte	0x453
 1543 0884 0F09     		.2byte	0x90f
 1544 0886 00       		.byte	0
 1545 0887 20       		.uleb128 0x20
 1546 0888 89010000 		.4byte	.LASF121
 1547 088c 01       		.byte	0x1
 1548 088d 45       		.byte	0x45
 1549 088e 00000000 		.4byte	.LFB230
 1550 0892 44020000 		.4byte	.LFE230-.LFB230
 1551 0896 01       		.uleb128 0x1
 1552 0897 9C       		.byte	0x9c
 1553 0898 FB0D0000 		.4byte	0xdfb
 1554 089c 21       		.uleb128 0x21
 1555 089d 703100   		.ascii	"p1\000"
 1556 08a0 01       		.byte	0x1
 1557 08a1 46       		.byte	0x46
 1558 08a2 1D030000 		.4byte	0x31d
 1559 08a6 00000000 		.4byte	.LLST0
 1560 08aa 21       		.uleb128 0x21
 1561 08ab 703200   		.ascii	"p2\000"
 1562 08ae 01       		.byte	0x1
 1563 08af 46       		.byte	0x46
 1564 08b0 1D030000 		.4byte	0x31d
 1565 08b4 C3000000 		.4byte	.LLST1
 1566 08b8 21       		.uleb128 0x21
 1567 08b9 703300   		.ascii	"p3\000"
 1568 08bc 01       		.byte	0x1
 1569 08bd 46       		.byte	0x46
 1570 08be 1D030000 		.4byte	0x31d
 1571 08c2 2E010000 		.4byte	.LLST2
 1572 08c6 22       		.uleb128 0x22
 1573 08c7 6E00     		.ascii	"n\000"
 1574 08c9 01       		.byte	0x1
 1575 08ca 47       		.byte	0x47
 1576 08cb 2C000000 		.4byte	0x2c
 1577 08cf 02       		.uleb128 0x2
 1578 08d0 91       		.byte	0x91
 1579 08d1 68       		.sleb128 -24
 1580 08d2 22       		.uleb128 0x22
 1581 08d3 737A00   		.ascii	"sz\000"
 1582 08d6 01       		.byte	0x1
 1583 08d7 47       		.byte	0x47
 1584 08d8 2C000000 		.4byte	0x2c
ARM GAS  /tmp/cciy8LS1.s 			page 29


 1585 08dc 02       		.uleb128 0x2
 1586 08dd 91       		.byte	0x91
 1587 08de 6C       		.sleb128 -20
 1588 08df 23       		.uleb128 0x23
 1589 08e0 08000000 		.4byte	.LVL0
 1590 08e4 A00E0000 		.4byte	0xea0
 1591 08e8 24       		.uleb128 0x24
 1592 08e9 10000000 		.4byte	.LVL1
 1593 08ed AB0E0000 		.4byte	0xeab
 1594 08f1 01090000 		.4byte	0x901
 1595 08f5 25       		.uleb128 0x25
 1596 08f6 01       		.uleb128 0x1
 1597 08f7 50       		.byte	0x50
 1598 08f8 01       		.uleb128 0x1
 1599 08f9 30       		.byte	0x30
 1600 08fa 25       		.uleb128 0x25
 1601 08fb 01       		.uleb128 0x1
 1602 08fc 51       		.byte	0x51
 1603 08fd 02       		.uleb128 0x2
 1604 08fe 91       		.byte	0x91
 1605 08ff 6C       		.sleb128 -20
 1606 0900 00       		.byte	0
 1607 0901 24       		.uleb128 0x24
 1608 0902 18000000 		.4byte	.LVL2
 1609 0906 B60E0000 		.4byte	0xeb6
 1610 090a 19090000 		.4byte	0x919
 1611 090e 25       		.uleb128 0x25
 1612 090f 01       		.uleb128 0x1
 1613 0910 50       		.byte	0x50
 1614 0911 01       		.uleb128 0x1
 1615 0912 30       		.byte	0x30
 1616 0913 25       		.uleb128 0x25
 1617 0914 01       		.uleb128 0x1
 1618 0915 51       		.byte	0x51
 1619 0916 01       		.uleb128 0x1
 1620 0917 40       		.byte	0x40
 1621 0918 00       		.byte	0
 1622 0919 24       		.uleb128 0x24
 1623 091a 26000000 		.4byte	.LVL4
 1624 091e C10E0000 		.4byte	0xec1
 1625 0922 3C090000 		.4byte	0x93c
 1626 0926 25       		.uleb128 0x25
 1627 0927 01       		.uleb128 0x1
 1628 0928 50       		.byte	0x50
 1629 0929 01       		.uleb128 0x1
 1630 092a 31       		.byte	0x31
 1631 092b 25       		.uleb128 0x25
 1632 092c 01       		.uleb128 0x1
 1633 092d 51       		.byte	0x51
 1634 092e 0C       		.uleb128 0xc
 1635 092f 31       		.byte	0x31
 1636 0930 75       		.byte	0x75
 1637 0931 00       		.sleb128 0
 1638 0932 75       		.byte	0x75
 1639 0933 00       		.sleb128 0
 1640 0934 30       		.byte	0x30
 1641 0935 2E       		.byte	0x2e
ARM GAS  /tmp/cciy8LS1.s 			page 30


 1642 0936 28       		.byte	0x28
 1643 0937 0100     		.2byte	0x1
 1644 0939 16       		.byte	0x16
 1645 093a 13       		.byte	0x13
 1646 093b 00       		.byte	0
 1647 093c 24       		.uleb128 0x24
 1648 093d 34000000 		.4byte	.LVL7
 1649 0941 CC0E0000 		.4byte	0xecc
 1650 0945 50090000 		.4byte	0x950
 1651 0949 25       		.uleb128 0x25
 1652 094a 01       		.uleb128 0x1
 1653 094b 50       		.byte	0x50
 1654 094c 02       		.uleb128 0x2
 1655 094d 75       		.byte	0x75
 1656 094e 00       		.sleb128 0
 1657 094f 00       		.byte	0
 1658 0950 24       		.uleb128 0x24
 1659 0951 3E000000 		.4byte	.LVL8
 1660 0955 B60E0000 		.4byte	0xeb6
 1661 0959 6B090000 		.4byte	0x96b
 1662 095d 25       		.uleb128 0x25
 1663 095e 01       		.uleb128 0x1
 1664 095f 50       		.byte	0x50
 1665 0960 02       		.uleb128 0x2
 1666 0961 74       		.byte	0x74
 1667 0962 00       		.sleb128 0
 1668 0963 25       		.uleb128 0x25
 1669 0964 01       		.uleb128 0x1
 1670 0965 51       		.byte	0x51
 1671 0966 03       		.uleb128 0x3
 1672 0967 0B       		.byte	0xb
 1673 0968 00FF     		.2byte	0xff00
 1674 096a 00       		.byte	0
 1675 096b 24       		.uleb128 0x24
 1676 096c 4A000000 		.4byte	.LVL10
 1677 0970 C10E0000 		.4byte	0xec1
 1678 0974 7E090000 		.4byte	0x97e
 1679 0978 25       		.uleb128 0x25
 1680 0979 01       		.uleb128 0x1
 1681 097a 50       		.byte	0x50
 1682 097b 01       		.uleb128 0x1
 1683 097c 32       		.byte	0x32
 1684 097d 00       		.byte	0
 1685 097e 24       		.uleb128 0x24
 1686 097f 56000000 		.4byte	.LVL11
 1687 0983 AB0E0000 		.4byte	0xeab
 1688 0987 9B090000 		.4byte	0x99b
 1689 098b 25       		.uleb128 0x25
 1690 098c 01       		.uleb128 0x1
 1691 098d 50       		.byte	0x50
 1692 098e 05       		.uleb128 0x5
 1693 098f 03       		.byte	0x3
 1694 0990 00000000 		.4byte	.LANCHOR0
 1695 0994 25       		.uleb128 0x25
 1696 0995 01       		.uleb128 0x1
 1697 0996 51       		.byte	0x51
 1698 0997 02       		.uleb128 0x2
ARM GAS  /tmp/cciy8LS1.s 			page 31


 1699 0998 91       		.byte	0x91
 1700 0999 6C       		.sleb128 -20
 1701 099a 00       		.byte	0
 1702 099b 24       		.uleb128 0x24
 1703 099c 5E000000 		.4byte	.LVL12
 1704 09a0 B60E0000 		.4byte	0xeb6
 1705 09a4 B7090000 		.4byte	0x9b7
 1706 09a8 25       		.uleb128 0x25
 1707 09a9 01       		.uleb128 0x1
 1708 09aa 50       		.byte	0x50
 1709 09ab 05       		.uleb128 0x5
 1710 09ac 03       		.byte	0x3
 1711 09ad 00000000 		.4byte	.LANCHOR0
 1712 09b1 25       		.uleb128 0x25
 1713 09b2 01       		.uleb128 0x1
 1714 09b3 51       		.byte	0x51
 1715 09b4 01       		.uleb128 0x1
 1716 09b5 40       		.byte	0x40
 1717 09b6 00       		.byte	0
 1718 09b7 24       		.uleb128 0x24
 1719 09b8 68000000 		.4byte	.LVL15
 1720 09bc B60E0000 		.4byte	0xeb6
 1721 09c0 D3090000 		.4byte	0x9d3
 1722 09c4 25       		.uleb128 0x25
 1723 09c5 01       		.uleb128 0x1
 1724 09c6 50       		.byte	0x50
 1725 09c7 05       		.uleb128 0x5
 1726 09c8 03       		.byte	0x3
 1727 09c9 00000000 		.4byte	.LANCHOR0
 1728 09cd 25       		.uleb128 0x25
 1729 09ce 01       		.uleb128 0x1
 1730 09cf 51       		.byte	0x51
 1731 09d0 01       		.uleb128 0x1
 1732 09d1 40       		.byte	0x40
 1733 09d2 00       		.byte	0
 1734 09d3 24       		.uleb128 0x24
 1735 09d4 72000000 		.4byte	.LVL18
 1736 09d8 B60E0000 		.4byte	0xeb6
 1737 09dc EF090000 		.4byte	0x9ef
 1738 09e0 25       		.uleb128 0x25
 1739 09e1 01       		.uleb128 0x1
 1740 09e2 50       		.byte	0x50
 1741 09e3 05       		.uleb128 0x5
 1742 09e4 03       		.byte	0x3
 1743 09e5 00000000 		.4byte	.LANCHOR0
 1744 09e9 25       		.uleb128 0x25
 1745 09ea 01       		.uleb128 0x1
 1746 09eb 51       		.byte	0x51
 1747 09ec 01       		.uleb128 0x1
 1748 09ed 40       		.byte	0x40
 1749 09ee 00       		.byte	0
 1750 09ef 24       		.uleb128 0x24
 1751 09f0 7A000000 		.4byte	.LVL21
 1752 09f4 CC0E0000 		.4byte	0xecc
 1753 09f8 030A0000 		.4byte	0xa03
 1754 09fc 25       		.uleb128 0x25
 1755 09fd 01       		.uleb128 0x1
ARM GAS  /tmp/cciy8LS1.s 			page 32


 1756 09fe 50       		.byte	0x50
 1757 09ff 02       		.uleb128 0x2
 1758 0a00 76       		.byte	0x76
 1759 0a01 00       		.sleb128 0
 1760 0a02 00       		.byte	0
 1761 0a03 24       		.uleb128 0x24
 1762 0a04 80000000 		.4byte	.LVL22
 1763 0a08 CC0E0000 		.4byte	0xecc
 1764 0a0c 170A0000 		.4byte	0xa17
 1765 0a10 25       		.uleb128 0x25
 1766 0a11 01       		.uleb128 0x1
 1767 0a12 50       		.byte	0x50
 1768 0a13 02       		.uleb128 0x2
 1769 0a14 75       		.byte	0x75
 1770 0a15 00       		.sleb128 0
 1771 0a16 00       		.byte	0
 1772 0a17 24       		.uleb128 0x24
 1773 0a18 86000000 		.4byte	.LVL23
 1774 0a1c CC0E0000 		.4byte	0xecc
 1775 0a20 2B0A0000 		.4byte	0xa2b
 1776 0a24 25       		.uleb128 0x25
 1777 0a25 01       		.uleb128 0x1
 1778 0a26 50       		.byte	0x50
 1779 0a27 02       		.uleb128 0x2
 1780 0a28 74       		.byte	0x74
 1781 0a29 00       		.sleb128 0
 1782 0a2a 00       		.byte	0
 1783 0a2b 24       		.uleb128 0x24
 1784 0a2c 8E000000 		.4byte	.LVL24
 1785 0a30 AB0E0000 		.4byte	0xeab
 1786 0a34 480A0000 		.4byte	0xa48
 1787 0a38 25       		.uleb128 0x25
 1788 0a39 01       		.uleb128 0x1
 1789 0a3a 50       		.byte	0x50
 1790 0a3b 05       		.uleb128 0x5
 1791 0a3c 03       		.byte	0x3
 1792 0a3d 00000000 		.4byte	.LANCHOR0
 1793 0a41 25       		.uleb128 0x25
 1794 0a42 01       		.uleb128 0x1
 1795 0a43 51       		.byte	0x51
 1796 0a44 02       		.uleb128 0x2
 1797 0a45 7D       		.byte	0x7d
 1798 0a46 00       		.sleb128 0
 1799 0a47 00       		.byte	0
 1800 0a48 24       		.uleb128 0x24
 1801 0a49 9E000000 		.4byte	.LVL25
 1802 0a4d C10E0000 		.4byte	0xec1
 1803 0a51 5B0A0000 		.4byte	0xa5b
 1804 0a55 25       		.uleb128 0x25
 1805 0a56 01       		.uleb128 0x1
 1806 0a57 50       		.byte	0x50
 1807 0a58 01       		.uleb128 0x1
 1808 0a59 33       		.byte	0x33
 1809 0a5a 00       		.byte	0
 1810 0a5b 24       		.uleb128 0x24
 1811 0a5c AA000000 		.4byte	.LVL26
 1812 0a60 B60E0000 		.4byte	0xeb6
ARM GAS  /tmp/cciy8LS1.s 			page 33


 1813 0a64 770A0000 		.4byte	0xa77
 1814 0a68 25       		.uleb128 0x25
 1815 0a69 01       		.uleb128 0x1
 1816 0a6a 50       		.byte	0x50
 1817 0a6b 05       		.uleb128 0x5
 1818 0a6c 03       		.byte	0x3
 1819 0a6d 00000000 		.4byte	.LANCHOR0
 1820 0a71 25       		.uleb128 0x25
 1821 0a72 01       		.uleb128 0x1
 1822 0a73 51       		.byte	0x51
 1823 0a74 01       		.uleb128 0x1
 1824 0a75 40       		.byte	0x40
 1825 0a76 00       		.byte	0
 1826 0a77 24       		.uleb128 0x24
 1827 0a78 B4000000 		.4byte	.LVL29
 1828 0a7c B60E0000 		.4byte	0xeb6
 1829 0a80 930A0000 		.4byte	0xa93
 1830 0a84 25       		.uleb128 0x25
 1831 0a85 01       		.uleb128 0x1
 1832 0a86 50       		.byte	0x50
 1833 0a87 05       		.uleb128 0x5
 1834 0a88 03       		.byte	0x3
 1835 0a89 00000000 		.4byte	.LANCHOR0
 1836 0a8d 25       		.uleb128 0x25
 1837 0a8e 01       		.uleb128 0x1
 1838 0a8f 51       		.byte	0x51
 1839 0a90 01       		.uleb128 0x1
 1840 0a91 40       		.byte	0x40
 1841 0a92 00       		.byte	0
 1842 0a93 24       		.uleb128 0x24
 1843 0a94 BE000000 		.4byte	.LVL32
 1844 0a98 B60E0000 		.4byte	0xeb6
 1845 0a9c AF0A0000 		.4byte	0xaaf
 1846 0aa0 25       		.uleb128 0x25
 1847 0aa1 01       		.uleb128 0x1
 1848 0aa2 50       		.byte	0x50
 1849 0aa3 05       		.uleb128 0x5
 1850 0aa4 03       		.byte	0x3
 1851 0aa5 00000000 		.4byte	.LANCHOR0
 1852 0aa9 25       		.uleb128 0x25
 1853 0aaa 01       		.uleb128 0x1
 1854 0aab 51       		.byte	0x51
 1855 0aac 01       		.uleb128 0x1
 1856 0aad 40       		.byte	0x40
 1857 0aae 00       		.byte	0
 1858 0aaf 23       		.uleb128 0x23
 1859 0ab0 C2000000 		.4byte	.LVL33
 1860 0ab4 CC0E0000 		.4byte	0xecc
 1861 0ab8 24       		.uleb128 0x24
 1862 0ab9 C8000000 		.4byte	.LVL34
 1863 0abd CC0E0000 		.4byte	0xecc
 1864 0ac1 CC0A0000 		.4byte	0xacc
 1865 0ac5 25       		.uleb128 0x25
 1866 0ac6 01       		.uleb128 0x1
 1867 0ac7 50       		.byte	0x50
 1868 0ac8 02       		.uleb128 0x2
 1869 0ac9 75       		.byte	0x75
ARM GAS  /tmp/cciy8LS1.s 			page 34


 1870 0aca 00       		.sleb128 0
 1871 0acb 00       		.byte	0
 1872 0acc 24       		.uleb128 0x24
 1873 0acd CE000000 		.4byte	.LVL35
 1874 0ad1 CC0E0000 		.4byte	0xecc
 1875 0ad5 E00A0000 		.4byte	0xae0
 1876 0ad9 25       		.uleb128 0x25
 1877 0ada 01       		.uleb128 0x1
 1878 0adb 50       		.byte	0x50
 1879 0adc 02       		.uleb128 0x2
 1880 0add 74       		.byte	0x74
 1881 0ade 00       		.sleb128 0
 1882 0adf 00       		.byte	0
 1883 0ae0 24       		.uleb128 0x24
 1884 0ae1 D6000000 		.4byte	.LVL36
 1885 0ae5 AB0E0000 		.4byte	0xeab
 1886 0ae9 FD0A0000 		.4byte	0xafd
 1887 0aed 25       		.uleb128 0x25
 1888 0aee 01       		.uleb128 0x1
 1889 0aef 50       		.byte	0x50
 1890 0af0 05       		.uleb128 0x5
 1891 0af1 03       		.byte	0x3
 1892 0af2 00000000 		.4byte	.LANCHOR0
 1893 0af6 25       		.uleb128 0x25
 1894 0af7 01       		.uleb128 0x1
 1895 0af8 51       		.byte	0x51
 1896 0af9 02       		.uleb128 0x2
 1897 0afa 7D       		.byte	0x7d
 1898 0afb 00       		.sleb128 0
 1899 0afc 00       		.byte	0
 1900 0afd 24       		.uleb128 0x24
 1901 0afe E6000000 		.4byte	.LVL37
 1902 0b02 C10E0000 		.4byte	0xec1
 1903 0b06 100B0000 		.4byte	0xb10
 1904 0b0a 25       		.uleb128 0x25
 1905 0b0b 01       		.uleb128 0x1
 1906 0b0c 50       		.byte	0x50
 1907 0b0d 01       		.uleb128 0x1
 1908 0b0e 34       		.byte	0x34
 1909 0b0f 00       		.byte	0
 1910 0b10 24       		.uleb128 0x24
 1911 0b11 F2000000 		.4byte	.LVL38
 1912 0b15 B60E0000 		.4byte	0xeb6
 1913 0b19 2C0B0000 		.4byte	0xb2c
 1914 0b1d 25       		.uleb128 0x25
 1915 0b1e 01       		.uleb128 0x1
 1916 0b1f 50       		.byte	0x50
 1917 0b20 05       		.uleb128 0x5
 1918 0b21 03       		.byte	0x3
 1919 0b22 00000000 		.4byte	.LANCHOR0
 1920 0b26 25       		.uleb128 0x25
 1921 0b27 01       		.uleb128 0x1
 1922 0b28 51       		.byte	0x51
 1923 0b29 01       		.uleb128 0x1
 1924 0b2a 41       		.byte	0x41
 1925 0b2b 00       		.byte	0
 1926 0b2c 24       		.uleb128 0x24
ARM GAS  /tmp/cciy8LS1.s 			page 35


 1927 0b2d FC000000 		.4byte	.LVL41
 1928 0b31 B60E0000 		.4byte	0xeb6
 1929 0b35 480B0000 		.4byte	0xb48
 1930 0b39 25       		.uleb128 0x25
 1931 0b3a 01       		.uleb128 0x1
 1932 0b3b 50       		.byte	0x50
 1933 0b3c 05       		.uleb128 0x5
 1934 0b3d 03       		.byte	0x3
 1935 0b3e 00000000 		.4byte	.LANCHOR0
 1936 0b42 25       		.uleb128 0x25
 1937 0b43 01       		.uleb128 0x1
 1938 0b44 51       		.byte	0x51
 1939 0b45 01       		.uleb128 0x1
 1940 0b46 40       		.byte	0x40
 1941 0b47 00       		.byte	0
 1942 0b48 24       		.uleb128 0x24
 1943 0b49 04010000 		.4byte	.LVL44
 1944 0b4d CC0E0000 		.4byte	0xecc
 1945 0b51 5C0B0000 		.4byte	0xb5c
 1946 0b55 25       		.uleb128 0x25
 1947 0b56 01       		.uleb128 0x1
 1948 0b57 50       		.byte	0x50
 1949 0b58 02       		.uleb128 0x2
 1950 0b59 74       		.byte	0x74
 1951 0b5a 00       		.sleb128 0
 1952 0b5b 00       		.byte	0
 1953 0b5c 24       		.uleb128 0x24
 1954 0b5d 0C010000 		.4byte	.LVL45
 1955 0b61 AB0E0000 		.4byte	0xeab
 1956 0b65 790B0000 		.4byte	0xb79
 1957 0b69 25       		.uleb128 0x25
 1958 0b6a 01       		.uleb128 0x1
 1959 0b6b 50       		.byte	0x50
 1960 0b6c 05       		.uleb128 0x5
 1961 0b6d 03       		.byte	0x3
 1962 0b6e 00000000 		.4byte	.LANCHOR0
 1963 0b72 25       		.uleb128 0x25
 1964 0b73 01       		.uleb128 0x1
 1965 0b74 51       		.byte	0x51
 1966 0b75 02       		.uleb128 0x2
 1967 0b76 7D       		.byte	0x7d
 1968 0b77 00       		.sleb128 0
 1969 0b78 00       		.byte	0
 1970 0b79 24       		.uleb128 0x24
 1971 0b7a 1C010000 		.4byte	.LVL46
 1972 0b7e C10E0000 		.4byte	0xec1
 1973 0b82 8C0B0000 		.4byte	0xb8c
 1974 0b86 25       		.uleb128 0x25
 1975 0b87 01       		.uleb128 0x1
 1976 0b88 50       		.byte	0x50
 1977 0b89 01       		.uleb128 0x1
 1978 0b8a 35       		.byte	0x35
 1979 0b8b 00       		.byte	0
 1980 0b8c 24       		.uleb128 0x24
 1981 0b8d 28010000 		.4byte	.LVL47
 1982 0b91 B60E0000 		.4byte	0xeb6
 1983 0b95 A80B0000 		.4byte	0xba8
ARM GAS  /tmp/cciy8LS1.s 			page 36


 1984 0b99 25       		.uleb128 0x25
 1985 0b9a 01       		.uleb128 0x1
 1986 0b9b 50       		.byte	0x50
 1987 0b9c 05       		.uleb128 0x5
 1988 0b9d 03       		.byte	0x3
 1989 0b9e 00000000 		.4byte	.LANCHOR0
 1990 0ba2 25       		.uleb128 0x25
 1991 0ba3 01       		.uleb128 0x1
 1992 0ba4 51       		.byte	0x51
 1993 0ba5 01       		.uleb128 0x1
 1994 0ba6 40       		.byte	0x40
 1995 0ba7 00       		.byte	0
 1996 0ba8 24       		.uleb128 0x24
 1997 0ba9 32010000 		.4byte	.LVL50
 1998 0bad AB0E0000 		.4byte	0xeab
 1999 0bb1 C50B0000 		.4byte	0xbc5
 2000 0bb5 25       		.uleb128 0x25
 2001 0bb6 01       		.uleb128 0x1
 2002 0bb7 50       		.byte	0x50
 2003 0bb8 05       		.uleb128 0x5
 2004 0bb9 03       		.byte	0x3
 2005 0bba 00000000 		.4byte	.LANCHOR0
 2006 0bbe 25       		.uleb128 0x25
 2007 0bbf 01       		.uleb128 0x1
 2008 0bc0 51       		.byte	0x51
 2009 0bc1 02       		.uleb128 0x2
 2010 0bc2 7D       		.byte	0x7d
 2011 0bc3 00       		.sleb128 0
 2012 0bc4 00       		.byte	0
 2013 0bc5 24       		.uleb128 0x24
 2014 0bc6 40010000 		.4byte	.LVL51
 2015 0bca AB0E0000 		.4byte	0xeab
 2016 0bce E20B0000 		.4byte	0xbe2
 2017 0bd2 25       		.uleb128 0x25
 2018 0bd3 01       		.uleb128 0x1
 2019 0bd4 50       		.byte	0x50
 2020 0bd5 05       		.uleb128 0x5
 2021 0bd6 03       		.byte	0x3
 2022 0bd7 00000000 		.4byte	.LANCHOR0
 2023 0bdb 25       		.uleb128 0x25
 2024 0bdc 01       		.uleb128 0x1
 2025 0bdd 51       		.byte	0x51
 2026 0bde 02       		.uleb128 0x2
 2027 0bdf 7D       		.byte	0x7d
 2028 0be0 00       		.sleb128 0
 2029 0be1 00       		.byte	0
 2030 0be2 24       		.uleb128 0x24
 2031 0be3 50010000 		.4byte	.LVL52
 2032 0be7 C10E0000 		.4byte	0xec1
 2033 0beb F50B0000 		.4byte	0xbf5
 2034 0bef 25       		.uleb128 0x25
 2035 0bf0 01       		.uleb128 0x1
 2036 0bf1 50       		.byte	0x50
 2037 0bf2 01       		.uleb128 0x1
 2038 0bf3 36       		.byte	0x36
 2039 0bf4 00       		.byte	0
 2040 0bf5 24       		.uleb128 0x24
ARM GAS  /tmp/cciy8LS1.s 			page 37


 2041 0bf6 5C010000 		.4byte	.LVL53
 2042 0bfa CC0E0000 		.4byte	0xecc
 2043 0bfe 090C0000 		.4byte	0xc09
 2044 0c02 25       		.uleb128 0x25
 2045 0c03 01       		.uleb128 0x1
 2046 0c04 50       		.byte	0x50
 2047 0c05 02       		.uleb128 0x2
 2048 0c06 75       		.byte	0x75
 2049 0c07 00       		.sleb128 0
 2050 0c08 00       		.byte	0
 2051 0c09 24       		.uleb128 0x24
 2052 0c0a 62010000 		.4byte	.LVL54
 2053 0c0e CC0E0000 		.4byte	0xecc
 2054 0c12 1D0C0000 		.4byte	0xc1d
 2055 0c16 25       		.uleb128 0x25
 2056 0c17 01       		.uleb128 0x1
 2057 0c18 50       		.byte	0x50
 2058 0c19 02       		.uleb128 0x2
 2059 0c1a 74       		.byte	0x74
 2060 0c1b 00       		.sleb128 0
 2061 0c1c 00       		.byte	0
 2062 0c1d 24       		.uleb128 0x24
 2063 0c1e 6A010000 		.4byte	.LVL55
 2064 0c22 AB0E0000 		.4byte	0xeab
 2065 0c26 3A0C0000 		.4byte	0xc3a
 2066 0c2a 25       		.uleb128 0x25
 2067 0c2b 01       		.uleb128 0x1
 2068 0c2c 50       		.byte	0x50
 2069 0c2d 05       		.uleb128 0x5
 2070 0c2e 03       		.byte	0x3
 2071 0c2f 00000000 		.4byte	.LANCHOR0
 2072 0c33 25       		.uleb128 0x25
 2073 0c34 01       		.uleb128 0x1
 2074 0c35 51       		.byte	0x51
 2075 0c36 02       		.uleb128 0x2
 2076 0c37 7D       		.byte	0x7d
 2077 0c38 00       		.sleb128 0
 2078 0c39 00       		.byte	0
 2079 0c3a 24       		.uleb128 0x24
 2080 0c3b 76010000 		.4byte	.LVL56
 2081 0c3f C10E0000 		.4byte	0xec1
 2082 0c43 550C0000 		.4byte	0xc55
 2083 0c47 25       		.uleb128 0x25
 2084 0c48 01       		.uleb128 0x1
 2085 0c49 50       		.byte	0x50
 2086 0c4a 01       		.uleb128 0x1
 2087 0c4b 37       		.byte	0x37
 2088 0c4c 25       		.uleb128 0x25
 2089 0c4d 01       		.uleb128 0x1
 2090 0c4e 51       		.byte	0x51
 2091 0c4f 04       		.uleb128 0x4
 2092 0c50 76       		.byte	0x76
 2093 0c51 00       		.sleb128 0
 2094 0c52 30       		.byte	0x30
 2095 0c53 29       		.byte	0x29
 2096 0c54 00       		.byte	0
 2097 0c55 24       		.uleb128 0x24
ARM GAS  /tmp/cciy8LS1.s 			page 38


 2098 0c56 84010000 		.4byte	.LVL57
 2099 0c5a B60E0000 		.4byte	0xeb6
 2100 0c5e 710C0000 		.4byte	0xc71
 2101 0c62 25       		.uleb128 0x25
 2102 0c63 01       		.uleb128 0x1
 2103 0c64 50       		.byte	0x50
 2104 0c65 05       		.uleb128 0x5
 2105 0c66 03       		.byte	0x3
 2106 0c67 00000000 		.4byte	.LANCHOR0
 2107 0c6b 25       		.uleb128 0x25
 2108 0c6c 01       		.uleb128 0x1
 2109 0c6d 51       		.byte	0x51
 2110 0c6e 01       		.uleb128 0x1
 2111 0c6f 40       		.byte	0x40
 2112 0c70 00       		.byte	0
 2113 0c71 24       		.uleb128 0x24
 2114 0c72 8E010000 		.4byte	.LVL60
 2115 0c76 B60E0000 		.4byte	0xeb6
 2116 0c7a 8D0C0000 		.4byte	0xc8d
 2117 0c7e 25       		.uleb128 0x25
 2118 0c7f 01       		.uleb128 0x1
 2119 0c80 50       		.byte	0x50
 2120 0c81 05       		.uleb128 0x5
 2121 0c82 03       		.byte	0x3
 2122 0c83 00000000 		.4byte	.LANCHOR0
 2123 0c87 25       		.uleb128 0x25
 2124 0c88 01       		.uleb128 0x1
 2125 0c89 51       		.byte	0x51
 2126 0c8a 01       		.uleb128 0x1
 2127 0c8b 40       		.byte	0x40
 2128 0c8c 00       		.byte	0
 2129 0c8d 24       		.uleb128 0x24
 2130 0c8e 96010000 		.4byte	.LVL63
 2131 0c92 CC0E0000 		.4byte	0xecc
 2132 0c96 A10C0000 		.4byte	0xca1
 2133 0c9a 25       		.uleb128 0x25
 2134 0c9b 01       		.uleb128 0x1
 2135 0c9c 50       		.byte	0x50
 2136 0c9d 02       		.uleb128 0x2
 2137 0c9e 75       		.byte	0x75
 2138 0c9f 00       		.sleb128 0
 2139 0ca0 00       		.byte	0
 2140 0ca1 24       		.uleb128 0x24
 2141 0ca2 9E010000 		.4byte	.LVL64
 2142 0ca6 AB0E0000 		.4byte	0xeab
 2143 0caa BE0C0000 		.4byte	0xcbe
 2144 0cae 25       		.uleb128 0x25
 2145 0caf 01       		.uleb128 0x1
 2146 0cb0 50       		.byte	0x50
 2147 0cb1 05       		.uleb128 0x5
 2148 0cb2 03       		.byte	0x3
 2149 0cb3 00000000 		.4byte	.LANCHOR0
 2150 0cb7 25       		.uleb128 0x25
 2151 0cb8 01       		.uleb128 0x1
 2152 0cb9 51       		.byte	0x51
 2153 0cba 02       		.uleb128 0x2
 2154 0cbb 7D       		.byte	0x7d
ARM GAS  /tmp/cciy8LS1.s 			page 39


 2155 0cbc 00       		.sleb128 0
 2156 0cbd 00       		.byte	0
 2157 0cbe 24       		.uleb128 0x24
 2158 0cbf AA010000 		.4byte	.LVL66
 2159 0cc3 C10E0000 		.4byte	0xec1
 2160 0cc7 D90C0000 		.4byte	0xcd9
 2161 0ccb 25       		.uleb128 0x25
 2162 0ccc 01       		.uleb128 0x1
 2163 0ccd 50       		.byte	0x50
 2164 0cce 01       		.uleb128 0x1
 2165 0ccf 38       		.byte	0x38
 2166 0cd0 25       		.uleb128 0x25
 2167 0cd1 01       		.uleb128 0x1
 2168 0cd2 51       		.byte	0x51
 2169 0cd3 04       		.uleb128 0x4
 2170 0cd4 75       		.byte	0x75
 2171 0cd5 00       		.sleb128 0
 2172 0cd6 30       		.byte	0x30
 2173 0cd7 29       		.byte	0x29
 2174 0cd8 00       		.byte	0
 2175 0cd9 24       		.uleb128 0x24
 2176 0cda B8010000 		.4byte	.LVL67
 2177 0cde B60E0000 		.4byte	0xeb6
 2178 0ce2 F60C0000 		.4byte	0xcf6
 2179 0ce6 25       		.uleb128 0x25
 2180 0ce7 01       		.uleb128 0x1
 2181 0ce8 50       		.byte	0x50
 2182 0ce9 05       		.uleb128 0x5
 2183 0cea 03       		.byte	0x3
 2184 0ceb 00000000 		.4byte	.LANCHOR0
 2185 0cef 25       		.uleb128 0x25
 2186 0cf0 01       		.uleb128 0x1
 2187 0cf1 51       		.byte	0x51
 2188 0cf2 02       		.uleb128 0x2
 2189 0cf3 08       		.byte	0x8
 2190 0cf4 20       		.byte	0x20
 2191 0cf5 00       		.byte	0
 2192 0cf6 23       		.uleb128 0x23
 2193 0cf7 BC010000 		.4byte	.LVL68
 2194 0cfb CC0E0000 		.4byte	0xecc
 2195 0cff 24       		.uleb128 0x24
 2196 0d00 C2010000 		.4byte	.LVL69
 2197 0d04 CC0E0000 		.4byte	0xecc
 2198 0d08 130D0000 		.4byte	0xd13
 2199 0d0c 25       		.uleb128 0x25
 2200 0d0d 01       		.uleb128 0x1
 2201 0d0e 50       		.byte	0x50
 2202 0d0f 02       		.uleb128 0x2
 2203 0d10 74       		.byte	0x74
 2204 0d11 00       		.sleb128 0
 2205 0d12 00       		.byte	0
 2206 0d13 24       		.uleb128 0x24
 2207 0d14 CA010000 		.4byte	.LVL70
 2208 0d18 AB0E0000 		.4byte	0xeab
 2209 0d1c 300D0000 		.4byte	0xd30
 2210 0d20 25       		.uleb128 0x25
 2211 0d21 01       		.uleb128 0x1
ARM GAS  /tmp/cciy8LS1.s 			page 40


 2212 0d22 50       		.byte	0x50
 2213 0d23 05       		.uleb128 0x5
 2214 0d24 03       		.byte	0x3
 2215 0d25 00000000 		.4byte	.LANCHOR0
 2216 0d29 25       		.uleb128 0x25
 2217 0d2a 01       		.uleb128 0x1
 2218 0d2b 51       		.byte	0x51
 2219 0d2c 02       		.uleb128 0x2
 2220 0d2d 7D       		.byte	0x7d
 2221 0d2e 00       		.sleb128 0
 2222 0d2f 00       		.byte	0
 2223 0d30 24       		.uleb128 0x24
 2224 0d31 D6010000 		.4byte	.LVL71
 2225 0d35 C10E0000 		.4byte	0xec1
 2226 0d39 430D0000 		.4byte	0xd43
 2227 0d3d 25       		.uleb128 0x25
 2228 0d3e 01       		.uleb128 0x1
 2229 0d3f 50       		.byte	0x50
 2230 0d40 01       		.uleb128 0x1
 2231 0d41 39       		.byte	0x39
 2232 0d42 00       		.byte	0
 2233 0d43 24       		.uleb128 0x24
 2234 0d44 E4010000 		.4byte	.LVL72
 2235 0d48 AB0E0000 		.4byte	0xeab
 2236 0d4c 600D0000 		.4byte	0xd60
 2237 0d50 25       		.uleb128 0x25
 2238 0d51 01       		.uleb128 0x1
 2239 0d52 50       		.byte	0x50
 2240 0d53 05       		.uleb128 0x5
 2241 0d54 03       		.byte	0x3
 2242 0d55 00000000 		.4byte	.LANCHOR0
 2243 0d59 25       		.uleb128 0x25
 2244 0d5a 01       		.uleb128 0x1
 2245 0d5b 51       		.byte	0x51
 2246 0d5c 02       		.uleb128 0x2
 2247 0d5d 7D       		.byte	0x7d
 2248 0d5e 00       		.sleb128 0
 2249 0d5f 00       		.byte	0
 2250 0d60 24       		.uleb128 0x24
 2251 0d61 EC010000 		.4byte	.LVL73
 2252 0d65 B60E0000 		.4byte	0xeb6
 2253 0d69 770D0000 		.4byte	0xd77
 2254 0d6d 25       		.uleb128 0x25
 2255 0d6e 01       		.uleb128 0x1
 2256 0d6f 50       		.byte	0x50
 2257 0d70 05       		.uleb128 0x5
 2258 0d71 03       		.byte	0x3
 2259 0d72 00000000 		.4byte	.LANCHOR0
 2260 0d76 00       		.byte	0
 2261 0d77 24       		.uleb128 0x24
 2262 0d78 F6010000 		.4byte	.LVL76
 2263 0d7c AB0E0000 		.4byte	0xeab
 2264 0d80 940D0000 		.4byte	0xd94
 2265 0d84 25       		.uleb128 0x25
 2266 0d85 01       		.uleb128 0x1
 2267 0d86 50       		.byte	0x50
 2268 0d87 05       		.uleb128 0x5
ARM GAS  /tmp/cciy8LS1.s 			page 41


 2269 0d88 03       		.byte	0x3
 2270 0d89 00000000 		.4byte	.LANCHOR0
 2271 0d8d 25       		.uleb128 0x25
 2272 0d8e 01       		.uleb128 0x1
 2273 0d8f 51       		.byte	0x51
 2274 0d90 02       		.uleb128 0x2
 2275 0d91 7D       		.byte	0x7d
 2276 0d92 00       		.sleb128 0
 2277 0d93 00       		.byte	0
 2278 0d94 24       		.uleb128 0x24
 2279 0d95 02020000 		.4byte	.LVL77
 2280 0d99 C10E0000 		.4byte	0xec1
 2281 0d9d A70D0000 		.4byte	0xda7
 2282 0da1 25       		.uleb128 0x25
 2283 0da2 01       		.uleb128 0x1
 2284 0da3 50       		.byte	0x50
 2285 0da4 01       		.uleb128 0x1
 2286 0da5 3A       		.byte	0x3a
 2287 0da6 00       		.byte	0
 2288 0da7 24       		.uleb128 0x24
 2289 0da8 0E020000 		.4byte	.LVL78
 2290 0dac CC0E0000 		.4byte	0xecc
 2291 0db0 BB0D0000 		.4byte	0xdbb
 2292 0db4 25       		.uleb128 0x25
 2293 0db5 01       		.uleb128 0x1
 2294 0db6 50       		.byte	0x50
 2295 0db7 02       		.uleb128 0x2
 2296 0db8 74       		.byte	0x74
 2297 0db9 00       		.sleb128 0
 2298 0dba 00       		.byte	0
 2299 0dbb 24       		.uleb128 0x24
 2300 0dbc 16020000 		.4byte	.LVL79
 2301 0dc0 AB0E0000 		.4byte	0xeab
 2302 0dc4 D80D0000 		.4byte	0xdd8
 2303 0dc8 25       		.uleb128 0x25
 2304 0dc9 01       		.uleb128 0x1
 2305 0dca 50       		.byte	0x50
 2306 0dcb 05       		.uleb128 0x5
 2307 0dcc 03       		.byte	0x3
 2308 0dcd 00000000 		.4byte	.LANCHOR0
 2309 0dd1 25       		.uleb128 0x25
 2310 0dd2 01       		.uleb128 0x1
 2311 0dd3 51       		.byte	0x51
 2312 0dd4 02       		.uleb128 0x2
 2313 0dd5 7D       		.byte	0x7d
 2314 0dd6 00       		.sleb128 0
 2315 0dd7 00       		.byte	0
 2316 0dd8 24       		.uleb128 0x24
 2317 0dd9 22020000 		.4byte	.LVL80
 2318 0ddd C10E0000 		.4byte	0xec1
 2319 0de1 EB0D0000 		.4byte	0xdeb
 2320 0de5 25       		.uleb128 0x25
 2321 0de6 01       		.uleb128 0x1
 2322 0de7 50       		.byte	0x50
 2323 0de8 01       		.uleb128 0x1
 2324 0de9 3B       		.byte	0x3b
 2325 0dea 00       		.byte	0
ARM GAS  /tmp/cciy8LS1.s 			page 42


 2326 0deb 26       		.uleb128 0x26
 2327 0dec 38020000 		.4byte	.LVL81
 2328 0df0 C10E0000 		.4byte	0xec1
 2329 0df4 25       		.uleb128 0x25
 2330 0df5 01       		.uleb128 0x1
 2331 0df6 50       		.byte	0x50
 2332 0df7 01       		.uleb128 0x1
 2333 0df8 3C       		.byte	0x3c
 2334 0df9 00       		.byte	0
 2335 0dfa 00       		.byte	0
 2336 0dfb 20       		.uleb128 0x20
 2337 0dfc 69040000 		.4byte	.LASF122
 2338 0e00 01       		.byte	0x1
 2339 0e01 40       		.byte	0x40
 2340 0e02 00000000 		.4byte	.LFB229
 2341 0e06 14000000 		.4byte	.LFE229-.LFB229
 2342 0e0a 01       		.uleb128 0x1
 2343 0e0b 9C       		.byte	0x9c
 2344 0e0c 2B0E0000 		.4byte	0xe2b
 2345 0e10 27       		.uleb128 0x27
 2346 0e11 0C000000 		.4byte	.LVL83
 2347 0e15 D70E0000 		.4byte	0xed7
 2348 0e19 25       		.uleb128 0x25
 2349 0e1a 01       		.uleb128 0x1
 2350 0e1b 50       		.byte	0x50
 2351 0e1c 05       		.uleb128 0x5
 2352 0e1d 03       		.byte	0x3
 2353 0e1e 00000000 		.4byte	.LANCHOR0
 2354 0e22 25       		.uleb128 0x25
 2355 0e23 01       		.uleb128 0x1
 2356 0e24 52       		.byte	0x52
 2357 0e25 03       		.uleb128 0x3
 2358 0e26 0A       		.byte	0xa
 2359 0e27 1009     		.2byte	0x910
 2360 0e29 00       		.byte	0
 2361 0e2a 00       		.byte	0
 2362 0e2b 28       		.uleb128 0x28
 2363 0e2c 0B060000 		.4byte	.LASF123
 2364 0e30 01       		.byte	0x1
 2365 0e31 33       		.byte	0x33
 2366 0e32 13070000 		.4byte	0x713
 2367 0e36 05       		.uleb128 0x5
 2368 0e37 03       		.byte	0x3
 2369 0e38 00000000 		.4byte	test_heap
 2370 0e3c 29       		.uleb128 0x29
 2371 0e3d 98000000 		.4byte	.LASF124
 2372 0e41 10       		.byte	0x10
 2373 0e42 A706     		.2byte	0x6a7
 2374 0e44 D5000000 		.4byte	0xd5
 2375 0e48 2A       		.uleb128 0x2a
 2376 0e49 636800   		.ascii	"ch\000"
 2377 0e4c 07       		.byte	0x7
 2378 0e4d 0902     		.2byte	0x209
 2379 0e4f EC030000 		.4byte	0x3ec
 2380 0e53 2B       		.uleb128 0x2b
 2381 0e54 7D000000 		.4byte	.LASF125
 2382 0e58 0F       		.byte	0xf
ARM GAS  /tmp/cciy8LS1.s 			page 43


 2383 0e59 A8       		.byte	0xa8
 2384 0e5a 53080000 		.4byte	0x853
 2385 0e5e 2C       		.uleb128 0x2c
 2386 0e5f 67020000 		.4byte	.LASF126
 2387 0e63 01       		.byte	0x1
 2388 0e64 8E       		.byte	0x8e
 2389 0e65 6F0E0000 		.4byte	0xe6f
 2390 0e69 05       		.uleb128 0x5
 2391 0e6a 03       		.byte	0x3
 2392 0e6b 00000000 		.4byte	testheap1
 2393 0e6f 14       		.uleb128 0x14
 2394 0e70 BA070000 		.4byte	0x7ba
 2395 0e74 15       		.uleb128 0x15
 2396 0e75 840E0000 		.4byte	0xe84
 2397 0e79 840E0000 		.4byte	0xe84
 2398 0e7d 16       		.uleb128 0x16
 2399 0e7e 53040000 		.4byte	0x453
 2400 0e82 01       		.byte	0x1
 2401 0e83 00       		.byte	0
 2402 0e84 0A       		.uleb128 0xa
 2403 0e85 04       		.byte	0x4
 2404 0e86 6F0E0000 		.4byte	0xe6f
 2405 0e8a 2C       		.uleb128 0x2c
 2406 0e8b C2000000 		.4byte	.LASF127
 2407 0e8f 01       		.byte	0x1
 2408 0e90 9A       		.byte	0x9a
 2409 0e91 9B0E0000 		.4byte	0xe9b
 2410 0e95 05       		.uleb128 0x5
 2411 0e96 03       		.byte	0x3
 2412 0e97 00000000 		.4byte	patternheap
 2413 0e9b 14       		.uleb128 0x14
 2414 0e9c 740E0000 		.4byte	0xe74
 2415 0ea0 2D       		.uleb128 0x2d
 2416 0ea1 18010000 		.4byte	.LASF128
 2417 0ea5 18010000 		.4byte	.LASF128
 2418 0ea9 0D       		.byte	0xd
 2419 0eaa 64       		.byte	0x64
 2420 0eab 2D       		.uleb128 0x2d
 2421 0eac 6A050000 		.4byte	.LASF129
 2422 0eb0 6A050000 		.4byte	.LASF129
 2423 0eb4 0E       		.byte	0xe
 2424 0eb5 69       		.byte	0x69
 2425 0eb6 2D       		.uleb128 0x2d
 2426 0eb7 F0040000 		.4byte	.LASF130
 2427 0ebb F0040000 		.4byte	.LASF130
 2428 0ebf 0E       		.byte	0xe
 2429 0ec0 67       		.byte	0x67
 2430 0ec1 2D       		.uleb128 0x2d
 2431 0ec2 33060000 		.4byte	.LASF131
 2432 0ec6 33060000 		.4byte	.LASF131
 2433 0eca 0F       		.byte	0xf
 2434 0ecb 5A       		.byte	0x5a
 2435 0ecc 2D       		.uleb128 0x2d
 2436 0ecd 06010000 		.4byte	.LASF132
 2437 0ed1 06010000 		.4byte	.LASF132
 2438 0ed5 0E       		.byte	0xe
 2439 0ed6 68       		.byte	0x68
ARM GAS  /tmp/cciy8LS1.s 			page 44


 2440 0ed7 2D       		.uleb128 0x2d
 2441 0ed8 71020000 		.4byte	.LASF133
 2442 0edc 71020000 		.4byte	.LASF133
 2443 0ee0 0E       		.byte	0xe
 2444 0ee1 66       		.byte	0x66
 2445 0ee2 00       		.byte	0
 2446              		.section	.debug_abbrev,"",%progbits
 2447              	.Ldebug_abbrev0:
 2448 0000 01       		.uleb128 0x1
 2449 0001 11       		.uleb128 0x11
 2450 0002 01       		.byte	0x1
 2451 0003 25       		.uleb128 0x25
 2452 0004 0E       		.uleb128 0xe
 2453 0005 13       		.uleb128 0x13
 2454 0006 0B       		.uleb128 0xb
 2455 0007 03       		.uleb128 0x3
 2456 0008 0E       		.uleb128 0xe
 2457 0009 1B       		.uleb128 0x1b
 2458 000a 0E       		.uleb128 0xe
 2459 000b 55       		.uleb128 0x55
 2460 000c 17       		.uleb128 0x17
 2461 000d 11       		.uleb128 0x11
 2462 000e 01       		.uleb128 0x1
 2463 000f 10       		.uleb128 0x10
 2464 0010 17       		.uleb128 0x17
 2465 0011 00       		.byte	0
 2466 0012 00       		.byte	0
 2467 0013 02       		.uleb128 0x2
 2468 0014 24       		.uleb128 0x24
 2469 0015 00       		.byte	0
 2470 0016 0B       		.uleb128 0xb
 2471 0017 0B       		.uleb128 0xb
 2472 0018 3E       		.uleb128 0x3e
 2473 0019 0B       		.uleb128 0xb
 2474 001a 03       		.uleb128 0x3
 2475 001b 08       		.uleb128 0x8
 2476 001c 00       		.byte	0
 2477 001d 00       		.byte	0
 2478 001e 03       		.uleb128 0x3
 2479 001f 16       		.uleb128 0x16
 2480 0020 00       		.byte	0
 2481 0021 03       		.uleb128 0x3
 2482 0022 0E       		.uleb128 0xe
 2483 0023 3A       		.uleb128 0x3a
 2484 0024 0B       		.uleb128 0xb
 2485 0025 3B       		.uleb128 0x3b
 2486 0026 0B       		.uleb128 0xb
 2487 0027 49       		.uleb128 0x49
 2488 0028 13       		.uleb128 0x13
 2489 0029 00       		.byte	0
 2490 002a 00       		.byte	0
 2491 002b 04       		.uleb128 0x4
 2492 002c 24       		.uleb128 0x24
 2493 002d 00       		.byte	0
 2494 002e 0B       		.uleb128 0xb
 2495 002f 0B       		.uleb128 0xb
 2496 0030 3E       		.uleb128 0x3e
ARM GAS  /tmp/cciy8LS1.s 			page 45


 2497 0031 0B       		.uleb128 0xb
 2498 0032 03       		.uleb128 0x3
 2499 0033 0E       		.uleb128 0xe
 2500 0034 00       		.byte	0
 2501 0035 00       		.byte	0
 2502 0036 05       		.uleb128 0x5
 2503 0037 35       		.uleb128 0x35
 2504 0038 00       		.byte	0
 2505 0039 49       		.uleb128 0x49
 2506 003a 13       		.uleb128 0x13
 2507 003b 00       		.byte	0
 2508 003c 00       		.byte	0
 2509 003d 06       		.uleb128 0x6
 2510 003e 13       		.uleb128 0x13
 2511 003f 01       		.byte	0x1
 2512 0040 03       		.uleb128 0x3
 2513 0041 0E       		.uleb128 0xe
 2514 0042 0B       		.uleb128 0xb
 2515 0043 0B       		.uleb128 0xb
 2516 0044 3A       		.uleb128 0x3a
 2517 0045 0B       		.uleb128 0xb
 2518 0046 3B       		.uleb128 0x3b
 2519 0047 0B       		.uleb128 0xb
 2520 0048 01       		.uleb128 0x1
 2521 0049 13       		.uleb128 0x13
 2522 004a 00       		.byte	0
 2523 004b 00       		.byte	0
 2524 004c 07       		.uleb128 0x7
 2525 004d 0D       		.uleb128 0xd
 2526 004e 00       		.byte	0
 2527 004f 03       		.uleb128 0x3
 2528 0050 0E       		.uleb128 0xe
 2529 0051 3A       		.uleb128 0x3a
 2530 0052 0B       		.uleb128 0xb
 2531 0053 3B       		.uleb128 0x3b
 2532 0054 0B       		.uleb128 0xb
 2533 0055 49       		.uleb128 0x49
 2534 0056 13       		.uleb128 0x13
 2535 0057 38       		.uleb128 0x38
 2536 0058 0B       		.uleb128 0xb
 2537 0059 00       		.byte	0
 2538 005a 00       		.byte	0
 2539 005b 08       		.uleb128 0x8
 2540 005c 0D       		.uleb128 0xd
 2541 005d 00       		.byte	0
 2542 005e 03       		.uleb128 0x3
 2543 005f 08       		.uleb128 0x8
 2544 0060 3A       		.uleb128 0x3a
 2545 0061 0B       		.uleb128 0xb
 2546 0062 3B       		.uleb128 0x3b
 2547 0063 05       		.uleb128 0x5
 2548 0064 49       		.uleb128 0x49
 2549 0065 13       		.uleb128 0x13
 2550 0066 38       		.uleb128 0x38
 2551 0067 0B       		.uleb128 0xb
 2552 0068 00       		.byte	0
 2553 0069 00       		.byte	0
ARM GAS  /tmp/cciy8LS1.s 			page 46


 2554 006a 09       		.uleb128 0x9
 2555 006b 0D       		.uleb128 0xd
 2556 006c 00       		.byte	0
 2557 006d 03       		.uleb128 0x3
 2558 006e 0E       		.uleb128 0xe
 2559 006f 3A       		.uleb128 0x3a
 2560 0070 0B       		.uleb128 0xb
 2561 0071 3B       		.uleb128 0x3b
 2562 0072 05       		.uleb128 0x5
 2563 0073 49       		.uleb128 0x49
 2564 0074 13       		.uleb128 0x13
 2565 0075 38       		.uleb128 0x38
 2566 0076 0B       		.uleb128 0xb
 2567 0077 00       		.byte	0
 2568 0078 00       		.byte	0
 2569 0079 0A       		.uleb128 0xa
 2570 007a 0F       		.uleb128 0xf
 2571 007b 00       		.byte	0
 2572 007c 0B       		.uleb128 0xb
 2573 007d 0B       		.uleb128 0xb
 2574 007e 49       		.uleb128 0x49
 2575 007f 13       		.uleb128 0x13
 2576 0080 00       		.byte	0
 2577 0081 00       		.byte	0
 2578 0082 0B       		.uleb128 0xb
 2579 0083 13       		.uleb128 0x13
 2580 0084 01       		.byte	0x1
 2581 0085 03       		.uleb128 0x3
 2582 0086 0E       		.uleb128 0xe
 2583 0087 0B       		.uleb128 0xb
 2584 0088 0B       		.uleb128 0xb
 2585 0089 3A       		.uleb128 0x3a
 2586 008a 0B       		.uleb128 0xb
 2587 008b 3B       		.uleb128 0x3b
 2588 008c 05       		.uleb128 0x5
 2589 008d 01       		.uleb128 0x1
 2590 008e 13       		.uleb128 0x13
 2591 008f 00       		.byte	0
 2592 0090 00       		.byte	0
 2593 0091 0C       		.uleb128 0xc
 2594 0092 15       		.uleb128 0x15
 2595 0093 01       		.byte	0x1
 2596 0094 27       		.uleb128 0x27
 2597 0095 19       		.uleb128 0x19
 2598 0096 01       		.uleb128 0x1
 2599 0097 13       		.uleb128 0x13
 2600 0098 00       		.byte	0
 2601 0099 00       		.byte	0
 2602 009a 0D       		.uleb128 0xd
 2603 009b 05       		.uleb128 0x5
 2604 009c 00       		.byte	0
 2605 009d 49       		.uleb128 0x49
 2606 009e 13       		.uleb128 0x13
 2607 009f 00       		.byte	0
 2608 00a0 00       		.byte	0
 2609 00a1 0E       		.uleb128 0xe
 2610 00a2 0F       		.uleb128 0xf
ARM GAS  /tmp/cciy8LS1.s 			page 47


 2611 00a3 00       		.byte	0
 2612 00a4 0B       		.uleb128 0xb
 2613 00a5 0B       		.uleb128 0xb
 2614 00a6 00       		.byte	0
 2615 00a7 00       		.byte	0
 2616 00a8 0F       		.uleb128 0xf
 2617 00a9 13       		.uleb128 0x13
 2618 00aa 01       		.byte	0x1
 2619 00ab 03       		.uleb128 0x3
 2620 00ac 0E       		.uleb128 0xe
 2621 00ad 0B       		.uleb128 0xb
 2622 00ae 05       		.uleb128 0x5
 2623 00af 3A       		.uleb128 0x3a
 2624 00b0 0B       		.uleb128 0xb
 2625 00b1 3B       		.uleb128 0x3b
 2626 00b2 05       		.uleb128 0x5
 2627 00b3 01       		.uleb128 0x1
 2628 00b4 13       		.uleb128 0x13
 2629 00b5 00       		.byte	0
 2630 00b6 00       		.byte	0
 2631 00b7 10       		.uleb128 0x10
 2632 00b8 0D       		.uleb128 0xd
 2633 00b9 00       		.byte	0
 2634 00ba 03       		.uleb128 0x3
 2635 00bb 08       		.uleb128 0x8
 2636 00bc 3A       		.uleb128 0x3a
 2637 00bd 0B       		.uleb128 0xb
 2638 00be 3B       		.uleb128 0x3b
 2639 00bf 0B       		.uleb128 0xb
 2640 00c0 49       		.uleb128 0x49
 2641 00c1 13       		.uleb128 0x13
 2642 00c2 38       		.uleb128 0x38
 2643 00c3 0B       		.uleb128 0xb
 2644 00c4 00       		.byte	0
 2645 00c5 00       		.byte	0
 2646 00c6 11       		.uleb128 0x11
 2647 00c7 13       		.uleb128 0x13
 2648 00c8 01       		.byte	0x1
 2649 00c9 0B       		.uleb128 0xb
 2650 00ca 0B       		.uleb128 0xb
 2651 00cb 3A       		.uleb128 0x3a
 2652 00cc 0B       		.uleb128 0xb
 2653 00cd 3B       		.uleb128 0x3b
 2654 00ce 0B       		.uleb128 0xb
 2655 00cf 01       		.uleb128 0x1
 2656 00d0 13       		.uleb128 0x13
 2657 00d1 00       		.byte	0
 2658 00d2 00       		.byte	0
 2659 00d3 12       		.uleb128 0x12
 2660 00d4 17       		.uleb128 0x17
 2661 00d5 01       		.byte	0x1
 2662 00d6 0B       		.uleb128 0xb
 2663 00d7 0B       		.uleb128 0xb
 2664 00d8 3A       		.uleb128 0x3a
 2665 00d9 0B       		.uleb128 0xb
 2666 00da 3B       		.uleb128 0x3b
 2667 00db 0B       		.uleb128 0xb
ARM GAS  /tmp/cciy8LS1.s 			page 48


 2668 00dc 01       		.uleb128 0x1
 2669 00dd 13       		.uleb128 0x13
 2670 00de 00       		.byte	0
 2671 00df 00       		.byte	0
 2672 00e0 13       		.uleb128 0x13
 2673 00e1 0D       		.uleb128 0xd
 2674 00e2 00       		.byte	0
 2675 00e3 03       		.uleb128 0x3
 2676 00e4 0E       		.uleb128 0xe
 2677 00e5 3A       		.uleb128 0x3a
 2678 00e6 0B       		.uleb128 0xb
 2679 00e7 3B       		.uleb128 0x3b
 2680 00e8 05       		.uleb128 0x5
 2681 00e9 49       		.uleb128 0x49
 2682 00ea 13       		.uleb128 0x13
 2683 00eb 00       		.byte	0
 2684 00ec 00       		.byte	0
 2685 00ed 14       		.uleb128 0x14
 2686 00ee 26       		.uleb128 0x26
 2687 00ef 00       		.byte	0
 2688 00f0 49       		.uleb128 0x49
 2689 00f1 13       		.uleb128 0x13
 2690 00f2 00       		.byte	0
 2691 00f3 00       		.byte	0
 2692 00f4 15       		.uleb128 0x15
 2693 00f5 01       		.uleb128 0x1
 2694 00f6 01       		.byte	0x1
 2695 00f7 49       		.uleb128 0x49
 2696 00f8 13       		.uleb128 0x13
 2697 00f9 01       		.uleb128 0x1
 2698 00fa 13       		.uleb128 0x13
 2699 00fb 00       		.byte	0
 2700 00fc 00       		.byte	0
 2701 00fd 16       		.uleb128 0x16
 2702 00fe 21       		.uleb128 0x21
 2703 00ff 00       		.byte	0
 2704 0100 49       		.uleb128 0x49
 2705 0101 13       		.uleb128 0x13
 2706 0102 2F       		.uleb128 0x2f
 2707 0103 0B       		.uleb128 0xb
 2708 0104 00       		.byte	0
 2709 0105 00       		.byte	0
 2710 0106 17       		.uleb128 0x17
 2711 0107 15       		.uleb128 0x15
 2712 0108 01       		.byte	0x1
 2713 0109 27       		.uleb128 0x27
 2714 010a 19       		.uleb128 0x19
 2715 010b 49       		.uleb128 0x49
 2716 010c 13       		.uleb128 0x13
 2717 010d 01       		.uleb128 0x1
 2718 010e 13       		.uleb128 0x13
 2719 010f 00       		.byte	0
 2720 0110 00       		.byte	0
 2721 0111 18       		.uleb128 0x18
 2722 0112 0D       		.uleb128 0xd
 2723 0113 00       		.byte	0
 2724 0114 03       		.uleb128 0x3
ARM GAS  /tmp/cciy8LS1.s 			page 49


 2725 0115 0E       		.uleb128 0xe
 2726 0116 3A       		.uleb128 0x3a
 2727 0117 0B       		.uleb128 0xb
 2728 0118 3B       		.uleb128 0x3b
 2729 0119 0B       		.uleb128 0xb
 2730 011a 49       		.uleb128 0x49
 2731 011b 13       		.uleb128 0x13
 2732 011c 00       		.byte	0
 2733 011d 00       		.byte	0
 2734 011e 19       		.uleb128 0x19
 2735 011f 17       		.uleb128 0x17
 2736 0120 01       		.byte	0x1
 2737 0121 03       		.uleb128 0x3
 2738 0122 0E       		.uleb128 0xe
 2739 0123 0B       		.uleb128 0xb
 2740 0124 0B       		.uleb128 0xb
 2741 0125 3A       		.uleb128 0x3a
 2742 0126 0B       		.uleb128 0xb
 2743 0127 3B       		.uleb128 0x3b
 2744 0128 0B       		.uleb128 0xb
 2745 0129 01       		.uleb128 0x1
 2746 012a 13       		.uleb128 0x13
 2747 012b 00       		.byte	0
 2748 012c 00       		.byte	0
 2749 012d 1A       		.uleb128 0x1a
 2750 012e 0D       		.uleb128 0xd
 2751 012f 00       		.byte	0
 2752 0130 03       		.uleb128 0x3
 2753 0131 08       		.uleb128 0x8
 2754 0132 3A       		.uleb128 0x3a
 2755 0133 0B       		.uleb128 0xb
 2756 0134 3B       		.uleb128 0x3b
 2757 0135 0B       		.uleb128 0xb
 2758 0136 49       		.uleb128 0x49
 2759 0137 13       		.uleb128 0x13
 2760 0138 00       		.byte	0
 2761 0139 00       		.byte	0
 2762 013a 1B       		.uleb128 0x1b
 2763 013b 15       		.uleb128 0x15
 2764 013c 00       		.byte	0
 2765 013d 27       		.uleb128 0x27
 2766 013e 19       		.uleb128 0x19
 2767 013f 00       		.byte	0
 2768 0140 00       		.byte	0
 2769 0141 1C       		.uleb128 0x1c
 2770 0142 13       		.uleb128 0x13
 2771 0143 01       		.byte	0x1
 2772 0144 0B       		.uleb128 0xb
 2773 0145 05       		.uleb128 0x5
 2774 0146 3A       		.uleb128 0x3a
 2775 0147 0B       		.uleb128 0xb
 2776 0148 3B       		.uleb128 0x3b
 2777 0149 0B       		.uleb128 0xb
 2778 014a 01       		.uleb128 0x1
 2779 014b 13       		.uleb128 0x13
 2780 014c 00       		.byte	0
 2781 014d 00       		.byte	0
ARM GAS  /tmp/cciy8LS1.s 			page 50


 2782 014e 1D       		.uleb128 0x1d
 2783 014f 0D       		.uleb128 0xd
 2784 0150 00       		.byte	0
 2785 0151 03       		.uleb128 0x3
 2786 0152 08       		.uleb128 0x8
 2787 0153 3A       		.uleb128 0x3a
 2788 0154 0B       		.uleb128 0xb
 2789 0155 3B       		.uleb128 0x3b
 2790 0156 0B       		.uleb128 0xb
 2791 0157 49       		.uleb128 0x49
 2792 0158 13       		.uleb128 0x13
 2793 0159 38       		.uleb128 0x38
 2794 015a 05       		.uleb128 0x5
 2795 015b 00       		.byte	0
 2796 015c 00       		.byte	0
 2797 015d 1E       		.uleb128 0x1e
 2798 015e 17       		.uleb128 0x17
 2799 015f 01       		.byte	0x1
 2800 0160 03       		.uleb128 0x3
 2801 0161 0E       		.uleb128 0xe
 2802 0162 0B       		.uleb128 0xb
 2803 0163 05       		.uleb128 0x5
 2804 0164 3A       		.uleb128 0x3a
 2805 0165 0B       		.uleb128 0xb
 2806 0166 3B       		.uleb128 0x3b
 2807 0167 0B       		.uleb128 0xb
 2808 0168 01       		.uleb128 0x1
 2809 0169 13       		.uleb128 0x13
 2810 016a 00       		.byte	0
 2811 016b 00       		.byte	0
 2812 016c 1F       		.uleb128 0x1f
 2813 016d 21       		.uleb128 0x21
 2814 016e 00       		.byte	0
 2815 016f 49       		.uleb128 0x49
 2816 0170 13       		.uleb128 0x13
 2817 0171 2F       		.uleb128 0x2f
 2818 0172 05       		.uleb128 0x5
 2819 0173 00       		.byte	0
 2820 0174 00       		.byte	0
 2821 0175 20       		.uleb128 0x20
 2822 0176 2E       		.uleb128 0x2e
 2823 0177 01       		.byte	0x1
 2824 0178 03       		.uleb128 0x3
 2825 0179 0E       		.uleb128 0xe
 2826 017a 3A       		.uleb128 0x3a
 2827 017b 0B       		.uleb128 0xb
 2828 017c 3B       		.uleb128 0x3b
 2829 017d 0B       		.uleb128 0xb
 2830 017e 27       		.uleb128 0x27
 2831 017f 19       		.uleb128 0x19
 2832 0180 11       		.uleb128 0x11
 2833 0181 01       		.uleb128 0x1
 2834 0182 12       		.uleb128 0x12
 2835 0183 06       		.uleb128 0x6
 2836 0184 40       		.uleb128 0x40
 2837 0185 18       		.uleb128 0x18
 2838 0186 9742     		.uleb128 0x2117
ARM GAS  /tmp/cciy8LS1.s 			page 51


 2839 0188 19       		.uleb128 0x19
 2840 0189 01       		.uleb128 0x1
 2841 018a 13       		.uleb128 0x13
 2842 018b 00       		.byte	0
 2843 018c 00       		.byte	0
 2844 018d 21       		.uleb128 0x21
 2845 018e 34       		.uleb128 0x34
 2846 018f 00       		.byte	0
 2847 0190 03       		.uleb128 0x3
 2848 0191 08       		.uleb128 0x8
 2849 0192 3A       		.uleb128 0x3a
 2850 0193 0B       		.uleb128 0xb
 2851 0194 3B       		.uleb128 0x3b
 2852 0195 0B       		.uleb128 0xb
 2853 0196 49       		.uleb128 0x49
 2854 0197 13       		.uleb128 0x13
 2855 0198 02       		.uleb128 0x2
 2856 0199 17       		.uleb128 0x17
 2857 019a 00       		.byte	0
 2858 019b 00       		.byte	0
 2859 019c 22       		.uleb128 0x22
 2860 019d 34       		.uleb128 0x34
 2861 019e 00       		.byte	0
 2862 019f 03       		.uleb128 0x3
 2863 01a0 08       		.uleb128 0x8
 2864 01a1 3A       		.uleb128 0x3a
 2865 01a2 0B       		.uleb128 0xb
 2866 01a3 3B       		.uleb128 0x3b
 2867 01a4 0B       		.uleb128 0xb
 2868 01a5 49       		.uleb128 0x49
 2869 01a6 13       		.uleb128 0x13
 2870 01a7 02       		.uleb128 0x2
 2871 01a8 18       		.uleb128 0x18
 2872 01a9 00       		.byte	0
 2873 01aa 00       		.byte	0
 2874 01ab 23       		.uleb128 0x23
 2875 01ac 898201   		.uleb128 0x4109
 2876 01af 00       		.byte	0
 2877 01b0 11       		.uleb128 0x11
 2878 01b1 01       		.uleb128 0x1
 2879 01b2 31       		.uleb128 0x31
 2880 01b3 13       		.uleb128 0x13
 2881 01b4 00       		.byte	0
 2882 01b5 00       		.byte	0
 2883 01b6 24       		.uleb128 0x24
 2884 01b7 898201   		.uleb128 0x4109
 2885 01ba 01       		.byte	0x1
 2886 01bb 11       		.uleb128 0x11
 2887 01bc 01       		.uleb128 0x1
 2888 01bd 31       		.uleb128 0x31
 2889 01be 13       		.uleb128 0x13
 2890 01bf 01       		.uleb128 0x1
 2891 01c0 13       		.uleb128 0x13
 2892 01c1 00       		.byte	0
 2893 01c2 00       		.byte	0
 2894 01c3 25       		.uleb128 0x25
 2895 01c4 8A8201   		.uleb128 0x410a
ARM GAS  /tmp/cciy8LS1.s 			page 52


 2896 01c7 00       		.byte	0
 2897 01c8 02       		.uleb128 0x2
 2898 01c9 18       		.uleb128 0x18
 2899 01ca 9142     		.uleb128 0x2111
 2900 01cc 18       		.uleb128 0x18
 2901 01cd 00       		.byte	0
 2902 01ce 00       		.byte	0
 2903 01cf 26       		.uleb128 0x26
 2904 01d0 898201   		.uleb128 0x4109
 2905 01d3 01       		.byte	0x1
 2906 01d4 11       		.uleb128 0x11
 2907 01d5 01       		.uleb128 0x1
 2908 01d6 31       		.uleb128 0x31
 2909 01d7 13       		.uleb128 0x13
 2910 01d8 00       		.byte	0
 2911 01d9 00       		.byte	0
 2912 01da 27       		.uleb128 0x27
 2913 01db 898201   		.uleb128 0x4109
 2914 01de 01       		.byte	0x1
 2915 01df 11       		.uleb128 0x11
 2916 01e0 01       		.uleb128 0x1
 2917 01e1 9542     		.uleb128 0x2115
 2918 01e3 19       		.uleb128 0x19
 2919 01e4 31       		.uleb128 0x31
 2920 01e5 13       		.uleb128 0x13
 2921 01e6 00       		.byte	0
 2922 01e7 00       		.byte	0
 2923 01e8 28       		.uleb128 0x28
 2924 01e9 34       		.uleb128 0x34
 2925 01ea 00       		.byte	0
 2926 01eb 03       		.uleb128 0x3
 2927 01ec 0E       		.uleb128 0xe
 2928 01ed 3A       		.uleb128 0x3a
 2929 01ee 0B       		.uleb128 0xb
 2930 01ef 3B       		.uleb128 0x3b
 2931 01f0 0B       		.uleb128 0xb
 2932 01f1 49       		.uleb128 0x49
 2933 01f2 13       		.uleb128 0x13
 2934 01f3 02       		.uleb128 0x2
 2935 01f4 18       		.uleb128 0x18
 2936 01f5 00       		.byte	0
 2937 01f6 00       		.byte	0
 2938 01f7 29       		.uleb128 0x29
 2939 01f8 34       		.uleb128 0x34
 2940 01f9 00       		.byte	0
 2941 01fa 03       		.uleb128 0x3
 2942 01fb 0E       		.uleb128 0xe
 2943 01fc 3A       		.uleb128 0x3a
 2944 01fd 0B       		.uleb128 0xb
 2945 01fe 3B       		.uleb128 0x3b
 2946 01ff 05       		.uleb128 0x5
 2947 0200 49       		.uleb128 0x49
 2948 0201 13       		.uleb128 0x13
 2949 0202 3F       		.uleb128 0x3f
 2950 0203 19       		.uleb128 0x19
 2951 0204 3C       		.uleb128 0x3c
 2952 0205 19       		.uleb128 0x19
ARM GAS  /tmp/cciy8LS1.s 			page 53


 2953 0206 00       		.byte	0
 2954 0207 00       		.byte	0
 2955 0208 2A       		.uleb128 0x2a
 2956 0209 34       		.uleb128 0x34
 2957 020a 00       		.byte	0
 2958 020b 03       		.uleb128 0x3
 2959 020c 08       		.uleb128 0x8
 2960 020d 3A       		.uleb128 0x3a
 2961 020e 0B       		.uleb128 0xb
 2962 020f 3B       		.uleb128 0x3b
 2963 0210 05       		.uleb128 0x5
 2964 0211 49       		.uleb128 0x49
 2965 0212 13       		.uleb128 0x13
 2966 0213 3F       		.uleb128 0x3f
 2967 0214 19       		.uleb128 0x19
 2968 0215 3C       		.uleb128 0x3c
 2969 0216 19       		.uleb128 0x19
 2970 0217 00       		.byte	0
 2971 0218 00       		.byte	0
 2972 0219 2B       		.uleb128 0x2b
 2973 021a 34       		.uleb128 0x34
 2974 021b 00       		.byte	0
 2975 021c 03       		.uleb128 0x3
 2976 021d 0E       		.uleb128 0xe
 2977 021e 3A       		.uleb128 0x3a
 2978 021f 0B       		.uleb128 0xb
 2979 0220 3B       		.uleb128 0x3b
 2980 0221 0B       		.uleb128 0xb
 2981 0222 49       		.uleb128 0x49
 2982 0223 13       		.uleb128 0x13
 2983 0224 3F       		.uleb128 0x3f
 2984 0225 19       		.uleb128 0x19
 2985 0226 3C       		.uleb128 0x3c
 2986 0227 19       		.uleb128 0x19
 2987 0228 00       		.byte	0
 2988 0229 00       		.byte	0
 2989 022a 2C       		.uleb128 0x2c
 2990 022b 34       		.uleb128 0x34
 2991 022c 00       		.byte	0
 2992 022d 03       		.uleb128 0x3
 2993 022e 0E       		.uleb128 0xe
 2994 022f 3A       		.uleb128 0x3a
 2995 0230 0B       		.uleb128 0xb
 2996 0231 3B       		.uleb128 0x3b
 2997 0232 0B       		.uleb128 0xb
 2998 0233 49       		.uleb128 0x49
 2999 0234 13       		.uleb128 0x13
 3000 0235 3F       		.uleb128 0x3f
 3001 0236 19       		.uleb128 0x19
 3002 0237 02       		.uleb128 0x2
 3003 0238 18       		.uleb128 0x18
 3004 0239 00       		.byte	0
 3005 023a 00       		.byte	0
 3006 023b 2D       		.uleb128 0x2d
 3007 023c 2E       		.uleb128 0x2e
 3008 023d 00       		.byte	0
 3009 023e 3F       		.uleb128 0x3f
ARM GAS  /tmp/cciy8LS1.s 			page 54


 3010 023f 19       		.uleb128 0x19
 3011 0240 3C       		.uleb128 0x3c
 3012 0241 19       		.uleb128 0x19
 3013 0242 6E       		.uleb128 0x6e
 3014 0243 0E       		.uleb128 0xe
 3015 0244 03       		.uleb128 0x3
 3016 0245 0E       		.uleb128 0xe
 3017 0246 3A       		.uleb128 0x3a
 3018 0247 0B       		.uleb128 0xb
 3019 0248 3B       		.uleb128 0x3b
 3020 0249 0B       		.uleb128 0xb
 3021 024a 00       		.byte	0
 3022 024b 00       		.byte	0
 3023 024c 00       		.byte	0
 3024              		.section	.debug_loc,"",%progbits
 3025              	.Ldebug_loc0:
 3026              	.LLST0:
 3027 0000 18000000 		.4byte	.LVL2
 3028 0004 22000000 		.4byte	.LVL3
 3029 0008 0100     		.2byte	0x1
 3030 000a 50       		.byte	0x50
 3031 000b 22000000 		.4byte	.LVL3
 3032 000f 28000000 		.4byte	.LVL5
 3033 0013 0100     		.2byte	0x1
 3034 0015 55       		.byte	0x55
 3035 0016 2C000000 		.4byte	.LVL6
 3036 001a 3E000000 		.4byte	.LVL8
 3037 001e 0100     		.2byte	0x1
 3038 0020 55       		.byte	0x55
 3039 0021 3E000000 		.4byte	.LVL8
 3040 0025 46000000 		.4byte	.LVL9
 3041 0029 0100     		.2byte	0x1
 3042 002b 50       		.byte	0x50
 3043 002c 62000000 		.4byte	.LVL13
 3044 0030 64000000 		.4byte	.LVL14
 3045 0034 0100     		.2byte	0x1
 3046 0036 50       		.byte	0x50
 3047 0037 64000000 		.4byte	.LVL14
 3048 003b AE000000 		.4byte	.LVL27
 3049 003f 0100     		.2byte	0x1
 3050 0041 56       		.byte	0x56
 3051 0042 AE000000 		.4byte	.LVL27
 3052 0046 B0000000 		.4byte	.LVL28
 3053 004a 0100     		.2byte	0x1
 3054 004c 50       		.byte	0x50
 3055 004d B0000000 		.4byte	.LVL28
 3056 0051 F6000000 		.4byte	.LVL39
 3057 0055 0100     		.2byte	0x1
 3058 0057 54       		.byte	0x54
 3059 0058 F6000000 		.4byte	.LVL39
 3060 005c F8000000 		.4byte	.LVL40
 3061 0060 0100     		.2byte	0x1
 3062 0062 50       		.byte	0x50
 3063 0063 F8000000 		.4byte	.LVL40
 3064 0067 2C010000 		.4byte	.LVL48
 3065 006b 0100     		.2byte	0x1
 3066 006d 54       		.byte	0x54
ARM GAS  /tmp/cciy8LS1.s 			page 55


 3067 006e 2C010000 		.4byte	.LVL48
 3068 0072 2E010000 		.4byte	.LVL49
 3069 0076 0100     		.2byte	0x1
 3070 0078 50       		.byte	0x50
 3071 0079 2E010000 		.4byte	.LVL49
 3072 007d 88010000 		.4byte	.LVL58
 3073 0081 0100     		.2byte	0x1
 3074 0083 54       		.byte	0x54
 3075 0084 88010000 		.4byte	.LVL58
 3076 0088 8A010000 		.4byte	.LVL59
 3077 008c 0100     		.2byte	0x1
 3078 008e 50       		.byte	0x50
 3079 008f 8A010000 		.4byte	.LVL59
 3080 0093 A0010000 		.4byte	.LVL65
 3081 0097 0100     		.2byte	0x1
 3082 0099 55       		.byte	0x55
 3083 009a B8010000 		.4byte	.LVL67
 3084 009e BB010000 		.4byte	.LVL68-1
 3085 00a2 0100     		.2byte	0x1
 3086 00a4 50       		.byte	0x50
 3087 00a5 F0010000 		.4byte	.LVL74
 3088 00a9 F2010000 		.4byte	.LVL75
 3089 00ad 0100     		.2byte	0x1
 3090 00af 50       		.byte	0x50
 3091 00b0 F2010000 		.4byte	.LVL75
 3092 00b4 44020000 		.4byte	.LFE230
 3093 00b8 0100     		.2byte	0x1
 3094 00ba 54       		.byte	0x54
 3095 00bb 00000000 		.4byte	0
 3096 00bf 00000000 		.4byte	0
 3097              	.LLST1:
 3098 00c3 6C000000 		.4byte	.LVL16
 3099 00c7 6E000000 		.4byte	.LVL17
 3100 00cb 0100     		.2byte	0x1
 3101 00cd 50       		.byte	0x50
 3102 00ce 6E000000 		.4byte	.LVL17
 3103 00d2 B8000000 		.4byte	.LVL30
 3104 00d6 0100     		.2byte	0x1
 3105 00d8 55       		.byte	0x55
 3106 00d9 B8000000 		.4byte	.LVL30
 3107 00dd BA000000 		.4byte	.LVL31
 3108 00e1 0100     		.2byte	0x1
 3109 00e3 50       		.byte	0x50
 3110 00e4 BA000000 		.4byte	.LVL31
 3111 00e8 FE000000 		.4byte	.LVL42
 3112 00ec 0100     		.2byte	0x1
 3113 00ee 55       		.byte	0x55
 3114 00ef FE000000 		.4byte	.LVL42
 3115 00f3 00010000 		.4byte	.LVL43
 3116 00f7 0100     		.2byte	0x1
 3117 00f9 50       		.byte	0x50
 3118 00fa 00010000 		.4byte	.LVL43
 3119 00fe 88010000 		.4byte	.LVL58
 3120 0102 0100     		.2byte	0x1
 3121 0104 55       		.byte	0x55
 3122 0105 90010000 		.4byte	.LVL61
 3123 0109 92010000 		.4byte	.LVL62
ARM GAS  /tmp/cciy8LS1.s 			page 56


 3124 010d 0100     		.2byte	0x1
 3125 010f 50       		.byte	0x50
 3126 0110 92010000 		.4byte	.LVL62
 3127 0114 F0010000 		.4byte	.LVL74
 3128 0118 0100     		.2byte	0x1
 3129 011a 54       		.byte	0x54
 3130 011b 3A020000 		.4byte	.LVL82
 3131 011f 44020000 		.4byte	.LFE230
 3132 0123 0100     		.2byte	0x1
 3133 0125 55       		.byte	0x55
 3134 0126 00000000 		.4byte	0
 3135 012a 00000000 		.4byte	0
 3136              	.LLST2:
 3137 012e 74000000 		.4byte	.LVL19
 3138 0132 76000000 		.4byte	.LVL20
 3139 0136 0100     		.2byte	0x1
 3140 0138 50       		.byte	0x50
 3141 0139 76000000 		.4byte	.LVL20
 3142 013d AE000000 		.4byte	.LVL27
 3143 0141 0100     		.2byte	0x1
 3144 0143 54       		.byte	0x54
 3145 0144 BE000000 		.4byte	.LVL32
 3146 0148 C1000000 		.4byte	.LVL33-1
 3147 014c 0100     		.2byte	0x1
 3148 014e 50       		.byte	0x50
 3149 014f 00000000 		.4byte	0
 3150 0153 00000000 		.4byte	0
 3151              		.section	.debug_aranges,"",%progbits
 3152 0000 24000000 		.4byte	0x24
 3153 0004 0200     		.2byte	0x2
 3154 0006 00000000 		.4byte	.Ldebug_info0
 3155 000a 04       		.byte	0x4
 3156 000b 00       		.byte	0
 3157 000c 0000     		.2byte	0
 3158 000e 0000     		.2byte	0
 3159 0010 00000000 		.4byte	.LFB230
 3160 0014 44020000 		.4byte	.LFE230-.LFB230
 3161 0018 00000000 		.4byte	.LFB229
 3162 001c 14000000 		.4byte	.LFE229-.LFB229
 3163 0020 00000000 		.4byte	0
 3164 0024 00000000 		.4byte	0
 3165              		.section	.debug_ranges,"",%progbits
 3166              	.Ldebug_ranges0:
 3167 0000 00000000 		.4byte	.LFB230
 3168 0004 44020000 		.4byte	.LFE230
 3169 0008 00000000 		.4byte	.LFB229
 3170 000c 14000000 		.4byte	.LFE229
 3171 0010 00000000 		.4byte	0
 3172 0014 00000000 		.4byte	0
 3173              		.section	.debug_line,"",%progbits
 3174              	.Ldebug_line0:
 3175 0000 3D020000 		.section	.debug_str,"MS",%progbits,1
 3175      0200C901 
 3175      00000201 
 3175      FB0E0D00 
 3175      01010101 
 3176              	.LASF52:
ARM GAS  /tmp/cciy8LS1.s 			page 57


 3177 0000 72656164 		.ascii	"ready_list_t\000"
 3177      795F6C69 
 3177      73745F74 
 3177      00
 3178              	.LASF4:
 3179 000d 73697A65 		.ascii	"size_t\000"
 3179      5F7400
 3180              	.LASF87:
 3181 0014 7264796D 		.ascii	"rdymsg\000"
 3181      736700
 3182              	.LASF18:
 3183 001b 75696E74 		.ascii	"uint64_t\000"
 3183      36345F74 
 3183      00
 3184              	.LASF5:
 3185 0024 5F5F7569 		.ascii	"__uint8_t\000"
 3185      6E74385F 
 3185      7400
 3186              	.LASF84:
 3187 002e 706F7274 		.ascii	"port_intctx\000"
 3187      5F696E74 
 3187      63747800 
 3188              	.LASF71:
 3189 003a 73797374 		.ascii	"system_debug_t\000"
 3189      656D5F64 
 3189      65627567 
 3189      5F7400
 3190              	.LASF103:
 3191 0049 6D656D67 		.ascii	"memgetfunc_t\000"
 3191      65746675 
 3191      6E635F74 
 3191      00
 3192              	.LASF14:
 3193 0056 6C6F6E67 		.ascii	"long long unsigned int\000"
 3193      206C6F6E 
 3193      6720756E 
 3193      7369676E 
 3193      65642069 
 3194              	.LASF88:
 3195 006d 65786974 		.ascii	"exitcode\000"
 3195      636F6465 
 3195      00
 3196              	.LASF107:
 3197 0076 685F6672 		.ascii	"h_free\000"
 3197      656500
 3198              	.LASF125:
 3199 007d 74657374 		.ascii	"test\000"
 3199      00
 3200              	.LASF68:
 3201 0082 76697274 		.ascii	"virtual_timers_list_t\000"
 3201      75616C5F 
 3201      74696D65 
 3201      72735F6C 
 3201      6973745F 
 3202              	.LASF124:
 3203 0098 49544D5F 		.ascii	"ITM_RxBuffer\000"
 3203      52784275 
ARM GAS  /tmp/cciy8LS1.s 			page 58


 3203      66666572 
 3203      00
 3204              	.LASF109:
 3205 00a5 6E657874 		.ascii	"next\000"
 3205      00
 3206              	.LASF51:
 3207 00aa 63685F74 		.ascii	"ch_threads_queue\000"
 3207      68726561 
 3207      64735F71 
 3207      75657565 
 3207      00
 3208              	.LASF31:
 3209 00bb 705F7072 		.ascii	"p_prio\000"
 3209      696F00
 3210              	.LASF127:
 3211 00c2 70617474 		.ascii	"patternheap\000"
 3211      65726E68 
 3211      65617000 
 3212              	.LASF102:
 3213 00ce 6D757465 		.ascii	"mutex_t\000"
 3213      785F7400 
 3214              	.LASF1:
 3215 00d6 6C6F6E67 		.ascii	"long long int\000"
 3215      206C6F6E 
 3215      6720696E 
 3215      7400
 3216              	.LASF3:
 3217 00e4 7369676E 		.ascii	"signed char\000"
 3217      65642063 
 3217      68617200 
 3218              	.LASF108:
 3219 00f0 685F6D74 		.ascii	"h_mtx\000"
 3219      7800
 3220              	.LASF45:
 3221 00f6 705F6D70 		.ascii	"p_mpool\000"
 3221      6F6F6C00 
 3222              	.LASF98:
 3223 00fe 6D5F7175 		.ascii	"m_queue\000"
 3223      65756500 
 3224              	.LASF132:
 3225 0106 63684865 		.ascii	"chHeapFree\000"
 3225      61704672 
 3225      656500
 3226              	.LASF77:
 3227 0111 76746C69 		.ascii	"vtlist\000"
 3227      737400
 3228              	.LASF128:
 3229 0118 6368436F 		.ascii	"chCoreGetStatusX\000"
 3229      72654765 
 3229      74537461 
 3229      74757358 
 3229      00
 3230              	.LASF90:
 3231 0129 77747472 		.ascii	"wttrp\000"
 3231      7000
 3232              	.LASF75:
 3233 012f 63685F73 		.ascii	"ch_system\000"
ARM GAS  /tmp/cciy8LS1.s 			page 59


 3233      79737465 
 3233      6D00
 3234              	.LASF10:
 3235 0139 6C6F6E67 		.ascii	"long int\000"
 3235      20696E74 
 3235      00
 3236              	.LASF21:
 3237 0142 74737461 		.ascii	"tstate_t\000"
 3237      74655F74 
 3237      00
 3238              	.LASF104:
 3239 014b 6D656D6F 		.ascii	"memory_heap_t\000"
 3239      72795F68 
 3239      6561705F 
 3239      7400
 3240              	.LASF120:
 3241 0159 62756666 		.ascii	"buffer\000"
 3241      657200
 3242              	.LASF33:
 3243 0160 705F6E65 		.ascii	"p_newer\000"
 3243      77657200 
 3244              	.LASF95:
 3245 0168 735F7175 		.ascii	"s_queue\000"
 3245      65756500 
 3246              	.LASF57:
 3247 0170 725F6E65 		.ascii	"r_newer\000"
 3247      77657200 
 3248              	.LASF81:
 3249 0178 72656761 		.ascii	"regarm_t\000"
 3249      726D5F74 
 3249      00
 3250              	.LASF64:
 3251 0181 76745F70 		.ascii	"vt_prev\000"
 3251      72657600 
 3252              	.LASF121:
 3253 0189 68656170 		.ascii	"heap1_execute\000"
 3253      315F6578 
 3253      65637574 
 3253      6500
 3254              	.LASF111:
 3255 0197 616C6967 		.ascii	"align\000"
 3255      6E00
 3256              	.LASF79:
 3257 019d 69646C65 		.ascii	"idle_thread_wa\000"
 3257      5F746872 
 3257      6561645F 
 3257      776100
 3258              	.LASF26:
 3259 01ac 636E745F 		.ascii	"cnt_t\000"
 3259      7400
 3260              	.LASF0:
 3261 01b2 756E7369 		.ascii	"unsigned int\000"
 3261      676E6564 
 3261      20696E74 
 3261      00
 3262              	.LASF63:
 3263 01bf 76745F6E 		.ascii	"vt_next\000"
ARM GAS  /tmp/cciy8LS1.s 			page 60


 3263      65787400 
 3264              	.LASF91:
 3265 01c7 77747365 		.ascii	"wtsemp\000"
 3265      6D7000
 3266              	.LASF65:
 3267 01ce 76745F64 		.ascii	"vt_delta\000"
 3267      656C7461 
 3267      00
 3268              	.LASF40:
 3269 01d7 705F6D73 		.ascii	"p_msgqueue\000"
 3269      67717565 
 3269      756500
 3270              	.LASF116:
 3271 01e2 74656172 		.ascii	"teardown\000"
 3271      646F776E 
 3271      00
 3272              	.LASF114:
 3273 01eb 6E616D65 		.ascii	"name\000"
 3273      00
 3274              	.LASF96:
 3275 01f0 735F636E 		.ascii	"s_cnt\000"
 3275      7400
 3276              	.LASF8:
 3277 01f6 73686F72 		.ascii	"short unsigned int\000"
 3277      7420756E 
 3277      7369676E 
 3277      65642069 
 3277      6E7400
 3278              	.LASF48:
 3279 0209 63685F74 		.ascii	"ch_thread\000"
 3279      68726561 
 3279      6400
 3280              	.LASF78:
 3281 0213 6D61696E 		.ascii	"mainthread\000"
 3281      74687265 
 3281      616400
 3282              	.LASF24:
 3283 021e 6D73675F 		.ascii	"msg_t\000"
 3283      7400
 3284              	.LASF74:
 3285 0224 63685F73 		.ascii	"ch_system_t\000"
 3285      79737465 
 3285      6D5F7400 
 3286              	.LASF20:
 3287 0230 746D6F64 		.ascii	"tmode_t\000"
 3287      655F7400 
 3288              	.LASF53:
 3289 0238 63685F72 		.ascii	"ch_ready_list\000"
 3289      65616479 
 3289      5F6C6973 
 3289      7400
 3290              	.LASF25:
 3291 0246 6576656E 		.ascii	"eventmask_t\000"
 3291      746D6173 
 3291      6B5F7400 
 3292              	.LASF9:
 3293 0252 5F5F696E 		.ascii	"__int32_t\000"
ARM GAS  /tmp/cciy8LS1.s 			page 61


 3293      7433325F 
 3293      7400
 3294              	.LASF82:
 3295 025c 73746B61 		.ascii	"stkalign_t\000"
 3295      6C69676E 
 3295      5F7400
 3296              	.LASF126:
 3297 0267 74657374 		.ascii	"testheap1\000"
 3297      68656170 
 3297      3100
 3298              	.LASF133:
 3299 0271 63684865 		.ascii	"chHeapObjectInit\000"
 3299      61704F62 
 3299      6A656374 
 3299      496E6974 
 3299      00
 3300              	.LASF134:
 3301 0282 474E5520 		.ascii	"GNU C11 5.2.0 -mcpu=cortex-m4 -mfloat-abi=hard -mfp"
 3301      43313120 
 3301      352E322E 
 3301      30202D6D 
 3301      6370753D 
 3302 02b5 753D6670 		.ascii	"u=fpv4-sp-d16 -mno-thumb-interwork -mthumb -ggdb -O"
 3302      76342D73 
 3302      702D6431 
 3302      36202D6D 
 3302      6E6F2D74 
 3303 02e8 32202D66 		.ascii	"2 -fomit-frame-pointer -falign-functions=16 -ffunct"
 3303      6F6D6974 
 3303      2D667261 
 3303      6D652D70 
 3303      6F696E74 
 3304 031b 696F6E2D 		.ascii	"ion-sections -fdata-sections -fno-common -fsingle-p"
 3304      73656374 
 3304      696F6E73 
 3304      202D6664 
 3304      6174612D 
 3305 034e 72656369 		.ascii	"recision-constant\000"
 3305      73696F6E 
 3305      2D636F6E 
 3305      7374616E 
 3305      7400
 3306              	.LASF39:
 3307 0360 705F7761 		.ascii	"p_waiting\000"
 3307      6974696E 
 3307      6700
 3308              	.LASF136:
 3309 036a 2F686F6D 		.ascii	"/home/sssilvar/Documents/embebidos/ChibiOS/iflab/pr"
 3309      652F7373 
 3309      73696C76 
 3309      61722F44 
 3309      6F63756D 
 3310 039d 6F6A6563 		.ascii	"ojects/UART_ADC\000"
 3310      74732F55 
 3310      4152545F 
 3310      41444300 
 3311              	.LASF80:
ARM GAS  /tmp/cciy8LS1.s 			page 62


 3312 03ad 73697A65 		.ascii	"sizetype\000"
 3312      74797065 
 3312      00
 3313              	.LASF46:
 3314 03b6 74687265 		.ascii	"thread_reference_t\000"
 3314      61645F72 
 3314      65666572 
 3314      656E6365 
 3314      5F7400
 3315              	.LASF69:
 3316 03c9 63685F76 		.ascii	"ch_virtual_timers_list\000"
 3316      69727475 
 3316      616C5F74 
 3316      696D6572 
 3316      735F6C69 
 3317              	.LASF2:
 3318 03e0 6C6F6E67 		.ascii	"long double\000"
 3318      20646F75 
 3318      626C6500 
 3319              	.LASF70:
 3320 03ec 76745F6C 		.ascii	"vt_lasttime\000"
 3320      61737474 
 3320      696D6500 
 3321              	.LASF34:
 3322 03f8 705F6F6C 		.ascii	"p_older\000"
 3322      64657200 
 3323              	.LASF56:
 3324 0400 725F6374 		.ascii	"r_ctx\000"
 3324      7800
 3325              	.LASF86:
 3326 0406 746D5F63 		.ascii	"tm_calibration_t\000"
 3326      616C6962 
 3326      72617469 
 3326      6F6E5F74 
 3326      00
 3327              	.LASF115:
 3328 0417 73657475 		.ascii	"setup\000"
 3328      7000
 3329              	.LASF59:
 3330 041d 725F6375 		.ascii	"r_current\000"
 3330      7272656E 
 3330      7400
 3331              	.LASF58:
 3332 0427 725F6F6C 		.ascii	"r_older\000"
 3332      64657200 
 3333              	.LASF13:
 3334 042f 5F5F7569 		.ascii	"__uint64_t\000"
 3334      6E743634 
 3334      5F7400
 3335              	.LASF22:
 3336 043a 74726566 		.ascii	"trefs_t\000"
 3336      735F7400 
 3337              	.LASF61:
 3338 0442 76697274 		.ascii	"virtual_timer_t\000"
 3338      75616C5F 
 3338      74696D65 
 3338      725F7400 
ARM GAS  /tmp/cciy8LS1.s 			page 63


 3339              	.LASF30:
 3340 0452 705F7072 		.ascii	"p_prev\000"
 3340      657600
 3341              	.LASF117:
 3342 0459 65786563 		.ascii	"execute\000"
 3342      75746500 
 3343              	.LASF23:
 3344 0461 74707269 		.ascii	"tprio_t\000"
 3344      6F5F7400 
 3345              	.LASF122:
 3346 0469 68656170 		.ascii	"heap1_setup\000"
 3346      315F7365 
 3346      74757000 
 3347              	.LASF72:
 3348 0475 63685F73 		.ascii	"ch_system_debug\000"
 3348      79737465 
 3348      6D5F6465 
 3348      62756700 
 3349              	.LASF16:
 3350 0485 696E7433 		.ascii	"int32_t\000"
 3350      325F7400 
 3351              	.LASF6:
 3352 048d 756E7369 		.ascii	"unsigned char\000"
 3352      676E6564 
 3352      20636861 
 3352      7200
 3353              	.LASF118:
 3354 049b 68656170 		.ascii	"heap_header\000"
 3354      5F686561 
 3354      64657200 
 3355              	.LASF43:
 3356 04a7 705F6D74 		.ascii	"p_mtxlist\000"
 3356      786C6973 
 3356      7400
 3357              	.LASF7:
 3358 04b1 73686F72 		.ascii	"short int\000"
 3358      7420696E 
 3358      7400
 3359              	.LASF36:
 3360 04bb 705F7374 		.ascii	"p_state\000"
 3360      61746500 
 3361              	.LASF55:
 3362 04c3 725F7072 		.ascii	"r_prio\000"
 3362      696F00
 3363              	.LASF93:
 3364 04ca 65776D61 		.ascii	"ewmask\000"
 3364      736B00
 3365              	.LASF29:
 3366 04d1 705F6E65 		.ascii	"p_next\000"
 3366      787400
 3367              	.LASF37:
 3368 04d8 705F666C 		.ascii	"p_flags\000"
 3368      61677300 
 3369              	.LASF50:
 3370 04e0 74687265 		.ascii	"threads_queue_t\000"
 3370      6164735F 
 3370      71756575 
ARM GAS  /tmp/cciy8LS1.s 			page 64


 3370      655F7400 
 3371              	.LASF130:
 3372 04f0 63684865 		.ascii	"chHeapAlloc\000"
 3372      6170416C 
 3372      6C6F6300 
 3373              	.LASF113:
 3374 04fc 74657374 		.ascii	"testcase\000"
 3374      63617365 
 3374      00
 3375              	.LASF94:
 3376 0505 63685F73 		.ascii	"ch_semaphore\000"
 3376      656D6170 
 3376      686F7265 
 3376      00
 3377              	.LASF42:
 3378 0512 705F6570 		.ascii	"p_epending\000"
 3378      656E6469 
 3378      6E6700
 3379              	.LASF17:
 3380 051d 75696E74 		.ascii	"uint32_t\000"
 3380      33325F74 
 3380      00
 3381              	.LASF92:
 3382 0526 77746D74 		.ascii	"wtmtxp\000"
 3382      787000
 3383              	.LASF54:
 3384 052d 725F7175 		.ascii	"r_queue\000"
 3384      65756500 
 3385              	.LASF49:
 3386 0535 63685F74 		.ascii	"ch_threads_list\000"
 3386      68726561 
 3386      64735F6C 
 3386      69737400 
 3387              	.LASF110:
 3388 0545 68656170 		.ascii	"heap\000"
 3388      00
 3389              	.LASF12:
 3390 054a 6C6F6E67 		.ascii	"long unsigned int\000"
 3390      20756E73 
 3390      69676E65 
 3390      6420696E 
 3390      7400
 3391              	.LASF101:
 3392 055c 63686172 		.ascii	"char\000"
 3392      00
 3393              	.LASF28:
 3394 0561 74687265 		.ascii	"thread_t\000"
 3394      61645F74 
 3394      00
 3395              	.LASF129:
 3396 056a 63684865 		.ascii	"chHeapStatus\000"
 3396      61705374 
 3396      61747573 
 3396      00
 3397              	.LASF100:
 3398 0577 6D5F6E65 		.ascii	"m_next\000"
 3398      787400
ARM GAS  /tmp/cciy8LS1.s 			page 65


 3399              	.LASF27:
 3400 057e 73797374 		.ascii	"systime_t\000"
 3400      696D655F 
 3400      7400
 3401              	.LASF44:
 3402 0588 705F7265 		.ascii	"p_realprio\000"
 3402      616C7072 
 3402      696F00
 3403              	.LASF60:
 3404 0593 76746675 		.ascii	"vtfunc_t\000"
 3404      6E635F74 
 3404      00
 3405              	.LASF11:
 3406 059c 5F5F7569 		.ascii	"__uint32_t\000"
 3406      6E743332 
 3406      5F7400
 3407              	.LASF73:
 3408 05a7 70616E69 		.ascii	"panic_msg\000"
 3408      635F6D73 
 3408      6700
 3409              	.LASF85:
 3410 05b1 6F666673 		.ascii	"offset\000"
 3410      657400
 3411              	.LASF83:
 3412 05b8 636F6E74 		.ascii	"context\000"
 3412      65787400 
 3413              	.LASF62:
 3414 05c0 63685F76 		.ascii	"ch_virtual_timer\000"
 3414      69727475 
 3414      616C5F74 
 3414      696D6572 
 3414      00
 3415              	.LASF19:
 3416 05d1 7274636E 		.ascii	"rtcnt_t\000"
 3416      745F7400 
 3417              	.LASF67:
 3418 05d9 76745F70 		.ascii	"vt_par\000"
 3418      617200
 3419              	.LASF119:
 3420 05e0 74657374 		.ascii	"test_buffers\000"
 3420      5F627566 
 3420      66657273 
 3420      00
 3421              	.LASF97:
 3422 05ed 63685F6D 		.ascii	"ch_mutex\000"
 3422      75746578 
 3422      00
 3423              	.LASF38:
 3424 05f6 705F7265 		.ascii	"p_refs\000"
 3424      667300
 3425              	.LASF76:
 3426 05fd 726C6973 		.ascii	"rlist\000"
 3426      7400
 3427              	.LASF15:
 3428 0603 75696E74 		.ascii	"uint8_t\000"
 3428      385F7400 
 3429              	.LASF123:
ARM GAS  /tmp/cciy8LS1.s 			page 66


 3430 060b 74657374 		.ascii	"test_heap\000"
 3430      5F686561 
 3430      7000
 3431              	.LASF106:
 3432 0615 685F7072 		.ascii	"h_provider\000"
 3432      6F766964 
 3432      657200
 3433              	.LASF89:
 3434 0620 77746F62 		.ascii	"wtobjp\000"
 3434      6A7000
 3435              	.LASF35:
 3436 0627 705F6E61 		.ascii	"p_name\000"
 3436      6D6500
 3437              	.LASF112:
 3438 062e 73697A65 		.ascii	"size\000"
 3438      00
 3439              	.LASF131:
 3440 0633 5F746573 		.ascii	"_test_assert\000"
 3440      745F6173 
 3440      73657274 
 3440      00
 3441              	.LASF47:
 3442 0640 74687265 		.ascii	"threads_list_t\000"
 3442      6164735F 
 3442      6C697374 
 3442      5F7400
 3443              	.LASF41:
 3444 064f 705F6D73 		.ascii	"p_msg\000"
 3444      6700
 3445              	.LASF135:
 3446 0655 2E2E2F2E 		.ascii	"../../test/rt/testheap.c\000"
 3446      2E2F7465 
 3446      73742F72 
 3446      742F7465 
 3446      73746865 
 3447              	.LASF99:
 3448 066e 6D5F6F77 		.ascii	"m_owner\000"
 3448      6E657200 
 3449              	.LASF32:
 3450 0676 705F6374 		.ascii	"p_ctx\000"
 3450      7800
 3451              	.LASF66:
 3452 067c 76745F66 		.ascii	"vt_func\000"
 3452      756E6300 
 3453              	.LASF105:
 3454 0684 6D656D6F 		.ascii	"memory_heap\000"
 3454      72795F68 
 3454      65617000 
 3455              		.ident	"GCC: (Fedora 5.2.0-2.fc22) 5.2.0"
ARM GAS  /tmp/cciy8LS1.s 			page 67


DEFINED SYMBOLS
                            *ABS*:0000000000000000 testheap.c
     /tmp/cciy8LS1.s:22     .text.heap1_execute:0000000000000000 $t
     /tmp/cciy8LS1.s:27     .text.heap1_execute:0000000000000000 heap1_execute
     /tmp/cciy8LS1.s:411    .text.heap1_execute:0000000000000240 $d
     /tmp/cciy8LS1.s:416    .text.heap1_setup:0000000000000000 $t
     /tmp/cciy8LS1.s:421    .text.heap1_setup:0000000000000000 heap1_setup
     /tmp/cciy8LS1.s:437    .text.heap1_setup:000000000000000c $d
     /tmp/cciy8LS1.s:448    .rodata.patternheap:0000000000000000 patternheap
     /tmp/cciy8LS1.s:459    .rodata.testheap1:0000000000000000 testheap1
     /tmp/cciy8LS1.s:445    .rodata.patternheap:0000000000000000 $d
     /tmp/cciy8LS1.s:452    .rodata.str1.4:0000000000000000 $d
     /tmp/cciy8LS1.s:456    .rodata.testheap1:0000000000000000 $d
     /tmp/cciy8LS1.s:465    .bss.test_heap:0000000000000000 $d
     /tmp/cciy8LS1.s:469    .bss.test_heap:0000000000000000 test_heap
                     .debug_frame:0000000000000010 $d
     /tmp/cciy8LS1.s:415    .text.heap1_execute:0000000000000244 $t
     /tmp/cciy8LS1.s:444    .text.heap1_setup:0000000000000014 $t

UNDEFINED SYMBOLS
chCoreGetStatusX
chHeapStatus
chHeapAlloc
_test_assert
chHeapFree
chHeapObjectInit
test
