ARM GAS  /tmp/cciy8LS1.s 			page 1


   1              		.syntax unified
   2              		.cpu cortex-m4
   3              		.eabi_attribute 27, 1
   4              		.eabi_attribute 28, 1
   5              		.fpu fpv4-sp-d16
   6              		.eabi_attribute 20, 1
   7              		.eabi_attribute 21, 1
   8              		.eabi_attribute 23, 3
   9              		.eabi_attribute 24, 1
  10              		.eabi_attribute 25, 1
  11              		.eabi_attribute 26, 1
  12              		.eabi_attribute 30, 2
  13              		.eabi_attribute 34, 1
  14              		.eabi_attribute 18, 4
  15              		.thumb
  16              		.syntax unified
  17              		.file	"testheap.c"
  18              		.text
  19              	.Ltext0:
  20              		.cfi_sections	.debug_frame
  21              		.section	.text.heap1_execute,"ax",%progbits
  22              		.align	2
  23              		.p2align 4,,15
  24              		.thumb
  25              		.thumb_func
  26              		.type	heap1_execute, %function
  27              	heap1_execute:
  28              	.LFB230:
  29              		.file 1 "../../test/rt/testheap.c"
  30              		.loc 1 69 0
  31              		.cfi_startproc
  32              		@ args = 0, pretend = 0, frame = 8
  33              		@ frame_needed = 0, uses_anonymous_args = 0
  34 0000 70B5     		push	{r4, r5, r6, lr}
  35              		.cfi_def_cfa_offset 16
  36              		.cfi_offset 4, -16
  37              		.cfi_offset 5, -12
  38              		.cfi_offset 6, -8
  39              		.cfi_offset 14, -4
  40 0002 82B0     		sub	sp, sp, #8
  41              		.cfi_def_cfa_offset 24
  42              		.loc 1 74 0
  43 0004 FFF7FEFF 		bl	chCoreGetStatusX
  44              	.LVL0:
  45              		.loc 1 80 0
  46 0008 01A9     		add	r1, sp, #4
  47 000a 0020     		movs	r0, #0
  48 000c FFF7FEFF 		bl	chHeapStatus
  49              	.LVL1:
  50              		.loc 1 81 0
  51 0010 1021     		movs	r1, #16
  52 0012 0020     		movs	r0, #0
  53 0014 FFF7FEFF 		bl	chHeapAlloc
  54              	.LVL2:
  55              		.loc 1 82 0
  56 0018 011C     		adds	r1, r0, #0
  57 001a 0546     		mov	r5, r0
ARM GAS  /tmp/cciy8LS1.s 			page 2


  58 001c 18BF     		it	ne
  59 001e 0121     		movne	r1, #1
  60 0020 0120     		movs	r0, #1
  61              	.LVL3:
  62 0022 FFF7FEFF 		bl	_test_assert
  63              	.LVL4:
  64 0026 08B1     		cbz	r0, .L8
  65              	.LVL5:
  66              	.L1:
  67              		.loc 1 140 0
  68 0028 02B0     		add	sp, sp, #8
  69              		.cfi_remember_state
  70              		.cfi_def_cfa_offset 16
  71              		@ sp needed
  72 002a 70BD     		pop	{r4, r5, r6, pc}
  73              	.LVL6:
  74              	.L8:
  75              		.cfi_restore_state
  76 002c 0446     		mov	r4, r0
  77              		.loc 1 83 0
  78 002e 2846     		mov	r0, r5
  79 0030 FFF7FEFF 		bl	chHeapFree
  80              	.LVL7:
  81              		.loc 1 84 0
  82 0034 6FF0FF01 		mvn	r1, #255
  83 0038 2046     		mov	r0, r4
  84 003a FFF7FEFF 		bl	chHeapAlloc
  85              	.LVL8:
  86              		.loc 1 85 0
  87 003e B0FA80F1 		clz	r1, r0
  88 0042 4909     		lsrs	r1, r1, #5
  89 0044 0220     		movs	r0, #2
  90              	.LVL9:
  91 0046 FFF7FEFF 		bl	_test_assert
  92              	.LVL10:
  93 004a 0028     		cmp	r0, #0
  94 004c ECD1     		bne	.L1
  95              		.loc 1 88 0
  96 004e 01A9     		add	r1, sp, #4
  97 0050 7B48     		ldr	r0, .L9
  98 0052 FFF7FEFF 		bl	chHeapStatus
  99              	.LVL11:
 100              		.loc 1 91 0
 101 0056 1021     		movs	r1, #16
 102 0058 7948     		ldr	r0, .L9
 103 005a FFF7FEFF 		bl	chHeapAlloc
 104              	.LVL12:
 105              		.loc 1 92 0
 106 005e 1021     		movs	r1, #16
 107              		.loc 1 91 0
 108 0060 0646     		mov	r6, r0
 109              	.LVL13:
 110              		.loc 1 92 0
 111 0062 7748     		ldr	r0, .L9
 112              	.LVL14:
 113 0064 FFF7FEFF 		bl	chHeapAlloc
 114              	.LVL15:
ARM GAS  /tmp/cciy8LS1.s 			page 3


 115              		.loc 1 93 0
 116 0068 1021     		movs	r1, #16
 117              		.loc 1 92 0
 118 006a 0546     		mov	r5, r0
 119              	.LVL16:
 120              		.loc 1 93 0
 121 006c 7448     		ldr	r0, .L9
 122              	.LVL17:
 123 006e FFF7FEFF 		bl	chHeapAlloc
 124              	.LVL18:
 125 0072 0446     		mov	r4, r0
 126              	.LVL19:
 127              		.loc 1 94 0
 128 0074 3046     		mov	r0, r6
 129              	.LVL20:
 130 0076 FFF7FEFF 		bl	chHeapFree
 131              	.LVL21:
 132              		.loc 1 95 0
 133 007a 2846     		mov	r0, r5
 134 007c FFF7FEFF 		bl	chHeapFree
 135              	.LVL22:
 136              		.loc 1 96 0
 137 0080 2046     		mov	r0, r4
 138 0082 FFF7FEFF 		bl	chHeapFree
 139              	.LVL23:
 140              		.loc 1 97 0
 141 0086 6946     		mov	r1, sp
 142 0088 6D48     		ldr	r0, .L9
 143 008a FFF7FEFF 		bl	chHeapStatus
 144              	.LVL24:
 145 008e A0F10101 		sub	r1, r0, #1
 146 0092 B1FA81F1 		clz	r1, r1
 147 0096 4909     		lsrs	r1, r1, #5
 148 0098 0320     		movs	r0, #3
 149 009a FFF7FEFF 		bl	_test_assert
 150              	.LVL25:
 151 009e 0028     		cmp	r0, #0
 152 00a0 C2D1     		bne	.L1
 153              		.loc 1 100 0
 154 00a2 1021     		movs	r1, #16
 155 00a4 6648     		ldr	r0, .L9
 156 00a6 FFF7FEFF 		bl	chHeapAlloc
 157              	.LVL26:
 158              		.loc 1 101 0
 159 00aa 1021     		movs	r1, #16
 160              		.loc 1 100 0
 161 00ac 0446     		mov	r4, r0
 162              	.LVL27:
 163              		.loc 1 101 0
 164 00ae 6448     		ldr	r0, .L9
 165              	.LVL28:
 166 00b0 FFF7FEFF 		bl	chHeapAlloc
 167              	.LVL29:
 168              		.loc 1 102 0
 169 00b4 1021     		movs	r1, #16
 170              		.loc 1 101 0
 171 00b6 0546     		mov	r5, r0
ARM GAS  /tmp/cciy8LS1.s 			page 4


 172              	.LVL30:
 173              		.loc 1 102 0
 174 00b8 6148     		ldr	r0, .L9
 175              	.LVL31:
 176 00ba FFF7FEFF 		bl	chHeapAlloc
 177              	.LVL32:
 178              		.loc 1 103 0
 179 00be FFF7FEFF 		bl	chHeapFree
 180              	.LVL33:
 181              		.loc 1 104 0
 182 00c2 2846     		mov	r0, r5
 183 00c4 FFF7FEFF 		bl	chHeapFree
 184              	.LVL34:
 185              		.loc 1 105 0
 186 00c8 2046     		mov	r0, r4
 187 00ca FFF7FEFF 		bl	chHeapFree
 188              	.LVL35:
 189              		.loc 1 106 0
 190 00ce 6946     		mov	r1, sp
 191 00d0 5B48     		ldr	r0, .L9
 192 00d2 FFF7FEFF 		bl	chHeapStatus
 193              	.LVL36:
 194 00d6 A0F10101 		sub	r1, r0, #1
 195 00da B1FA81F1 		clz	r1, r1
 196 00de 4909     		lsrs	r1, r1, #5
 197 00e0 0420     		movs	r0, #4
 198 00e2 FFF7FEFF 		bl	_test_assert
 199              	.LVL37:
 200 00e6 0028     		cmp	r0, #0
 201 00e8 9ED1     		bne	.L1
 202              		.loc 1 109 0
 203 00ea 1121     		movs	r1, #17
 204 00ec 5448     		ldr	r0, .L9
 205 00ee FFF7FEFF 		bl	chHeapAlloc
 206              	.LVL38:
 207              		.loc 1 110 0
 208 00f2 1021     		movs	r1, #16
 209              		.loc 1 109 0
 210 00f4 0446     		mov	r4, r0
 211              	.LVL39:
 212              		.loc 1 110 0
 213 00f6 5248     		ldr	r0, .L9
 214              	.LVL40:
 215 00f8 FFF7FEFF 		bl	chHeapAlloc
 216              	.LVL41:
 217 00fc 0546     		mov	r5, r0
 218              	.LVL42:
 219              		.loc 1 111 0
 220 00fe 2046     		mov	r0, r4
 221              	.LVL43:
 222 0100 FFF7FEFF 		bl	chHeapFree
 223              	.LVL44:
 224              		.loc 1 112 0
 225 0104 6946     		mov	r1, sp
 226 0106 4E48     		ldr	r0, .L9
 227 0108 FFF7FEFF 		bl	chHeapStatus
 228              	.LVL45:
ARM GAS  /tmp/cciy8LS1.s 			page 5


 229 010c A0F10201 		sub	r1, r0, #2
 230 0110 B1FA81F1 		clz	r1, r1
 231 0114 4909     		lsrs	r1, r1, #5
 232 0116 0520     		movs	r0, #5
 233 0118 FFF7FEFF 		bl	_test_assert
 234              	.LVL46:
 235 011c 0028     		cmp	r0, #0
 236 011e 83D1     		bne	.L1
 237              		.loc 1 113 0
 238 0120 1021     		movs	r1, #16
 239 0122 4748     		ldr	r0, .L9
 240 0124 FFF7FEFF 		bl	chHeapAlloc
 241              	.LVL47:
 242              		.loc 1 116 0
 243 0128 6946     		mov	r1, sp
 244              		.loc 1 113 0
 245 012a 0446     		mov	r4, r0
 246              	.LVL48:
 247              		.loc 1 116 0
 248 012c 4448     		ldr	r0, .L9
 249              	.LVL49:
 250 012e FFF7FEFF 		bl	chHeapStatus
 251              	.LVL50:
 252 0132 0128     		cmp	r0, #1
 253 0134 00F08180 		beq	.L5
 254              		.loc 1 116 0 is_stmt 0 discriminator 2
 255 0138 6946     		mov	r1, sp
 256 013a 4148     		ldr	r0, .L9
 257 013c FFF7FEFF 		bl	chHeapStatus
 258              	.LVL51:
 259 0140 A0F10201 		sub	r1, r0, #2
 260 0144 B1FA81F1 		clz	r1, r1
 261 0148 4909     		lsrs	r1, r1, #5
 262              	.L3:
 263              		.loc 1 116 0 discriminator 6
 264 014a 0620     		movs	r0, #6
 265 014c FFF7FEFF 		bl	_test_assert
 266              	.LVL52:
 267 0150 0028     		cmp	r0, #0
 268 0152 7FF469AF 		bne	.L1
 269              		.loc 1 118 0 is_stmt 1
 270 0156 2846     		mov	r0, r5
 271 0158 FFF7FEFF 		bl	chHeapFree
 272              	.LVL53:
 273              		.loc 1 119 0
 274 015c 2046     		mov	r0, r4
 275 015e FFF7FEFF 		bl	chHeapFree
 276              	.LVL54:
 277              		.loc 1 120 0
 278 0162 6946     		mov	r1, sp
 279 0164 3648     		ldr	r0, .L9
 280 0166 FFF7FEFF 		bl	chHeapStatus
 281              	.LVL55:
 282 016a 461E     		subs	r6, r0, #1
 283 016c 7142     		rsbs	r1, r6, #0
 284 016e 7141     		adcs	r1, r1, r6
 285 0170 0720     		movs	r0, #7
ARM GAS  /tmp/cciy8LS1.s 			page 6


 286 0172 FFF7FEFF 		bl	_test_assert
 287              	.LVL56:
 288 0176 0028     		cmp	r0, #0
 289 0178 7FF456AF 		bne	.L1
 290              		.loc 1 123 0
 291 017c 1021     		movs	r1, #16
 292 017e 3048     		ldr	r0, .L9
 293 0180 FFF7FEFF 		bl	chHeapAlloc
 294              	.LVL57:
 295              		.loc 1 124 0
 296 0184 1021     		movs	r1, #16
 297              		.loc 1 123 0
 298 0186 0546     		mov	r5, r0
 299              	.LVL58:
 300              		.loc 1 124 0
 301 0188 2D48     		ldr	r0, .L9
 302              	.LVL59:
 303 018a FFF7FEFF 		bl	chHeapAlloc
 304              	.LVL60:
 305 018e 0446     		mov	r4, r0
 306              	.LVL61:
 307              		.loc 1 125 0
 308 0190 2846     		mov	r0, r5
 309              	.LVL62:
 310 0192 FFF7FEFF 		bl	chHeapFree
 311              	.LVL63:
 312              		.loc 1 126 0
 313 0196 6946     		mov	r1, sp
 314 0198 2948     		ldr	r0, .L9
 315 019a FFF7FEFF 		bl	chHeapStatus
 316              	.LVL64:
 317 019e 851E     		subs	r5, r0, #2
 318              	.LVL65:
 319 01a0 6942     		rsbs	r1, r5, #0
 320 01a2 6941     		adcs	r1, r1, r5
 321 01a4 0820     		movs	r0, #8
 322 01a6 FFF7FEFF 		bl	_test_assert
 323              	.LVL66:
 324 01aa 0028     		cmp	r0, #0
 325 01ac 7FF43CAF 		bne	.L1
 326              		.loc 1 127 0
 327 01b0 2021     		movs	r1, #32
 328 01b2 2348     		ldr	r0, .L9
 329 01b4 FFF7FEFF 		bl	chHeapAlloc
 330              	.LVL67:
 331              		.loc 1 128 0
 332 01b8 FFF7FEFF 		bl	chHeapFree
 333              	.LVL68:
 334              		.loc 1 129 0
 335 01bc 2046     		mov	r0, r4
 336 01be FFF7FEFF 		bl	chHeapFree
 337              	.LVL69:
 338              		.loc 1 130 0
 339 01c2 6946     		mov	r1, sp
 340 01c4 1E48     		ldr	r0, .L9
 341 01c6 FFF7FEFF 		bl	chHeapStatus
 342              	.LVL70:
ARM GAS  /tmp/cciy8LS1.s 			page 7


 343 01ca 0138     		subs	r0, r0, #1
 344 01cc 4142     		rsbs	r1, r0, #0
 345 01ce 4141     		adcs	r1, r1, r0
 346 01d0 0920     		movs	r0, #9
 347 01d2 FFF7FEFF 		bl	_test_assert
 348              	.LVL71:
 349 01d6 0028     		cmp	r0, #0
 350 01d8 7FF426AF 		bne	.L1
 351              		.loc 1 133 0
 352 01dc 6946     		mov	r1, sp
 353 01de 1848     		ldr	r0, .L9
 354 01e0 FFF7FEFF 		bl	chHeapStatus
 355              	.LVL72:
 356              		.loc 1 134 0
 357 01e4 0099     		ldr	r1, [sp]
 358 01e6 1648     		ldr	r0, .L9
 359 01e8 FFF7FEFF 		bl	chHeapAlloc
 360              	.LVL73:
 361              		.loc 1 135 0
 362 01ec 6946     		mov	r1, sp
 363              		.loc 1 134 0
 364 01ee 0446     		mov	r4, r0
 365              	.LVL74:
 366              		.loc 1 135 0
 367 01f0 1348     		ldr	r0, .L9
 368              	.LVL75:
 369 01f2 FFF7FEFF 		bl	chHeapStatus
 370              	.LVL76:
 371 01f6 B0FA80F1 		clz	r1, r0
 372 01fa 4909     		lsrs	r1, r1, #5
 373 01fc 0A20     		movs	r0, #10
 374 01fe FFF7FEFF 		bl	_test_assert
 375              	.LVL77:
 376 0202 0028     		cmp	r0, #0
 377 0204 7FF410AF 		bne	.L1
 378              		.loc 1 136 0
 379 0208 2046     		mov	r0, r4
 380 020a FFF7FEFF 		bl	chHeapFree
 381              	.LVL78:
 382              		.loc 1 138 0
 383 020e 6946     		mov	r1, sp
 384 0210 0B48     		ldr	r0, .L9
 385 0212 FFF7FEFF 		bl	chHeapStatus
 386              	.LVL79:
 387 0216 421E     		subs	r2, r0, #1
 388 0218 5142     		rsbs	r1, r2, #0
 389 021a 5141     		adcs	r1, r1, r2
 390 021c 0B20     		movs	r0, #11
 391 021e FFF7FEFF 		bl	_test_assert
 392              	.LVL80:
 393 0222 0028     		cmp	r0, #0
 394 0224 7FF400AF 		bne	.L1
 395              		.loc 1 139 0
 396 0228 9DE80A00 		ldmia	sp, {r1, r3}
 397 022c CB1A     		subs	r3, r1, r3
 398 022e 5942     		rsbs	r1, r3, #0
 399 0230 5941     		adcs	r1, r1, r3
ARM GAS  /tmp/cciy8LS1.s 			page 8


 400 0232 0C20     		movs	r0, #12
 401 0234 FFF7FEFF 		bl	_test_assert
 402              	.LVL81:
 403 0238 F6E6     		b	.L1
 404              	.LVL82:
 405              	.L5:
 406 023a 0146     		mov	r1, r0
 407 023c 85E7     		b	.L3
 408              	.L10:
 409 023e 00BF     		.align	2
 410              	.L9:
 411 0240 00000000 		.word	.LANCHOR0
 412              		.cfi_endproc
 413              	.LFE230:
 414              		.size	heap1_execute, .-heap1_execute
 415 0244 AFF30080 		.section	.text.heap1_setup,"ax",%progbits
 415      AFF30080 
 415      AFF30080 
 416              		.align	2
 417              		.p2align 4,,15
 418              		.thumb
 419              		.thumb_func
 420              		.type	heap1_setup, %function
 421              	heap1_setup:
 422              	.LFB229:
 423              		.loc 1 64 0
 424              		.cfi_startproc
 425              		@ args = 0, pretend = 0, frame = 0
 426              		@ frame_needed = 0, uses_anonymous_args = 0
 427              		@ link register save eliminated.
 428              		.loc 1 66 0
 429 0000 4FF41162 		mov	r2, #2320
 430 0004 0149     		ldr	r1, .L12
 431 0006 0248     		ldr	r0, .L12+4
 432 0008 FFF7FEBF 		b	chHeapObjectInit
 433              	.LVL83:
 434              	.L13:
 435              		.align	2
 436              	.L12:
 437 000c 00000000 		.word	test
 438 0010 00000000 		.word	.LANCHOR0
 439              		.cfi_endproc
 440              	.LFE229:
 441              		.size	heap1_setup, .-heap1_setup
 442              		.global	patternheap
 443              		.global	testheap1
 444 0014 AFF30080 		.section	.rodata.patternheap,"a",%progbits
 444      AFF30080 
 444      AFF30080 
 445              		.align	2
 446              		.type	patternheap, %object
 447              		.size	patternheap, 8
 448              	patternheap:
 449 0000 00000000 		.word	testheap1
 450 0004 00000000 		.word	0
 451              		.section	.rodata.str1.4,"aMS",%progbits,1
 452              		.align	2
ARM GAS  /tmp/cciy8LS1.s 			page 9


 453              	.LC0:
 454 0000 48656170 		.ascii	"Heap, allocation and fragmentation test\000"
 454      2C20616C 
 454      6C6F6361 
 454      74696F6E 
 454      20616E64 
 455              		.section	.rodata.testheap1,"a",%progbits
 456              		.align	2
 457              		.type	testheap1, %object
 458              		.size	testheap1, 16
 459              	testheap1:
 460 0000 00000000 		.word	.LC0
 461 0004 00000000 		.word	heap1_setup
 462 0008 00000000 		.word	0
 463 000c 00000000 		.word	heap1_execute
 464              		.section	.bss.test_heap,"aw",%nobits
 465              		.align	3
 466              		.set	.LANCHOR0,. + 0
 467              		.type	test_heap, %object
 468              		.size	test_heap, 32
 469              	test_heap:
 470 0000 00000000 		.space	32
 470      00000000 
 470      00000000 
 470      00000000 
 470      00000000 
 471              		.text
 472              	.Letext0:
 473              		.file 2 "/usr/lib/gcc/arm-none-eabi/5.2.0/include/stddef.h"
 474              		.file 3 "/usr/arm-none-eabi/include/machine/_default_types.h"
 475              		.file 4 "/usr/arm-none-eabi/include/stdint.h"
 476              		.file 5 "../../os/rt/ports/ARMCMx/compilers/GCC/chtypes.h"
 477              		.file 6 "../../os/rt/include/chsystypes.h"
 478              		.file 7 "../../os/rt/include/chschd.h"
 479              		.file 8 "../../os/rt/ports/ARMCMx/chcore.h"
 480              		.file 9 "../../os/rt/ports/ARMCMx/chcore_v7m.h"
 481              		.file 10 "../../os/rt/include/chtm.h"
 482              		.file 11 "../../os/rt/include/chsem.h"
 483              		.file 12 "../../os/rt/include/chmtx.h"
 484              		.file 13 "../../os/rt/include/chmemcore.h"
 485              		.file 14 "../../os/rt/include/chheap.h"
 486              		.file 15 "../../test/rt/test.h"
 487              		.file 16 "../../os/ext/CMSIS/include/core_cm4.h"