ARM GAS  /tmp/ccfMPGuk.s 			page 1


   1              		.syntax unified
   2              		.cpu cortex-m4
   3              		.eabi_attribute 27, 1
   4              		.eabi_attribute 28, 1
   5              		.fpu fpv4-sp-d16
   6              		.eabi_attribute 20, 1
   7              		.eabi_attribute 21, 1
   8              		.eabi_attribute 23, 3
   9              		.eabi_attribute 24, 1
  10              		.eabi_attribute 25, 1
  11              		.eabi_attribute 26, 1
  12              		.eabi_attribute 30, 2
  13              		.eabi_attribute 34, 1
  14              		.eabi_attribute 18, 4
  15              		.thumb
  16              		.syntax unified
  17              		.file	"chthreads.c"
  18              		.text
  19              	.Ltext0:
  20              		.cfi_sections	.debug_frame
  21              		.section	.text._thread_init,"ax",%progbits
  22              		.align	2
  23              		.p2align 4,,15
  24              		.global	_thread_init
  25              		.thumb
  26              		.thumb_func
  27              		.type	_thread_init, %function
  28              	_thread_init:
  29              	.LFB229:
  30              		.file 1 "../../os/rt/src/chthreads.c"
  31              		.loc 1 91 0
  32              		.cfi_startproc
  33              		@ args = 0, pretend = 0, frame = 0
  34              		@ frame_needed = 0, uses_anonymous_args = 0
  35              	.LVL0:
  36 0000 F0B5     		push	{r4, r5, r6, r7, lr}
  37              		.cfi_def_cfa_offset 20
  38              		.cfi_offset 4, -20
  39              		.cfi_offset 5, -16
  40              		.cfi_offset 6, -12
  41              		.cfi_offset 7, -8
  42              		.cfi_offset 14, -4
  43              		.loc 1 114 0
  44 0002 0D4C     		ldr	r4, .L3
  45              		.loc 1 100 0
  46 0004 C163     		str	r1, [r0, #60]
  47              		.loc 1 114 0
  48 0006 6569     		ldr	r5, [r4, #20]
  49              		.loc 1 93 0
  50 0008 8160     		str	r1, [r0, #8]
  51              		.loc 1 95 0
  52 000a 0022     		movs	r2, #0
  53              		.loc 1 120 0
  54 000c 00F12801 		add	r1, r0, #40
  55              	.LVL1:
  56              		.loc 1 94 0
  57 0010 4FF0020E 		mov	lr, #2
ARM GAS  /tmp/ccfMPGuk.s 			page 2


  58              		.loc 1 110 0
  59 0014 0127     		movs	r7, #1
  60              		.loc 1 117 0
  61 0016 00F12406 		add	r6, r0, #36
  62              		.loc 1 114 0
  63 001a 4561     		str	r5, [r0, #20]
  64 001c 0461     		str	r4, [r0, #16]
  65              		.loc 1 94 0
  66 001e 80F81CE0 		strb	lr, [r0, #28]
  67              		.loc 1 110 0
  68 0022 8777     		strb	r7, [r0, #30]
  69              		.loc 1 95 0
  70 0024 4277     		strb	r2, [r0, #29]
  71              		.loc 1 101 0
  72 0026 8263     		str	r2, [r0, #56]
  73              		.loc 1 104 0
  74 0028 4263     		str	r2, [r0, #52]
  75              		.loc 1 113 0
  76 002a 8261     		str	r2, [r0, #24]
  77              		.loc 1 114 0
  78 002c 2861     		str	r0, [r5, #16]
  79 002e 6061     		str	r0, [r4, #20]
  80              	.LVL2:
  81              	.LBB200:
  82              	.LBB201:
  83              		.file 2 "../../os/rt/include/chschd.h"
  84              		.loc 2 566 0
  85 0030 4662     		str	r6, [r0, #36]
  86              	.LBE201:
  87              	.LBE200:
  88              	.LBB202:
  89              	.LBB203:
  90              		.loc 2 604 0
  91 0032 8162     		str	r1, [r0, #40]
  92              		.loc 2 605 0
  93 0034 C162     		str	r1, [r0, #44]
  94              	.LBE203:
  95              	.LBE202:
  96              		.loc 1 133 0
  97 0036 F0BD     		pop	{r4, r5, r6, r7, pc}
  98              	.LVL3:
  99              	.L4:
 100              		.align	2
 101              	.L3:
 102 0038 00000000 		.word	ch
 103              		.cfi_endproc
 104              	.LFE229:
 105              		.size	_thread_init, .-_thread_init
 106 003c AFF30080 		.section	.text.chThdCreateI,"ax",%progbits
 107              		.align	2
 108              		.p2align 4,,15
 109              		.global	chThdCreateI
 110              		.thumb
 111              		.thumb_func
 112              		.type	chThdCreateI, %function
 113              	chThdCreateI:
 114              	.LFB230:
ARM GAS  /tmp/ccfMPGuk.s 			page 3


 115              		.loc 1 178 0
 116              		.cfi_startproc
 117              		@ args = 4, pretend = 0, frame = 0
 118              		@ frame_needed = 0, uses_anonymous_args = 0
 119              	.LVL4:
 120 0000 F0B5     		push	{r4, r5, r6, r7, lr}
 121              		.cfi_def_cfa_offset 20
 122              		.cfi_offset 4, -20
 123              		.cfi_offset 5, -16
 124              		.cfi_offset 6, -12
 125              		.cfi_offset 7, -8
 126              		.cfi_offset 14, -4
 127              		.loc 1 187 0
 128 0002 6439     		subs	r1, r1, #100
 129              	.LVL5:
 130 0004 0144     		add	r1, r1, r0
 131              	.LVL6:
 132              	.LBB204:
 133              	.LBB205:
 134              		.loc 1 114 0
 135 0006 104E     		ldr	r6, .L7
 136              	.LBE205:
 137              	.LBE204:
 138              		.loc 1 178 0
 139 0008 059D     		ldr	r5, [sp, #20]
 140              	.LBB212:
 141              	.LBB210:
 142              		.loc 1 114 0
 143 000a 7769     		ldr	r7, [r6, #20]
 144              	.LBE210:
 145              	.LBE212:
 146              		.loc 1 187 0
 147 000c C160     		str	r1, [r0, #12]
 148 000e 0B64     		str	r3, [r1, #64]
 149 0010 0E4B     		ldr	r3, .L7+4
 150              	.LVL7:
 151 0012 4D64     		str	r5, [r1, #68]
 152 0014 0B66     		str	r3, [r1, #96]
 153              	.LVL8:
 154              	.LBB213:
 155              	.LBB211:
 156              		.loc 1 94 0
 157 0016 4FF0020E 		mov	lr, #2
 158              		.loc 1 95 0
 159 001a 0023     		movs	r3, #0
 160              		.loc 1 93 0
 161 001c 8260     		str	r2, [r0, #8]
 162              		.loc 1 100 0
 163 001e C263     		str	r2, [r0, #60]
 164              		.loc 1 110 0
 165 0020 0125     		movs	r5, #1
 166              		.loc 1 120 0
 167 0022 00F12802 		add	r2, r0, #40
 168              	.LVL9:
 169              		.loc 1 117 0
 170 0026 00F12401 		add	r1, r0, #36
 171              	.LVL10:
ARM GAS  /tmp/ccfMPGuk.s 			page 4


 172              		.loc 1 114 0
 173 002a 0661     		str	r6, [r0, #16]
 174 002c 4761     		str	r7, [r0, #20]
 175              		.loc 1 94 0
 176 002e 80F81CE0 		strb	lr, [r0, #28]
 177              	.LVL11:
 178              		.loc 1 110 0
 179 0032 8577     		strb	r5, [r0, #30]
 180              		.loc 1 95 0
 181 0034 4377     		strb	r3, [r0, #29]
 182              		.loc 1 101 0
 183 0036 8363     		str	r3, [r0, #56]
 184              		.loc 1 104 0
 185 0038 4363     		str	r3, [r0, #52]
 186              		.loc 1 113 0
 187 003a 8361     		str	r3, [r0, #24]
 188              		.loc 1 114 0
 189 003c 3861     		str	r0, [r7, #16]
 190              	.LBB206:
 191              	.LBB207:
 192              		.loc 2 566 0
 193 003e 4162     		str	r1, [r0, #36]
 194              	.LBE207:
 195              	.LBE206:
 196              		.loc 1 114 0
 197 0040 7061     		str	r0, [r6, #20]
 198              	.LVL12:
 199              	.LBB208:
 200              	.LBB209:
 201              		.loc 2 604 0
 202 0042 8262     		str	r2, [r0, #40]
 203              		.loc 2 605 0
 204 0044 C262     		str	r2, [r0, #44]
 205              	.LBE209:
 206              	.LBE208:
 207              	.LBE211:
 208              	.LBE213:
 209              		.loc 1 190 0
 210 0046 F0BD     		pop	{r4, r5, r6, r7, pc}
 211              	.LVL13:
 212              	.L8:
 213              		.align	2
 214              	.L7:
 215 0048 00000000 		.word	ch
 216 004c 00000000 		.word	_port_thread_start
 217              		.cfi_endproc
 218              	.LFE230:
 219              		.size	chThdCreateI, .-chThdCreateI
 220              		.section	.text.chThdCreateStatic,"ax",%progbits
 221              		.align	2
 222              		.p2align 4,,15
 223              		.global	chThdCreateStatic
 224              		.thumb
 225              		.thumb_func
 226              		.type	chThdCreateStatic, %function
 227              	chThdCreateStatic:
 228              	.LFB231:
ARM GAS  /tmp/ccfMPGuk.s 			page 5


 229              		.loc 1 209 0
 230              		.cfi_startproc
 231              		@ args = 4, pretend = 0, frame = 0
 232              		@ frame_needed = 0, uses_anonymous_args = 0
 233              	.LVL14:
 234 0000 F8B5     		push	{r3, r4, r5, r6, r7, lr}
 235              		.cfi_def_cfa_offset 24
 236              		.cfi_offset 3, -24
 237              		.cfi_offset 4, -20
 238              		.cfi_offset 5, -16
 239              		.cfi_offset 6, -12
 240              		.cfi_offset 7, -8
 241              		.cfi_offset 14, -4
 242              		.loc 1 209 0
 243 0002 0446     		mov	r4, r0
 244              	.LBB214:
 245              	.LBB215:
 246              	.LBB216:
 247              	.LBB217:
 248              		.file 3 "../../os/ext/CMSIS/include/core_cmFunc.h"
 249              		.loc 3 546 0
 250 0004 2026     		movs	r6, #32
 251              		.syntax unified
 252              	@ 546 "../../os/ext/CMSIS/include/core_cmFunc.h" 1
 253 0006 86F31188 		MSR basepri, r6
 254              	@ 0 "" 2
 255              	.LVL15:
 256              		.thumb
 257              		.syntax unified
 258              	.LBE217:
 259              	.LBE216:
 260              	.LBE215:
 261              	.LBE214:
 262              	.LBB218:
 263              	.LBB219:
 264              		.loc 1 187 0
 265 000a 6439     		subs	r1, r1, #100
 266              	.LVL16:
 267 000c 0144     		add	r1, r1, r0
 268              	.LVL17:
 269              	.LBB220:
 270              	.LBB221:
 271              		.loc 1 114 0
 272 000e 134E     		ldr	r6, .L11
 273              	.LBE221:
 274              	.LBE220:
 275              		.loc 1 187 0
 276 0010 134D     		ldr	r5, .L11+4
 277              	.LBB230:
 278              	.LBB226:
 279              		.loc 1 114 0
 280 0012 7769     		ldr	r7, [r6, #20]
 281              	.LBE226:
 282              	.LBE230:
 283              		.loc 1 187 0
 284 0014 C160     		str	r1, [r0, #12]
 285 0016 0B64     		str	r3, [r1, #64]
ARM GAS  /tmp/ccfMPGuk.s 			page 6


 286 0018 069B     		ldr	r3, [sp, #24]
 287              	.LVL18:
 288 001a 4B64     		str	r3, [r1, #68]
 289              	.LBB231:
 290              	.LBB227:
 291              		.loc 1 94 0
 292 001c 0223     		movs	r3, #2
 293              	.LBE227:
 294              	.LBE231:
 295              		.loc 1 187 0
 296 001e 0D66     		str	r5, [r1, #96]
 297              	.LVL19:
 298              	.LBB232:
 299              	.LBB228:
 300              		.loc 1 117 0
 301 0020 00F1240E 		add	lr, r0, #36
 302              		.loc 1 95 0
 303 0024 0025     		movs	r5, #0
 304              		.loc 1 94 0
 305 0026 0377     		strb	r3, [r0, #28]
 306              	.LVL20:
 307              		.loc 1 110 0
 308 0028 0121     		movs	r1, #1
 309              		.loc 1 120 0
 310 002a 00F12803 		add	r3, r0, #40
 311              		.loc 1 93 0
 312 002e 8260     		str	r2, [r0, #8]
 313              		.loc 1 110 0
 314 0030 8177     		strb	r1, [r0, #30]
 315              		.loc 1 114 0
 316 0032 0661     		str	r6, [r0, #16]
 317 0034 4761     		str	r7, [r0, #20]
 318              		.loc 1 100 0
 319 0036 C263     		str	r2, [r0, #60]
 320              		.loc 1 95 0
 321 0038 4577     		strb	r5, [r0, #29]
 322              		.loc 1 101 0
 323 003a 8563     		str	r5, [r0, #56]
 324              		.loc 1 104 0
 325 003c 4563     		str	r5, [r0, #52]
 326              		.loc 1 113 0
 327 003e 8561     		str	r5, [r0, #24]
 328              	.LBE228:
 329              	.LBE232:
 330              	.LBE219:
 331              	.LBE218:
 332              		.loc 1 223 0
 333 0040 2946     		mov	r1, r5
 334              	.LBB235:
 335              	.LBB234:
 336              	.LBB233:
 337              	.LBB229:
 338              		.loc 1 114 0
 339 0042 3861     		str	r0, [r7, #16]
 340              	.LBB222:
 341              	.LBB223:
 342              		.loc 2 566 0
ARM GAS  /tmp/ccfMPGuk.s 			page 7


 343 0044 C0F824E0 		str	lr, [r0, #36]
 344              	.LBE223:
 345              	.LBE222:
 346              	.LBB224:
 347              	.LBB225:
 348              		.loc 2 604 0
 349 0048 8362     		str	r3, [r0, #40]
 350              		.loc 2 605 0
 351 004a C362     		str	r3, [r0, #44]
 352              	.LBE225:
 353              	.LBE224:
 354              		.loc 1 114 0
 355 004c 7061     		str	r0, [r6, #20]
 356              	.LVL21:
 357              	.LBE229:
 358              	.LBE233:
 359              	.LBE234:
 360              	.LBE235:
 361              		.loc 1 223 0
 362 004e FFF7FEFF 		bl	chSchWakeupS
 363              	.LVL22:
 364              	.LBB236:
 365              	.LBB237:
 366              	.LBB238:
 367              	.LBB239:
 368              	.LBB240:
 369              		.loc 3 546 0
 370              		.syntax unified
 371              	@ 546 "../../os/ext/CMSIS/include/core_cmFunc.h" 1
 372 0052 85F31188 		MSR basepri, r5
 373              	@ 0 "" 2
 374              		.thumb
 375              		.syntax unified
 376              	.LBE240:
 377              	.LBE239:
 378              	.LBE238:
 379              	.LBE237:
 380              	.LBE236:
 381              		.loc 1 227 0
 382 0056 2046     		mov	r0, r4
 383 0058 F8BD     		pop	{r3, r4, r5, r6, r7, pc}
 384              	.LVL23:
 385              	.L12:
 386 005a 00BF     		.align	2
 387              	.L11:
 388 005c 00000000 		.word	ch
 389 0060 00000000 		.word	_port_thread_start
 390              		.cfi_endproc
 391              	.LFE231:
 392              		.size	chThdCreateStatic, .-chThdCreateStatic
 393 0064 AFF30080 		.section	.text.chThdStart,"ax",%progbits
 393      AFF30080 
 393      AFF30080 
 394              		.align	2
 395              		.p2align 4,,15
 396              		.global	chThdStart
 397              		.thumb
ARM GAS  /tmp/ccfMPGuk.s 			page 8


 398              		.thumb_func
 399              		.type	chThdStart, %function
 400              	chThdStart:
 401              	.LFB232:
 402              		.loc 1 238 0
 403              		.cfi_startproc
 404              		@ args = 0, pretend = 0, frame = 0
 405              		@ frame_needed = 0, uses_anonymous_args = 0
 406              	.LVL24:
 407 0000 08B5     		push	{r3, lr}
 408              		.cfi_def_cfa_offset 8
 409              		.cfi_offset 3, -8
 410              		.cfi_offset 14, -4
 411              	.LBB241:
 412              	.LBB242:
 413              	.LBB243:
 414              	.LBB244:
 415              		.loc 3 546 0
 416 0002 2023     		movs	r3, #32
 417              		.syntax unified
 418              	@ 546 "../../os/ext/CMSIS/include/core_cmFunc.h" 1
 419 0004 83F31188 		MSR basepri, r3
 420              	@ 0 "" 2
 421              	.LVL25:
 422              		.thumb
 423              		.syntax unified
 424              	.LBE244:
 425              	.LBE243:
 426              	.LBE242:
 427              	.LBE241:
 428              	.LBB245:
 429              	.LBB246:
 430              		.file 4 "../../os/rt/include/chthreads.h"
 431              		.loc 4 249 0
 432 0008 FFF7FEFF 		bl	chSchReadyI
 433              	.LVL26:
 434              	.LBE246:
 435              	.LBE245:
 436              	.LBB247:
 437              	.LBB248:
 438              	.LBB249:
 439              	.LBB250:
 440              	.LBB251:
 441              		.loc 3 546 0
 442 000c 0023     		movs	r3, #0
 443              		.syntax unified
 444              	@ 546 "../../os/ext/CMSIS/include/core_cmFunc.h" 1
 445 000e 83F31188 		MSR basepri, r3
 446              	@ 0 "" 2
 447              		.thumb
 448              		.syntax unified
 449              	.LBE251:
 450              	.LBE250:
 451              	.LBE249:
 452              	.LBE248:
 453              	.LBE247:
 454              		.loc 1 245 0
ARM GAS  /tmp/ccfMPGuk.s 			page 9


 455 0012 08BD     		pop	{r3, pc}
 456              		.cfi_endproc
 457              	.LFE232:
 458              		.size	chThdStart, .-chThdStart
 459 0014 AFF30080 		.section	.text.chThdSetPriority,"ax",%progbits
 459      AFF30080 
 459      AFF30080 
 460              		.align	2
 461              		.p2align 4,,15
 462              		.global	chThdSetPriority
 463              		.thumb
 464              		.thumb_func
 465              		.type	chThdSetPriority, %function
 466              	chThdSetPriority:
 467              	.LFB233:
 468              		.loc 1 259 0
 469              		.cfi_startproc
 470              		@ args = 0, pretend = 0, frame = 0
 471              		@ frame_needed = 0, uses_anonymous_args = 0
 472              	.LVL27:
 473 0000 10B5     		push	{r4, lr}
 474              		.cfi_def_cfa_offset 8
 475              		.cfi_offset 4, -8
 476              		.cfi_offset 14, -4
 477              	.LBB252:
 478              	.LBB253:
 479              	.LBB254:
 480              	.LBB255:
 481              		.loc 3 546 0
 482 0002 2023     		movs	r3, #32
 483              		.syntax unified
 484              	@ 546 "../../os/ext/CMSIS/include/core_cmFunc.h" 1
 485 0004 83F31188 		MSR basepri, r3
 486              	@ 0 "" 2
 487              		.thumb
 488              		.syntax unified
 489              	.LBE255:
 490              	.LBE254:
 491              	.LBE253:
 492              	.LBE252:
 493              		.loc 1 266 0
 494 0008 084B     		ldr	r3, .L20
 495 000a 9B69     		ldr	r3, [r3, #24]
 496 000c DC6B     		ldr	r4, [r3, #60]
 497              	.LVL28:
 498              		.loc 1 267 0
 499 000e 9968     		ldr	r1, [r3, #8]
 500 0010 8C42     		cmp	r4, r1
 501 0012 01D0     		beq	.L16
 502              		.loc 1 267 0 is_stmt 0 discriminator 1
 503 0014 8142     		cmp	r1, r0
 504 0016 00D2     		bcs	.L17
 505              	.L16:
 506              		.loc 1 268 0 is_stmt 1
 507 0018 9860     		str	r0, [r3, #8]
 508              	.L17:
 509              		.loc 1 270 0
ARM GAS  /tmp/ccfMPGuk.s 			page 10


 510 001a D863     		str	r0, [r3, #60]
 511              		.loc 1 275 0
 512 001c FFF7FEFF 		bl	chSchRescheduleS
 513              	.LVL29:
 514              	.LBB256:
 515              	.LBB257:
 516              	.LBB258:
 517              	.LBB259:
 518              	.LBB260:
 519              		.loc 3 546 0
 520 0020 0023     		movs	r3, #0
 521              		.syntax unified
 522              	@ 546 "../../os/ext/CMSIS/include/core_cmFunc.h" 1
 523 0022 83F31188 		MSR basepri, r3
 524              	@ 0 "" 2
 525              		.thumb
 526              		.syntax unified
 527              	.LBE260:
 528              	.LBE259:
 529              	.LBE258:
 530              	.LBE257:
 531              	.LBE256:
 532              		.loc 1 279 0
 533 0026 2046     		mov	r0, r4
 534 0028 10BD     		pop	{r4, pc}
 535              	.LVL30:
 536              	.L21:
 537 002a 00BF     		.align	2
 538              	.L20:
 539 002c 00000000 		.word	ch
 540              		.cfi_endproc
 541              	.LFE233:
 542              		.size	chThdSetPriority, .-chThdSetPriority
 543              		.section	.text.chThdTerminate,"ax",%progbits
 544              		.align	2
 545              		.p2align 4,,15
 546              		.global	chThdTerminate
 547              		.thumb
 548              		.thumb_func
 549              		.type	chThdTerminate, %function
 550              	chThdTerminate:
 551              	.LFB234:
 552              		.loc 1 293 0
 553              		.cfi_startproc
 554              		@ args = 0, pretend = 0, frame = 0
 555              		@ frame_needed = 0, uses_anonymous_args = 0
 556              		@ link register save eliminated.
 557              	.LVL31:
 558              	.LBB261:
 559              	.LBB262:
 560              	.LBB263:
 561              	.LBB264:
 562              		.loc 3 546 0
 563 0000 2023     		movs	r3, #32
 564              		.syntax unified
 565              	@ 546 "../../os/ext/CMSIS/include/core_cmFunc.h" 1
 566 0002 83F31188 		MSR basepri, r3
ARM GAS  /tmp/ccfMPGuk.s 			page 11


 567              	@ 0 "" 2
 568              		.thumb
 569              		.syntax unified
 570              	.LBE264:
 571              	.LBE263:
 572              	.LBE262:
 573              	.LBE261:
 574              		.loc 1 296 0
 575 0006 437F     		ldrb	r3, [r0, #29]	@ zero_extendqisi2
 576 0008 43F00403 		orr	r3, r3, #4
 577 000c 4377     		strb	r3, [r0, #29]
 578              	.LVL32:
 579              	.LBB265:
 580              	.LBB266:
 581              	.LBB267:
 582              	.LBB268:
 583              	.LBB269:
 584              		.loc 3 546 0
 585 000e 0023     		movs	r3, #0
 586              		.syntax unified
 587              	@ 546 "../../os/ext/CMSIS/include/core_cmFunc.h" 1
 588 0010 83F31188 		MSR basepri, r3
 589              	@ 0 "" 2
 590              		.thumb
 591              		.syntax unified
 592 0014 7047     		bx	lr
 593              	.LBE269:
 594              	.LBE268:
 595              	.LBE267:
 596              	.LBE266:
 597              	.LBE265:
 598              		.cfi_endproc
 599              	.LFE234:
 600              		.size	chThdTerminate, .-chThdTerminate
 601 0016 00BFAFF3 		.section	.text.chThdSleep,"ax",%progbits
 601      0080AFF3 
 601      0080
 602              		.align	2
 603              		.p2align 4,,15
 604              		.global	chThdSleep
 605              		.thumb
 606              		.thumb_func
 607              		.type	chThdSleep, %function
 608              	chThdSleep:
 609              	.LFB235:
 610              		.loc 1 312 0
 611              		.cfi_startproc
 612              		@ args = 0, pretend = 0, frame = 0
 613              		@ frame_needed = 0, uses_anonymous_args = 0
 614              	.LVL33:
 615 0000 08B5     		push	{r3, lr}
 616              		.cfi_def_cfa_offset 8
 617              		.cfi_offset 3, -8
 618              		.cfi_offset 14, -4
 619              		.loc 1 312 0
 620 0002 0146     		mov	r1, r0
 621              	.LBB270:
ARM GAS  /tmp/ccfMPGuk.s 			page 12


 622              	.LBB271:
 623              	.LBB272:
 624              	.LBB273:
 625              		.loc 3 546 0
 626 0004 2023     		movs	r3, #32
 627              		.syntax unified
 628              	@ 546 "../../os/ext/CMSIS/include/core_cmFunc.h" 1
 629 0006 83F31188 		MSR basepri, r3
 630              	@ 0 "" 2
 631              	.LVL34:
 632              		.thumb
 633              		.syntax unified
 634              	.LBE273:
 635              	.LBE272:
 636              	.LBE271:
 637              	.LBE270:
 638              	.LBB274:
 639              	.LBB275:
 640              		.loc 4 268 0
 641 000a 0820     		movs	r0, #8
 642              	.LVL35:
 643 000c FFF7FEFF 		bl	chSchGoSleepTimeoutS
 644              	.LVL36:
 645              	.LBE275:
 646              	.LBE274:
 647              	.LBB276:
 648              	.LBB277:
 649              	.LBB278:
 650              	.LBB279:
 651              	.LBB280:
 652              		.loc 3 546 0
 653 0010 0023     		movs	r3, #0
 654              		.syntax unified
 655              	@ 546 "../../os/ext/CMSIS/include/core_cmFunc.h" 1
 656 0012 83F31188 		MSR basepri, r3
 657              	@ 0 "" 2
 658              		.thumb
 659              		.syntax unified
 660 0016 08BD     		pop	{r3, pc}
 661              	.LBE280:
 662              	.LBE279:
 663              	.LBE278:
 664              	.LBE277:
 665              	.LBE276:
 666              		.cfi_endproc
 667              	.LFE235:
 668              		.size	chThdSleep, .-chThdSleep
 669 0018 AFF30080 		.section	.text.chThdSleepUntil,"ax",%progbits
 669      AFF30080 
 670              		.align	2
 671              		.p2align 4,,15
 672              		.global	chThdSleepUntil
 673              		.thumb
 674              		.thumb_func
 675              		.type	chThdSleepUntil, %function
 676              	chThdSleepUntil:
 677              	.LFB236:
ARM GAS  /tmp/ccfMPGuk.s 			page 13


 678              		.loc 1 332 0
 679              		.cfi_startproc
 680              		@ args = 0, pretend = 0, frame = 0
 681              		@ frame_needed = 0, uses_anonymous_args = 0
 682              	.LVL37:
 683 0000 08B5     		push	{r3, lr}
 684              		.cfi_def_cfa_offset 8
 685              		.cfi_offset 3, -8
 686              		.cfi_offset 14, -4
 687              	.LBB281:
 688              	.LBB282:
 689              	.LBB283:
 690              	.LBB284:
 691              		.loc 3 546 0
 692 0002 2023     		movs	r3, #32
 693              		.syntax unified
 694              	@ 546 "../../os/ext/CMSIS/include/core_cmFunc.h" 1
 695 0004 83F31188 		MSR basepri, r3
 696              	@ 0 "" 2
 697              		.thumb
 698              		.syntax unified
 699              	.LBE284:
 700              	.LBE283:
 701              	.LBE282:
 702              	.LBE281:
 703              	.LBB285:
 704              	.LBB286:
 705              	.LBB287:
 706              	.LBB288:
 707              		.file 5 "../../os/hal/ports/STM32/LLD/TIMv1/st_lld.h"
 708              		.loc 5 129 0
 709 0008 4FF08043 		mov	r3, #1073741824
 710 000c 596A     		ldr	r1, [r3, #36]
 711              	.LVL38:
 712              	.LBE288:
 713              	.LBE287:
 714              	.LBE286:
 715              	.LBE285:
 716              		.loc 1 336 0
 717 000e 411A     		subs	r1, r0, r1
 718              	.LVL39:
 719 0010 02D0     		beq	.L26
 720              	.LVL40:
 721              	.LBB289:
 722              	.LBB290:
 723              		.loc 4 268 0
 724 0012 0820     		movs	r0, #8
 725 0014 FFF7FEFF 		bl	chSchGoSleepTimeoutS
 726              	.LVL41:
 727              	.L26:
 728              	.LBE290:
 729              	.LBE289:
 730              	.LBB291:
 731              	.LBB292:
 732              	.LBB293:
 733              	.LBB294:
 734              	.LBB295:
ARM GAS  /tmp/ccfMPGuk.s 			page 14


 735              		.loc 3 546 0
 736 0018 0023     		movs	r3, #0
 737              		.syntax unified
 738              	@ 546 "../../os/ext/CMSIS/include/core_cmFunc.h" 1
 739 001a 83F31188 		MSR basepri, r3
 740              	@ 0 "" 2
 741              		.thumb
 742              		.syntax unified
 743 001e 08BD     		pop	{r3, pc}
 744              	.LBE295:
 745              	.LBE294:
 746              	.LBE293:
 747              	.LBE292:
 748              	.LBE291:
 749              		.cfi_endproc
 750              	.LFE236:
 751              		.size	chThdSleepUntil, .-chThdSleepUntil
 752              		.section	.text.chThdSleepUntilWindowed,"ax",%progbits
 753              		.align	2
 754              		.p2align 4,,15
 755              		.global	chThdSleepUntilWindowed
 756              		.thumb
 757              		.thumb_func
 758              		.type	chThdSleepUntilWindowed, %function
 759              	chThdSleepUntilWindowed:
 760              	.LFB237:
 761              		.loc 1 356 0
 762              		.cfi_startproc
 763              		@ args = 0, pretend = 0, frame = 0
 764              		@ frame_needed = 0, uses_anonymous_args = 0
 765              	.LVL42:
 766 0000 10B5     		push	{r4, lr}
 767              		.cfi_def_cfa_offset 8
 768              		.cfi_offset 4, -8
 769              		.cfi_offset 14, -4
 770              	.LBB296:
 771              	.LBB297:
 772              	.LBB298:
 773              	.LBB299:
 774              		.loc 3 546 0
 775 0002 2023     		movs	r3, #32
 776              	.LBE299:
 777              	.LBE298:
 778              	.LBE297:
 779              	.LBE296:
 780              		.loc 1 356 0
 781 0004 0C46     		mov	r4, r1
 782              	.LBB303:
 783              	.LBB302:
 784              	.LBB301:
 785              	.LBB300:
 786              		.loc 3 546 0
 787              		.syntax unified
 788              	@ 546 "../../os/ext/CMSIS/include/core_cmFunc.h" 1
 789 0006 83F31188 		MSR basepri, r3
 790              	@ 0 "" 2
 791              		.thumb
ARM GAS  /tmp/ccfMPGuk.s 			page 15


 792              		.syntax unified
 793              	.LBE300:
 794              	.LBE301:
 795              	.LBE302:
 796              	.LBE303:
 797              	.LBB304:
 798              	.LBB305:
 799              	.LBB306:
 800              	.LBB307:
 801              		.loc 5 129 0
 802 000a 4FF08042 		mov	r2, #1073741824
 803              	.LBE307:
 804              	.LBE306:
 805              	.LBE305:
 806              	.LBE304:
 807              		.loc 1 361 0
 808 000e 0B1A     		subs	r3, r1, r0
 809              	.LBB311:
 810              	.LBB310:
 811              	.LBB309:
 812              	.LBB308:
 813              		.loc 5 129 0
 814 0010 516A     		ldr	r1, [r2, #36]
 815              	.LVL43:
 816              	.LBE308:
 817              	.LBE309:
 818              	.LBE310:
 819              	.LBE311:
 820              		.loc 1 361 0
 821 0012 081A     		subs	r0, r1, r0
 822              	.LVL44:
 823 0014 9842     		cmp	r0, r3
 824 0016 03D2     		bcs	.L32
 825              	.LVL45:
 826              	.LBB312:
 827              	.LBB313:
 828              		.loc 4 268 0
 829 0018 611A     		subs	r1, r4, r1
 830              	.LVL46:
 831 001a 0820     		movs	r0, #8
 832 001c FFF7FEFF 		bl	chSchGoSleepTimeoutS
 833              	.LVL47:
 834              	.L32:
 835              	.LBE313:
 836              	.LBE312:
 837              	.LBB314:
 838              	.LBB315:
 839              	.LBB316:
 840              	.LBB317:
 841              	.LBB318:
 842              		.loc 3 546 0
 843 0020 0023     		movs	r3, #0
 844              		.syntax unified
 845              	@ 546 "../../os/ext/CMSIS/include/core_cmFunc.h" 1
 846 0022 83F31188 		MSR basepri, r3
 847              	@ 0 "" 2
 848              		.thumb
ARM GAS  /tmp/ccfMPGuk.s 			page 16


 849              		.syntax unified
 850              	.LBE318:
 851              	.LBE317:
 852              	.LBE316:
 853              	.LBE315:
 854              	.LBE314:
 855              		.loc 1 367 0
 856 0026 2046     		mov	r0, r4
 857 0028 10BD     		pop	{r4, pc}
 858              		.cfi_endproc
 859              	.LFE237:
 860              		.size	chThdSleepUntilWindowed, .-chThdSleepUntilWindowed
 861 002a 00BFAFF3 		.section	.text.chThdYield,"ax",%progbits
 861      0080
 862              		.align	2
 863              		.p2align 4,,15
 864              		.global	chThdYield
 865              		.thumb
 866              		.thumb_func
 867              		.type	chThdYield, %function
 868              	chThdYield:
 869              	.LFB238:
 870              		.loc 1 376 0
 871              		.cfi_startproc
 872              		@ args = 0, pretend = 0, frame = 0
 873              		@ frame_needed = 0, uses_anonymous_args = 0
 874              	.LVL48:
 875 0000 08B5     		push	{r3, lr}
 876              		.cfi_def_cfa_offset 8
 877              		.cfi_offset 3, -8
 878              		.cfi_offset 14, -4
 879              	.LBB319:
 880              	.LBB320:
 881              	.LBB321:
 882              	.LBB322:
 883              		.loc 3 546 0
 884 0002 2023     		movs	r3, #32
 885              		.syntax unified
 886              	@ 546 "../../os/ext/CMSIS/include/core_cmFunc.h" 1
 887 0004 83F31188 		MSR basepri, r3
 888              	@ 0 "" 2
 889              		.thumb
 890              		.syntax unified
 891              	.LBE322:
 892              	.LBE321:
 893              	.LBE320:
 894              	.LBE319:
 895              	.LBB323:
 896              	.LBB324:
 897              	.LBB325:
 898              	.LBB326:
 899              		.loc 2 731 0
 900 0008 064B     		ldr	r3, .L37
 901 000a 1A68     		ldr	r2, [r3]
 902 000c 9B69     		ldr	r3, [r3, #24]
 903              	.LBE326:
 904              	.LBE325:
ARM GAS  /tmp/ccfMPGuk.s 			page 17


 905              		.loc 2 745 0
 906 000e 9268     		ldr	r2, [r2, #8]
 907 0010 9B68     		ldr	r3, [r3, #8]
 908 0012 9A42     		cmp	r2, r3
 909 0014 01D3     		bcc	.L35
 910              		.loc 2 746 0
 911 0016 FFF7FEFF 		bl	chSchDoRescheduleBehind
 912              	.LVL49:
 913              	.L35:
 914              	.LBE324:
 915              	.LBE323:
 916              	.LBB327:
 917              	.LBB328:
 918              	.LBB329:
 919              	.LBB330:
 920              	.LBB331:
 921              		.loc 3 546 0
 922 001a 0023     		movs	r3, #0
 923              		.syntax unified
 924              	@ 546 "../../os/ext/CMSIS/include/core_cmFunc.h" 1
 925 001c 83F31188 		MSR basepri, r3
 926              	@ 0 "" 2
 927              		.thumb
 928              		.syntax unified
 929 0020 08BD     		pop	{r3, pc}
 930              	.L38:
 931 0022 00BF     		.align	2
 932              	.L37:
 933 0024 00000000 		.word	ch
 934              	.LBE331:
 935              	.LBE330:
 936              	.LBE329:
 937              	.LBE328:
 938              	.LBE327:
 939              		.cfi_endproc
 940              	.LFE238:
 941              		.size	chThdYield, .-chThdYield
 942 0028 AFF30080 		.section	.text.chThdExitS,"ax",%progbits
 942      AFF30080 
 943              		.align	2
 944              		.p2align 4,,15
 945              		.global	chThdExitS
 946              		.thumb
 947              		.thumb_func
 948              		.type	chThdExitS, %function
 949              	chThdExitS:
 950              	.LFB240:
 951              		.loc 1 418 0
 952              		.cfi_startproc
 953              		@ args = 0, pretend = 0, frame = 0
 954              		@ frame_needed = 0, uses_anonymous_args = 0
 955              	.LVL50:
 956 0000 38B5     		push	{r3, r4, r5, lr}
 957              		.cfi_def_cfa_offset 16
 958              		.cfi_offset 3, -16
 959              		.cfi_offset 4, -12
 960              		.cfi_offset 5, -8
ARM GAS  /tmp/ccfMPGuk.s 			page 18


 961              		.cfi_offset 14, -4
 962              		.loc 1 419 0
 963 0002 0E4B     		ldr	r3, .L47
 964 0004 9C69     		ldr	r4, [r3, #24]
 965              	.LVL51:
 966              	.LBB332:
 967              	.LBB333:
 968              		.loc 2 592 0
 969 0006 636A     		ldr	r3, [r4, #36]
 970              	.LBE333:
 971              	.LBE332:
 972              		.loc 1 421 0
 973 0008 2062     		str	r0, [r4, #32]
 974              		.loc 1 426 0
 975 000a 04F12405 		add	r5, r4, #36
 976              	.LVL52:
 977 000e 9D42     		cmp	r5, r3
 978 0010 07D0     		beq	.L44
 979              	.LVL53:
 980              	.L43:
 981              	.LBB335:
 982              	.LBB336:
 983              		.loc 2 646 0
 984 0012 1A68     		ldr	r2, [r3]
 985 0014 6262     		str	r2, [r4, #36]
 986              	.LBE336:
 987              	.LBE335:
 988              		.loc 1 427 0
 989 0016 1846     		mov	r0, r3
 990 0018 FFF7FEFF 		bl	chSchReadyI
 991              	.LVL54:
 992              	.LBB337:
 993              	.LBB334:
 994              		.loc 2 592 0
 995 001c 636A     		ldr	r3, [r4, #36]
 996              	.LBE334:
 997              	.LBE337:
 998              		.loc 1 426 0
 999 001e AB42     		cmp	r3, r5
 1000 0020 F7D1     		bne	.L43
 1001              	.LVL55:
 1002              	.L44:
 1003              		.loc 1 433 0
 1004 0022 637F     		ldrb	r3, [r4, #29]	@ zero_extendqisi2
 1005 0024 9B07     		lsls	r3, r3, #30
 1006 0026 04D1     		bne	.L42
 1007              		.loc 1 434 0
 1008 0028 6369     		ldr	r3, [r4, #20]
 1009 002a 2269     		ldr	r2, [r4, #16]
 1010 002c 1A61     		str	r2, [r3, #16]
 1011 002e 2269     		ldr	r2, [r4, #16]
 1012 0030 5361     		str	r3, [r2, #20]
 1013              	.L42:
 1014              		.loc 1 437 0
 1015 0032 0F20     		movs	r0, #15
 1016              		.loc 1 441 0
 1017 0034 BDE83840 		pop	{r3, r4, r5, lr}
ARM GAS  /tmp/ccfMPGuk.s 			page 19


 1018              		.cfi_restore 14
 1019              		.cfi_restore 5
 1020              		.cfi_restore 4
 1021              		.cfi_restore 3
 1022              		.cfi_def_cfa_offset 0
 1023              	.LVL56:
 1024              		.loc 1 437 0
 1025 0038 FFF7FEBF 		b	chSchGoSleepS
 1026              	.LVL57:
 1027              	.L48:
 1028              		.align	2
 1029              	.L47:
 1030 003c 00000000 		.word	ch
 1031              		.cfi_endproc
 1032              	.LFE240:
 1033              		.size	chThdExitS, .-chThdExitS
 1034              		.section	.text.chThdExit,"ax",%progbits
 1035              		.align	2
 1036              		.p2align 4,,15
 1037              		.global	chThdExit
 1038              		.thumb
 1039              		.thumb_func
 1040              		.type	chThdExit, %function
 1041              	chThdExit:
 1042              	.LFB239:
 1043              		.loc 1 397 0
 1044              		.cfi_startproc
 1045              		@ args = 0, pretend = 0, frame = 0
 1046              		@ frame_needed = 0, uses_anonymous_args = 0
 1047              		@ link register save eliminated.
 1048              	.LVL58:
 1049              	.LBB338:
 1050              	.LBB339:
 1051              	.LBB340:
 1052              	.LBB341:
 1053              		.loc 3 546 0
 1054 0000 2023     		movs	r3, #32
 1055              		.syntax unified
 1056              	@ 546 "../../os/ext/CMSIS/include/core_cmFunc.h" 1
 1057 0002 83F31188 		MSR basepri, r3
 1058              	@ 0 "" 2
 1059              		.thumb
 1060              		.syntax unified
 1061              	.LBE341:
 1062              	.LBE340:
 1063              	.LBE339:
 1064              	.LBE338:
 1065              		.loc 1 400 0
 1066 0006 FFF7FEBF 		b	chThdExitS
 1067              	.LVL59:
 1068              		.cfi_endproc
 1069              	.LFE239:
 1070              		.size	chThdExit, .-chThdExit
 1071 000a 00BFAFF3 		.section	.text.chThdWait,"ax",%progbits
 1071      0080
 1072              		.align	2
 1073              		.p2align 4,,15
ARM GAS  /tmp/ccfMPGuk.s 			page 20


 1074              		.global	chThdWait
 1075              		.thumb
 1076              		.thumb_func
 1077              		.type	chThdWait, %function
 1078              	chThdWait:
 1079              	.LFB241:
 1080              		.loc 1 475 0
 1081              		.cfi_startproc
 1082              		@ args = 0, pretend = 0, frame = 0
 1083              		@ frame_needed = 0, uses_anonymous_args = 0
 1084              	.LVL60:
 1085 0000 38B5     		push	{r3, r4, r5, lr}
 1086              		.cfi_def_cfa_offset 16
 1087              		.cfi_offset 3, -16
 1088              		.cfi_offset 4, -12
 1089              		.cfi_offset 5, -8
 1090              		.cfi_offset 14, -4
 1091              		.loc 1 475 0
 1092 0002 0446     		mov	r4, r0
 1093              	.LBB342:
 1094              	.LBB343:
 1095              	.LBB344:
 1096              	.LBB345:
 1097              		.loc 3 546 0
 1098 0004 2023     		movs	r3, #32
 1099              		.syntax unified
 1100              	@ 546 "../../os/ext/CMSIS/include/core_cmFunc.h" 1
 1101 0006 83F31188 		MSR basepri, r3
 1102              	@ 0 "" 2
 1103              		.thumb
 1104              		.syntax unified
 1105              	.LBE345:
 1106              	.LBE344:
 1107              	.LBE343:
 1108              	.LBE342:
 1109              		.loc 1 485 0
 1110 000a 037F     		ldrb	r3, [r0, #28]	@ zero_extendqisi2
 1111 000c 0F2B     		cmp	r3, #15
 1112 000e 07D0     		beq	.L51
 1113              		.loc 1 486 0
 1114 0010 084B     		ldr	r3, .L56
 1115              	.LBB346:
 1116              	.LBB347:
 1117              		.loc 2 639 0
 1118 0012 426A     		ldr	r2, [r0, #36]
 1119              	.LBE347:
 1120              	.LBE346:
 1121              		.loc 1 486 0
 1122 0014 9B69     		ldr	r3, [r3, #24]
 1123              	.LVL61:
 1124              		.loc 1 487 0
 1125 0016 0920     		movs	r0, #9
 1126              	.LVL62:
 1127              	.LBB349:
 1128              	.LBB348:
 1129              		.loc 2 639 0
 1130 0018 1A60     		str	r2, [r3]
ARM GAS  /tmp/ccfMPGuk.s 			page 21


 1131              		.loc 2 640 0
 1132 001a 6362     		str	r3, [r4, #36]
 1133              	.LBE348:
 1134              	.LBE349:
 1135              		.loc 1 487 0
 1136 001c FFF7FEFF 		bl	chSchGoSleepS
 1137              	.LVL63:
 1138              	.L51:
 1139              		.loc 1 489 0
 1140 0020 256A     		ldr	r5, [r4, #32]
 1141              	.LVL64:
 1142              	.LBB350:
 1143              	.LBB351:
 1144              	.LBB352:
 1145              	.LBB353:
 1146              	.LBB354:
 1147              		.loc 3 546 0
 1148 0022 0023     		movs	r3, #0
 1149              		.syntax unified
 1150              	@ 546 "../../os/ext/CMSIS/include/core_cmFunc.h" 1
 1151 0024 83F31188 		MSR basepri, r3
 1152              	@ 0 "" 2
 1153              		.thumb
 1154              		.syntax unified
 1155              	.LBE354:
 1156              	.LBE353:
 1157              	.LBE352:
 1158              	.LBE351:
 1159              	.LBE350:
 1160              		.loc 1 494 0
 1161 0028 2046     		mov	r0, r4
 1162 002a FFF7FEFF 		bl	chThdRelease
 1163              	.LVL65:
 1164              		.loc 1 498 0
 1165 002e 2846     		mov	r0, r5
 1166 0030 38BD     		pop	{r3, r4, r5, pc}
 1167              	.LVL66:
 1168              	.L57:
 1169 0032 00BF     		.align	2
 1170              	.L56:
 1171 0034 00000000 		.word	ch
 1172              		.cfi_endproc
 1173              	.LFE241:
 1174              		.size	chThdWait, .-chThdWait
 1175 0038 AFF30080 		.section	.text.chThdSuspendS,"ax",%progbits
 1175      AFF30080 
 1176              		.align	2
 1177              		.p2align 4,,15
 1178              		.global	chThdSuspendS
 1179              		.thumb
 1180              		.thumb_func
 1181              		.type	chThdSuspendS, %function
 1182              	chThdSuspendS:
 1183              	.LFB242:
 1184              		.loc 1 511 0
 1185              		.cfi_startproc
 1186              		@ args = 0, pretend = 0, frame = 0
ARM GAS  /tmp/ccfMPGuk.s 			page 22


 1187              		@ frame_needed = 0, uses_anonymous_args = 0
 1188              	.LVL67:
 1189 0000 10B5     		push	{r4, lr}
 1190              		.cfi_def_cfa_offset 8
 1191              		.cfi_offset 4, -8
 1192              		.cfi_offset 14, -4
 1193              	.LBB355:
 1194              	.LBB356:
 1195              		.loc 4 176 0
 1196 0002 054C     		ldr	r4, .L60
 1197 0004 A369     		ldr	r3, [r4, #24]
 1198              	.LBE356:
 1199              	.LBE355:
 1200              		.loc 1 516 0
 1201 0006 0360     		str	r3, [r0]
 1202              		.loc 1 511 0
 1203 0008 0246     		mov	r2, r0
 1204              		.loc 1 517 0
 1205 000a 1A62     		str	r2, [r3, #32]
 1206              		.loc 1 518 0
 1207 000c 0320     		movs	r0, #3
 1208              	.LVL68:
 1209 000e FFF7FEFF 		bl	chSchGoSleepS
 1210              	.LVL69:
 1211              		.loc 1 520 0
 1212 0012 A369     		ldr	r3, [r4, #24]
 1213              		.loc 1 521 0
 1214 0014 186A     		ldr	r0, [r3, #32]
 1215 0016 10BD     		pop	{r4, pc}
 1216              	.L61:
 1217              		.align	2
 1218              	.L60:
 1219 0018 00000000 		.word	ch
 1220              		.cfi_endproc
 1221              	.LFE242:
 1222              		.size	chThdSuspendS, .-chThdSuspendS
 1223 001c AFF30080 		.section	.text.chThdSuspendTimeoutS,"ax",%progbits
 1224              		.align	2
 1225              		.p2align 4,,15
 1226              		.global	chThdSuspendTimeoutS
 1227              		.thumb
 1228              		.thumb_func
 1229              		.type	chThdSuspendTimeoutS, %function
 1230              	chThdSuspendTimeoutS:
 1231              	.LFB243:
 1232              		.loc 1 542 0
 1233              		.cfi_startproc
 1234              		@ args = 0, pretend = 0, frame = 0
 1235              		@ frame_needed = 0, uses_anonymous_args = 0
 1236              		@ link register save eliminated.
 1237              	.LVL70:
 1238              	.LBB357:
 1239              	.LBB358:
 1240              		.loc 4 176 0
 1241 0000 054B     		ldr	r3, .L64
 1242              	.LBE358:
 1243              	.LBE357:
ARM GAS  /tmp/ccfMPGuk.s 			page 23


 1244              		.loc 1 542 0
 1245 0002 0246     		mov	r2, r0
 1246              	.LBB360:
 1247              	.LBB359:
 1248              		.loc 4 176 0
 1249 0004 9B69     		ldr	r3, [r3, #24]
 1250              	.LBE359:
 1251              	.LBE360:
 1252              		.loc 1 547 0
 1253 0006 21B1     		cbz	r1, .L63
 1254              		.loc 1 551 0
 1255 0008 0360     		str	r3, [r0]
 1256              		.loc 1 554 0
 1257 000a 0320     		movs	r0, #3
 1258              	.LVL71:
 1259              		.loc 1 552 0
 1260 000c 1A62     		str	r2, [r3, #32]
 1261              		.loc 1 554 0
 1262 000e FFF7FEBF 		b	chSchGoSleepTimeoutS
 1263              	.LVL72:
 1264              	.L63:
 1265              		.loc 1 555 0
 1266 0012 4FF0FF30 		mov	r0, #-1
 1267              	.LVL73:
 1268 0016 7047     		bx	lr
 1269              	.L65:
 1270              		.align	2
 1271              	.L64:
 1272 0018 00000000 		.word	ch
 1273              		.cfi_endproc
 1274              	.LFE243:
 1275              		.size	chThdSuspendTimeoutS, .-chThdSuspendTimeoutS
 1276 001c AFF30080 		.section	.text.chThdResumeI,"ax",%progbits
 1277              		.align	2
 1278              		.p2align 4,,15
 1279              		.global	chThdResumeI
 1280              		.thumb
 1281              		.thumb_func
 1282              		.type	chThdResumeI, %function
 1283              	chThdResumeI:
 1284              	.LFB244:
 1285              		.loc 1 567 0
 1286              		.cfi_startproc
 1287              		@ args = 0, pretend = 0, frame = 0
 1288              		@ frame_needed = 0, uses_anonymous_args = 0
 1289              		@ link register save eliminated.
 1290              	.LVL74:
 1291              		.loc 1 569 0
 1292 0000 0368     		ldr	r3, [r0]
 1293 0002 2BB1     		cbz	r3, .L66
 1294              	.LVL75:
 1295              	.LBB361:
 1296              		.loc 1 575 0
 1297 0004 0022     		movs	r2, #0
 1298 0006 0260     		str	r2, [r0]
 1299              		.loc 1 577 0
 1300 0008 1846     		mov	r0, r3
ARM GAS  /tmp/ccfMPGuk.s 			page 24


 1301              	.LVL76:
 1302              		.loc 1 576 0
 1303 000a 1962     		str	r1, [r3, #32]
 1304              		.loc 1 577 0
 1305 000c FFF7FEBF 		b	chSchReadyI
 1306              	.LVL77:
 1307              	.L66:
 1308 0010 7047     		bx	lr
 1309              	.LBE361:
 1310              		.cfi_endproc
 1311              	.LFE244:
 1312              		.size	chThdResumeI, .-chThdResumeI
 1313 0012 00BFAFF3 		.section	.text.chThdResumeS,"ax",%progbits
 1313      0080AFF3 
 1313      0080AFF3 
 1313      0080
 1314              		.align	2
 1315              		.p2align 4,,15
 1316              		.global	chThdResumeS
 1317              		.thumb
 1318              		.thumb_func
 1319              		.type	chThdResumeS, %function
 1320              	chThdResumeS:
 1321              	.LFB245:
 1322              		.loc 1 591 0
 1323              		.cfi_startproc
 1324              		@ args = 0, pretend = 0, frame = 0
 1325              		@ frame_needed = 0, uses_anonymous_args = 0
 1326              		@ link register save eliminated.
 1327              	.LVL78:
 1328              		.loc 1 591 0
 1329 0000 0346     		mov	r3, r0
 1330              		.loc 1 593 0
 1331 0002 0068     		ldr	r0, [r0]
 1332              	.LVL79:
 1333 0004 18B1     		cbz	r0, .L68
 1334              	.LVL80:
 1335              	.LBB362:
 1336              		.loc 1 599 0
 1337 0006 0022     		movs	r2, #0
 1338 0008 1A60     		str	r2, [r3]
 1339              		.loc 1 600 0
 1340 000a FFF7FEBF 		b	chSchWakeupS
 1341              	.LVL81:
 1342              	.L68:
 1343 000e 7047     		bx	lr
 1344              	.LBE362:
 1345              		.cfi_endproc
 1346              	.LFE245:
 1347              		.size	chThdResumeS, .-chThdResumeS
 1348              		.section	.text.chThdResume,"ax",%progbits
 1349              		.align	2
 1350              		.p2align 4,,15
 1351              		.global	chThdResume
 1352              		.thumb
 1353              		.thumb_func
 1354              		.type	chThdResume, %function
ARM GAS  /tmp/ccfMPGuk.s 			page 25


 1355              	chThdResume:
 1356              	.LFB246:
 1357              		.loc 1 614 0
 1358              		.cfi_startproc
 1359              		@ args = 0, pretend = 0, frame = 0
 1360              		@ frame_needed = 0, uses_anonymous_args = 0
 1361              	.LVL82:
 1362              	.LBB363:
 1363              	.LBB364:
 1364              	.LBB365:
 1365              	.LBB366:
 1366              		.loc 3 546 0
 1367 0000 2023     		movs	r3, #32
 1368              		.syntax unified
 1369              	@ 546 "../../os/ext/CMSIS/include/core_cmFunc.h" 1
 1370 0002 83F31188 		MSR basepri, r3
 1371              	@ 0 "" 2
 1372              	.LVL83:
 1373              		.thumb
 1374              		.syntax unified
 1375              	.LBE366:
 1376              	.LBE365:
 1377              	.LBE364:
 1378              	.LBE363:
 1379              	.LBB367:
 1380              	.LBB368:
 1381              		.loc 1 593 0
 1382 0006 0268     		ldr	r2, [r0]
 1383 0008 52B1     		cbz	r2, .L76
 1384 000a 0346     		mov	r3, r0
 1385              	.LVL84:
 1386              	.LBE368:
 1387              	.LBE367:
 1388              		.loc 1 614 0
 1389 000c 10B5     		push	{r4, lr}
 1390              		.cfi_def_cfa_offset 8
 1391              		.cfi_offset 4, -8
 1392              		.cfi_offset 14, -4
 1393              	.LBB371:
 1394              	.LBB370:
 1395              	.LBB369:
 1396              		.loc 1 599 0
 1397 000e 0024     		movs	r4, #0
 1398 0010 1C60     		str	r4, [r3]
 1399              		.loc 1 600 0
 1400 0012 1046     		mov	r0, r2
 1401              	.LVL85:
 1402 0014 FFF7FEFF 		bl	chSchWakeupS
 1403              	.LVL86:
 1404              	.LBE369:
 1405              	.LBE370:
 1406              	.LBE371:
 1407              	.LBB372:
 1408              	.LBB373:
 1409              	.LBB374:
 1410              	.LBB375:
 1411              	.LBB376:
ARM GAS  /tmp/ccfMPGuk.s 			page 26


 1412              		.loc 3 546 0
 1413 0018 0023     		movs	r3, #0
 1414              		.syntax unified
 1415              	@ 546 "../../os/ext/CMSIS/include/core_cmFunc.h" 1
 1416 001a 83F31188 		MSR basepri, r3
 1417              	@ 0 "" 2
 1418              		.thumb
 1419              		.syntax unified
 1420 001e 10BD     		pop	{r4, pc}
 1421              	.LVL87:
 1422              	.L76:
 1423              		.cfi_def_cfa_offset 0
 1424              		.cfi_restore 4
 1425              		.cfi_restore 14
 1426 0020 0023     		movs	r3, #0
 1427              		.syntax unified
 1428              	@ 546 "../../os/ext/CMSIS/include/core_cmFunc.h" 1
 1429 0022 83F31188 		MSR basepri, r3
 1430              	@ 0 "" 2
 1431              		.thumb
 1432              		.syntax unified
 1433 0026 7047     		bx	lr
 1434              	.LBE376:
 1435              	.LBE375:
 1436              	.LBE374:
 1437              	.LBE373:
 1438              	.LBE372:
 1439              		.cfi_endproc
 1440              	.LFE246:
 1441              		.size	chThdResume, .-chThdResume
 1442 0028 AFF30080 		.section	.text.chThdEnqueueTimeoutS,"ax",%progbits
 1442      AFF30080 
 1443              		.align	2
 1444              		.p2align 4,,15
 1445              		.global	chThdEnqueueTimeoutS
 1446              		.thumb
 1447              		.thumb_func
 1448              		.type	chThdEnqueueTimeoutS, %function
 1449              	chThdEnqueueTimeoutS:
 1450              	.LFB247:
 1451              		.loc 1 644 0
 1452              		.cfi_startproc
 1453              		@ args = 0, pretend = 0, frame = 0
 1454              		@ frame_needed = 0, uses_anonymous_args = 0
 1455              		@ link register save eliminated.
 1456              	.LVL88:
 1457              		.loc 1 646 0
 1458 0000 69B1     		cbz	r1, .L78
 1459              		.loc 1 650 0
 1460 0002 084B     		ldr	r3, .L80
 1461              		.loc 1 644 0
 1462 0004 10B4     		push	{r4}
 1463              		.cfi_def_cfa_offset 4
 1464              		.cfi_offset 4, -4
 1465 0006 0246     		mov	r2, r0
 1466              	.LBB377:
 1467              	.LBB378:
ARM GAS  /tmp/ccfMPGuk.s 			page 27


 1468              		.loc 2 666 0
 1469 0008 4468     		ldr	r4, [r0, #4]
 1470              	.LBE378:
 1471              	.LBE377:
 1472              		.loc 1 650 0
 1473 000a 9B69     		ldr	r3, [r3, #24]
 1474              	.LVL89:
 1475              		.loc 1 652 0
 1476 000c 0420     		movs	r0, #4
 1477              	.LVL90:
 1478              	.LBB380:
 1479              	.LBB379:
 1480              		.loc 2 666 0
 1481 000e 83E81400 		stmia	r3, {r2, r4}
 1482              		.loc 2 667 0
 1483 0012 2360     		str	r3, [r4]
 1484              		.loc 2 668 0
 1485 0014 5360     		str	r3, [r2, #4]
 1486              	.LBE379:
 1487              	.LBE380:
 1488              		.loc 1 653 0
 1489 0016 5DF8044B 		ldr	r4, [sp], #4
 1490              		.cfi_restore 4
 1491              		.cfi_def_cfa_offset 0
 1492              		.loc 1 652 0
 1493 001a FFF7FEBF 		b	chSchGoSleepTimeoutS
 1494              	.LVL91:
 1495              	.L78:
 1496              		.loc 1 653 0
 1497 001e 4FF0FF30 		mov	r0, #-1
 1498              	.LVL92:
 1499 0022 7047     		bx	lr
 1500              	.L81:
 1501              		.align	2
 1502              	.L80:
 1503 0024 00000000 		.word	ch
 1504              		.cfi_endproc
 1505              	.LFE247:
 1506              		.size	chThdEnqueueTimeoutS, .-chThdEnqueueTimeoutS
 1507 0028 AFF30080 		.section	.text.chThdDequeueNextI,"ax",%progbits
 1507      AFF30080 
 1508              		.align	2
 1509              		.p2align 4,,15
 1510              		.global	chThdDequeueNextI
 1511              		.thumb
 1512              		.thumb_func
 1513              		.type	chThdDequeueNextI, %function
 1514              	chThdDequeueNextI:
 1515              	.LFB248:
 1516              		.loc 1 664 0
 1517              		.cfi_startproc
 1518              		@ args = 0, pretend = 0, frame = 0
 1519              		@ frame_needed = 0, uses_anonymous_args = 0
 1520              		@ link register save eliminated.
 1521              	.LVL93:
 1522              	.LBB381:
 1523              	.LBB382:
ARM GAS  /tmp/ccfMPGuk.s 			page 28


 1524              		.loc 2 631 0
 1525 0000 0268     		ldr	r2, [r0]
 1526              	.LBE382:
 1527              	.LBE381:
 1528              		.loc 1 666 0
 1529 0002 9042     		cmp	r0, r2
 1530 0004 0AD0     		beq	.L85
 1531              		.loc 1 664 0
 1532 0006 10B4     		push	{r4}
 1533              		.cfi_def_cfa_offset 4
 1534              		.cfi_offset 4, -4
 1535              	.LBB383:
 1536              	.LBB384:
 1537              	.LBB385:
 1538              	.LBB386:
 1539              		.loc 2 674 0
 1540 0008 1468     		ldr	r4, [r2]
 1541 000a 0460     		str	r4, [r0]
 1542 000c 0346     		mov	r3, r0
 1543              	.LVL94:
 1544              		.loc 2 675 0
 1545 000e 6360     		str	r3, [r4, #4]
 1546              	.LBE386:
 1547              	.LBE385:
 1548              		.loc 4 321 0
 1549 0010 1162     		str	r1, [r2, #32]
 1550              		.loc 4 322 0
 1551 0012 1046     		mov	r0, r2
 1552              	.LVL95:
 1553              	.LBE384:
 1554              	.LBE383:
 1555              		.loc 1 669 0
 1556 0014 5DF8044B 		ldr	r4, [sp], #4
 1557              		.cfi_restore 4
 1558              		.cfi_def_cfa_offset 0
 1559              	.LBB388:
 1560              	.LBB387:
 1561              		.loc 4 322 0
 1562 0018 FFF7FEBF 		b	chSchReadyI
 1563              	.LVL96:
 1564              	.L85:
 1565 001c 7047     		bx	lr
 1566              	.LBE387:
 1567              	.LBE388:
 1568              		.cfi_endproc
 1569              	.LFE248:
 1570              		.size	chThdDequeueNextI, .-chThdDequeueNextI
 1571 001e 00BF     		.section	.text.chThdDequeueAllI,"ax",%progbits
 1572              		.align	2
 1573              		.p2align 4,,15
 1574              		.global	chThdDequeueAllI
 1575              		.thumb
 1576              		.thumb_func
 1577              		.type	chThdDequeueAllI, %function
 1578              	chThdDequeueAllI:
 1579              	.LFB249:
 1580              		.loc 1 679 0
ARM GAS  /tmp/ccfMPGuk.s 			page 29


 1581              		.cfi_startproc
 1582              		@ args = 0, pretend = 0, frame = 0
 1583              		@ frame_needed = 0, uses_anonymous_args = 0
 1584              	.LVL97:
 1585 0000 38B5     		push	{r3, r4, r5, lr}
 1586              		.cfi_def_cfa_offset 16
 1587              		.cfi_offset 3, -16
 1588              		.cfi_offset 4, -12
 1589              		.cfi_offset 5, -8
 1590              		.cfi_offset 14, -4
 1591              	.LBB389:
 1592              	.LBB390:
 1593              		.loc 2 631 0
 1594 0002 0368     		ldr	r3, [r0]
 1595              	.LBE390:
 1596              	.LBE389:
 1597              		.loc 1 681 0
 1598 0004 9842     		cmp	r0, r3
 1599 0006 0BD0     		beq	.L86
 1600 0008 0446     		mov	r4, r0
 1601              	.LVL98:
 1602 000a 0D46     		mov	r5, r1
 1603              	.LVL99:
 1604              	.L88:
 1605              	.LBB392:
 1606              	.LBB393:
 1607              	.LBB394:
 1608              	.LBB395:
 1609              		.loc 2 674 0
 1610 000c 1A68     		ldr	r2, [r3]
 1611 000e 2260     		str	r2, [r4]
 1612              	.LBE395:
 1613              	.LBE394:
 1614              		.loc 4 322 0
 1615 0010 1846     		mov	r0, r3
 1616              	.LBB397:
 1617              	.LBB396:
 1618              		.loc 2 675 0
 1619 0012 5460     		str	r4, [r2, #4]
 1620              	.LBE396:
 1621              	.LBE397:
 1622              		.loc 4 321 0
 1623 0014 1D62     		str	r5, [r3, #32]
 1624              		.loc 4 322 0
 1625 0016 FFF7FEFF 		bl	chSchReadyI
 1626              	.LVL100:
 1627              	.LBE393:
 1628              	.LBE392:
 1629              	.LBB398:
 1630              	.LBB391:
 1631              		.loc 2 631 0
 1632 001a 2368     		ldr	r3, [r4]
 1633              	.LBE391:
 1634              	.LBE398:
 1635              		.loc 1 681 0
 1636 001c 9C42     		cmp	r4, r3
 1637 001e F5D1     		bne	.L88
ARM GAS  /tmp/ccfMPGuk.s 			page 30


 1638              	.LVL101:
 1639              	.L86:
 1640 0020 38BD     		pop	{r3, r4, r5, pc}
 1641              		.cfi_endproc
 1642              	.LFE249:
 1643              		.size	chThdDequeueAllI, .-chThdDequeueAllI
 1644 0022 00BFAFF3 		.text
 1644      0080AFF3 
 1644      0080AFF3 
 1644      0080
 1645              	.Letext0:
 1646              		.file 6 "/usr/lib/gcc/arm-none-eabi/5.2.0/include/stddef.h"
 1647              		.file 7 "/usr/arm-none-eabi/include/machine/_default_types.h"
 1648              		.file 8 "/usr/arm-none-eabi/include/stdint.h"
 1649              		.file 9 "../../os/rt/ports/ARMCMx/compilers/GCC/chtypes.h"
 1650              		.file 10 "../../os/rt/include/chsystypes.h"
 1651              		.file 11 "../../os/rt/ports/ARMCMx/chcore.h"
 1652              		.file 12 "../../os/rt/ports/ARMCMx/chcore_v7m.h"
 1653              		.file 13 "../../os/hal/ports/STM32/LLD/TIMv1/stm32_tim.h"
 1654              		.file 14 "../../os/rt/include/chtm.h"
 1655              		.file 15 "../../os/rt/include/chsem.h"
 1656              		.file 16 "../../os/rt/include/chmtx.h"
 1657              		.file 17 "../../os/rt/ports/ARMCMx/chcore_timer.h"
 1658              		.file 18 "../../os/rt/include/chsys.h"
 1659              		.file 19 "../../os/rt/include/chvt.h"
 1660              		.file 20 "../../os/rt/include/chdynamic.h"
 1661              		.file 21 "../../os/ext/CMSIS/include/core_cm4.h"