ARM GAS  /tmp/cc5Jh1Tx.s 			page 1


   1              		.syntax unified
   2              		.cpu cortex-m4
   3              		.eabi_attribute 27, 1
   4              		.eabi_attribute 28, 1
   5              		.fpu fpv4-sp-d16
   6              		.eabi_attribute 20, 1
   7              		.eabi_attribute 21, 1
   8              		.eabi_attribute 23, 3
   9              		.eabi_attribute 24, 1
  10              		.eabi_attribute 25, 1
  11              		.eabi_attribute 26, 1
  12              		.eabi_attribute 30, 2
  13              		.eabi_attribute 34, 1
  14              		.eabi_attribute 18, 4
  15              		.thumb
  16              		.syntax unified
  17              		.file	"st.c"
  18              		.text
  19              	.Ltext0:
  20              		.cfi_sections	.debug_frame
  21              		.section	.text.stInit,"ax",%progbits
  22              		.align	2
  23              		.p2align 4,,15
  24              		.global	stInit
  25              		.thumb
  26              		.thumb_func
  27              		.type	stInit, %function
  28              	stInit:
  29              	.LFB260:
  30              		.file 1 "../../os/hal/src/st.c"
  31              		.loc 1 60 0
  32              		.cfi_startproc
  33              		@ args = 0, pretend = 0, frame = 0
  34              		@ frame_needed = 0, uses_anonymous_args = 0
  35              		@ link register save eliminated.
  36              		.loc 1 62 0
  37 0000 FFF7FEBF 		b	st_lld_init
  38              	.LVL0:
  39              		.cfi_endproc
  40              	.LFE260:
  41              		.size	stInit, .-stInit
  42 0004 AFF30080 		.section	.text.stStartAlarm,"ax",%progbits
  42      AFF30080 
  42      AFF30080 
  43              		.align	2
  44              		.p2align 4,,15
  45              		.global	stStartAlarm
  46              		.thumb
  47              		.thumb_func
  48              		.type	stStartAlarm, %function
  49              	stStartAlarm:
  50              	.LFB261:
  51              		.loc 1 77 0
  52              		.cfi_startproc
  53              		@ args = 0, pretend = 0, frame = 0
  54              		@ frame_needed = 0, uses_anonymous_args = 0
  55              		@ link register save eliminated.
ARM GAS  /tmp/cc5Jh1Tx.s 			page 2


  56              	.LVL1:
  57              	.LBB10:
  58              	.LBB11:
  59              		.file 2 "../../os/hal/ports/STM32/LLD/TIMv1/st_lld.h"
  60              		.loc 2 143 0
  61 0000 4FF08043 		mov	r3, #1073741824
  62              	.LVL2:
  63              		.loc 2 144 0
  64 0004 0021     		movs	r1, #0
  65              		.loc 2 145 0
  66 0006 0222     		movs	r2, #2
  67              		.loc 2 143 0
  68 0008 5863     		str	r0, [r3, #52]
  69              		.loc 2 144 0
  70 000a 1961     		str	r1, [r3, #16]
  71              		.loc 2 145 0
  72 000c DA60     		str	r2, [r3, #12]
  73 000e 7047     		bx	lr
  74              	.LBE11:
  75              	.LBE10:
  76              		.cfi_endproc
  77              	.LFE261:
  78              		.size	stStartAlarm, .-stStartAlarm
  79              		.section	.text.stStopAlarm,"ax",%progbits
  80              		.align	2
  81              		.p2align 4,,15
  82              		.global	stStopAlarm
  83              		.thumb
  84              		.thumb_func
  85              		.type	stStopAlarm, %function
  86              	stStopAlarm:
  87              	.LFB262:
  88              		.loc 1 91 0
  89              		.cfi_startproc
  90              		@ args = 0, pretend = 0, frame = 0
  91              		@ frame_needed = 0, uses_anonymous_args = 0
  92              		@ link register save eliminated.
  93              	.LBB12:
  94              	.LBB13:
  95              		.loc 2 155 0
  96 0000 4FF08043 		mov	r3, #1073741824
  97 0004 0022     		movs	r2, #0
  98 0006 DA60     		str	r2, [r3, #12]
  99 0008 7047     		bx	lr
 100              	.LBE13:
 101              	.LBE12:
 102              		.cfi_endproc
 103              	.LFE262:
 104              		.size	stStopAlarm, .-stStopAlarm
 105              		.section	.text.stSetAlarm,"ax",%progbits
 106              		.align	2
 107              		.p2align 4,,15
 108              		.global	stSetAlarm
 109              		.thumb
 110              		.thumb_func
 111              		.type	stSetAlarm, %function
 112              	stSetAlarm:
ARM GAS  /tmp/cc5Jh1Tx.s 			page 3


 113              	.LFB263:
 114              		.loc 1 105 0
 115              		.cfi_startproc
 116              		@ args = 0, pretend = 0, frame = 0
 117              		@ frame_needed = 0, uses_anonymous_args = 0
 118              		@ link register save eliminated.
 119              	.LVL3:
 120              	.LBB14:
 121              	.LBB15:
 122              		.loc 2 167 0
 123 0000 4FF08043 		mov	r3, #1073741824
 124              	.LVL4:
 125 0004 5863     		str	r0, [r3, #52]
 126 0006 7047     		bx	lr
 127              	.LBE15:
 128              	.LBE14:
 129              		.cfi_endproc
 130              	.LFE263:
 131              		.size	stSetAlarm, .-stSetAlarm
 132 0008 AFF30080 		.section	.text.stGetAlarm,"ax",%progbits
 132      AFF30080 
 133              		.align	2
 134              		.p2align 4,,15
 135              		.global	stGetAlarm
 136              		.thumb
 137              		.thumb_func
 138              		.type	stGetAlarm, %function
 139              	stGetAlarm:
 140              	.LFB264:
 141              		.loc 1 121 0
 142              		.cfi_startproc
 143              		@ args = 0, pretend = 0, frame = 0
 144              		@ frame_needed = 0, uses_anonymous_args = 0
 145              		@ link register save eliminated.
 146              	.LBB16:
 147              	.LBB17:
 148              		.loc 2 179 0
 149 0000 4FF08043 		mov	r3, #1073741824
 150 0004 586B     		ldr	r0, [r3, #52]
 151              	.LBE17:
 152              	.LBE16:
 153              		.loc 1 126 0
 154 0006 7047     		bx	lr
 155              		.cfi_endproc
 156              	.LFE264:
 157              		.size	stGetAlarm, .-stGetAlarm
 158 0008 AFF30080 		.text
 158      AFF30080 
 159              	.Letext0:
 160              		.file 3 "/usr/arm-none-eabi/include/machine/_default_types.h"
 161              		.file 4 "/usr/arm-none-eabi/include/stdint.h"
 162              		.file 5 "../../os/rt/ports/ARMCMx/compilers/GCC/chtypes.h"
 163              		.file 6 "../../os/rt/include/chsystypes.h"
 164              		.file 7 "../../os/rt/include/chschd.h"
 165              		.file 8 "../../os/rt/ports/ARMCMx/chcore.h"
 166              		.file 9 "../../os/rt/ports/ARMCMx/chcore_v7m.h"
 167              		.file 10 "../../os/hal/ports/STM32/LLD/TIMv1/stm32_tim.h"
ARM GAS  /tmp/cc5Jh1Tx.s 			page 4


 168              		.file 11 "../../os/rt/include/chtm.h"
 169              		.file 12 "../../os/rt/include/chsem.h"
 170              		.file 13 "../../os/rt/include/chmtx.h"
 171              		.file 14 "../../os/ext/CMSIS/include/core_cm4.h"
 172              		.section	.debug_info,"",%progbits
 173              	.Ldebug_info0:
 174 0000 C4090000 		.4byte	0x9c4
 175 0004 0400     		.2byte	0x4
 176 0006 00000000 		.4byte	.Ldebug_abbrev0
 177 000a 04       		.byte	0x4
 178 000b 01       		.uleb128 0x1
 179 000c 29020000 		.4byte	.LASF123
 180 0010 0C       		.byte	0xc
 181 0011 53050000 		.4byte	.LASF124
 182 0015 C2050000 		.4byte	.LASF125
 183 0019 00000000 		.4byte	.Ldebug_ranges0+0
 184 001d 00000000 		.4byte	0
 185 0021 00000000 		.4byte	.Ldebug_line0
 186 0025 02       		.uleb128 0x2
 187 0026 04       		.byte	0x4
 188 0027 05       		.byte	0x5
 189 0028 696E7400 		.ascii	"int\000"
 190 002c 03       		.uleb128 0x3
 191 002d 04       		.byte	0x4
 192 002e 07       		.byte	0x7
 193 002f 7C010000 		.4byte	.LASF0
 194 0033 03       		.uleb128 0x3
 195 0034 08       		.byte	0x8
 196 0035 05       		.byte	0x5
 197 0036 59010000 		.4byte	.LASF1
 198 003a 03       		.uleb128 0x3
 199 003b 08       		.byte	0x8
 200 003c 04       		.byte	0x4
 201 003d 44030000 		.4byte	.LASF2
 202 0041 03       		.uleb128 0x3
 203 0042 01       		.byte	0x1
 204 0043 06       		.byte	0x6
 205 0044 D6000000 		.4byte	.LASF3
 206 0048 04       		.uleb128 0x4
 207 0049 28000000 		.4byte	.LASF7
 208 004d 03       		.byte	0x3
 209 004e 1D       		.byte	0x1d
 210 004f 53000000 		.4byte	0x53
 211 0053 03       		.uleb128 0x3
 212 0054 01       		.byte	0x1
 213 0055 08       		.byte	0x8
 214 0056 E9030000 		.4byte	.LASF4
 215 005a 03       		.uleb128 0x3
 216 005b 02       		.byte	0x2
 217 005c 05       		.byte	0x5
 218 005d 01040000 		.4byte	.LASF5
 219 0061 03       		.uleb128 0x3
 220 0062 02       		.byte	0x2
 221 0063 07       		.byte	0x7
 222 0064 25010000 		.4byte	.LASF6
 223 0068 04       		.uleb128 0x4
 224 0069 01020000 		.4byte	.LASF8
ARM GAS  /tmp/cc5Jh1Tx.s 			page 5


 225 006d 03       		.byte	0x3
 226 006e 3F       		.byte	0x3f
 227 006f 73000000 		.4byte	0x73
 228 0073 03       		.uleb128 0x3
 229 0074 04       		.byte	0x4
 230 0075 05       		.byte	0x5
 231 0076 FB000000 		.4byte	.LASF9
 232 007a 04       		.uleb128 0x4
 233 007b FB040000 		.4byte	.LASF10
 234 007f 03       		.byte	0x3
 235 0080 41       		.byte	0x41
 236 0081 85000000 		.4byte	0x85
 237 0085 03       		.uleb128 0x3
 238 0086 04       		.byte	0x4
 239 0087 07       		.byte	0x7
 240 0088 A0040000 		.4byte	.LASF11
 241 008c 04       		.uleb128 0x4
 242 008d 99030000 		.4byte	.LASF12
 243 0091 03       		.byte	0x3
 244 0092 5B       		.byte	0x5b
 245 0093 97000000 		.4byte	0x97
 246 0097 03       		.uleb128 0x3
 247 0098 08       		.byte	0x8
 248 0099 07       		.byte	0x7
 249 009a 4D000000 		.4byte	.LASF13
 250 009e 04       		.uleb128 0x4
 251 009f 28040000 		.4byte	.LASF14
 252 00a3 04       		.byte	0x4
 253 00a4 15       		.byte	0x15
 254 00a5 48000000 		.4byte	0x48
 255 00a9 04       		.uleb128 0x4
 256 00aa E1030000 		.4byte	.LASF15
 257 00ae 04       		.byte	0x4
 258 00af 2C       		.byte	0x2c
 259 00b0 68000000 		.4byte	0x68
 260 00b4 04       		.uleb128 0x4
 261 00b5 78040000 		.4byte	.LASF16
 262 00b9 04       		.byte	0x4
 263 00ba 2D       		.byte	0x2d
 264 00bb 7A000000 		.4byte	0x7a
 265 00bf 04       		.uleb128 0x4
 266 00c0 1F000000 		.4byte	.LASF17
 267 00c4 04       		.byte	0x4
 268 00c5 39       		.byte	0x39
 269 00c6 8C000000 		.4byte	0x8c
 270 00ca 05       		.uleb128 0x5
 271 00cb A9000000 		.4byte	0xa9
 272 00cf 05       		.uleb128 0x5
 273 00d0 B4000000 		.4byte	0xb4
 274 00d4 04       		.uleb128 0x4
 275 00d5 32050000 		.4byte	.LASF18
 276 00d9 05       		.byte	0x5
 277 00da 45       		.byte	0x45
 278 00db B4000000 		.4byte	0xb4
 279 00df 04       		.uleb128 0x4
 280 00e0 04010000 		.4byte	.LASF19
 281 00e4 05       		.byte	0x5
ARM GAS  /tmp/cc5Jh1Tx.s 			page 6


 282 00e5 48       		.byte	0x48
 283 00e6 9E000000 		.4byte	0x9e
 284 00ea 04       		.uleb128 0x4
 285 00eb 0C010000 		.4byte	.LASF20
 286 00ef 05       		.byte	0x5
 287 00f0 49       		.byte	0x49
 288 00f1 9E000000 		.4byte	0x9e
 289 00f5 04       		.uleb128 0x4
 290 00f6 A4030000 		.4byte	.LASF21
 291 00fa 05       		.byte	0x5
 292 00fb 4A       		.byte	0x4a
 293 00fc 9E000000 		.4byte	0x9e
 294 0100 04       		.uleb128 0x4
 295 0101 C3030000 		.4byte	.LASF22
 296 0105 05       		.byte	0x5
 297 0106 4C       		.byte	0x4c
 298 0107 B4000000 		.4byte	0xb4
 299 010b 04       		.uleb128 0x4
 300 010c C9010000 		.4byte	.LASF23
 301 0110 05       		.byte	0x5
 302 0111 4D       		.byte	0x4d
 303 0112 A9000000 		.4byte	0xa9
 304 0116 04       		.uleb128 0x4
 305 0117 F5010000 		.4byte	.LASF24
 306 011b 05       		.byte	0x5
 307 011c 4F       		.byte	0x4f
 308 011d B4000000 		.4byte	0xb4
 309 0121 04       		.uleb128 0x4
 310 0122 76010000 		.4byte	.LASF25
 311 0126 05       		.byte	0x5
 312 0127 51       		.byte	0x51
 313 0128 A9000000 		.4byte	0xa9
 314 012c 04       		.uleb128 0x4
 315 012d DD040000 		.4byte	.LASF26
 316 0131 06       		.byte	0x6
 317 0132 33       		.byte	0x33
 318 0133 B4000000 		.4byte	0xb4
 319 0137 04       		.uleb128 0x4
 320 0138 C8040000 		.4byte	.LASF27
 321 013c 06       		.byte	0x6
 322 013d 3F       		.byte	0x3f
 323 013e 42010000 		.4byte	0x142
 324 0142 06       		.uleb128 0x6
 325 0143 BF010000 		.4byte	.LASF47
 326 0147 44       		.byte	0x44
 327 0148 07       		.byte	0x7
 328 0149 C2       		.byte	0xc2
 329 014a 2F020000 		.4byte	0x22f
 330 014e 07       		.uleb128 0x7
 331 014f 21040000 		.4byte	.LASF28
 332 0153 07       		.byte	0x7
 333 0154 C3       		.byte	0xc3
 334 0155 3A020000 		.4byte	0x23a
 335 0159 00       		.byte	0
 336 015a 07       		.uleb128 0x7
 337 015b BC030000 		.4byte	.LASF29
 338 015f 07       		.byte	0x7
ARM GAS  /tmp/cc5Jh1Tx.s 			page 7


 339 0160 C5       		.byte	0xc5
 340 0161 3A020000 		.4byte	0x23a
 341 0165 04       		.byte	0x4
 342 0166 07       		.uleb128 0x7
 343 0167 BD000000 		.4byte	.LASF30
 344 016b 07       		.byte	0x7
 345 016c C7       		.byte	0xc7
 346 016d 00010000 		.4byte	0x100
 347 0171 08       		.byte	0x8
 348 0172 07       		.uleb128 0x7
 349 0173 29060000 		.4byte	.LASF31
 350 0177 07       		.byte	0x7
 351 0178 C8       		.byte	0xc8
 352 0179 8A040000 		.4byte	0x48a
 353 017d 0C       		.byte	0xc
 354 017e 07       		.uleb128 0x7
 355 017f 15010000 		.4byte	.LASF32
 356 0183 07       		.byte	0x7
 357 0184 CA       		.byte	0xca
 358 0185 3A020000 		.4byte	0x23a
 359 0189 10       		.byte	0x10
 360 018a 07       		.uleb128 0x7
 361 018b 5C030000 		.4byte	.LASF33
 362 018f 07       		.byte	0x7
 363 0190 CB       		.byte	0xcb
 364 0191 3A020000 		.4byte	0x23a
 365 0195 14       		.byte	0x14
 366 0196 07       		.uleb128 0x7
 367 0197 AC050000 		.4byte	.LASF34
 368 019b 07       		.byte	0x7
 369 019c D2       		.byte	0xd2
 370 019d F1070000 		.4byte	0x7f1
 371 01a1 18       		.byte	0x18
 372 01a2 07       		.uleb128 0x7
 373 01a3 0B040000 		.4byte	.LASF35
 374 01a7 07       		.byte	0x7
 375 01a8 DD       		.byte	0xdd
 376 01a9 EA000000 		.4byte	0xea
 377 01ad 1C       		.byte	0x1c
 378 01ae 07       		.uleb128 0x7
 379 01af 00060000 		.4byte	.LASF36
 380 01b3 07       		.byte	0x7
 381 01b4 E1       		.byte	0xe1
 382 01b5 DF000000 		.4byte	0xdf
 383 01b9 1D       		.byte	0x1d
 384 01ba 07       		.uleb128 0x7
 385 01bb 82050000 		.4byte	.LASF37
 386 01bf 07       		.byte	0x7
 387 01c0 E6       		.byte	0xe6
 388 01c1 F5000000 		.4byte	0xf5
 389 01c5 1E       		.byte	0x1e
 390 01c6 08       		.uleb128 0x8
 391 01c7 705F7500 		.ascii	"p_u\000"
 392 01cb 07       		.byte	0x7
 393 01cc 3101     		.2byte	0x131
 394 01ce 2C070000 		.4byte	0x72c
 395 01d2 20       		.byte	0x20
ARM GAS  /tmp/cc5Jh1Tx.s 			page 8


 396 01d3 09       		.uleb128 0x9
 397 01d4 07030000 		.4byte	.LASF38
 398 01d8 07       		.byte	0x7
 399 01d9 3601     		.2byte	0x136
 400 01db 40020000 		.4byte	0x240
 401 01df 24       		.byte	0x24
 402 01e0 09       		.uleb128 0x9
 403 01e1 A1010000 		.4byte	.LASF39
 404 01e5 07       		.byte	0x7
 405 01e6 3C01     		.2byte	0x13c
 406 01e8 64020000 		.4byte	0x264
 407 01ec 28       		.byte	0x28
 408 01ed 09       		.uleb128 0x9
 409 01ee 2C050000 		.4byte	.LASF40
 410 01f2 07       		.byte	0x7
 411 01f3 4001     		.2byte	0x140
 412 01f5 0B010000 		.4byte	0x10b
 413 01f9 30       		.byte	0x30
 414 01fa 09       		.uleb128 0x9
 415 01fb 6D040000 		.4byte	.LASF41
 416 01ff 07       		.byte	0x7
 417 0200 4601     		.2byte	0x146
 418 0202 16010000 		.4byte	0x116
 419 0206 34       		.byte	0x34
 420 0207 09       		.uleb128 0x9
 421 0208 F7030000 		.4byte	.LASF42
 422 020c 07       		.byte	0x7
 423 020d 4D01     		.2byte	0x14d
 424 020f EB070000 		.4byte	0x7eb
 425 0213 38       		.byte	0x38
 426 0214 09       		.uleb128 0x9
 427 0215 E7040000 		.4byte	.LASF43
 428 0219 07       		.byte	0x7
 429 021a 5101     		.2byte	0x151
 430 021c 00010000 		.4byte	0x100
 431 0220 3C       		.byte	0x3c
 432 0221 09       		.uleb128 0x9
 433 0222 40010000 		.4byte	.LASF44
 434 0226 07       		.byte	0x7
 435 0227 5801     		.2byte	0x158
 436 0229 17030000 		.4byte	0x317
 437 022d 40       		.byte	0x40
 438 022e 00       		.byte	0
 439 022f 04       		.uleb128 0x4
 440 0230 1A030000 		.4byte	.LASF45
 441 0234 06       		.byte	0x6
 442 0235 44       		.byte	0x44
 443 0236 3A020000 		.4byte	0x23a
 444 023a 0A       		.uleb128 0xa
 445 023b 04       		.byte	0x4
 446 023c 37010000 		.4byte	0x137
 447 0240 04       		.uleb128 0x4
 448 0241 B3050000 		.4byte	.LASF46
 449 0245 06       		.byte	0x6
 450 0246 49       		.byte	0x49
 451 0247 4B020000 		.4byte	0x24b
 452 024b 06       		.uleb128 0x6
ARM GAS  /tmp/cc5Jh1Tx.s 			page 9


 453 024c 90040000 		.4byte	.LASF48
 454 0250 04       		.byte	0x4
 455 0251 07       		.byte	0x7
 456 0252 B0       		.byte	0xb0
 457 0253 64020000 		.4byte	0x264
 458 0257 07       		.uleb128 0x7
 459 0258 21040000 		.4byte	.LASF28
 460 025c 07       		.byte	0x7
 461 025d B1       		.byte	0xb1
 462 025e 3A020000 		.4byte	0x23a
 463 0262 00       		.byte	0
 464 0263 00       		.byte	0
 465 0264 04       		.uleb128 0x4
 466 0265 69050000 		.4byte	.LASF49
 467 0269 06       		.byte	0x6
 468 026a 50       		.byte	0x50
 469 026b 6F020000 		.4byte	0x26f
 470 026f 06       		.uleb128 0x6
 471 0270 AC000000 		.4byte	.LASF50
 472 0274 08       		.byte	0x8
 473 0275 07       		.byte	0x7
 474 0276 B7       		.byte	0xb7
 475 0277 94020000 		.4byte	0x294
 476 027b 07       		.uleb128 0x7
 477 027c 21040000 		.4byte	.LASF28
 478 0280 07       		.byte	0x7
 479 0281 B8       		.byte	0xb8
 480 0282 3A020000 		.4byte	0x23a
 481 0286 00       		.byte	0
 482 0287 07       		.uleb128 0x7
 483 0288 BC030000 		.4byte	.LASF29
 484 028c 07       		.byte	0x7
 485 028d B9       		.byte	0xb9
 486 028e 3A020000 		.4byte	0x23a
 487 0292 04       		.byte	0x4
 488 0293 00       		.byte	0
 489 0294 04       		.uleb128 0x4
 490 0295 00000000 		.4byte	.LASF51
 491 0299 06       		.byte	0x6
 492 029a 57       		.byte	0x57
 493 029b 9F020000 		.4byte	0x29f
 494 029f 0B       		.uleb128 0xb
 495 02a0 E7010000 		.4byte	.LASF52
 496 02a4 1C       		.byte	0x1c
 497 02a5 07       		.byte	0x7
 498 02a6 9001     		.2byte	0x190
 499 02a8 FB020000 		.4byte	0x2fb
 500 02ac 09       		.uleb128 0x9
 501 02ad 88040000 		.4byte	.LASF53
 502 02b1 07       		.byte	0x7
 503 02b2 9101     		.2byte	0x191
 504 02b4 64020000 		.4byte	0x264
 505 02b8 00       		.byte	0
 506 02b9 09       		.uleb128 0x9
 507 02ba 13040000 		.4byte	.LASF54
 508 02be 07       		.byte	0x7
 509 02bf 9201     		.2byte	0x192
ARM GAS  /tmp/cc5Jh1Tx.s 			page 10


 510 02c1 00010000 		.4byte	0x100
 511 02c5 08       		.byte	0x8
 512 02c6 09       		.uleb128 0x9
 513 02c7 6B030000 		.4byte	.LASF55
 514 02cb 07       		.byte	0x7
 515 02cc 9401     		.2byte	0x194
 516 02ce 8A040000 		.4byte	0x48a
 517 02d2 0C       		.byte	0xc
 518 02d3 09       		.uleb128 0x9
 519 02d4 38010000 		.4byte	.LASF56
 520 02d8 07       		.byte	0x7
 521 02d9 9701     		.2byte	0x197
 522 02db 3A020000 		.4byte	0x23a
 523 02df 10       		.byte	0x10
 524 02e0 09       		.uleb128 0x9
 525 02e1 91030000 		.4byte	.LASF57
 526 02e5 07       		.byte	0x7
 527 02e6 9801     		.2byte	0x198
 528 02e8 3A020000 		.4byte	0x23a
 529 02ec 14       		.byte	0x14
 530 02ed 09       		.uleb128 0x9
 531 02ee 87030000 		.4byte	.LASF58
 532 02f2 07       		.byte	0x7
 533 02f3 9B01     		.2byte	0x19b
 534 02f5 3A020000 		.4byte	0x23a
 535 02f9 18       		.byte	0x18
 536 02fa 00       		.byte	0
 537 02fb 04       		.uleb128 0x4
 538 02fc F2040000 		.4byte	.LASF59
 539 0300 06       		.byte	0x6
 540 0301 5C       		.byte	0x5c
 541 0302 06030000 		.4byte	0x306
 542 0306 0A       		.uleb128 0xa
 543 0307 04       		.byte	0x4
 544 0308 0C030000 		.4byte	0x30c
 545 030c 0C       		.uleb128 0xc
 546 030d 17030000 		.4byte	0x317
 547 0311 0D       		.uleb128 0xd
 548 0312 17030000 		.4byte	0x317
 549 0316 00       		.byte	0
 550 0317 0E       		.uleb128 0xe
 551 0318 04       		.byte	0x4
 552 0319 04       		.uleb128 0x4
 553 031a AC030000 		.4byte	.LASF60
 554 031e 06       		.byte	0x6
 555 031f 61       		.byte	0x61
 556 0320 24030000 		.4byte	0x324
 557 0324 0B       		.uleb128 0xb
 558 0325 39040000 		.4byte	.LASF61
 559 0329 14       		.byte	0x14
 560 032a 07       		.byte	0x7
 561 032b 6B01     		.2byte	0x16b
 562 032d 73030000 		.4byte	0x373
 563 0331 09       		.uleb128 0x9
 564 0332 89010000 		.4byte	.LASF62
 565 0336 07       		.byte	0x7
 566 0337 6C01     		.2byte	0x16c
ARM GAS  /tmp/cc5Jh1Tx.s 			page 11


 567 0339 03080000 		.4byte	0x803
 568 033d 00       		.byte	0
 569 033e 09       		.uleb128 0x9
 570 033f 51010000 		.4byte	.LASF63
 571 0343 07       		.byte	0x7
 572 0344 6D01     		.2byte	0x16d
 573 0346 03080000 		.4byte	0x803
 574 034a 04       		.byte	0x4
 575 034b 09       		.uleb128 0x9
 576 034c 98010000 		.4byte	.LASF64
 577 0350 07       		.byte	0x7
 578 0351 6E01     		.2byte	0x16e
 579 0353 2C010000 		.4byte	0x12c
 580 0357 08       		.byte	0x8
 581 0358 09       		.uleb128 0x9
 582 0359 2F060000 		.4byte	.LASF65
 583 035d 07       		.byte	0x7
 584 035e 6F01     		.2byte	0x16f
 585 0360 FB020000 		.4byte	0x2fb
 586 0364 0C       		.byte	0xc
 587 0365 09       		.uleb128 0x9
 588 0366 4C050000 		.4byte	.LASF66
 589 036a 07       		.byte	0x7
 590 036b 7101     		.2byte	0x171
 591 036d 17030000 		.4byte	0x317
 592 0371 10       		.byte	0x10
 593 0372 00       		.byte	0
 594 0373 04       		.uleb128 0x4
 595 0374 78000000 		.4byte	.LASF67
 596 0378 06       		.byte	0x6
 597 0379 66       		.byte	0x66
 598 037a 7E030000 		.4byte	0x37e
 599 037e 0B       		.uleb128 0xb
 600 037f 2D030000 		.4byte	.LASF68
 601 0383 10       		.byte	0x10
 602 0384 07       		.byte	0x7
 603 0385 7B01     		.2byte	0x17b
 604 0387 C0030000 		.4byte	0x3c0
 605 038b 09       		.uleb128 0x9
 606 038c 89010000 		.4byte	.LASF62
 607 0390 07       		.byte	0x7
 608 0391 7C01     		.2byte	0x17c
 609 0393 03080000 		.4byte	0x803
 610 0397 00       		.byte	0
 611 0398 09       		.uleb128 0x9
 612 0399 51010000 		.4byte	.LASF63
 613 039d 07       		.byte	0x7
 614 039e 7E01     		.2byte	0x17e
 615 03a0 03080000 		.4byte	0x803
 616 03a4 04       		.byte	0x4
 617 03a5 09       		.uleb128 0x9
 618 03a6 98010000 		.4byte	.LASF64
 619 03aa 07       		.byte	0x7
 620 03ab 8001     		.2byte	0x180
 621 03ad 2C010000 		.4byte	0x12c
 622 03b1 08       		.byte	0x8
 623 03b2 09       		.uleb128 0x9
ARM GAS  /tmp/cc5Jh1Tx.s 			page 12


 624 03b3 50030000 		.4byte	.LASF69
 625 03b7 07       		.byte	0x7
 626 03b8 8801     		.2byte	0x188
 627 03ba 2C010000 		.4byte	0x12c
 628 03be 0C       		.byte	0xc
 629 03bf 00       		.byte	0
 630 03c0 04       		.uleb128 0x4
 631 03c1 3E000000 		.4byte	.LASF70
 632 03c5 06       		.byte	0x6
 633 03c6 6B       		.byte	0x6b
 634 03c7 CB030000 		.4byte	0x3cb
 635 03cb 0B       		.uleb128 0xb
 636 03cc CB030000 		.4byte	.LASF71
 637 03d0 04       		.byte	0x4
 638 03d1 07       		.byte	0x7
 639 03d2 A201     		.2byte	0x1a2
 640 03d4 E6030000 		.4byte	0x3e6
 641 03d8 09       		.uleb128 0x9
 642 03d9 06050000 		.4byte	.LASF72
 643 03dd 07       		.byte	0x7
 644 03de AA01     		.2byte	0x1aa
 645 03e0 09080000 		.4byte	0x809
 646 03e4 00       		.byte	0
 647 03e5 00       		.byte	0
 648 03e6 04       		.uleb128 0x4
 649 03e7 CF010000 		.4byte	.LASF73
 650 03eb 06       		.byte	0x6
 651 03ec 70       		.byte	0x70
 652 03ed F1030000 		.4byte	0x3f1
 653 03f1 0F       		.uleb128 0xf
 654 03f2 F1000000 		.4byte	.LASF74
 655 03f6 D801     		.2byte	0x1d8
 656 03f8 07       		.byte	0x7
 657 03f9 C201     		.2byte	0x1c2
 658 03fb 4D040000 		.4byte	0x44d
 659 03ff 09       		.uleb128 0x9
 660 0400 89050000 		.4byte	.LASF75
 661 0404 07       		.byte	0x7
 662 0405 C601     		.2byte	0x1c6
 663 0407 94020000 		.4byte	0x294
 664 040b 00       		.byte	0
 665 040c 09       		.uleb128 0x9
 666 040d EA000000 		.4byte	.LASF76
 667 0411 07       		.byte	0x7
 668 0412 CA01     		.2byte	0x1ca
 669 0414 73030000 		.4byte	0x373
 670 0418 1C       		.byte	0x1c
 671 0419 08       		.uleb128 0x8
 672 041a 64626700 		.ascii	"dbg\000"
 673 041e 07       		.byte	0x7
 674 041f CE01     		.2byte	0x1ce
 675 0421 C0030000 		.4byte	0x3c0
 676 0425 2C       		.byte	0x2c
 677 0426 09       		.uleb128 0x9
 678 0427 6D000000 		.4byte	.LASF77
 679 042b 07       		.byte	0x7
 680 042c D201     		.2byte	0x1d2
ARM GAS  /tmp/cc5Jh1Tx.s 			page 13


 681 042e 37010000 		.4byte	0x137
 682 0432 30       		.byte	0x30
 683 0433 08       		.uleb128 0x8
 684 0434 746D00   		.ascii	"tm\000"
 685 0437 07       		.byte	0x7
 686 0438 D701     		.2byte	0x1d7
 687 043a 21070000 		.4byte	0x721
 688 043e 74       		.byte	0x74
 689 043f 09       		.uleb128 0x9
 690 0440 67010000 		.4byte	.LASF78
 691 0444 07       		.byte	0x7
 692 0445 E301     		.2byte	0x1e3
 693 0447 0E080000 		.4byte	0x80e
 694 044b 78       		.byte	0x78
 695 044c 00       		.byte	0
 696 044d 03       		.uleb128 0x3
 697 044e 04       		.byte	0x4
 698 044f 07       		.byte	0x7
 699 0450 11030000 		.4byte	.LASF79
 700 0454 10       		.uleb128 0x10
 701 0455 B4000000 		.4byte	0xb4
 702 0459 64040000 		.4byte	0x464
 703 045d 11       		.uleb128 0x11
 704 045e 4D040000 		.4byte	0x44d
 705 0462 01       		.byte	0x1
 706 0463 00       		.byte	0
 707 0464 10       		.uleb128 0x10
 708 0465 B4000000 		.4byte	0xb4
 709 0469 74040000 		.4byte	0x474
 710 046d 11       		.uleb128 0x11
 711 046e 4D040000 		.4byte	0x44d
 712 0472 03       		.byte	0x3
 713 0473 00       		.byte	0
 714 0474 04       		.uleb128 0x4
 715 0475 48010000 		.4byte	.LASF80
 716 0479 08       		.byte	0x8
 717 047a 65       		.byte	0x65
 718 047b 17030000 		.4byte	0x317
 719 047f 04       		.uleb128 0x4
 720 0480 1E020000 		.4byte	.LASF81
 721 0484 08       		.byte	0x8
 722 0485 6D       		.byte	0x6d
 723 0486 BF000000 		.4byte	0xbf
 724 048a 06       		.uleb128 0x6
 725 048b 24050000 		.4byte	.LASF82
 726 048f 04       		.byte	0x4
 727 0490 08       		.byte	0x8
 728 0491 89       		.byte	0x89
 729 0492 A3040000 		.4byte	0x4a3
 730 0496 12       		.uleb128 0x12
 731 0497 72313300 		.ascii	"r13\000"
 732 049b 08       		.byte	0x8
 733 049c 8A       		.byte	0x8a
 734 049d E4050000 		.4byte	0x5e4
 735 04a1 00       		.byte	0
 736 04a2 00       		.byte	0
 737 04a3 06       		.uleb128 0x6
ARM GAS  /tmp/cc5Jh1Tx.s 			page 14


 738 04a4 32000000 		.4byte	.LASF83
 739 04a8 64       		.byte	0x64
 740 04a9 09       		.byte	0x9
 741 04aa F4       		.byte	0xf4
 742 04ab E4050000 		.4byte	0x5e4
 743 04af 12       		.uleb128 0x12
 744 04b0 73313600 		.ascii	"s16\000"
 745 04b4 09       		.byte	0x9
 746 04b5 F6       		.byte	0xf6
 747 04b6 74040000 		.4byte	0x474
 748 04ba 00       		.byte	0
 749 04bb 12       		.uleb128 0x12
 750 04bc 73313700 		.ascii	"s17\000"
 751 04c0 09       		.byte	0x9
 752 04c1 F7       		.byte	0xf7
 753 04c2 74040000 		.4byte	0x474
 754 04c6 04       		.byte	0x4
 755 04c7 12       		.uleb128 0x12
 756 04c8 73313800 		.ascii	"s18\000"
 757 04cc 09       		.byte	0x9
 758 04cd F8       		.byte	0xf8
 759 04ce 74040000 		.4byte	0x474
 760 04d2 08       		.byte	0x8
 761 04d3 12       		.uleb128 0x12
 762 04d4 73313900 		.ascii	"s19\000"
 763 04d8 09       		.byte	0x9
 764 04d9 F9       		.byte	0xf9
 765 04da 74040000 		.4byte	0x474
 766 04de 0C       		.byte	0xc
 767 04df 12       		.uleb128 0x12
 768 04e0 73323000 		.ascii	"s20\000"
 769 04e4 09       		.byte	0x9
 770 04e5 FA       		.byte	0xfa
 771 04e6 74040000 		.4byte	0x474
 772 04ea 10       		.byte	0x10
 773 04eb 12       		.uleb128 0x12
 774 04ec 73323100 		.ascii	"s21\000"
 775 04f0 09       		.byte	0x9
 776 04f1 FB       		.byte	0xfb
 777 04f2 74040000 		.4byte	0x474
 778 04f6 14       		.byte	0x14
 779 04f7 12       		.uleb128 0x12
 780 04f8 73323200 		.ascii	"s22\000"
 781 04fc 09       		.byte	0x9
 782 04fd FC       		.byte	0xfc
 783 04fe 74040000 		.4byte	0x474
 784 0502 18       		.byte	0x18
 785 0503 12       		.uleb128 0x12
 786 0504 73323300 		.ascii	"s23\000"
 787 0508 09       		.byte	0x9
 788 0509 FD       		.byte	0xfd
 789 050a 74040000 		.4byte	0x474
 790 050e 1C       		.byte	0x1c
 791 050f 12       		.uleb128 0x12
 792 0510 73323400 		.ascii	"s24\000"
 793 0514 09       		.byte	0x9
 794 0515 FE       		.byte	0xfe
ARM GAS  /tmp/cc5Jh1Tx.s 			page 15


 795 0516 74040000 		.4byte	0x474
 796 051a 20       		.byte	0x20
 797 051b 12       		.uleb128 0x12
 798 051c 73323500 		.ascii	"s25\000"
 799 0520 09       		.byte	0x9
 800 0521 FF       		.byte	0xff
 801 0522 74040000 		.4byte	0x474
 802 0526 24       		.byte	0x24
 803 0527 08       		.uleb128 0x8
 804 0528 73323600 		.ascii	"s26\000"
 805 052c 09       		.byte	0x9
 806 052d 0001     		.2byte	0x100
 807 052f 74040000 		.4byte	0x474
 808 0533 28       		.byte	0x28
 809 0534 08       		.uleb128 0x8
 810 0535 73323700 		.ascii	"s27\000"
 811 0539 09       		.byte	0x9
 812 053a 0101     		.2byte	0x101
 813 053c 74040000 		.4byte	0x474
 814 0540 2C       		.byte	0x2c
 815 0541 08       		.uleb128 0x8
 816 0542 73323800 		.ascii	"s28\000"
 817 0546 09       		.byte	0x9
 818 0547 0201     		.2byte	0x102
 819 0549 74040000 		.4byte	0x474
 820 054d 30       		.byte	0x30
 821 054e 08       		.uleb128 0x8
 822 054f 73323900 		.ascii	"s29\000"
 823 0553 09       		.byte	0x9
 824 0554 0301     		.2byte	0x103
 825 0556 74040000 		.4byte	0x474
 826 055a 34       		.byte	0x34
 827 055b 08       		.uleb128 0x8
 828 055c 73333000 		.ascii	"s30\000"
 829 0560 09       		.byte	0x9
 830 0561 0401     		.2byte	0x104
 831 0563 74040000 		.4byte	0x474
 832 0567 38       		.byte	0x38
 833 0568 08       		.uleb128 0x8
 834 0569 73333100 		.ascii	"s31\000"
 835 056d 09       		.byte	0x9
 836 056e 0501     		.2byte	0x105
 837 0570 74040000 		.4byte	0x474
 838 0574 3C       		.byte	0x3c
 839 0575 08       		.uleb128 0x8
 840 0576 723400   		.ascii	"r4\000"
 841 0579 09       		.byte	0x9
 842 057a 0701     		.2byte	0x107
 843 057c 74040000 		.4byte	0x474
 844 0580 40       		.byte	0x40
 845 0581 08       		.uleb128 0x8
 846 0582 723500   		.ascii	"r5\000"
 847 0585 09       		.byte	0x9
 848 0586 0801     		.2byte	0x108
 849 0588 74040000 		.4byte	0x474
 850 058c 44       		.byte	0x44
 851 058d 08       		.uleb128 0x8
ARM GAS  /tmp/cc5Jh1Tx.s 			page 16


 852 058e 723600   		.ascii	"r6\000"
 853 0591 09       		.byte	0x9
 854 0592 0901     		.2byte	0x109
 855 0594 74040000 		.4byte	0x474
 856 0598 48       		.byte	0x48
 857 0599 08       		.uleb128 0x8
 858 059a 723700   		.ascii	"r7\000"
 859 059d 09       		.byte	0x9
 860 059e 0A01     		.2byte	0x10a
 861 05a0 74040000 		.4byte	0x474
 862 05a4 4C       		.byte	0x4c
 863 05a5 08       		.uleb128 0x8
 864 05a6 723800   		.ascii	"r8\000"
 865 05a9 09       		.byte	0x9
 866 05aa 0B01     		.2byte	0x10b
 867 05ac 74040000 		.4byte	0x474
 868 05b0 50       		.byte	0x50
 869 05b1 08       		.uleb128 0x8
 870 05b2 723900   		.ascii	"r9\000"
 871 05b5 09       		.byte	0x9
 872 05b6 0C01     		.2byte	0x10c
 873 05b8 74040000 		.4byte	0x474
 874 05bc 54       		.byte	0x54
 875 05bd 08       		.uleb128 0x8
 876 05be 72313000 		.ascii	"r10\000"
 877 05c2 09       		.byte	0x9
 878 05c3 0D01     		.2byte	0x10d
 879 05c5 74040000 		.4byte	0x474
 880 05c9 58       		.byte	0x58
 881 05ca 08       		.uleb128 0x8
 882 05cb 72313100 		.ascii	"r11\000"
 883 05cf 09       		.byte	0x9
 884 05d0 0E01     		.2byte	0x10e
 885 05d2 74040000 		.4byte	0x474
 886 05d6 5C       		.byte	0x5c
 887 05d7 08       		.uleb128 0x8
 888 05d8 6C7200   		.ascii	"lr\000"
 889 05db 09       		.byte	0x9
 890 05dc 0F01     		.2byte	0x10f
 891 05de 74040000 		.4byte	0x474
 892 05e2 60       		.byte	0x60
 893 05e3 00       		.byte	0
 894 05e4 0A       		.uleb128 0xa
 895 05e5 04       		.byte	0x4
 896 05e6 A3040000 		.4byte	0x4a3
 897 05ea 13       		.uleb128 0x13
 898 05eb 60       		.byte	0x60
 899 05ec 0A       		.byte	0xa
 900 05ed 9E01     		.2byte	0x19e
 901 05ef F6060000 		.4byte	0x6f6
 902 05f3 08       		.uleb128 0x8
 903 05f4 43523100 		.ascii	"CR1\000"
 904 05f8 0A       		.byte	0xa
 905 05f9 9F01     		.2byte	0x19f
 906 05fb CF000000 		.4byte	0xcf
 907 05ff 00       		.byte	0
 908 0600 08       		.uleb128 0x8
ARM GAS  /tmp/cc5Jh1Tx.s 			page 17


 909 0601 43523200 		.ascii	"CR2\000"
 910 0605 0A       		.byte	0xa
 911 0606 A001     		.2byte	0x1a0
 912 0608 CF000000 		.4byte	0xcf
 913 060c 04       		.byte	0x4
 914 060d 09       		.uleb128 0x9
 915 060e B2010000 		.4byte	.LASF84
 916 0612 0A       		.byte	0xa
 917 0613 A101     		.2byte	0x1a1
 918 0615 CF000000 		.4byte	0xcf
 919 0619 08       		.byte	0x8
 920 061a 09       		.uleb128 0x9
 921 061b 0D000000 		.4byte	.LASF85
 922 061f 0A       		.byte	0xa
 923 0620 A201     		.2byte	0x1a2
 924 0622 CF000000 		.4byte	0xcf
 925 0626 0C       		.byte	0xc
 926 0627 08       		.uleb128 0x8
 927 0628 535200   		.ascii	"SR\000"
 928 062b 0A       		.byte	0xa
 929 062c A301     		.2byte	0x1a3
 930 062e CF000000 		.4byte	0xcf
 931 0632 10       		.byte	0x10
 932 0633 08       		.uleb128 0x8
 933 0634 45475200 		.ascii	"EGR\000"
 934 0638 0A       		.byte	0xa
 935 0639 A401     		.2byte	0x1a4
 936 063b CF000000 		.4byte	0xcf
 937 063f 14       		.byte	0x14
 938 0640 09       		.uleb128 0x9
 939 0641 C4000000 		.4byte	.LASF86
 940 0645 0A       		.byte	0xa
 941 0646 A501     		.2byte	0x1a5
 942 0648 CF000000 		.4byte	0xcf
 943 064c 18       		.byte	0x18
 944 064d 09       		.uleb128 0x9
 945 064e CA000000 		.4byte	.LASF87
 946 0652 0A       		.byte	0xa
 947 0653 A601     		.2byte	0x1a6
 948 0655 CF000000 		.4byte	0xcf
 949 0659 1C       		.byte	0x1c
 950 065a 09       		.uleb128 0x9
 951 065b D1040000 		.4byte	.LASF88
 952 065f 0A       		.byte	0xa
 953 0660 A701     		.2byte	0x1a7
 954 0662 CF000000 		.4byte	0xcf
 955 0666 20       		.byte	0x20
 956 0667 08       		.uleb128 0x8
 957 0668 434E5400 		.ascii	"CNT\000"
 958 066c 0A       		.byte	0xa
 959 066d A801     		.2byte	0x1a8
 960 066f CF000000 		.4byte	0xcf
 961 0673 24       		.byte	0x24
 962 0674 08       		.uleb128 0x8
 963 0675 50534300 		.ascii	"PSC\000"
 964 0679 0A       		.byte	0xa
 965 067a A901     		.2byte	0x1a9
ARM GAS  /tmp/cc5Jh1Tx.s 			page 18


 966 067c CF000000 		.4byte	0xcf
 967 0680 28       		.byte	0x28
 968 0681 08       		.uleb128 0x8
 969 0682 41525200 		.ascii	"ARR\000"
 970 0686 0A       		.byte	0xa
 971 0687 AA01     		.2byte	0x1aa
 972 0689 CF000000 		.4byte	0xcf
 973 068d 2C       		.byte	0x2c
 974 068e 08       		.uleb128 0x8
 975 068f 52435200 		.ascii	"RCR\000"
 976 0693 0A       		.byte	0xa
 977 0694 AB01     		.2byte	0x1ab
 978 0696 CF000000 		.4byte	0xcf
 979 069a 30       		.byte	0x30
 980 069b 08       		.uleb128 0x8
 981 069c 43435200 		.ascii	"CCR\000"
 982 06a0 0A       		.byte	0xa
 983 06a1 AC01     		.2byte	0x1ac
 984 06a3 F6060000 		.4byte	0x6f6
 985 06a7 34       		.byte	0x34
 986 06a8 09       		.uleb128 0x9
 987 06a9 A7000000 		.4byte	.LASF89
 988 06ad 0A       		.byte	0xa
 989 06ae AD01     		.2byte	0x1ad
 990 06b0 CF000000 		.4byte	0xcf
 991 06b4 44       		.byte	0x44
 992 06b5 08       		.uleb128 0x8
 993 06b6 44435200 		.ascii	"DCR\000"
 994 06ba 0A       		.byte	0xa
 995 06bb AE01     		.2byte	0x1ae
 996 06bd CF000000 		.4byte	0xcf
 997 06c1 48       		.byte	0x48
 998 06c2 09       		.uleb128 0x9
 999 06c3 C3040000 		.4byte	.LASF90
 1000 06c7 0A       		.byte	0xa
 1001 06c8 AF01     		.2byte	0x1af
 1002 06ca CF000000 		.4byte	0xcf
 1003 06ce 4C       		.byte	0x4c
 1004 06cf 08       		.uleb128 0x8
 1005 06d0 4F5200   		.ascii	"OR\000"
 1006 06d3 0A       		.byte	0xa
 1007 06d4 B001     		.2byte	0x1b0
 1008 06d6 CF000000 		.4byte	0xcf
 1009 06da 50       		.byte	0x50
 1010 06db 09       		.uleb128 0x9
 1011 06dc D0000000 		.4byte	.LASF91
 1012 06e0 0A       		.byte	0xa
 1013 06e1 B101     		.2byte	0x1b1
 1014 06e3 CF000000 		.4byte	0xcf
 1015 06e7 54       		.byte	0x54
 1016 06e8 09       		.uleb128 0x9
 1017 06e9 68040000 		.4byte	.LASF92
 1018 06ed 0A       		.byte	0xa
 1019 06ee B201     		.2byte	0x1b2
 1020 06f0 FB060000 		.4byte	0x6fb
 1021 06f4 58       		.byte	0x58
 1022 06f5 00       		.byte	0
ARM GAS  /tmp/cc5Jh1Tx.s 			page 19


 1023 06f6 05       		.uleb128 0x5
 1024 06f7 64040000 		.4byte	0x464
 1025 06fb 05       		.uleb128 0x5
 1026 06fc 54040000 		.4byte	0x454
 1027 0700 14       		.uleb128 0x14
 1028 0701 DB010000 		.4byte	.LASF93
 1029 0705 0A       		.byte	0xa
 1030 0706 B301     		.2byte	0x1b3
 1031 0708 EA050000 		.4byte	0x5ea
 1032 070c 15       		.uleb128 0x15
 1033 070d 04       		.byte	0x4
 1034 070e 0B       		.byte	0xb
 1035 070f 38       		.byte	0x38
 1036 0710 21070000 		.4byte	0x721
 1037 0714 07       		.uleb128 0x7
 1038 0715 10050000 		.4byte	.LASF94
 1039 0719 0B       		.byte	0xb
 1040 071a 3C       		.byte	0x3c
 1041 071b D4000000 		.4byte	0xd4
 1042 071f 00       		.byte	0
 1043 0720 00       		.byte	0
 1044 0721 04       		.uleb128 0x4
 1045 0722 71030000 		.4byte	.LASF95
 1046 0726 0B       		.byte	0xb
 1047 0727 3D       		.byte	0x3d
 1048 0728 0C070000 		.4byte	0x70c
 1049 072c 16       		.uleb128 0x16
 1050 072d 04       		.byte	0x4
 1051 072e 07       		.byte	0x7
 1052 072f FA       		.byte	0xfa
 1053 0730 89070000 		.4byte	0x789
 1054 0734 17       		.uleb128 0x17
 1055 0735 18000000 		.4byte	.LASF96
 1056 0739 07       		.byte	0x7
 1057 073a 0101     		.2byte	0x101
 1058 073c 0B010000 		.4byte	0x10b
 1059 0740 17       		.uleb128 0x17
 1060 0741 64000000 		.4byte	.LASF97
 1061 0745 07       		.byte	0x7
 1062 0746 0801     		.2byte	0x108
 1063 0748 0B010000 		.4byte	0x10b
 1064 074c 17       		.uleb128 0x17
 1065 074d A5050000 		.4byte	.LASF98
 1066 0751 07       		.byte	0x7
 1067 0752 0F01     		.2byte	0x10f
 1068 0754 17030000 		.4byte	0x317
 1069 0758 17       		.uleb128 0x17
 1070 0759 12000000 		.4byte	.LASF99
 1071 075d 07       		.byte	0x7
 1072 075e 1601     		.2byte	0x116
 1073 0760 89070000 		.4byte	0x789
 1074 0764 17       		.uleb128 0x17
 1075 0765 91010000 		.4byte	.LASF100
 1076 0769 07       		.byte	0x7
 1077 076a 1E01     		.2byte	0x11e
 1078 076c B4070000 		.4byte	0x7b4
 1079 0770 17       		.uleb128 0x17
ARM GAS  /tmp/cc5Jh1Tx.s 			page 20


 1080 0771 81040000 		.4byte	.LASF101
 1081 0775 07       		.byte	0x7
 1082 0776 2701     		.2byte	0x127
 1083 0778 EB070000 		.4byte	0x7eb
 1084 077c 17       		.uleb128 0x17
 1085 077d 1A040000 		.4byte	.LASF102
 1086 0781 07       		.byte	0x7
 1087 0782 2F01     		.2byte	0x12f
 1088 0784 16010000 		.4byte	0x116
 1089 0788 00       		.byte	0
 1090 0789 0A       		.uleb128 0xa
 1091 078a 04       		.byte	0x4
 1092 078b 2F020000 		.4byte	0x22f
 1093 078f 06       		.uleb128 0x6
 1094 0790 5B040000 		.4byte	.LASF103
 1095 0794 0C       		.byte	0xc
 1096 0795 0C       		.byte	0xc
 1097 0796 34       		.byte	0x34
 1098 0797 B4070000 		.4byte	0x7b4
 1099 079b 07       		.uleb128 0x7
 1100 079c 1D010000 		.4byte	.LASF104
 1101 07a0 0C       		.byte	0xc
 1102 07a1 35       		.byte	0x35
 1103 07a2 64020000 		.4byte	0x264
 1104 07a6 00       		.byte	0
 1105 07a7 07       		.uleb128 0x7
 1106 07a8 AC010000 		.4byte	.LASF105
 1107 07ac 0C       		.byte	0xc
 1108 07ad 37       		.byte	0x37
 1109 07ae 21010000 		.4byte	0x121
 1110 07b2 08       		.byte	0x8
 1111 07b3 00       		.byte	0
 1112 07b4 0A       		.uleb128 0xa
 1113 07b5 04       		.byte	0x4
 1114 07b6 8F070000 		.4byte	0x78f
 1115 07ba 06       		.uleb128 0x6
 1116 07bb 79050000 		.4byte	.LASF106
 1117 07bf 10       		.byte	0x10
 1118 07c0 0D       		.byte	0xd
 1119 07c1 39       		.byte	0x39
 1120 07c2 EB070000 		.4byte	0x7eb
 1121 07c6 07       		.uleb128 0x7
 1122 07c7 E2000000 		.4byte	.LASF107
 1123 07cb 0D       		.byte	0xd
 1124 07cc 3A       		.byte	0x3a
 1125 07cd 64020000 		.4byte	0x264
 1126 07d1 00       		.byte	0
 1127 07d2 07       		.uleb128 0x7
 1128 07d3 21060000 		.4byte	.LASF108
 1129 07d7 0D       		.byte	0xd
 1130 07d8 3C       		.byte	0x3c
 1131 07d9 3A020000 		.4byte	0x23a
 1132 07dd 08       		.byte	0x8
 1133 07de 07       		.uleb128 0x7
 1134 07df D6040000 		.4byte	.LASF109
 1135 07e3 0D       		.byte	0xd
 1136 07e4 3E       		.byte	0x3e
ARM GAS  /tmp/cc5Jh1Tx.s 			page 21


 1137 07e5 29080000 		.4byte	0x829
 1138 07e9 0C       		.byte	0xc
 1139 07ea 00       		.byte	0
 1140 07eb 0A       		.uleb128 0xa
 1141 07ec 04       		.byte	0x4
 1142 07ed BA070000 		.4byte	0x7ba
 1143 07f1 0A       		.uleb128 0xa
 1144 07f2 04       		.byte	0x4
 1145 07f3 FE070000 		.4byte	0x7fe
 1146 07f7 03       		.uleb128 0x3
 1147 07f8 01       		.byte	0x1
 1148 07f9 08       		.byte	0x8
 1149 07fa BE040000 		.4byte	.LASF110
 1150 07fe 18       		.uleb128 0x18
 1151 07ff F7070000 		.4byte	0x7f7
 1152 0803 0A       		.uleb128 0xa
 1153 0804 04       		.byte	0x4
 1154 0805 19030000 		.4byte	0x319
 1155 0809 05       		.uleb128 0x5
 1156 080a F1070000 		.4byte	0x7f1
 1157 080e 10       		.uleb128 0x10
 1158 080f 7F040000 		.4byte	0x47f
 1159 0813 1E080000 		.4byte	0x81e
 1160 0817 11       		.uleb128 0x11
 1161 0818 4D040000 		.4byte	0x44d
 1162 081c 2B       		.byte	0x2b
 1163 081d 00       		.byte	0
 1164 081e 04       		.uleb128 0x4
 1165 081f 19060000 		.4byte	.LASF111
 1166 0823 0D       		.byte	0xd
 1167 0824 34       		.byte	0x34
 1168 0825 BA070000 		.4byte	0x7ba
 1169 0829 0A       		.uleb128 0xa
 1170 082a 04       		.byte	0x4
 1171 082b 1E080000 		.4byte	0x81e
 1172 082f 03       		.uleb128 0x3
 1173 0830 01       		.byte	0x1
 1174 0831 02       		.byte	0x2
 1175 0832 DB030000 		.4byte	.LASF112
 1176 0836 19       		.uleb128 0x19
 1177 0837 0B020000 		.4byte	.LASF113
 1178 083b 02       		.byte	0x2
 1179 083c 8D       		.byte	0x8d
 1180 083d 03       		.byte	0x3
 1181 083e 4E080000 		.4byte	0x84e
 1182 0842 1A       		.uleb128 0x1a
 1183 0843 82030000 		.4byte	.LASF115
 1184 0847 02       		.byte	0x2
 1185 0848 8D       		.byte	0x8d
 1186 0849 2C010000 		.4byte	0x12c
 1187 084d 00       		.byte	0
 1188 084e 1B       		.uleb128 0x1b
 1189 084f 3A050000 		.4byte	.LASF126
 1190 0853 02       		.byte	0x2
 1191 0854 99       		.byte	0x99
 1192 0855 03       		.byte	0x3
 1193 0856 19       		.uleb128 0x19
ARM GAS  /tmp/cc5Jh1Tx.s 			page 22


 1194 0857 08060000 		.4byte	.LASF114
 1195 085b 02       		.byte	0x2
 1196 085c A5       		.byte	0xa5
 1197 085d 03       		.byte	0x3
 1198 085e 6E080000 		.4byte	0x86e
 1199 0862 1A       		.uleb128 0x1a
 1200 0863 82030000 		.4byte	.LASF115
 1201 0867 02       		.byte	0x2
 1202 0868 A5       		.byte	0xa5
 1203 0869 2C010000 		.4byte	0x12c
 1204 086d 00       		.byte	0
 1205 086e 1C       		.uleb128 0x1c
 1206 086f 4A040000 		.4byte	.LASF127
 1207 0873 02       		.byte	0x2
 1208 0874 B1       		.byte	0xb1
 1209 0875 2C010000 		.4byte	0x12c
 1210 0879 03       		.byte	0x3
 1211 087a 1D       		.uleb128 0x1d
 1212 087b 64030000 		.4byte	.LASF116
 1213 087f 01       		.byte	0x1
 1214 0880 3C       		.byte	0x3c
 1215 0881 00000000 		.4byte	.LFB260
 1216 0885 04000000 		.4byte	.LFE260-.LFB260
 1217 0889 01       		.uleb128 0x1
 1218 088a 9C       		.byte	0x9c
 1219 088b 99080000 		.4byte	0x899
 1220 088f 1E       		.uleb128 0x1e
 1221 0890 04000000 		.4byte	.LVL0
 1222 0894 BC090000 		.4byte	0x9bc
 1223 0898 00       		.byte	0
 1224 0899 1D       		.uleb128 0x1d
 1225 089a 17050000 		.4byte	.LASF117
 1226 089e 01       		.byte	0x1
 1227 089f 4D       		.byte	0x4d
 1228 08a0 00000000 		.4byte	.LFB261
 1229 08a4 10000000 		.4byte	.LFE261-.LFB261
 1230 08a8 01       		.uleb128 0x1
 1231 08a9 9C       		.byte	0x9c
 1232 08aa DC080000 		.4byte	0x8dc
 1233 08ae 1F       		.uleb128 0x1f
 1234 08af B7010000 		.4byte	.LASF120
 1235 08b3 01       		.byte	0x1
 1236 08b4 4D       		.byte	0x4d
 1237 08b5 2C010000 		.4byte	0x12c
 1238 08b9 01       		.uleb128 0x1
 1239 08ba 50       		.byte	0x50
 1240 08bb 20       		.uleb128 0x20
 1241 08bc 30040000 		.4byte	.LASF121
 1242 08c0 EC080000 		.4byte	0x8ec
 1243 08c4 21       		.uleb128 0x21
 1244 08c5 36080000 		.4byte	0x836
 1245 08c9 00000000 		.4byte	.LBB10
 1246 08cd 10000000 		.4byte	.LBE10-.LBB10
 1247 08d1 01       		.byte	0x1
 1248 08d2 51       		.byte	0x51
 1249 08d3 22       		.uleb128 0x22
 1250 08d4 42080000 		.4byte	0x842
ARM GAS  /tmp/cc5Jh1Tx.s 			page 23


 1251 08d8 01       		.uleb128 0x1
 1252 08d9 50       		.byte	0x50
 1253 08da 00       		.byte	0
 1254 08db 00       		.byte	0
 1255 08dc 10       		.uleb128 0x10
 1256 08dd F7070000 		.4byte	0x7f7
 1257 08e1 EC080000 		.4byte	0x8ec
 1258 08e5 11       		.uleb128 0x11
 1259 08e6 4D040000 		.4byte	0x44d
 1260 08ea 0C       		.byte	0xc
 1261 08eb 00       		.byte	0
 1262 08ec 18       		.uleb128 0x18
 1263 08ed DC080000 		.4byte	0x8dc
 1264 08f1 1D       		.uleb128 0x1d
 1265 08f2 B2040000 		.4byte	.LASF118
 1266 08f6 01       		.byte	0x1
 1267 08f7 5B       		.byte	0x5b
 1268 08f8 00000000 		.4byte	.LFB262
 1269 08fc 0A000000 		.4byte	.LFE262-.LFB262
 1270 0900 01       		.uleb128 0x1
 1271 0901 9C       		.byte	0x9c
 1272 0902 16090000 		.4byte	0x916
 1273 0906 23       		.uleb128 0x23
 1274 0907 4E080000 		.4byte	0x84e
 1275 090b 00000000 		.4byte	.LBB12
 1276 090f 0A000000 		.4byte	.LBE12-.LBB12
 1277 0913 01       		.byte	0x1
 1278 0914 5D       		.byte	0x5d
 1279 0915 00       		.byte	0
 1280 0916 1D       		.uleb128 0x1d
 1281 0917 8F050000 		.4byte	.LASF119
 1282 091b 01       		.byte	0x1
 1283 091c 69       		.byte	0x69
 1284 091d 00000000 		.4byte	.LFB263
 1285 0921 08000000 		.4byte	.LFE263-.LFB263
 1286 0925 01       		.uleb128 0x1
 1287 0926 9C       		.byte	0x9c
 1288 0927 59090000 		.4byte	0x959
 1289 092b 1F       		.uleb128 0x1f
 1290 092c B7010000 		.4byte	.LASF120
 1291 0930 01       		.byte	0x1
 1292 0931 69       		.byte	0x69
 1293 0932 2C010000 		.4byte	0x12c
 1294 0936 01       		.uleb128 0x1
 1295 0937 50       		.byte	0x50
 1296 0938 20       		.uleb128 0x20
 1297 0939 30040000 		.4byte	.LASF121
 1298 093d 69090000 		.4byte	0x969
 1299 0941 21       		.uleb128 0x21
 1300 0942 56080000 		.4byte	0x856
 1301 0946 00000000 		.4byte	.LBB14
 1302 094a 08000000 		.4byte	.LBE14-.LBB14
 1303 094e 01       		.byte	0x1
 1304 094f 6D       		.byte	0x6d
 1305 0950 22       		.uleb128 0x22
 1306 0951 62080000 		.4byte	0x862
 1307 0955 01       		.uleb128 0x1
ARM GAS  /tmp/cc5Jh1Tx.s 			page 24


 1308 0956 50       		.byte	0x50
 1309 0957 00       		.byte	0
 1310 0958 00       		.byte	0
 1311 0959 10       		.uleb128 0x10
 1312 095a F7070000 		.4byte	0x7f7
 1313 095e 69090000 		.4byte	0x969
 1314 0962 11       		.uleb128 0x11
 1315 0963 4D040000 		.4byte	0x44d
 1316 0967 0A       		.byte	0xa
 1317 0968 00       		.byte	0
 1318 0969 18       		.uleb128 0x18
 1319 096a 59090000 		.4byte	0x959
 1320 096e 24       		.uleb128 0x24
 1321 096f 9A050000 		.4byte	.LASF128
 1322 0973 01       		.byte	0x1
 1323 0974 79       		.byte	0x79
 1324 0975 2C010000 		.4byte	0x12c
 1325 0979 00000000 		.4byte	.LFB264
 1326 097d 08000000 		.4byte	.LFE264-.LFB264
 1327 0981 01       		.uleb128 0x1
 1328 0982 9C       		.byte	0x9c
 1329 0983 A0090000 		.4byte	0x9a0
 1330 0987 20       		.uleb128 0x20
 1331 0988 30040000 		.4byte	.LASF121
 1332 098c A0090000 		.4byte	0x9a0
 1333 0990 23       		.uleb128 0x23
 1334 0991 6E080000 		.4byte	0x86e
 1335 0995 00000000 		.4byte	.LBB16
 1336 0999 06000000 		.4byte	.LBE16-.LBB16
 1337 099d 01       		.byte	0x1
 1338 099e 7D       		.byte	0x7d
 1339 099f 00       		.byte	0
 1340 09a0 18       		.uleb128 0x18
 1341 09a1 59090000 		.4byte	0x959
 1342 09a5 25       		.uleb128 0x25
 1343 09a6 8E000000 		.4byte	.LASF122
 1344 09aa 0E       		.byte	0xe
 1345 09ab A706     		.2byte	0x6a7
 1346 09ad CA000000 		.4byte	0xca
 1347 09b1 26       		.uleb128 0x26
 1348 09b2 636800   		.ascii	"ch\000"
 1349 09b5 07       		.byte	0x7
 1350 09b6 0902     		.2byte	0x209
 1351 09b8 E6030000 		.4byte	0x3e6
 1352 09bc 27       		.uleb128 0x27
 1353 09bd 9B000000 		.4byte	.LASF129
 1354 09c1 9B000000 		.4byte	.LASF129
 1355 09c5 02       		.byte	0x2
 1356 09c6 6F       		.byte	0x6f
 1357 09c7 00       		.byte	0
 1358              		.section	.debug_abbrev,"",%progbits
 1359              	.Ldebug_abbrev0:
 1360 0000 01       		.uleb128 0x1
 1361 0001 11       		.uleb128 0x11
 1362 0002 01       		.byte	0x1
 1363 0003 25       		.uleb128 0x25
 1364 0004 0E       		.uleb128 0xe
ARM GAS  /tmp/cc5Jh1Tx.s 			page 25


 1365 0005 13       		.uleb128 0x13
 1366 0006 0B       		.uleb128 0xb
 1367 0007 03       		.uleb128 0x3
 1368 0008 0E       		.uleb128 0xe
 1369 0009 1B       		.uleb128 0x1b
 1370 000a 0E       		.uleb128 0xe
 1371 000b 55       		.uleb128 0x55
 1372 000c 17       		.uleb128 0x17
 1373 000d 11       		.uleb128 0x11
 1374 000e 01       		.uleb128 0x1
 1375 000f 10       		.uleb128 0x10
 1376 0010 17       		.uleb128 0x17
 1377 0011 00       		.byte	0
 1378 0012 00       		.byte	0
 1379 0013 02       		.uleb128 0x2
 1380 0014 24       		.uleb128 0x24
 1381 0015 00       		.byte	0
 1382 0016 0B       		.uleb128 0xb
 1383 0017 0B       		.uleb128 0xb
 1384 0018 3E       		.uleb128 0x3e
 1385 0019 0B       		.uleb128 0xb
 1386 001a 03       		.uleb128 0x3
 1387 001b 08       		.uleb128 0x8
 1388 001c 00       		.byte	0
 1389 001d 00       		.byte	0
 1390 001e 03       		.uleb128 0x3
 1391 001f 24       		.uleb128 0x24
 1392 0020 00       		.byte	0
 1393 0021 0B       		.uleb128 0xb
 1394 0022 0B       		.uleb128 0xb
 1395 0023 3E       		.uleb128 0x3e
 1396 0024 0B       		.uleb128 0xb
 1397 0025 03       		.uleb128 0x3
 1398 0026 0E       		.uleb128 0xe
 1399 0027 00       		.byte	0
 1400 0028 00       		.byte	0
 1401 0029 04       		.uleb128 0x4
 1402 002a 16       		.uleb128 0x16
 1403 002b 00       		.byte	0
 1404 002c 03       		.uleb128 0x3
 1405 002d 0E       		.uleb128 0xe
 1406 002e 3A       		.uleb128 0x3a
 1407 002f 0B       		.uleb128 0xb
 1408 0030 3B       		.uleb128 0x3b
 1409 0031 0B       		.uleb128 0xb
 1410 0032 49       		.uleb128 0x49
 1411 0033 13       		.uleb128 0x13
 1412 0034 00       		.byte	0
 1413 0035 00       		.byte	0
 1414 0036 05       		.uleb128 0x5
 1415 0037 35       		.uleb128 0x35
 1416 0038 00       		.byte	0
 1417 0039 49       		.uleb128 0x49
 1418 003a 13       		.uleb128 0x13
 1419 003b 00       		.byte	0
 1420 003c 00       		.byte	0
 1421 003d 06       		.uleb128 0x6
ARM GAS  /tmp/cc5Jh1Tx.s 			page 26


 1422 003e 13       		.uleb128 0x13
 1423 003f 01       		.byte	0x1
 1424 0040 03       		.uleb128 0x3
 1425 0041 0E       		.uleb128 0xe
 1426 0042 0B       		.uleb128 0xb
 1427 0043 0B       		.uleb128 0xb
 1428 0044 3A       		.uleb128 0x3a
 1429 0045 0B       		.uleb128 0xb
 1430 0046 3B       		.uleb128 0x3b
 1431 0047 0B       		.uleb128 0xb
 1432 0048 01       		.uleb128 0x1
 1433 0049 13       		.uleb128 0x13
 1434 004a 00       		.byte	0
 1435 004b 00       		.byte	0
 1436 004c 07       		.uleb128 0x7
 1437 004d 0D       		.uleb128 0xd
 1438 004e 00       		.byte	0
 1439 004f 03       		.uleb128 0x3
 1440 0050 0E       		.uleb128 0xe
 1441 0051 3A       		.uleb128 0x3a
 1442 0052 0B       		.uleb128 0xb
 1443 0053 3B       		.uleb128 0x3b
 1444 0054 0B       		.uleb128 0xb
 1445 0055 49       		.uleb128 0x49
 1446 0056 13       		.uleb128 0x13
 1447 0057 38       		.uleb128 0x38
 1448 0058 0B       		.uleb128 0xb
 1449 0059 00       		.byte	0
 1450 005a 00       		.byte	0
 1451 005b 08       		.uleb128 0x8
 1452 005c 0D       		.uleb128 0xd
 1453 005d 00       		.byte	0
 1454 005e 03       		.uleb128 0x3
 1455 005f 08       		.uleb128 0x8
 1456 0060 3A       		.uleb128 0x3a
 1457 0061 0B       		.uleb128 0xb
 1458 0062 3B       		.uleb128 0x3b
 1459 0063 05       		.uleb128 0x5
 1460 0064 49       		.uleb128 0x49
 1461 0065 13       		.uleb128 0x13
 1462 0066 38       		.uleb128 0x38
 1463 0067 0B       		.uleb128 0xb
 1464 0068 00       		.byte	0
 1465 0069 00       		.byte	0
 1466 006a 09       		.uleb128 0x9
 1467 006b 0D       		.uleb128 0xd
 1468 006c 00       		.byte	0
 1469 006d 03       		.uleb128 0x3
 1470 006e 0E       		.uleb128 0xe
 1471 006f 3A       		.uleb128 0x3a
 1472 0070 0B       		.uleb128 0xb
 1473 0071 3B       		.uleb128 0x3b
 1474 0072 05       		.uleb128 0x5
 1475 0073 49       		.uleb128 0x49
 1476 0074 13       		.uleb128 0x13
 1477 0075 38       		.uleb128 0x38
 1478 0076 0B       		.uleb128 0xb
ARM GAS  /tmp/cc5Jh1Tx.s 			page 27


 1479 0077 00       		.byte	0
 1480 0078 00       		.byte	0
 1481 0079 0A       		.uleb128 0xa
 1482 007a 0F       		.uleb128 0xf
 1483 007b 00       		.byte	0
 1484 007c 0B       		.uleb128 0xb
 1485 007d 0B       		.uleb128 0xb
 1486 007e 49       		.uleb128 0x49
 1487 007f 13       		.uleb128 0x13
 1488 0080 00       		.byte	0
 1489 0081 00       		.byte	0
 1490 0082 0B       		.uleb128 0xb
 1491 0083 13       		.uleb128 0x13
 1492 0084 01       		.byte	0x1
 1493 0085 03       		.uleb128 0x3
 1494 0086 0E       		.uleb128 0xe
 1495 0087 0B       		.uleb128 0xb
 1496 0088 0B       		.uleb128 0xb
 1497 0089 3A       		.uleb128 0x3a
 1498 008a 0B       		.uleb128 0xb
 1499 008b 3B       		.uleb128 0x3b
 1500 008c 05       		.uleb128 0x5
 1501 008d 01       		.uleb128 0x1
 1502 008e 13       		.uleb128 0x13
 1503 008f 00       		.byte	0
 1504 0090 00       		.byte	0
 1505 0091 0C       		.uleb128 0xc
 1506 0092 15       		.uleb128 0x15
 1507 0093 01       		.byte	0x1
 1508 0094 27       		.uleb128 0x27
 1509 0095 19       		.uleb128 0x19
 1510 0096 01       		.uleb128 0x1
 1511 0097 13       		.uleb128 0x13
 1512 0098 00       		.byte	0
 1513 0099 00       		.byte	0
 1514 009a 0D       		.uleb128 0xd
 1515 009b 05       		.uleb128 0x5
 1516 009c 00       		.byte	0
 1517 009d 49       		.uleb128 0x49
 1518 009e 13       		.uleb128 0x13
 1519 009f 00       		.byte	0
 1520 00a0 00       		.byte	0
 1521 00a1 0E       		.uleb128 0xe
 1522 00a2 0F       		.uleb128 0xf
 1523 00a3 00       		.byte	0
 1524 00a4 0B       		.uleb128 0xb
 1525 00a5 0B       		.uleb128 0xb
 1526 00a6 00       		.byte	0
 1527 00a7 00       		.byte	0
 1528 00a8 0F       		.uleb128 0xf
 1529 00a9 13       		.uleb128 0x13
 1530 00aa 01       		.byte	0x1
 1531 00ab 03       		.uleb128 0x3
 1532 00ac 0E       		.uleb128 0xe
 1533 00ad 0B       		.uleb128 0xb
 1534 00ae 05       		.uleb128 0x5
 1535 00af 3A       		.uleb128 0x3a
ARM GAS  /tmp/cc5Jh1Tx.s 			page 28


 1536 00b0 0B       		.uleb128 0xb
 1537 00b1 3B       		.uleb128 0x3b
 1538 00b2 05       		.uleb128 0x5
 1539 00b3 01       		.uleb128 0x1
 1540 00b4 13       		.uleb128 0x13
 1541 00b5 00       		.byte	0
 1542 00b6 00       		.byte	0
 1543 00b7 10       		.uleb128 0x10
 1544 00b8 01       		.uleb128 0x1
 1545 00b9 01       		.byte	0x1
 1546 00ba 49       		.uleb128 0x49
 1547 00bb 13       		.uleb128 0x13
 1548 00bc 01       		.uleb128 0x1
 1549 00bd 13       		.uleb128 0x13
 1550 00be 00       		.byte	0
 1551 00bf 00       		.byte	0
 1552 00c0 11       		.uleb128 0x11
 1553 00c1 21       		.uleb128 0x21
 1554 00c2 00       		.byte	0
 1555 00c3 49       		.uleb128 0x49
 1556 00c4 13       		.uleb128 0x13
 1557 00c5 2F       		.uleb128 0x2f
 1558 00c6 0B       		.uleb128 0xb
 1559 00c7 00       		.byte	0
 1560 00c8 00       		.byte	0
 1561 00c9 12       		.uleb128 0x12
 1562 00ca 0D       		.uleb128 0xd
 1563 00cb 00       		.byte	0
 1564 00cc 03       		.uleb128 0x3
 1565 00cd 08       		.uleb128 0x8
 1566 00ce 3A       		.uleb128 0x3a
 1567 00cf 0B       		.uleb128 0xb
 1568 00d0 3B       		.uleb128 0x3b
 1569 00d1 0B       		.uleb128 0xb
 1570 00d2 49       		.uleb128 0x49
 1571 00d3 13       		.uleb128 0x13
 1572 00d4 38       		.uleb128 0x38
 1573 00d5 0B       		.uleb128 0xb
 1574 00d6 00       		.byte	0
 1575 00d7 00       		.byte	0
 1576 00d8 13       		.uleb128 0x13
 1577 00d9 13       		.uleb128 0x13
 1578 00da 01       		.byte	0x1
 1579 00db 0B       		.uleb128 0xb
 1580 00dc 0B       		.uleb128 0xb
 1581 00dd 3A       		.uleb128 0x3a
 1582 00de 0B       		.uleb128 0xb
 1583 00df 3B       		.uleb128 0x3b
 1584 00e0 05       		.uleb128 0x5
 1585 00e1 01       		.uleb128 0x1
 1586 00e2 13       		.uleb128 0x13
 1587 00e3 00       		.byte	0
 1588 00e4 00       		.byte	0
 1589 00e5 14       		.uleb128 0x14
 1590 00e6 16       		.uleb128 0x16
 1591 00e7 00       		.byte	0
 1592 00e8 03       		.uleb128 0x3
ARM GAS  /tmp/cc5Jh1Tx.s 			page 29


 1593 00e9 0E       		.uleb128 0xe
 1594 00ea 3A       		.uleb128 0x3a
 1595 00eb 0B       		.uleb128 0xb
 1596 00ec 3B       		.uleb128 0x3b
 1597 00ed 05       		.uleb128 0x5
 1598 00ee 49       		.uleb128 0x49
 1599 00ef 13       		.uleb128 0x13
 1600 00f0 00       		.byte	0
 1601 00f1 00       		.byte	0
 1602 00f2 15       		.uleb128 0x15
 1603 00f3 13       		.uleb128 0x13
 1604 00f4 01       		.byte	0x1
 1605 00f5 0B       		.uleb128 0xb
 1606 00f6 0B       		.uleb128 0xb
 1607 00f7 3A       		.uleb128 0x3a
 1608 00f8 0B       		.uleb128 0xb
 1609 00f9 3B       		.uleb128 0x3b
 1610 00fa 0B       		.uleb128 0xb
 1611 00fb 01       		.uleb128 0x1
 1612 00fc 13       		.uleb128 0x13
 1613 00fd 00       		.byte	0
 1614 00fe 00       		.byte	0
 1615 00ff 16       		.uleb128 0x16
 1616 0100 17       		.uleb128 0x17
 1617 0101 01       		.byte	0x1
 1618 0102 0B       		.uleb128 0xb
 1619 0103 0B       		.uleb128 0xb
 1620 0104 3A       		.uleb128 0x3a
 1621 0105 0B       		.uleb128 0xb
 1622 0106 3B       		.uleb128 0x3b
 1623 0107 0B       		.uleb128 0xb
 1624 0108 01       		.uleb128 0x1
 1625 0109 13       		.uleb128 0x13
 1626 010a 00       		.byte	0
 1627 010b 00       		.byte	0
 1628 010c 17       		.uleb128 0x17
 1629 010d 0D       		.uleb128 0xd
 1630 010e 00       		.byte	0
 1631 010f 03       		.uleb128 0x3
 1632 0110 0E       		.uleb128 0xe
 1633 0111 3A       		.uleb128 0x3a
 1634 0112 0B       		.uleb128 0xb
 1635 0113 3B       		.uleb128 0x3b
 1636 0114 05       		.uleb128 0x5
 1637 0115 49       		.uleb128 0x49
 1638 0116 13       		.uleb128 0x13
 1639 0117 00       		.byte	0
 1640 0118 00       		.byte	0
 1641 0119 18       		.uleb128 0x18
 1642 011a 26       		.uleb128 0x26
 1643 011b 00       		.byte	0
 1644 011c 49       		.uleb128 0x49
 1645 011d 13       		.uleb128 0x13
 1646 011e 00       		.byte	0
 1647 011f 00       		.byte	0
 1648 0120 19       		.uleb128 0x19
 1649 0121 2E       		.uleb128 0x2e
ARM GAS  /tmp/cc5Jh1Tx.s 			page 30


 1650 0122 01       		.byte	0x1
 1651 0123 03       		.uleb128 0x3
 1652 0124 0E       		.uleb128 0xe
 1653 0125 3A       		.uleb128 0x3a
 1654 0126 0B       		.uleb128 0xb
 1655 0127 3B       		.uleb128 0x3b
 1656 0128 0B       		.uleb128 0xb
 1657 0129 27       		.uleb128 0x27
 1658 012a 19       		.uleb128 0x19
 1659 012b 20       		.uleb128 0x20
 1660 012c 0B       		.uleb128 0xb
 1661 012d 01       		.uleb128 0x1
 1662 012e 13       		.uleb128 0x13
 1663 012f 00       		.byte	0
 1664 0130 00       		.byte	0
 1665 0131 1A       		.uleb128 0x1a
 1666 0132 05       		.uleb128 0x5
 1667 0133 00       		.byte	0
 1668 0134 03       		.uleb128 0x3
 1669 0135 0E       		.uleb128 0xe
 1670 0136 3A       		.uleb128 0x3a
 1671 0137 0B       		.uleb128 0xb
 1672 0138 3B       		.uleb128 0x3b
 1673 0139 0B       		.uleb128 0xb
 1674 013a 49       		.uleb128 0x49
 1675 013b 13       		.uleb128 0x13
 1676 013c 00       		.byte	0
 1677 013d 00       		.byte	0
 1678 013e 1B       		.uleb128 0x1b
 1679 013f 2E       		.uleb128 0x2e
 1680 0140 00       		.byte	0
 1681 0141 03       		.uleb128 0x3
 1682 0142 0E       		.uleb128 0xe
 1683 0143 3A       		.uleb128 0x3a
 1684 0144 0B       		.uleb128 0xb
 1685 0145 3B       		.uleb128 0x3b
 1686 0146 0B       		.uleb128 0xb
 1687 0147 27       		.uleb128 0x27
 1688 0148 19       		.uleb128 0x19
 1689 0149 20       		.uleb128 0x20
 1690 014a 0B       		.uleb128 0xb
 1691 014b 00       		.byte	0
 1692 014c 00       		.byte	0
 1693 014d 1C       		.uleb128 0x1c
 1694 014e 2E       		.uleb128 0x2e
 1695 014f 00       		.byte	0
 1696 0150 03       		.uleb128 0x3
 1697 0151 0E       		.uleb128 0xe
 1698 0152 3A       		.uleb128 0x3a
 1699 0153 0B       		.uleb128 0xb
 1700 0154 3B       		.uleb128 0x3b
 1701 0155 0B       		.uleb128 0xb
 1702 0156 27       		.uleb128 0x27
 1703 0157 19       		.uleb128 0x19
 1704 0158 49       		.uleb128 0x49
 1705 0159 13       		.uleb128 0x13
 1706 015a 20       		.uleb128 0x20
ARM GAS  /tmp/cc5Jh1Tx.s 			page 31


 1707 015b 0B       		.uleb128 0xb
 1708 015c 00       		.byte	0
 1709 015d 00       		.byte	0
 1710 015e 1D       		.uleb128 0x1d
 1711 015f 2E       		.uleb128 0x2e
 1712 0160 01       		.byte	0x1
 1713 0161 3F       		.uleb128 0x3f
 1714 0162 19       		.uleb128 0x19
 1715 0163 03       		.uleb128 0x3
 1716 0164 0E       		.uleb128 0xe
 1717 0165 3A       		.uleb128 0x3a
 1718 0166 0B       		.uleb128 0xb
 1719 0167 3B       		.uleb128 0x3b
 1720 0168 0B       		.uleb128 0xb
 1721 0169 27       		.uleb128 0x27
 1722 016a 19       		.uleb128 0x19
 1723 016b 11       		.uleb128 0x11
 1724 016c 01       		.uleb128 0x1
 1725 016d 12       		.uleb128 0x12
 1726 016e 06       		.uleb128 0x6
 1727 016f 40       		.uleb128 0x40
 1728 0170 18       		.uleb128 0x18
 1729 0171 9742     		.uleb128 0x2117
 1730 0173 19       		.uleb128 0x19
 1731 0174 01       		.uleb128 0x1
 1732 0175 13       		.uleb128 0x13
 1733 0176 00       		.byte	0
 1734 0177 00       		.byte	0
 1735 0178 1E       		.uleb128 0x1e
 1736 0179 898201   		.uleb128 0x4109
 1737 017c 00       		.byte	0
 1738 017d 11       		.uleb128 0x11
 1739 017e 01       		.uleb128 0x1
 1740 017f 9542     		.uleb128 0x2115
 1741 0181 19       		.uleb128 0x19
 1742 0182 31       		.uleb128 0x31
 1743 0183 13       		.uleb128 0x13
 1744 0184 00       		.byte	0
 1745 0185 00       		.byte	0
 1746 0186 1F       		.uleb128 0x1f
 1747 0187 05       		.uleb128 0x5
 1748 0188 00       		.byte	0
 1749 0189 03       		.uleb128 0x3
 1750 018a 0E       		.uleb128 0xe
 1751 018b 3A       		.uleb128 0x3a
 1752 018c 0B       		.uleb128 0xb
 1753 018d 3B       		.uleb128 0x3b
 1754 018e 0B       		.uleb128 0xb
 1755 018f 49       		.uleb128 0x49
 1756 0190 13       		.uleb128 0x13
 1757 0191 02       		.uleb128 0x2
 1758 0192 18       		.uleb128 0x18
 1759 0193 00       		.byte	0
 1760 0194 00       		.byte	0
 1761 0195 20       		.uleb128 0x20
 1762 0196 34       		.uleb128 0x34
 1763 0197 00       		.byte	0
ARM GAS  /tmp/cc5Jh1Tx.s 			page 32


 1764 0198 03       		.uleb128 0x3
 1765 0199 0E       		.uleb128 0xe
 1766 019a 49       		.uleb128 0x49
 1767 019b 13       		.uleb128 0x13
 1768 019c 34       		.uleb128 0x34
 1769 019d 19       		.uleb128 0x19
 1770 019e 00       		.byte	0
 1771 019f 00       		.byte	0
 1772 01a0 21       		.uleb128 0x21
 1773 01a1 1D       		.uleb128 0x1d
 1774 01a2 01       		.byte	0x1
 1775 01a3 31       		.uleb128 0x31
 1776 01a4 13       		.uleb128 0x13
 1777 01a5 11       		.uleb128 0x11
 1778 01a6 01       		.uleb128 0x1
 1779 01a7 12       		.uleb128 0x12
 1780 01a8 06       		.uleb128 0x6
 1781 01a9 58       		.uleb128 0x58
 1782 01aa 0B       		.uleb128 0xb
 1783 01ab 59       		.uleb128 0x59
 1784 01ac 0B       		.uleb128 0xb
 1785 01ad 00       		.byte	0
 1786 01ae 00       		.byte	0
 1787 01af 22       		.uleb128 0x22
 1788 01b0 05       		.uleb128 0x5
 1789 01b1 00       		.byte	0
 1790 01b2 31       		.uleb128 0x31
 1791 01b3 13       		.uleb128 0x13
 1792 01b4 02       		.uleb128 0x2
 1793 01b5 18       		.uleb128 0x18
 1794 01b6 00       		.byte	0
 1795 01b7 00       		.byte	0
 1796 01b8 23       		.uleb128 0x23
 1797 01b9 1D       		.uleb128 0x1d
 1798 01ba 00       		.byte	0
 1799 01bb 31       		.uleb128 0x31
 1800 01bc 13       		.uleb128 0x13
 1801 01bd 11       		.uleb128 0x11
 1802 01be 01       		.uleb128 0x1
 1803 01bf 12       		.uleb128 0x12
 1804 01c0 06       		.uleb128 0x6
 1805 01c1 58       		.uleb128 0x58
 1806 01c2 0B       		.uleb128 0xb
 1807 01c3 59       		.uleb128 0x59
 1808 01c4 0B       		.uleb128 0xb
 1809 01c5 00       		.byte	0
 1810 01c6 00       		.byte	0
 1811 01c7 24       		.uleb128 0x24
 1812 01c8 2E       		.uleb128 0x2e
 1813 01c9 01       		.byte	0x1
 1814 01ca 3F       		.uleb128 0x3f
 1815 01cb 19       		.uleb128 0x19
 1816 01cc 03       		.uleb128 0x3
 1817 01cd 0E       		.uleb128 0xe
 1818 01ce 3A       		.uleb128 0x3a
 1819 01cf 0B       		.uleb128 0xb
 1820 01d0 3B       		.uleb128 0x3b
ARM GAS  /tmp/cc5Jh1Tx.s 			page 33


 1821 01d1 0B       		.uleb128 0xb
 1822 01d2 27       		.uleb128 0x27
 1823 01d3 19       		.uleb128 0x19
 1824 01d4 49       		.uleb128 0x49
 1825 01d5 13       		.uleb128 0x13
 1826 01d6 11       		.uleb128 0x11
 1827 01d7 01       		.uleb128 0x1
 1828 01d8 12       		.uleb128 0x12
 1829 01d9 06       		.uleb128 0x6
 1830 01da 40       		.uleb128 0x40
 1831 01db 18       		.uleb128 0x18
 1832 01dc 9742     		.uleb128 0x2117
 1833 01de 19       		.uleb128 0x19
 1834 01df 01       		.uleb128 0x1
 1835 01e0 13       		.uleb128 0x13
 1836 01e1 00       		.byte	0
 1837 01e2 00       		.byte	0
 1838 01e3 25       		.uleb128 0x25
 1839 01e4 34       		.uleb128 0x34
 1840 01e5 00       		.byte	0
 1841 01e6 03       		.uleb128 0x3
 1842 01e7 0E       		.uleb128 0xe
 1843 01e8 3A       		.uleb128 0x3a
 1844 01e9 0B       		.uleb128 0xb
 1845 01ea 3B       		.uleb128 0x3b
 1846 01eb 05       		.uleb128 0x5
 1847 01ec 49       		.uleb128 0x49
 1848 01ed 13       		.uleb128 0x13
 1849 01ee 3F       		.uleb128 0x3f
 1850 01ef 19       		.uleb128 0x19
 1851 01f0 3C       		.uleb128 0x3c
 1852 01f1 19       		.uleb128 0x19
 1853 01f2 00       		.byte	0
 1854 01f3 00       		.byte	0
 1855 01f4 26       		.uleb128 0x26
 1856 01f5 34       		.uleb128 0x34
 1857 01f6 00       		.byte	0
 1858 01f7 03       		.uleb128 0x3
 1859 01f8 08       		.uleb128 0x8
 1860 01f9 3A       		.uleb128 0x3a
 1861 01fa 0B       		.uleb128 0xb
 1862 01fb 3B       		.uleb128 0x3b
 1863 01fc 05       		.uleb128 0x5
 1864 01fd 49       		.uleb128 0x49
 1865 01fe 13       		.uleb128 0x13
 1866 01ff 3F       		.uleb128 0x3f
 1867 0200 19       		.uleb128 0x19
 1868 0201 3C       		.uleb128 0x3c
 1869 0202 19       		.uleb128 0x19
 1870 0203 00       		.byte	0
 1871 0204 00       		.byte	0
 1872 0205 27       		.uleb128 0x27
 1873 0206 2E       		.uleb128 0x2e
 1874 0207 00       		.byte	0
 1875 0208 3F       		.uleb128 0x3f
 1876 0209 19       		.uleb128 0x19
 1877 020a 3C       		.uleb128 0x3c
ARM GAS  /tmp/cc5Jh1Tx.s 			page 34


 1878 020b 19       		.uleb128 0x19
 1879 020c 6E       		.uleb128 0x6e
 1880 020d 0E       		.uleb128 0xe
 1881 020e 03       		.uleb128 0x3
 1882 020f 0E       		.uleb128 0xe
 1883 0210 3A       		.uleb128 0x3a
 1884 0211 0B       		.uleb128 0xb
 1885 0212 3B       		.uleb128 0x3b
 1886 0213 0B       		.uleb128 0xb
 1887 0214 00       		.byte	0
 1888 0215 00       		.byte	0
 1889 0216 00       		.byte	0
 1890              		.section	.debug_aranges,"",%progbits
 1891 0000 3C000000 		.4byte	0x3c
 1892 0004 0200     		.2byte	0x2
 1893 0006 00000000 		.4byte	.Ldebug_info0
 1894 000a 04       		.byte	0x4
 1895 000b 00       		.byte	0
 1896 000c 0000     		.2byte	0
 1897 000e 0000     		.2byte	0
 1898 0010 00000000 		.4byte	.LFB260
 1899 0014 04000000 		.4byte	.LFE260-.LFB260
 1900 0018 00000000 		.4byte	.LFB261
 1901 001c 10000000 		.4byte	.LFE261-.LFB261
 1902 0020 00000000 		.4byte	.LFB262
 1903 0024 0A000000 		.4byte	.LFE262-.LFB262
 1904 0028 00000000 		.4byte	.LFB263
 1905 002c 08000000 		.4byte	.LFE263-.LFB263
 1906 0030 00000000 		.4byte	.LFB264
 1907 0034 08000000 		.4byte	.LFE264-.LFB264
 1908 0038 00000000 		.4byte	0
 1909 003c 00000000 		.4byte	0
 1910              		.section	.debug_ranges,"",%progbits
 1911              	.Ldebug_ranges0:
 1912 0000 00000000 		.4byte	.LFB260
 1913 0004 04000000 		.4byte	.LFE260
 1914 0008 00000000 		.4byte	.LFB261
 1915 000c 10000000 		.4byte	.LFE261
 1916 0010 00000000 		.4byte	.LFB262
 1917 0014 0A000000 		.4byte	.LFE262
 1918 0018 00000000 		.4byte	.LFB263
 1919 001c 08000000 		.4byte	.LFE263
 1920 0020 00000000 		.4byte	.LFB264
 1921 0024 08000000 		.4byte	.LFE264
 1922 0028 00000000 		.4byte	0
 1923 002c 00000000 		.4byte	0
 1924              		.section	.debug_line,"",%progbits
 1925              	.Ldebug_line0:
 1926 0000 20020000 		.section	.debug_str,"MS",%progbits,1
 1926      0200AA01 
 1926      00000201 
 1926      FB0E0D00 
 1926      01010101 
 1927              	.LASF51:
 1928 0000 72656164 		.ascii	"ready_list_t\000"
 1928      795F6C69 
 1928      73745F74 
ARM GAS  /tmp/cc5Jh1Tx.s 			page 35


 1928      00
 1929              	.LASF85:
 1930 000d 44494552 		.ascii	"DIER\000"
 1930      00
 1931              	.LASF99:
 1932 0012 77747472 		.ascii	"wttrp\000"
 1932      7000
 1933              	.LASF96:
 1934 0018 7264796D 		.ascii	"rdymsg\000"
 1934      736700
 1935              	.LASF17:
 1936 001f 75696E74 		.ascii	"uint64_t\000"
 1936      36345F74 
 1936      00
 1937              	.LASF7:
 1938 0028 5F5F7569 		.ascii	"__uint8_t\000"
 1938      6E74385F 
 1938      7400
 1939              	.LASF83:
 1940 0032 706F7274 		.ascii	"port_intctx\000"
 1940      5F696E74 
 1940      63747800 
 1941              	.LASF70:
 1942 003e 73797374 		.ascii	"system_debug_t\000"
 1942      656D5F64 
 1942      65627567 
 1942      5F7400
 1943              	.LASF13:
 1944 004d 6C6F6E67 		.ascii	"long long unsigned int\000"
 1944      206C6F6E 
 1944      6720756E 
 1944      7369676E 
 1944      65642069 
 1945              	.LASF97:
 1946 0064 65786974 		.ascii	"exitcode\000"
 1946      636F6465 
 1946      00
 1947              	.LASF77:
 1948 006d 6D61696E 		.ascii	"mainthread\000"
 1948      74687265 
 1948      616400
 1949              	.LASF67:
 1950 0078 76697274 		.ascii	"virtual_timers_list_t\000"
 1950      75616C5F 
 1950      74696D65 
 1950      72735F6C 
 1950      6973745F 
 1951              	.LASF122:
 1952 008e 49544D5F 		.ascii	"ITM_RxBuffer\000"
 1952      52784275 
 1952      66666572 
 1952      00
 1953              	.LASF129:
 1954 009b 73745F6C 		.ascii	"st_lld_init\000"
 1954      6C645F69 
 1954      6E697400 
 1955              	.LASF89:
ARM GAS  /tmp/cc5Jh1Tx.s 			page 36


 1956 00a7 42445452 		.ascii	"BDTR\000"
 1956      00
 1957              	.LASF50:
 1958 00ac 63685F74 		.ascii	"ch_threads_queue\000"
 1958      68726561 
 1958      64735F71 
 1958      75657565 
 1958      00
 1959              	.LASF30:
 1960 00bd 705F7072 		.ascii	"p_prio\000"
 1960      696F00
 1961              	.LASF86:
 1962 00c4 43434D52 		.ascii	"CCMR1\000"
 1962      3100
 1963              	.LASF87:
 1964 00ca 43434D52 		.ascii	"CCMR2\000"
 1964      3200
 1965              	.LASF91:
 1966 00d0 43434D52 		.ascii	"CCMR3\000"
 1966      3300
 1967              	.LASF3:
 1968 00d6 7369676E 		.ascii	"signed char\000"
 1968      65642063 
 1968      68617200 
 1969              	.LASF107:
 1970 00e2 6D5F7175 		.ascii	"m_queue\000"
 1970      65756500 
 1971              	.LASF76:
 1972 00ea 76746C69 		.ascii	"vtlist\000"
 1972      737400
 1973              	.LASF74:
 1974 00f1 63685F73 		.ascii	"ch_system\000"
 1974      79737465 
 1974      6D00
 1975              	.LASF9:
 1976 00fb 6C6F6E67 		.ascii	"long int\000"
 1976      20696E74 
 1976      00
 1977              	.LASF19:
 1978 0104 746D6F64 		.ascii	"tmode_t\000"
 1978      655F7400 
 1979              	.LASF20:
 1980 010c 74737461 		.ascii	"tstate_t\000"
 1980      74655F74 
 1980      00
 1981              	.LASF32:
 1982 0115 705F6E65 		.ascii	"p_newer\000"
 1982      77657200 
 1983              	.LASF104:
 1984 011d 735F7175 		.ascii	"s_queue\000"
 1984      65756500 
 1985              	.LASF6:
 1986 0125 73686F72 		.ascii	"short unsigned int\000"
 1986      7420756E 
 1986      7369676E 
 1986      65642069 
 1986      6E7400
ARM GAS  /tmp/cc5Jh1Tx.s 			page 37


 1987              	.LASF56:
 1988 0138 725F6E65 		.ascii	"r_newer\000"
 1988      77657200 
 1989              	.LASF44:
 1990 0140 705F6D70 		.ascii	"p_mpool\000"
 1990      6F6F6C00 
 1991              	.LASF80:
 1992 0148 72656761 		.ascii	"regarm_t\000"
 1992      726D5F74 
 1992      00
 1993              	.LASF63:
 1994 0151 76745F70 		.ascii	"vt_prev\000"
 1994      72657600 
 1995              	.LASF1:
 1996 0159 6C6F6E67 		.ascii	"long long int\000"
 1996      206C6F6E 
 1996      6720696E 
 1996      7400
 1997              	.LASF78:
 1998 0167 69646C65 		.ascii	"idle_thread_wa\000"
 1998      5F746872 
 1998      6561645F 
 1998      776100
 1999              	.LASF25:
 2000 0176 636E745F 		.ascii	"cnt_t\000"
 2000      7400
 2001              	.LASF0:
 2002 017c 756E7369 		.ascii	"unsigned int\000"
 2002      676E6564 
 2002      20696E74 
 2002      00
 2003              	.LASF62:
 2004 0189 76745F6E 		.ascii	"vt_next\000"
 2004      65787400 
 2005              	.LASF100:
 2006 0191 77747365 		.ascii	"wtsemp\000"
 2006      6D7000
 2007              	.LASF64:
 2008 0198 76745F64 		.ascii	"vt_delta\000"
 2008      656C7461 
 2008      00
 2009              	.LASF39:
 2010 01a1 705F6D73 		.ascii	"p_msgqueue\000"
 2010      67717565 
 2010      756500
 2011              	.LASF105:
 2012 01ac 735F636E 		.ascii	"s_cnt\000"
 2012      7400
 2013              	.LASF84:
 2014 01b2 534D4352 		.ascii	"SMCR\000"
 2014      00
 2015              	.LASF120:
 2016 01b7 61627374 		.ascii	"abstime\000"
 2016      696D6500 
 2017              	.LASF47:
 2018 01bf 63685F74 		.ascii	"ch_thread\000"
 2018      68726561 
ARM GAS  /tmp/cc5Jh1Tx.s 			page 38


 2018      6400
 2019              	.LASF23:
 2020 01c9 6D73675F 		.ascii	"msg_t\000"
 2020      7400
 2021              	.LASF73:
 2022 01cf 63685F73 		.ascii	"ch_system_t\000"
 2022      79737465 
 2022      6D5F7400 
 2023              	.LASF93:
 2024 01db 73746D33 		.ascii	"stm32_tim_t\000"
 2024      325F7469 
 2024      6D5F7400 
 2025              	.LASF52:
 2026 01e7 63685F72 		.ascii	"ch_ready_list\000"
 2026      65616479 
 2026      5F6C6973 
 2026      7400
 2027              	.LASF24:
 2028 01f5 6576656E 		.ascii	"eventmask_t\000"
 2028      746D6173 
 2028      6B5F7400 
 2029              	.LASF8:
 2030 0201 5F5F696E 		.ascii	"__int32_t\000"
 2030      7433325F 
 2030      7400
 2031              	.LASF113:
 2032 020b 73745F6C 		.ascii	"st_lld_start_alarm\000"
 2032      6C645F73 
 2032      74617274 
 2032      5F616C61 
 2032      726D00
 2033              	.LASF81:
 2034 021e 73746B61 		.ascii	"stkalign_t\000"
 2034      6C69676E 
 2034      5F7400
 2035              	.LASF123:
 2036 0229 474E5520 		.ascii	"GNU C11 5.2.0 -mcpu=cortex-m4 -mfloat-abi=hard -mfp"
 2036      43313120 
 2036      352E322E 
 2036      30202D6D 
 2036      6370753D 
 2037 025c 753D6670 		.ascii	"u=fpv4-sp-d16 -mno-thumb-interwork -mthumb -ggdb -O"
 2037      76342D73 
 2037      702D6431 
 2037      36202D6D 
 2037      6E6F2D74 
 2038 028f 32202D66 		.ascii	"2 -fomit-frame-pointer -falign-functions=16 -ffunct"
 2038      6F6D6974 
 2038      2D667261 
 2038      6D652D70 
 2038      6F696E74 
 2039 02c2 696F6E2D 		.ascii	"ion-sections -fdata-sections -fno-common -fsingle-p"
 2039      73656374 
 2039      696F6E73 
 2039      202D6664 
 2039      6174612D 
 2040 02f5 72656369 		.ascii	"recision-constant\000"
ARM GAS  /tmp/cc5Jh1Tx.s 			page 39


 2040      73696F6E 
 2040      2D636F6E 
 2040      7374616E 
 2040      7400
 2041              	.LASF38:
 2042 0307 705F7761 		.ascii	"p_waiting\000"
 2042      6974696E 
 2042      6700
 2043              	.LASF79:
 2044 0311 73697A65 		.ascii	"sizetype\000"
 2044      74797065 
 2044      00
 2045              	.LASF45:
 2046 031a 74687265 		.ascii	"thread_reference_t\000"
 2046      61645F72 
 2046      65666572 
 2046      656E6365 
 2046      5F7400
 2047              	.LASF68:
 2048 032d 63685F76 		.ascii	"ch_virtual_timers_list\000"
 2048      69727475 
 2048      616C5F74 
 2048      696D6572 
 2048      735F6C69 
 2049              	.LASF2:
 2050 0344 6C6F6E67 		.ascii	"long double\000"
 2050      20646F75 
 2050      626C6500 
 2051              	.LASF69:
 2052 0350 76745F6C 		.ascii	"vt_lasttime\000"
 2052      61737474 
 2052      696D6500 
 2053              	.LASF33:
 2054 035c 705F6F6C 		.ascii	"p_older\000"
 2054      64657200 
 2055              	.LASF116:
 2056 0364 7374496E 		.ascii	"stInit\000"
 2056      697400
 2057              	.LASF55:
 2058 036b 725F6374 		.ascii	"r_ctx\000"
 2058      7800
 2059              	.LASF95:
 2060 0371 746D5F63 		.ascii	"tm_calibration_t\000"
 2060      616C6962 
 2060      72617469 
 2060      6F6E5F74 
 2060      00
 2061              	.LASF115:
 2062 0382 74696D65 		.ascii	"time\000"
 2062      00
 2063              	.LASF58:
 2064 0387 725F6375 		.ascii	"r_current\000"
 2064      7272656E 
 2064      7400
 2065              	.LASF57:
 2066 0391 725F6F6C 		.ascii	"r_older\000"
 2066      64657200 
ARM GAS  /tmp/cc5Jh1Tx.s 			page 40


 2067              	.LASF12:
 2068 0399 5F5F7569 		.ascii	"__uint64_t\000"
 2068      6E743634 
 2068      5F7400
 2069              	.LASF21:
 2070 03a4 74726566 		.ascii	"trefs_t\000"
 2070      735F7400 
 2071              	.LASF60:
 2072 03ac 76697274 		.ascii	"virtual_timer_t\000"
 2072      75616C5F 
 2072      74696D65 
 2072      725F7400 
 2073              	.LASF29:
 2074 03bc 705F7072 		.ascii	"p_prev\000"
 2074      657600
 2075              	.LASF22:
 2076 03c3 74707269 		.ascii	"tprio_t\000"
 2076      6F5F7400 
 2077              	.LASF71:
 2078 03cb 63685F73 		.ascii	"ch_system_debug\000"
 2078      79737465 
 2078      6D5F6465 
 2078      62756700 
 2079              	.LASF112:
 2080 03db 5F426F6F 		.ascii	"_Bool\000"
 2080      6C00
 2081              	.LASF15:
 2082 03e1 696E7433 		.ascii	"int32_t\000"
 2082      325F7400 
 2083              	.LASF4:
 2084 03e9 756E7369 		.ascii	"unsigned char\000"
 2084      676E6564 
 2084      20636861 
 2084      7200
 2085              	.LASF42:
 2086 03f7 705F6D74 		.ascii	"p_mtxlist\000"
 2086      786C6973 
 2086      7400
 2087              	.LASF5:
 2088 0401 73686F72 		.ascii	"short int\000"
 2088      7420696E 
 2088      7400
 2089              	.LASF35:
 2090 040b 705F7374 		.ascii	"p_state\000"
 2090      61746500 
 2091              	.LASF54:
 2092 0413 725F7072 		.ascii	"r_prio\000"
 2092      696F00
 2093              	.LASF102:
 2094 041a 65776D61 		.ascii	"ewmask\000"
 2094      736B00
 2095              	.LASF28:
 2096 0421 705F6E65 		.ascii	"p_next\000"
 2096      787400
 2097              	.LASF14:
 2098 0428 75696E74 		.ascii	"uint8_t\000"
 2098      385F7400 
ARM GAS  /tmp/cc5Jh1Tx.s 			page 41


 2099              	.LASF121:
 2100 0430 5F5F6675 		.ascii	"__func__\000"
 2100      6E635F5F 
 2100      00
 2101              	.LASF61:
 2102 0439 63685F76 		.ascii	"ch_virtual_timer\000"
 2102      69727475 
 2102      616C5F74 
 2102      696D6572 
 2102      00
 2103              	.LASF127:
 2104 044a 73745F6C 		.ascii	"st_lld_get_alarm\000"
 2104      6C645F67 
 2104      65745F61 
 2104      6C61726D 
 2104      00
 2105              	.LASF103:
 2106 045b 63685F73 		.ascii	"ch_semaphore\000"
 2106      656D6170 
 2106      686F7265 
 2106      00
 2107              	.LASF92:
 2108 0468 43435852 		.ascii	"CCXR\000"
 2108      00
 2109              	.LASF41:
 2110 046d 705F6570 		.ascii	"p_epending\000"
 2110      656E6469 
 2110      6E6700
 2111              	.LASF16:
 2112 0478 75696E74 		.ascii	"uint32_t\000"
 2112      33325F74 
 2112      00
 2113              	.LASF101:
 2114 0481 77746D74 		.ascii	"wtmtxp\000"
 2114      787000
 2115              	.LASF53:
 2116 0488 725F7175 		.ascii	"r_queue\000"
 2116      65756500 
 2117              	.LASF48:
 2118 0490 63685F74 		.ascii	"ch_threads_list\000"
 2118      68726561 
 2118      64735F6C 
 2118      69737400 
 2119              	.LASF11:
 2120 04a0 6C6F6E67 		.ascii	"long unsigned int\000"
 2120      20756E73 
 2120      69676E65 
 2120      6420696E 
 2120      7400
 2121              	.LASF118:
 2122 04b2 73745374 		.ascii	"stStopAlarm\000"
 2122      6F70416C 
 2122      61726D00 
 2123              	.LASF110:
 2124 04be 63686172 		.ascii	"char\000"
 2124      00
 2125              	.LASF90:
ARM GAS  /tmp/cc5Jh1Tx.s 			page 42


 2126 04c3 444D4152 		.ascii	"DMAR\000"
 2126      00
 2127              	.LASF27:
 2128 04c8 74687265 		.ascii	"thread_t\000"
 2128      61645F74 
 2128      00
 2129              	.LASF88:
 2130 04d1 43434552 		.ascii	"CCER\000"
 2130      00
 2131              	.LASF109:
 2132 04d6 6D5F6E65 		.ascii	"m_next\000"
 2132      787400
 2133              	.LASF26:
 2134 04dd 73797374 		.ascii	"systime_t\000"
 2134      696D655F 
 2134      7400
 2135              	.LASF43:
 2136 04e7 705F7265 		.ascii	"p_realprio\000"
 2136      616C7072 
 2136      696F00
 2137              	.LASF59:
 2138 04f2 76746675 		.ascii	"vtfunc_t\000"
 2138      6E635F74 
 2138      00
 2139              	.LASF10:
 2140 04fb 5F5F7569 		.ascii	"__uint32_t\000"
 2140      6E743332 
 2140      5F7400
 2141              	.LASF72:
 2142 0506 70616E69 		.ascii	"panic_msg\000"
 2142      635F6D73 
 2142      6700
 2143              	.LASF94:
 2144 0510 6F666673 		.ascii	"offset\000"
 2144      657400
 2145              	.LASF117:
 2146 0517 73745374 		.ascii	"stStartAlarm\000"
 2146      61727441 
 2146      6C61726D 
 2146      00
 2147              	.LASF82:
 2148 0524 636F6E74 		.ascii	"context\000"
 2148      65787400 
 2149              	.LASF40:
 2150 052c 705F6D73 		.ascii	"p_msg\000"
 2150      6700
 2151              	.LASF18:
 2152 0532 7274636E 		.ascii	"rtcnt_t\000"
 2152      745F7400 
 2153              	.LASF126:
 2154 053a 73745F6C 		.ascii	"st_lld_stop_alarm\000"
 2154      6C645F73 
 2154      746F705F 
 2154      616C6172 
 2154      6D00
 2155              	.LASF66:
 2156 054c 76745F70 		.ascii	"vt_par\000"
ARM GAS  /tmp/cc5Jh1Tx.s 			page 43


 2156      617200
 2157              	.LASF124:
 2158 0553 2E2E2F2E 		.ascii	"../../os/hal/src/st.c\000"
 2158      2E2F6F73 
 2158      2F68616C 
 2158      2F737263 
 2158      2F73742E 
 2159              	.LASF49:
 2160 0569 74687265 		.ascii	"threads_queue_t\000"
 2160      6164735F 
 2160      71756575 
 2160      655F7400 
 2161              	.LASF106:
 2162 0579 63685F6D 		.ascii	"ch_mutex\000"
 2162      75746578 
 2162      00
 2163              	.LASF37:
 2164 0582 705F7265 		.ascii	"p_refs\000"
 2164      667300
 2165              	.LASF75:
 2166 0589 726C6973 		.ascii	"rlist\000"
 2166      7400
 2167              	.LASF119:
 2168 058f 73745365 		.ascii	"stSetAlarm\000"
 2168      74416C61 
 2168      726D00
 2169              	.LASF128:
 2170 059a 73744765 		.ascii	"stGetAlarm\000"
 2170      74416C61 
 2170      726D00
 2171              	.LASF98:
 2172 05a5 77746F62 		.ascii	"wtobjp\000"
 2172      6A7000
 2173              	.LASF34:
 2174 05ac 705F6E61 		.ascii	"p_name\000"
 2174      6D6500
 2175              	.LASF46:
 2176 05b3 74687265 		.ascii	"threads_list_t\000"
 2176      6164735F 
 2176      6C697374 
 2176      5F7400
 2177              	.LASF125:
 2178 05c2 2F686F6D 		.ascii	"/home/sssilvar/Documents/embebidos/ChibiOS/iflab/pr"
 2178      652F7373 
 2178      73696C76 
 2178      61722F44 
 2178      6F63756D 
 2179 05f5 6F6A6563 		.ascii	"ojects/LCD\000"
 2179      74732F4C 
 2179      434400
 2180              	.LASF36:
 2181 0600 705F666C 		.ascii	"p_flags\000"
 2181      61677300 
 2182              	.LASF114:
 2183 0608 73745F6C 		.ascii	"st_lld_set_alarm\000"
 2183      6C645F73 
 2183      65745F61 
ARM GAS  /tmp/cc5Jh1Tx.s 			page 44


 2183      6C61726D 
 2183      00
 2184              	.LASF111:
 2185 0619 6D757465 		.ascii	"mutex_t\000"
 2185      785F7400 
 2186              	.LASF108:
 2187 0621 6D5F6F77 		.ascii	"m_owner\000"
 2187      6E657200 
 2188              	.LASF31:
 2189 0629 705F6374 		.ascii	"p_ctx\000"
 2189      7800
 2190              	.LASF65:
 2191 062f 76745F66 		.ascii	"vt_func\000"
 2191      756E6300 
 2192              		.ident	"GCC: (Fedora 5.2.0-3.fc22) 5.2.0"
ARM GAS  /tmp/cc5Jh1Tx.s 			page 45


DEFINED SYMBOLS
                            *ABS*:0000000000000000 st.c
     /tmp/cc5Jh1Tx.s:22     .text.stInit:0000000000000000 $t
     /tmp/cc5Jh1Tx.s:28     .text.stInit:0000000000000000 stInit
     /tmp/cc5Jh1Tx.s:43     .text.stStartAlarm:0000000000000000 $t
     /tmp/cc5Jh1Tx.s:49     .text.stStartAlarm:0000000000000000 stStartAlarm
     /tmp/cc5Jh1Tx.s:80     .text.stStopAlarm:0000000000000000 $t
     /tmp/cc5Jh1Tx.s:86     .text.stStopAlarm:0000000000000000 stStopAlarm
     /tmp/cc5Jh1Tx.s:106    .text.stSetAlarm:0000000000000000 $t
     /tmp/cc5Jh1Tx.s:112    .text.stSetAlarm:0000000000000000 stSetAlarm
     /tmp/cc5Jh1Tx.s:133    .text.stGetAlarm:0000000000000000 $t
     /tmp/cc5Jh1Tx.s:139    .text.stGetAlarm:0000000000000000 stGetAlarm
                     .debug_frame:0000000000000010 $d

UNDEFINED SYMBOLS
st_lld_init
