ARM GAS  /tmp/cc5Jh1Tx.s 			page 1


   1              		.syntax unified
   2              		.cpu cortex-m4
   3              		.eabi_attribute 27, 1
   4              		.eabi_attribute 28, 1
   5              		.fpu fpv4-sp-d16
   6              		.eabi_attribute 20, 1
   7              		.eabi_attribute 21, 1
   8              		.eabi_attribute 23, 3
   9              		.eabi_attribute 24, 1
  10              		.eabi_attribute 25, 1
  11              		.eabi_attribute 26, 1
  12              		.eabi_attribute 30, 2
  13              		.eabi_attribute 34, 1
  14              		.eabi_attribute 18, 4
  15              		.thumb
  16              		.syntax unified
  17              		.file	"st.c"
  18              		.text
  19              	.Ltext0:
  20              		.cfi_sections	.debug_frame
  21              		.section	.text.stInit,"ax",%progbits
  22              		.align	2
  23              		.p2align 4,,15
  24              		.global	stInit
  25              		.thumb
  26              		.thumb_func
  27              		.type	stInit, %function
  28              	stInit:
  29              	.LFB260:
  30              		.file 1 "../../os/hal/src/st.c"
  31              		.loc 1 60 0
  32              		.cfi_startproc
  33              		@ args = 0, pretend = 0, frame = 0
  34              		@ frame_needed = 0, uses_anonymous_args = 0
  35              		@ link register save eliminated.
  36              		.loc 1 62 0
  37 0000 FFF7FEBF 		b	st_lld_init
  38              	.LVL0:
  39              		.cfi_endproc
  40              	.LFE260:
  41              		.size	stInit, .-stInit
  42 0004 AFF30080 		.section	.text.stStartAlarm,"ax",%progbits
  42      AFF30080 
  42      AFF30080 
  43              		.align	2
  44              		.p2align 4,,15
  45              		.global	stStartAlarm
  46              		.thumb
  47              		.thumb_func
  48              		.type	stStartAlarm, %function
  49              	stStartAlarm:
  50              	.LFB261:
  51              		.loc 1 77 0
  52              		.cfi_startproc
  53              		@ args = 0, pretend = 0, frame = 0
  54              		@ frame_needed = 0, uses_anonymous_args = 0
  55              		@ link register save eliminated.
ARM GAS  /tmp/cc5Jh1Tx.s 			page 2


  56              	.LVL1:
  57              	.LBB10:
  58              	.LBB11:
  59              		.file 2 "../../os/hal/ports/STM32/LLD/TIMv1/st_lld.h"
  60              		.loc 2 143 0
  61 0000 4FF08043 		mov	r3, #1073741824
  62              	.LVL2:
  63              		.loc 2 144 0
  64 0004 0021     		movs	r1, #0
  65              		.loc 2 145 0
  66 0006 0222     		movs	r2, #2
  67              		.loc 2 143 0
  68 0008 5863     		str	r0, [r3, #52]
  69              		.loc 2 144 0
  70 000a 1961     		str	r1, [r3, #16]
  71              		.loc 2 145 0
  72 000c DA60     		str	r2, [r3, #12]
  73 000e 7047     		bx	lr
  74              	.LBE11:
  75              	.LBE10:
  76              		.cfi_endproc
  77              	.LFE261:
  78              		.size	stStartAlarm, .-stStartAlarm
  79              		.section	.text.stStopAlarm,"ax",%progbits
  80              		.align	2
  81              		.p2align 4,,15
  82              		.global	stStopAlarm
  83              		.thumb
  84              		.thumb_func
  85              		.type	stStopAlarm, %function
  86              	stStopAlarm:
  87              	.LFB262:
  88              		.loc 1 91 0
  89              		.cfi_startproc
  90              		@ args = 0, pretend = 0, frame = 0
  91              		@ frame_needed = 0, uses_anonymous_args = 0
  92              		@ link register save eliminated.
  93              	.LBB12:
  94              	.LBB13:
  95              		.loc 2 155 0
  96 0000 4FF08043 		mov	r3, #1073741824
  97 0004 0022     		movs	r2, #0
  98 0006 DA60     		str	r2, [r3, #12]
  99 0008 7047     		bx	lr
 100              	.LBE13:
 101              	.LBE12:
 102              		.cfi_endproc
 103              	.LFE262:
 104              		.size	stStopAlarm, .-stStopAlarm
 105              		.section	.text.stSetAlarm,"ax",%progbits
 106              		.align	2
 107              		.p2align 4,,15
 108              		.global	stSetAlarm
 109              		.thumb
 110              		.thumb_func
 111              		.type	stSetAlarm, %function
 112              	stSetAlarm:
ARM GAS  /tmp/cc5Jh1Tx.s 			page 3


 113              	.LFB263:
 114              		.loc 1 105 0
 115              		.cfi_startproc
 116              		@ args = 0, pretend = 0, frame = 0
 117              		@ frame_needed = 0, uses_anonymous_args = 0
 118              		@ link register save eliminated.
 119              	.LVL3:
 120              	.LBB14:
 121              	.LBB15:
 122              		.loc 2 167 0
 123 0000 4FF08043 		mov	r3, #1073741824
 124              	.LVL4:
 125 0004 5863     		str	r0, [r3, #52]
 126 0006 7047     		bx	lr
 127              	.LBE15:
 128              	.LBE14:
 129              		.cfi_endproc
 130              	.LFE263:
 131              		.size	stSetAlarm, .-stSetAlarm
 132 0008 AFF30080 		.section	.text.stGetAlarm,"ax",%progbits
 132      AFF30080 
 133              		.align	2
 134              		.p2align 4,,15
 135              		.global	stGetAlarm
 136              		.thumb
 137              		.thumb_func
 138              		.type	stGetAlarm, %function
 139              	stGetAlarm:
 140              	.LFB264:
 141              		.loc 1 121 0
 142              		.cfi_startproc
 143              		@ args = 0, pretend = 0, frame = 0
 144              		@ frame_needed = 0, uses_anonymous_args = 0
 145              		@ link register save eliminated.
 146              	.LBB16:
 147              	.LBB17:
 148              		.loc 2 179 0
 149 0000 4FF08043 		mov	r3, #1073741824
 150 0004 586B     		ldr	r0, [r3, #52]
 151              	.LBE17:
 152              	.LBE16:
 153              		.loc 1 126 0
 154 0006 7047     		bx	lr
 155              		.cfi_endproc
 156              	.LFE264:
 157              		.size	stGetAlarm, .-stGetAlarm
 158 0008 AFF30080 		.text
 158      AFF30080 
 159              	.Letext0:
 160              		.file 3 "/usr/arm-none-eabi/include/machine/_default_types.h"
 161              		.file 4 "/usr/arm-none-eabi/include/stdint.h"
 162              		.file 5 "../../os/rt/ports/ARMCMx/compilers/GCC/chtypes.h"
 163              		.file 6 "../../os/rt/include/chsystypes.h"
 164              		.file 7 "../../os/rt/include/chschd.h"
 165              		.file 8 "../../os/rt/ports/ARMCMx/chcore.h"
 166              		.file 9 "../../os/rt/ports/ARMCMx/chcore_v7m.h"
 167              		.file 10 "../../os/hal/ports/STM32/LLD/TIMv1/stm32_tim.h"
ARM GAS  /tmp/cc5Jh1Tx.s 			page 4


 168              		.file 11 "../../os/rt/include/chtm.h"
 169              		.file 12 "../../os/rt/include/chsem.h"
 170              		.file 13 "../../os/rt/include/chmtx.h"
 171              		.file 14 "../../os/ext/CMSIS/include/core_cm4.h"