ARM GAS  /tmp/cc2znu0b.s 			page 1


   1              		.syntax unified
   2              		.cpu cortex-m4
   3              		.eabi_attribute 27, 1
   4              		.eabi_attribute 28, 1
   5              		.fpu fpv4-sp-d16
   6              		.eabi_attribute 20, 1
   7              		.eabi_attribute 21, 1
   8              		.eabi_attribute 23, 3
   9              		.eabi_attribute 24, 1
  10              		.eabi_attribute 25, 1
  11              		.eabi_attribute 26, 1
  12              		.eabi_attribute 30, 2
  13              		.eabi_attribute 34, 1
  14              		.eabi_attribute 18, 4
  15              		.thumb
  16              		.syntax unified
  17              		.file	"chcore_v7m.c"
  18              		.text
  19              	.Ltext0:
  20              		.cfi_sections	.debug_frame
  21              		.section	.text.SVC_Handler,"ax",%progbits
  22              		.align	2
  23              		.p2align 4,,15
  24              		.global	SVC_Handler
  25              		.thumb
  26              		.thumb_func
  27              		.type	SVC_Handler, %function
  28              	SVC_Handler:
  29              	.LFB229:
  30              		.file 1 "../../os/rt/ports/ARMCMx/chcore_v7m.c"
  31              		.loc 1 62 0
  32              		.cfi_startproc
  33              		@ args = 0, pretend = 0, frame = 0
  34              		@ frame_needed = 0, uses_anonymous_args = 0
  35              		@ link register save eliminated.
  36              		.loc 1 68 0
  37 0000 064A     		ldr	r2, .L2
  38 0002 5368     		ldr	r3, [r2, #4]
  39 0004 23F00103 		bic	r3, r3, #1
  40 0008 5360     		str	r3, [r2, #4]
  41              	.LBB51:
  42              	.LBB52:
  43              		.file 2 "../../os/ext/CMSIS/include/core_cmFunc.h"
  44              		.loc 2 428 0
  45              		.syntax unified
  46              	@ 428 "../../os/ext/CMSIS/include/core_cmFunc.h" 1
  47 000a EFF30983 		MRS r3, psp
  48              	
  49              	@ 0 "" 2
  50              	.LVL0:
  51              		.thumb
  52              		.syntax unified
  53              	.LBE52:
  54              	.LBE51:
  55              	.LBB53:
  56              	.LBB54:
  57              		.loc 2 441 0
ARM GAS  /tmp/cc2znu0b.s 			page 2


  58 000e 6833     		adds	r3, r3, #104
  59              	.LVL1:
  60              		.syntax unified
  61              	@ 441 "../../os/ext/CMSIS/include/core_cmFunc.h" 1
  62 0010 83F30988 		MSR psp, r3
  63              	
  64              	@ 0 "" 2
  65              	.LVL2:
  66              		.thumb
  67              		.syntax unified
  68              	.LBE54:
  69              	.LBE53:
  70              	.LBB55:
  71              	.LBB56:
  72              	.LBB57:
  73              	.LBB58:
  74              		.loc 2 546 0
  75 0014 0023     		movs	r3, #0
  76              	.LVL3:
  77              		.syntax unified
  78              	@ 546 "../../os/ext/CMSIS/include/core_cmFunc.h" 1
  79 0016 83F31188 		MSR basepri, r3
  80              	@ 0 "" 2
  81              		.thumb
  82              		.syntax unified
  83 001a 7047     		bx	lr
  84              	.L3:
  85              		.align	2
  86              	.L2:
  87 001c 30EF00E0 		.word	-536809680
  88              	.LBE58:
  89              	.LBE57:
  90              	.LBE56:
  91              	.LBE55:
  92              		.cfi_endproc
  93              	.LFE229:
  94              		.size	SVC_Handler, .-SVC_Handler
  95              		.section	.text._port_irq_epilogue,"ax",%progbits
  96              		.align	2
  97              		.p2align 4,,15
  98              		.global	_port_irq_epilogue
  99              		.thumb
 100              		.thumb_func
 101              		.type	_port_irq_epilogue, %function
 102              	_port_irq_epilogue:
 103              	.LFB230:
 104              		.loc 1 122 0
 105              		.cfi_startproc
 106              		@ args = 0, pretend = 0, frame = 0
 107              		@ frame_needed = 0, uses_anonymous_args = 0
 108              	.LVL4:
 109              	.LBB59:
 110              	.LBB60:
 111              	.LBB61:
 112              	.LBB62:
 113              		.loc 2 546 0
 114 0000 2023     		movs	r3, #32
ARM GAS  /tmp/cc2znu0b.s 			page 3


 115              		.syntax unified
 116              	@ 546 "../../os/ext/CMSIS/include/core_cmFunc.h" 1
 117 0002 83F31188 		MSR basepri, r3
 118              	@ 0 "" 2
 119              		.thumb
 120              		.syntax unified
 121              	.LBE62:
 122              	.LBE61:
 123              	.LBE60:
 124              	.LBE59:
 125              		.loc 1 125 0
 126 0006 124B     		ldr	r3, .L12
 127 0008 5B68     		ldr	r3, [r3, #4]
 128 000a 13F40063 		ands	r3, r3, #2048
 129 000e 02D1     		bne	.L11
 130              	.LVL5:
 131              	.LBB63:
 132              	.LBB64:
 133              	.LBB65:
 134              	.LBB66:
 135              		.loc 2 546 0
 136              		.syntax unified
 137              	@ 546 "../../os/ext/CMSIS/include/core_cmFunc.h" 1
 138 0010 83F31188 		MSR basepri, r3
 139              	@ 0 "" 2
 140              		.thumb
 141              		.syntax unified
 142 0014 7047     		bx	lr
 143              	.LVL6:
 144              	.L11:
 145              	.LBE66:
 146              	.LBE65:
 147              	.LBE64:
 148              	.LBE63:
 149              		.loc 1 122 0
 150 0016 10B5     		push	{r4, lr}
 151              		.cfi_def_cfa_offset 8
 152              		.cfi_offset 4, -8
 153              		.cfi_offset 14, -4
 154              	.LBB67:
 155              	.LBB68:
 156              	.LBB69:
 157              		.loc 2 593 0
 158              		.loc 2 594 0
 159              		.syntax unified
 160              	@ 594 "../../os/ext/CMSIS/include/core_cmFunc.h" 1
 161 0018 F1EE103A 		VMRS r3, fpscr
 162              	@ 0 "" 2
 163              	.LVL7:
 164              		.loc 2 595 0
 165              		.thumb
 166              		.syntax unified
 167              	.LBE69:
 168              	.LBE68:
 169              	.LBB70:
 170              	.LBB71:
 171              		.loc 2 428 0
ARM GAS  /tmp/cc2znu0b.s 			page 4


 172              		.syntax unified
 173              	@ 428 "../../os/ext/CMSIS/include/core_cmFunc.h" 1
 174 001c EFF30984 		MRS r4, psp
 175              	
 176              	@ 0 "" 2
 177              	.LVL8:
 178              		.thumb
 179              		.syntax unified
 180              	.LBE71:
 181              	.LBE70:
 182              		.loc 1 143 0
 183 0020 0C4B     		ldr	r3, .L12+4
 184              		.loc 1 141 0
 185 0022 4FF08072 		mov	r2, #16777216
 186              		.loc 1 143 0
 187 0026 DB68     		ldr	r3, [r3, #12]
 188 0028 44F8083C 		str	r3, [r4, #-8]
 189              	.LVL9:
 190              		.loc 1 141 0
 191 002c 44F84C2C 		str	r2, [r4, #-76]
 192              	.LBB72:
 193              	.LBB73:
 194              		.loc 2 441 0
 195 0030 A4F16803 		sub	r3, r4, #104
 196              	.LVL10:
 197              		.syntax unified
 198              	@ 441 "../../os/ext/CMSIS/include/core_cmFunc.h" 1
 199 0034 83F30988 		MSR psp, r3
 200              	
 201              	@ 0 "" 2
 202              		.thumb
 203              		.syntax unified
 204              	.LBE73:
 205              	.LBE72:
 206              		.loc 1 151 0
 207 0038 FFF7FEFF 		bl	chSchIsPreemptionRequired
 208              	.LVL11:
 209 003c 18B1     		cbz	r0, .L6
 210              		.loc 1 153 0
 211 003e 064B     		ldr	r3, .L12+8
 212 0040 44F8503C 		str	r3, [r4, #-80]
 213 0044 10BD     		pop	{r4, pc}
 214              	.LVL12:
 215              	.L6:
 216              		.loc 1 158 0
 217 0046 054B     		ldr	r3, .L12+12
 218 0048 44F8503C 		str	r3, [r4, #-80]
 219 004c 10BD     		pop	{r4, pc}
 220              	.LVL13:
 221              	.L13:
 222 004e 00BF     		.align	2
 223              	.L12:
 224 0050 00ED00E0 		.word	-536810240
 225 0054 30EF00E0 		.word	-536809680
 226 0058 00000000 		.word	_port_switch_from_isr
 227 005c 00000000 		.word	_port_exit_from_isr
 228              	.LBE67:
ARM GAS  /tmp/cc2znu0b.s 			page 5


 229              		.cfi_endproc
 230              	.LFE230:
 231              		.size	_port_irq_epilogue, .-_port_irq_epilogue
 232              		.text
 233              	.Letext0:
 234              		.file 3 "/usr/arm-none-eabi/include/machine/_default_types.h"
 235              		.file 4 "/usr/arm-none-eabi/include/stdint.h"
 236              		.file 5 "../../os/rt/ports/ARMCMx/compilers/GCC/chtypes.h"
 237              		.file 6 "../../os/rt/include/chsystypes.h"
 238              		.file 7 "../../os/rt/include/chschd.h"
 239              		.file 8 "../../os/ext/CMSIS/include/core_cm4.h"
 240              		.file 9 "../../os/rt/ports/ARMCMx/chcore.h"
 241              		.file 10 "../../os/rt/ports/ARMCMx/chcore_v7m.h"
 242              		.file 11 "../../os/rt/include/chtm.h"
 243              		.file 12 "../../os/rt/include/chsem.h"
 244              		.file 13 "../../os/rt/include/chmtx.h"
 245              		.section	.debug_info,"",%progbits
 246              	.Ldebug_info0:
 247 0000 9B0C0000 		.4byte	0xc9b
 248 0004 0400     		.2byte	0x4
 249 0006 00000000 		.4byte	.Ldebug_abbrev0
 250 000a 04       		.byte	0x4
 251 000b 01       		.uleb128 0x1
 252 000c BC020000 		.4byte	.LASF144
 253 0010 0C       		.byte	0xc
 254 0011 01020000 		.4byte	.LASF145
 255 0015 0D000000 		.4byte	.LASF146
 256 0019 00000000 		.4byte	.Ldebug_ranges0+0
 257 001d 00000000 		.4byte	0
 258 0021 00000000 		.4byte	.Ldebug_line0
 259 0025 02       		.uleb128 0x2
 260 0026 04       		.byte	0x4
 261 0027 05       		.byte	0x5
 262 0028 696E7400 		.ascii	"int\000"
 263 002c 03       		.uleb128 0x3
 264 002d 04       		.byte	0x4
 265 002e 07       		.byte	0x7
 266 002f DB010000 		.4byte	.LASF0
 267 0033 03       		.uleb128 0x3
 268 0034 08       		.byte	0x8
 269 0035 05       		.byte	0x5
 270 0036 A9010000 		.4byte	.LASF1
 271 003a 03       		.uleb128 0x3
 272 003b 08       		.byte	0x8
 273 003c 04       		.byte	0x4
 274 003d E6030000 		.4byte	.LASF2
 275 0041 03       		.uleb128 0x3
 276 0042 01       		.byte	0x1
 277 0043 06       		.byte	0x6
 278 0044 6C000000 		.4byte	.LASF3
 279 0048 04       		.uleb128 0x4
 280 0049 78000000 		.4byte	.LASF7
 281 004d 03       		.byte	0x3
 282 004e 1D       		.byte	0x1d
 283 004f 53000000 		.4byte	0x53
 284 0053 03       		.uleb128 0x3
 285 0054 01       		.byte	0x1
ARM GAS  /tmp/cc2znu0b.s 			page 6


 286 0055 08       		.byte	0x8
 287 0056 B1040000 		.4byte	.LASF4
 288 005a 03       		.uleb128 0x3
 289 005b 02       		.byte	0x2
 290 005c 05       		.byte	0x5
 291 005d DC040000 		.4byte	.LASF5
 292 0061 03       		.uleb128 0x3
 293 0062 02       		.byte	0x2
 294 0063 07       		.byte	0x7
 295 0064 16050000 		.4byte	.LASF6
 296 0068 04       		.uleb128 0x4
 297 0069 A7020000 		.4byte	.LASF8
 298 006d 03       		.byte	0x3
 299 006e 3F       		.byte	0x3f
 300 006f 73000000 		.4byte	0x73
 301 0073 03       		.uleb128 0x3
 302 0074 04       		.byte	0x4
 303 0075 05       		.byte	0x5
 304 0076 38010000 		.4byte	.LASF9
 305 007a 04       		.uleb128 0x4
 306 007b F3050000 		.4byte	.LASF10
 307 007f 03       		.byte	0x3
 308 0080 41       		.byte	0x41
 309 0081 85000000 		.4byte	0x85
 310 0085 03       		.uleb128 0x3
 311 0086 04       		.byte	0x4
 312 0087 07       		.byte	0x7
 313 0088 99050000 		.4byte	.LASF11
 314 008c 04       		.uleb128 0x4
 315 008d 40040000 		.4byte	.LASF12
 316 0091 03       		.byte	0x3
 317 0092 5B       		.byte	0x5b
 318 0093 97000000 		.4byte	0x97
 319 0097 03       		.uleb128 0x3
 320 0098 08       		.byte	0x8
 321 0099 07       		.byte	0x7
 322 009a F7000000 		.4byte	.LASF13
 323 009e 04       		.uleb128 0x4
 324 009f 88060000 		.4byte	.LASF14
 325 00a3 04       		.byte	0x4
 326 00a4 15       		.byte	0x15
 327 00a5 48000000 		.4byte	0x48
 328 00a9 04       		.uleb128 0x4
 329 00aa A9040000 		.4byte	.LASF15
 330 00ae 04       		.byte	0x4
 331 00af 2C       		.byte	0x2c
 332 00b0 68000000 		.4byte	0x68
 333 00b4 04       		.uleb128 0x4
 334 00b5 71050000 		.4byte	.LASF16
 335 00b9 04       		.byte	0x4
 336 00ba 2D       		.byte	0x2d
 337 00bb 7A000000 		.4byte	0x7a
 338 00bf 04       		.uleb128 0x4
 339 00c0 63000000 		.4byte	.LASF17
 340 00c4 04       		.byte	0x4
 341 00c5 39       		.byte	0x39
 342 00c6 8C000000 		.4byte	0x8c
ARM GAS  /tmp/cc2znu0b.s 			page 7


 343 00ca 05       		.uleb128 0x5
 344 00cb A9000000 		.4byte	0xa9
 345 00cf 05       		.uleb128 0x5
 346 00d0 B4000000 		.4byte	0xb4
 347 00d4 04       		.uleb128 0x4
 348 00d5 31060000 		.4byte	.LASF18
 349 00d9 05       		.byte	0x5
 350 00da 45       		.byte	0x45
 351 00db B4000000 		.4byte	0xb4
 352 00df 04       		.uleb128 0x4
 353 00e0 76020000 		.4byte	.LASF19
 354 00e4 05       		.byte	0x5
 355 00e5 48       		.byte	0x48
 356 00e6 9E000000 		.4byte	0x9e
 357 00ea 04       		.uleb128 0x4
 358 00eb 41010000 		.4byte	.LASF20
 359 00ef 05       		.byte	0x5
 360 00f0 49       		.byte	0x49
 361 00f1 9E000000 		.4byte	0x9e
 362 00f5 04       		.uleb128 0x4
 363 00f6 57040000 		.4byte	.LASF21
 364 00fa 05       		.byte	0x5
 365 00fb 4A       		.byte	0x4a
 366 00fc 9E000000 		.4byte	0x9e
 367 0100 04       		.uleb128 0x4
 368 0101 85040000 		.4byte	.LASF22
 369 0105 05       		.byte	0x5
 370 0106 4C       		.byte	0x4c
 371 0107 B4000000 		.4byte	0xb4
 372 010b 04       		.uleb128 0x4
 373 010c 4C020000 		.4byte	.LASF23
 374 0110 05       		.byte	0x5
 375 0111 4D       		.byte	0x4d
 376 0112 A9000000 		.4byte	0xa9
 377 0116 04       		.uleb128 0x4
 378 0117 8C020000 		.4byte	.LASF24
 379 011b 05       		.byte	0x5
 380 011c 4F       		.byte	0x4f
 381 011d B4000000 		.4byte	0xb4
 382 0121 04       		.uleb128 0x4
 383 0122 CC010000 		.4byte	.LASF25
 384 0126 05       		.byte	0x5
 385 0127 51       		.byte	0x51
 386 0128 A9000000 		.4byte	0xa9
 387 012c 04       		.uleb128 0x4
 388 012d D5050000 		.4byte	.LASF26
 389 0131 06       		.byte	0x6
 390 0132 33       		.byte	0x33
 391 0133 B4000000 		.4byte	0xb4
 392 0137 04       		.uleb128 0x4
 393 0138 C5050000 		.4byte	.LASF27
 394 013c 06       		.byte	0x6
 395 013d 3F       		.byte	0x3f
 396 013e 42010000 		.4byte	0x142
 397 0142 06       		.uleb128 0x6
 398 0143 3D020000 		.4byte	.LASF47
 399 0147 44       		.byte	0x44
ARM GAS  /tmp/cc2znu0b.s 			page 8


 400 0148 07       		.byte	0x7
 401 0149 C2       		.byte	0xc2
 402 014a 2F020000 		.4byte	0x22f
 403 014e 07       		.uleb128 0x7
 404 014f 01050000 		.4byte	.LASF28
 405 0153 07       		.byte	0x7
 406 0154 C3       		.byte	0xc3
 407 0155 3A020000 		.4byte	0x23a
 408 0159 00       		.byte	0
 409 015a 07       		.uleb128 0x7
 410 015b 7E040000 		.4byte	.LASF29
 411 015f 07       		.byte	0x7
 412 0160 C5       		.byte	0xc5
 413 0161 3A020000 		.4byte	0x23a
 414 0165 04       		.byte	0x4
 415 0166 07       		.uleb128 0x7
 416 0167 E8000000 		.4byte	.LASF30
 417 016b 07       		.byte	0x7
 418 016c C7       		.byte	0xc7
 419 016d 00010000 		.4byte	0x100
 420 0171 08       		.byte	0x8
 421 0172 07       		.uleb128 0x7
 422 0173 CF060000 		.4byte	.LASF31
 423 0177 07       		.byte	0x7
 424 0178 C8       		.byte	0xc8
 425 0179 6D060000 		.4byte	0x66d
 426 017d 0C       		.byte	0xc
 427 017e 07       		.uleb128 0x7
 428 017f 64010000 		.4byte	.LASF32
 429 0183 07       		.byte	0x7
 430 0184 CA       		.byte	0xca
 431 0185 3A020000 		.4byte	0x23a
 432 0189 10       		.byte	0x10
 433 018a 07       		.uleb128 0x7
 434 018b 03040000 		.4byte	.LASF33
 435 018f 07       		.byte	0x7
 436 0190 CB       		.byte	0xcb
 437 0191 3A020000 		.4byte	0x23a
 438 0195 14       		.byte	0x14
 439 0196 07       		.uleb128 0x7
 440 0197 97060000 		.4byte	.LASF34
 441 019b 07       		.byte	0x7
 442 019c D2       		.byte	0xd2
 443 019d E8090000 		.4byte	0x9e8
 444 01a1 18       		.byte	0x18
 445 01a2 07       		.uleb128 0x7
 446 01a3 E6040000 		.4byte	.LASF35
 447 01a7 07       		.byte	0x7
 448 01a8 DD       		.byte	0xdd
 449 01a9 EA000000 		.4byte	0xea
 450 01ad 1C       		.byte	0x1c
 451 01ae 07       		.uleb128 0x7
 452 01af 0E050000 		.4byte	.LASF36
 453 01b3 07       		.byte	0x7
 454 01b4 E1       		.byte	0xe1
 455 01b5 DF000000 		.4byte	0xdf
 456 01b9 1D       		.byte	0x1d
ARM GAS  /tmp/cc2znu0b.s 			page 9


 457 01ba 07       		.uleb128 0x7
 458 01bb 76060000 		.4byte	.LASF37
 459 01bf 07       		.byte	0x7
 460 01c0 E6       		.byte	0xe6
 461 01c1 F5000000 		.4byte	0xf5
 462 01c5 1E       		.byte	0x1e
 463 01c6 08       		.uleb128 0x8
 464 01c7 705F7500 		.ascii	"p_u\000"
 465 01cb 07       		.byte	0x7
 466 01cc 3101     		.2byte	0x131
 467 01ce 23090000 		.4byte	0x923
 468 01d2 20       		.byte	0x20
 469 01d3 09       		.uleb128 0x9
 470 01d4 A9030000 		.4byte	.LASF38
 471 01d8 07       		.byte	0x7
 472 01d9 3601     		.2byte	0x136
 473 01db 40020000 		.4byte	0x240
 474 01df 24       		.byte	0x24
 475 01e0 09       		.uleb128 0x9
 476 01e1 27020000 		.4byte	.LASF39
 477 01e5 07       		.byte	0x7
 478 01e6 3C01     		.2byte	0x13c
 479 01e8 64020000 		.4byte	0x264
 480 01ec 28       		.byte	0x28
 481 01ed 09       		.uleb128 0x9
 482 01ee A7060000 		.4byte	.LASF40
 483 01f2 07       		.byte	0x7
 484 01f3 4001     		.2byte	0x140
 485 01f5 0B010000 		.4byte	0x10b
 486 01f9 30       		.byte	0x30
 487 01fa 09       		.uleb128 0x9
 488 01fb 66050000 		.4byte	.LASF41
 489 01ff 07       		.byte	0x7
 490 0200 4601     		.2byte	0x146
 491 0202 16010000 		.4byte	0x116
 492 0206 34       		.byte	0x34
 493 0207 09       		.uleb128 0x9
 494 0208 D2040000 		.4byte	.LASF42
 495 020c 07       		.byte	0x7
 496 020d 4D01     		.2byte	0x14d
 497 020f E2090000 		.4byte	0x9e2
 498 0213 38       		.byte	0x38
 499 0214 09       		.uleb128 0x9
 500 0215 DF050000 		.4byte	.LASF43
 501 0219 07       		.byte	0x7
 502 021a 5101     		.2byte	0x151
 503 021c 00010000 		.4byte	0x100
 504 0220 3C       		.byte	0x3c
 505 0221 09       		.uleb128 0x9
 506 0222 EF000000 		.4byte	.LASF44
 507 0226 07       		.byte	0x7
 508 0227 5801     		.2byte	0x158
 509 0229 17030000 		.4byte	0x317
 510 022d 40       		.byte	0x40
 511 022e 00       		.byte	0
 512 022f 04       		.uleb128 0x4
 513 0230 BC030000 		.4byte	.LASF45
ARM GAS  /tmp/cc2znu0b.s 			page 10


 514 0234 06       		.byte	0x6
 515 0235 44       		.byte	0x44
 516 0236 3A020000 		.4byte	0x23a
 517 023a 0A       		.uleb128 0xa
 518 023b 04       		.byte	0x4
 519 023c 37010000 		.4byte	0x137
 520 0240 04       		.uleb128 0x4
 521 0241 9A030000 		.4byte	.LASF46
 522 0245 06       		.byte	0x6
 523 0246 49       		.byte	0x49
 524 0247 4B020000 		.4byte	0x24b
 525 024b 06       		.uleb128 0x6
 526 024c 89050000 		.4byte	.LASF48
 527 0250 04       		.byte	0x4
 528 0251 07       		.byte	0x7
 529 0252 B0       		.byte	0xb0
 530 0253 64020000 		.4byte	0x264
 531 0257 07       		.uleb128 0x7
 532 0258 01050000 		.4byte	.LASF28
 533 025c 07       		.byte	0x7
 534 025d B1       		.byte	0xb1
 535 025e 3A020000 		.4byte	0x23a
 536 0262 00       		.byte	0
 537 0263 00       		.byte	0
 538 0264 04       		.uleb128 0x4
 539 0265 5D060000 		.4byte	.LASF49
 540 0269 06       		.byte	0x6
 541 026a 50       		.byte	0x50
 542 026b 6F020000 		.4byte	0x26f
 543 026f 06       		.uleb128 0x6
 544 0270 D7000000 		.4byte	.LASF50
 545 0274 08       		.byte	0x8
 546 0275 07       		.byte	0x7
 547 0276 B7       		.byte	0xb7
 548 0277 94020000 		.4byte	0x294
 549 027b 07       		.uleb128 0x7
 550 027c 01050000 		.4byte	.LASF28
 551 0280 07       		.byte	0x7
 552 0281 B8       		.byte	0xb8
 553 0282 3A020000 		.4byte	0x23a
 554 0286 00       		.byte	0
 555 0287 07       		.uleb128 0x7
 556 0288 7E040000 		.4byte	.LASF29
 557 028c 07       		.byte	0x7
 558 028d B9       		.byte	0xb9
 559 028e 3A020000 		.4byte	0x23a
 560 0292 04       		.byte	0x4
 561 0293 00       		.byte	0
 562 0294 04       		.uleb128 0x4
 563 0295 00000000 		.4byte	.LASF51
 564 0299 06       		.byte	0x6
 565 029a 57       		.byte	0x57
 566 029b 9F020000 		.4byte	0x29f
 567 029f 0B       		.uleb128 0xb
 568 02a0 7E020000 		.4byte	.LASF52
 569 02a4 1C       		.byte	0x1c
 570 02a5 07       		.byte	0x7
ARM GAS  /tmp/cc2znu0b.s 			page 11


 571 02a6 9001     		.2byte	0x190
 572 02a8 FB020000 		.4byte	0x2fb
 573 02ac 09       		.uleb128 0x9
 574 02ad 81050000 		.4byte	.LASF53
 575 02b1 07       		.byte	0x7
 576 02b2 9101     		.2byte	0x191
 577 02b4 64020000 		.4byte	0x264
 578 02b8 00       		.byte	0
 579 02b9 09       		.uleb128 0x9
 580 02ba F3040000 		.4byte	.LASF54
 581 02be 07       		.byte	0x7
 582 02bf 9201     		.2byte	0x192
 583 02c1 00010000 		.4byte	0x100
 584 02c5 08       		.byte	0x8
 585 02c6 09       		.uleb128 0x9
 586 02c7 0B040000 		.4byte	.LASF55
 587 02cb 07       		.byte	0x7
 588 02cc 9401     		.2byte	0x194
 589 02ce 6D060000 		.4byte	0x66d
 590 02d2 0C       		.byte	0xc
 591 02d3 09       		.uleb128 0x9
 592 02d4 7E010000 		.4byte	.LASF56
 593 02d8 07       		.byte	0x7
 594 02d9 9701     		.2byte	0x197
 595 02db 3A020000 		.4byte	0x23a
 596 02df 10       		.byte	0x10
 597 02e0 09       		.uleb128 0x9
 598 02e1 38040000 		.4byte	.LASF57
 599 02e5 07       		.byte	0x7
 600 02e6 9801     		.2byte	0x198
 601 02e8 3A020000 		.4byte	0x23a
 602 02ec 14       		.byte	0x14
 603 02ed 09       		.uleb128 0x9
 604 02ee 2E040000 		.4byte	.LASF58
 605 02f2 07       		.byte	0x7
 606 02f3 9B01     		.2byte	0x19b
 607 02f5 3A020000 		.4byte	0x23a
 608 02f9 18       		.byte	0x18
 609 02fa 00       		.byte	0
 610 02fb 04       		.uleb128 0x4
 611 02fc EA050000 		.4byte	.LASF59
 612 0300 06       		.byte	0x6
 613 0301 5C       		.byte	0x5c
 614 0302 06030000 		.4byte	0x306
 615 0306 0A       		.uleb128 0xa
 616 0307 04       		.byte	0x4
 617 0308 0C030000 		.4byte	0x30c
 618 030c 0C       		.uleb128 0xc
 619 030d 17030000 		.4byte	0x317
 620 0311 0D       		.uleb128 0xd
 621 0312 17030000 		.4byte	0x317
 622 0316 00       		.byte	0
 623 0317 0E       		.uleb128 0xe
 624 0318 04       		.byte	0x4
 625 0319 04       		.uleb128 0x4
 626 031a 6E040000 		.4byte	.LASF60
 627 031e 06       		.byte	0x6
ARM GAS  /tmp/cc2znu0b.s 			page 12


 628 031f 61       		.byte	0x61
 629 0320 24030000 		.4byte	0x324
 630 0324 0B       		.uleb128 0xb
 631 0325 48050000 		.4byte	.LASF61
 632 0329 14       		.byte	0x14
 633 032a 07       		.byte	0x7
 634 032b 6B01     		.2byte	0x16b
 635 032d 73030000 		.4byte	0x373
 636 0331 09       		.uleb128 0x9
 637 0332 F2010000 		.4byte	.LASF62
 638 0336 07       		.byte	0x7
 639 0337 6C01     		.2byte	0x16c
 640 0339 FA090000 		.4byte	0x9fa
 641 033d 00       		.byte	0
 642 033e 09       		.uleb128 0x9
 643 033f 8F010000 		.4byte	.LASF63
 644 0343 07       		.byte	0x7
 645 0344 6D01     		.2byte	0x16d
 646 0346 FA090000 		.4byte	0x9fa
 647 034a 04       		.byte	0x4
 648 034b 09       		.uleb128 0x9
 649 034c 9E060000 		.4byte	.LASF64
 650 0350 07       		.byte	0x7
 651 0351 6E01     		.2byte	0x16e
 652 0353 2C010000 		.4byte	0x12c
 653 0357 08       		.byte	0x8
 654 0358 09       		.uleb128 0x9
 655 0359 D5060000 		.4byte	.LASF65
 656 035d 07       		.byte	0x7
 657 035e 6F01     		.2byte	0x16f
 658 0360 FB020000 		.4byte	0x2fb
 659 0364 0C       		.byte	0xc
 660 0365 09       		.uleb128 0x9
 661 0366 56060000 		.4byte	.LASF66
 662 036a 07       		.byte	0x7
 663 036b 7101     		.2byte	0x171
 664 036d 17030000 		.4byte	0x317
 665 0371 10       		.byte	0x10
 666 0372 00       		.byte	0
 667 0373 04       		.uleb128 0x4
 668 0374 BB000000 		.4byte	.LASF67
 669 0378 06       		.byte	0x6
 670 0379 66       		.byte	0x66
 671 037a 7E030000 		.4byte	0x37e
 672 037e 0B       		.uleb128 0xb
 673 037f CF030000 		.4byte	.LASF68
 674 0383 10       		.byte	0x10
 675 0384 07       		.byte	0x7
 676 0385 7B01     		.2byte	0x17b
 677 0387 C0030000 		.4byte	0x3c0
 678 038b 09       		.uleb128 0x9
 679 038c F2010000 		.4byte	.LASF62
 680 0390 07       		.byte	0x7
 681 0391 7C01     		.2byte	0x17c
 682 0393 FA090000 		.4byte	0x9fa
 683 0397 00       		.byte	0
 684 0398 09       		.uleb128 0x9
ARM GAS  /tmp/cc2znu0b.s 			page 13


 685 0399 8F010000 		.4byte	.LASF63
 686 039d 07       		.byte	0x7
 687 039e 7E01     		.2byte	0x17e
 688 03a0 FA090000 		.4byte	0x9fa
 689 03a4 04       		.byte	0x4
 690 03a5 09       		.uleb128 0x9
 691 03a6 9E060000 		.4byte	.LASF64
 692 03aa 07       		.byte	0x7
 693 03ab 8001     		.2byte	0x180
 694 03ad 2C010000 		.4byte	0x12c
 695 03b1 08       		.byte	0x8
 696 03b2 09       		.uleb128 0x9
 697 03b3 F7030000 		.4byte	.LASF69
 698 03b7 07       		.byte	0x7
 699 03b8 8801     		.2byte	0x188
 700 03ba 2C010000 		.4byte	0x12c
 701 03be 0C       		.byte	0xc
 702 03bf 00       		.byte	0
 703 03c0 04       		.uleb128 0x4
 704 03c1 8E000000 		.4byte	.LASF70
 705 03c5 06       		.byte	0x6
 706 03c6 6B       		.byte	0x6b
 707 03c7 CB030000 		.4byte	0x3cb
 708 03cb 0B       		.uleb128 0xb
 709 03cc 99040000 		.4byte	.LASF71
 710 03d0 04       		.byte	0x4
 711 03d1 07       		.byte	0x7
 712 03d2 A201     		.2byte	0x1a2
 713 03d4 E6030000 		.4byte	0x3e6
 714 03d8 09       		.uleb128 0x9
 715 03d9 0C060000 		.4byte	.LASF72
 716 03dd 07       		.byte	0x7
 717 03de AA01     		.2byte	0x1aa
 718 03e0 000A0000 		.4byte	0xa00
 719 03e4 00       		.byte	0
 720 03e5 00       		.byte	0
 721 03e6 04       		.uleb128 0x4
 722 03e7 25060000 		.4byte	.LASF73
 723 03eb 06       		.byte	0x6
 724 03ec 70       		.byte	0x70
 725 03ed F1030000 		.4byte	0x3f1
 726 03f1 0F       		.uleb128 0xf
 727 03f2 2E010000 		.4byte	.LASF74
 728 03f6 D801     		.2byte	0x1d8
 729 03f8 07       		.byte	0x7
 730 03f9 C201     		.2byte	0x1c2
 731 03fb 4D040000 		.4byte	0x44d
 732 03ff 09       		.uleb128 0x9
 733 0400 82060000 		.4byte	.LASF75
 734 0404 07       		.byte	0x7
 735 0405 C601     		.2byte	0x1c6
 736 0407 94020000 		.4byte	0x294
 737 040b 00       		.byte	0
 738 040c 09       		.uleb128 0x9
 739 040d 1B010000 		.4byte	.LASF76
 740 0411 07       		.byte	0x7
 741 0412 CA01     		.2byte	0x1ca
ARM GAS  /tmp/cc2znu0b.s 			page 14


 742 0414 73030000 		.4byte	0x373
 743 0418 1C       		.byte	0x1c
 744 0419 08       		.uleb128 0x8
 745 041a 64626700 		.ascii	"dbg\000"
 746 041e 07       		.byte	0x7
 747 041f CE01     		.2byte	0x1ce
 748 0421 C0030000 		.4byte	0x3c0
 749 0425 2C       		.byte	0x2c
 750 0426 09       		.uleb128 0x9
 751 0427 B0000000 		.4byte	.LASF77
 752 042b 07       		.byte	0x7
 753 042c D201     		.2byte	0x1d2
 754 042e 37010000 		.4byte	0x137
 755 0432 30       		.byte	0x30
 756 0433 08       		.uleb128 0x8
 757 0434 746D00   		.ascii	"tm\000"
 758 0437 07       		.byte	0x7
 759 0438 D701     		.2byte	0x1d7
 760 043a 18090000 		.4byte	0x918
 761 043e 74       		.byte	0x74
 762 043f 09       		.uleb128 0x9
 763 0440 BD010000 		.4byte	.LASF78
 764 0444 07       		.byte	0x7
 765 0445 E301     		.2byte	0x1e3
 766 0447 050A0000 		.4byte	0xa05
 767 044b 78       		.byte	0x78
 768 044c 00       		.byte	0
 769 044d 03       		.uleb128 0x3
 770 044e 04       		.byte	0x4
 771 044f 07       		.byte	0x7
 772 0450 B3030000 		.4byte	.LASF79
 773 0454 10       		.uleb128 0x10
 774 0455 8C       		.byte	0x8c
 775 0456 08       		.byte	0x8
 776 0457 7001     		.2byte	0x170
 777 0459 6F050000 		.4byte	0x56f
 778 045d 09       		.uleb128 0x9
 779 045e D1000000 		.4byte	.LASF80
 780 0462 08       		.byte	0x8
 781 0463 7201     		.2byte	0x172
 782 0465 6F050000 		.4byte	0x56f
 783 0469 00       		.byte	0
 784 046a 09       		.uleb128 0x9
 785 046b 47020000 		.4byte	.LASF81
 786 046f 08       		.byte	0x8
 787 0470 7301     		.2byte	0x173
 788 0472 CF000000 		.4byte	0xcf
 789 0476 04       		.byte	0x4
 790 0477 09       		.uleb128 0x9
 791 0478 32020000 		.4byte	.LASF82
 792 047c 08       		.byte	0x8
 793 047d 7401     		.2byte	0x174
 794 047f CF000000 		.4byte	0xcf
 795 0483 08       		.byte	0x8
 796 0484 09       		.uleb128 0x9
 797 0485 52020000 		.4byte	.LASF83
 798 0489 08       		.byte	0x8
ARM GAS  /tmp/cc2znu0b.s 			page 15


 799 048a 7501     		.2byte	0x175
 800 048c CF000000 		.4byte	0xcf
 801 0490 0C       		.byte	0xc
 802 0491 08       		.uleb128 0x8
 803 0492 53435200 		.ascii	"SCR\000"
 804 0496 08       		.byte	0x8
 805 0497 7601     		.2byte	0x176
 806 0499 CF000000 		.4byte	0xcf
 807 049d 10       		.byte	0x10
 808 049e 08       		.uleb128 0x8
 809 049f 43435200 		.ascii	"CCR\000"
 810 04a3 08       		.byte	0x8
 811 04a4 7701     		.2byte	0x177
 812 04a6 CF000000 		.4byte	0xcf
 813 04aa 14       		.byte	0x14
 814 04ab 08       		.uleb128 0x8
 815 04ac 53485000 		.ascii	"SHP\000"
 816 04b0 08       		.byte	0x8
 817 04b1 7801     		.2byte	0x178
 818 04b3 84050000 		.4byte	0x584
 819 04b7 18       		.byte	0x18
 820 04b8 09       		.uleb128 0x9
 821 04b9 BF040000 		.4byte	.LASF84
 822 04bd 08       		.byte	0x8
 823 04be 7901     		.2byte	0x179
 824 04c0 CF000000 		.4byte	0xcf
 825 04c4 24       		.byte	0x24
 826 04c5 09       		.uleb128 0x9
 827 04c6 F2030000 		.4byte	.LASF85
 828 04ca 08       		.byte	0x8
 829 04cb 7A01     		.2byte	0x17a
 830 04cd CF000000 		.4byte	0xcf
 831 04d1 28       		.byte	0x28
 832 04d2 09       		.uleb128 0x9
 833 04d3 B3060000 		.4byte	.LASF86
 834 04d7 08       		.byte	0x8
 835 04d8 7B01     		.2byte	0x17b
 836 04da CF000000 		.4byte	0xcf
 837 04de 2C       		.byte	0x2c
 838 04df 09       		.uleb128 0x9
 839 04e0 58020000 		.4byte	.LASF87
 840 04e4 08       		.byte	0x8
 841 04e5 7C01     		.2byte	0x17c
 842 04e7 CF000000 		.4byte	0xcf
 843 04eb 30       		.byte	0x30
 844 04ec 09       		.uleb128 0x9
 845 04ed 5D020000 		.4byte	.LASF88
 846 04f1 08       		.byte	0x8
 847 04f2 7D01     		.2byte	0x17d
 848 04f4 CF000000 		.4byte	0xcf
 849 04f8 34       		.byte	0x34
 850 04f9 09       		.uleb128 0x9
 851 04fa 74010000 		.4byte	.LASF89
 852 04fe 08       		.byte	0x8
 853 04ff 7E01     		.2byte	0x17e
 854 0501 CF000000 		.4byte	0xcf
 855 0505 38       		.byte	0x38
ARM GAS  /tmp/cc2znu0b.s 			page 16


 856 0506 09       		.uleb128 0x9
 857 0507 79010000 		.4byte	.LASF90
 858 050b 08       		.byte	0x8
 859 050c 7F01     		.2byte	0x17f
 860 050e CF000000 		.4byte	0xcf
 861 0512 3C       		.byte	0x3c
 862 0513 08       		.uleb128 0x8
 863 0514 50465200 		.ascii	"PFR\000"
 864 0518 08       		.byte	0x8
 865 0519 8001     		.2byte	0x180
 866 051b 9E050000 		.4byte	0x59e
 867 051f 40       		.byte	0x40
 868 0520 08       		.uleb128 0x8
 869 0521 44465200 		.ascii	"DFR\000"
 870 0525 08       		.byte	0x8
 871 0526 8101     		.2byte	0x181
 872 0528 6F050000 		.4byte	0x56f
 873 052c 48       		.byte	0x48
 874 052d 08       		.uleb128 0x8
 875 052e 41445200 		.ascii	"ADR\000"
 876 0532 08       		.byte	0x8
 877 0533 8201     		.2byte	0x182
 878 0535 6F050000 		.4byte	0x56f
 879 0539 4C       		.byte	0x4c
 880 053a 09       		.uleb128 0x9
 881 053b 7D060000 		.4byte	.LASF91
 882 053f 08       		.byte	0x8
 883 0540 8301     		.2byte	0x183
 884 0542 B8050000 		.4byte	0x5b8
 885 0546 50       		.byte	0x50
 886 0547 09       		.uleb128 0x9
 887 0548 16010000 		.4byte	.LASF92
 888 054c 08       		.byte	0x8
 889 054d 8401     		.2byte	0x184
 890 054f D2050000 		.4byte	0x5d2
 891 0553 60       		.byte	0x60
 892 0554 09       		.uleb128 0x9
 893 0555 5F040000 		.4byte	.LASF93
 894 0559 08       		.byte	0x8
 895 055a 8501     		.2byte	0x185
 896 055c BD050000 		.4byte	0x5bd
 897 0560 74       		.byte	0x74
 898 0561 09       		.uleb128 0x9
 899 0562 AD060000 		.4byte	.LASF94
 900 0566 08       		.byte	0x8
 901 0567 8601     		.2byte	0x186
 902 0569 CF000000 		.4byte	0xcf
 903 056d 88       		.byte	0x88
 904 056e 00       		.byte	0
 905 056f 11       		.uleb128 0x11
 906 0570 CF000000 		.4byte	0xcf
 907 0574 12       		.uleb128 0x12
 908 0575 9E000000 		.4byte	0x9e
 909 0579 84050000 		.4byte	0x584
 910 057d 13       		.uleb128 0x13
 911 057e 4D040000 		.4byte	0x44d
 912 0582 0B       		.byte	0xb
ARM GAS  /tmp/cc2znu0b.s 			page 17


 913 0583 00       		.byte	0
 914 0584 05       		.uleb128 0x5
 915 0585 74050000 		.4byte	0x574
 916 0589 12       		.uleb128 0x12
 917 058a B4000000 		.4byte	0xb4
 918 058e 99050000 		.4byte	0x599
 919 0592 13       		.uleb128 0x13
 920 0593 4D040000 		.4byte	0x44d
 921 0597 01       		.byte	0x1
 922 0598 00       		.byte	0
 923 0599 05       		.uleb128 0x5
 924 059a 89050000 		.4byte	0x589
 925 059e 11       		.uleb128 0x11
 926 059f 99050000 		.4byte	0x599
 927 05a3 12       		.uleb128 0x12
 928 05a4 B4000000 		.4byte	0xb4
 929 05a8 B3050000 		.4byte	0x5b3
 930 05ac 13       		.uleb128 0x13
 931 05ad 4D040000 		.4byte	0x44d
 932 05b1 03       		.byte	0x3
 933 05b2 00       		.byte	0
 934 05b3 05       		.uleb128 0x5
 935 05b4 A3050000 		.4byte	0x5a3
 936 05b8 11       		.uleb128 0x11
 937 05b9 B3050000 		.4byte	0x5b3
 938 05bd 12       		.uleb128 0x12
 939 05be B4000000 		.4byte	0xb4
 940 05c2 CD050000 		.4byte	0x5cd
 941 05c6 13       		.uleb128 0x13
 942 05c7 4D040000 		.4byte	0x44d
 943 05cb 04       		.byte	0x4
 944 05cc 00       		.byte	0
 945 05cd 05       		.uleb128 0x5
 946 05ce BD050000 		.4byte	0x5bd
 947 05d2 11       		.uleb128 0x11
 948 05d3 CD050000 		.4byte	0x5cd
 949 05d7 14       		.uleb128 0x14
 950 05d8 97010000 		.4byte	.LASF95
 951 05dc 08       		.byte	0x8
 952 05dd 8701     		.2byte	0x187
 953 05df 54040000 		.4byte	0x454
 954 05e3 12       		.uleb128 0x12
 955 05e4 B4000000 		.4byte	0xb4
 956 05e8 F3050000 		.4byte	0x5f3
 957 05ec 13       		.uleb128 0x13
 958 05ed 4D040000 		.4byte	0x44d
 959 05f1 00       		.byte	0
 960 05f2 00       		.byte	0
 961 05f3 10       		.uleb128 0x10
 962 05f4 18       		.byte	0x18
 963 05f5 08       		.byte	0x8
 964 05f6 8E04     		.2byte	0x48e
 965 05f8 4B060000 		.4byte	0x64b
 966 05fc 09       		.uleb128 0x9
 967 05fd 5F040000 		.4byte	.LASF93
 968 0601 08       		.byte	0x8
 969 0602 9004     		.2byte	0x490
ARM GAS  /tmp/cc2znu0b.s 			page 18


 970 0604 E3050000 		.4byte	0x5e3
 971 0608 00       		.byte	0
 972 0609 09       		.uleb128 0x9
 973 060a 42050000 		.4byte	.LASF96
 974 060e 08       		.byte	0x8
 975 060f 9104     		.2byte	0x491
 976 0611 CF000000 		.4byte	0xcf
 977 0615 04       		.byte	0x4
 978 0616 09       		.uleb128 0x9
 979 0617 30050000 		.4byte	.LASF97
 980 061b 08       		.byte	0x8
 981 061c 9204     		.2byte	0x492
 982 061e CF000000 		.4byte	0xcf
 983 0622 08       		.byte	0x8
 984 0623 09       		.uleb128 0x9
 985 0624 5C000000 		.4byte	.LASF98
 986 0628 08       		.byte	0x8
 987 0629 9304     		.2byte	0x493
 988 062b CF000000 		.4byte	0xcf
 989 062f 0C       		.byte	0xc
 990 0630 09       		.uleb128 0x9
 991 0631 4B040000 		.4byte	.LASF99
 992 0635 08       		.byte	0x8
 993 0636 9404     		.2byte	0x494
 994 0638 6F050000 		.4byte	0x56f
 995 063c 10       		.byte	0x10
 996 063d 09       		.uleb128 0x9
 997 063e 51040000 		.4byte	.LASF100
 998 0642 08       		.byte	0x8
 999 0643 9504     		.2byte	0x495
 1000 0645 6F050000 		.4byte	0x56f
 1001 0649 14       		.byte	0x14
 1002 064a 00       		.byte	0
 1003 064b 14       		.uleb128 0x14
 1004 064c D2010000 		.4byte	.LASF101
 1005 0650 08       		.byte	0x8
 1006 0651 9604     		.2byte	0x496
 1007 0653 F3050000 		.4byte	0x5f3
 1008 0657 04       		.uleb128 0x4
 1009 0658 86010000 		.4byte	.LASF102
 1010 065c 09       		.byte	0x9
 1011 065d 65       		.byte	0x65
 1012 065e 17030000 		.4byte	0x317
 1013 0662 04       		.uleb128 0x4
 1014 0663 B1020000 		.4byte	.LASF103
 1015 0667 09       		.byte	0x9
 1016 0668 6D       		.byte	0x6d
 1017 0669 BF000000 		.4byte	0xbf
 1018 066d 06       		.uleb128 0x6
 1019 066e 1D060000 		.4byte	.LASF104
 1020 0672 04       		.byte	0x4
 1021 0673 09       		.byte	0x9
 1022 0674 89       		.byte	0x89
 1023 0675 86060000 		.4byte	0x686
 1024 0679 15       		.uleb128 0x15
 1025 067a 72313300 		.ascii	"r13\000"
 1026 067e 09       		.byte	0x9
ARM GAS  /tmp/cc2znu0b.s 			page 19


 1027 067f 8A       		.byte	0x8a
 1028 0680 C7070000 		.4byte	0x7c7
 1029 0684 00       		.byte	0
 1030 0685 00       		.byte	0
 1031 0686 06       		.uleb128 0x6
 1032 0687 82000000 		.4byte	.LASF105
 1033 068b 64       		.byte	0x64
 1034 068c 0A       		.byte	0xa
 1035 068d F4       		.byte	0xf4
 1036 068e C7070000 		.4byte	0x7c7
 1037 0692 15       		.uleb128 0x15
 1038 0693 73313600 		.ascii	"s16\000"
 1039 0697 0A       		.byte	0xa
 1040 0698 F6       		.byte	0xf6
 1041 0699 57060000 		.4byte	0x657
 1042 069d 00       		.byte	0
 1043 069e 15       		.uleb128 0x15
 1044 069f 73313700 		.ascii	"s17\000"
 1045 06a3 0A       		.byte	0xa
 1046 06a4 F7       		.byte	0xf7
 1047 06a5 57060000 		.4byte	0x657
 1048 06a9 04       		.byte	0x4
 1049 06aa 15       		.uleb128 0x15
 1050 06ab 73313800 		.ascii	"s18\000"
 1051 06af 0A       		.byte	0xa
 1052 06b0 F8       		.byte	0xf8
 1053 06b1 57060000 		.4byte	0x657
 1054 06b5 08       		.byte	0x8
 1055 06b6 15       		.uleb128 0x15
 1056 06b7 73313900 		.ascii	"s19\000"
 1057 06bb 0A       		.byte	0xa
 1058 06bc F9       		.byte	0xf9
 1059 06bd 57060000 		.4byte	0x657
 1060 06c1 0C       		.byte	0xc
 1061 06c2 15       		.uleb128 0x15
 1062 06c3 73323000 		.ascii	"s20\000"
 1063 06c7 0A       		.byte	0xa
 1064 06c8 FA       		.byte	0xfa
 1065 06c9 57060000 		.4byte	0x657
 1066 06cd 10       		.byte	0x10
 1067 06ce 15       		.uleb128 0x15
 1068 06cf 73323100 		.ascii	"s21\000"
 1069 06d3 0A       		.byte	0xa
 1070 06d4 FB       		.byte	0xfb
 1071 06d5 57060000 		.4byte	0x657
 1072 06d9 14       		.byte	0x14
 1073 06da 15       		.uleb128 0x15
 1074 06db 73323200 		.ascii	"s22\000"
 1075 06df 0A       		.byte	0xa
 1076 06e0 FC       		.byte	0xfc
 1077 06e1 57060000 		.4byte	0x657
 1078 06e5 18       		.byte	0x18
 1079 06e6 15       		.uleb128 0x15
 1080 06e7 73323300 		.ascii	"s23\000"
 1081 06eb 0A       		.byte	0xa
 1082 06ec FD       		.byte	0xfd
 1083 06ed 57060000 		.4byte	0x657
ARM GAS  /tmp/cc2znu0b.s 			page 20


 1084 06f1 1C       		.byte	0x1c
 1085 06f2 15       		.uleb128 0x15
 1086 06f3 73323400 		.ascii	"s24\000"
 1087 06f7 0A       		.byte	0xa
 1088 06f8 FE       		.byte	0xfe
 1089 06f9 57060000 		.4byte	0x657
 1090 06fd 20       		.byte	0x20
 1091 06fe 15       		.uleb128 0x15
 1092 06ff 73323500 		.ascii	"s25\000"
 1093 0703 0A       		.byte	0xa
 1094 0704 FF       		.byte	0xff
 1095 0705 57060000 		.4byte	0x657
 1096 0709 24       		.byte	0x24
 1097 070a 08       		.uleb128 0x8
 1098 070b 73323600 		.ascii	"s26\000"
 1099 070f 0A       		.byte	0xa
 1100 0710 0001     		.2byte	0x100
 1101 0712 57060000 		.4byte	0x657
 1102 0716 28       		.byte	0x28
 1103 0717 08       		.uleb128 0x8
 1104 0718 73323700 		.ascii	"s27\000"
 1105 071c 0A       		.byte	0xa
 1106 071d 0101     		.2byte	0x101
 1107 071f 57060000 		.4byte	0x657
 1108 0723 2C       		.byte	0x2c
 1109 0724 08       		.uleb128 0x8
 1110 0725 73323800 		.ascii	"s28\000"
 1111 0729 0A       		.byte	0xa
 1112 072a 0201     		.2byte	0x102
 1113 072c 57060000 		.4byte	0x657
 1114 0730 30       		.byte	0x30
 1115 0731 08       		.uleb128 0x8
 1116 0732 73323900 		.ascii	"s29\000"
 1117 0736 0A       		.byte	0xa
 1118 0737 0301     		.2byte	0x103
 1119 0739 57060000 		.4byte	0x657
 1120 073d 34       		.byte	0x34
 1121 073e 08       		.uleb128 0x8
 1122 073f 73333000 		.ascii	"s30\000"
 1123 0743 0A       		.byte	0xa
 1124 0744 0401     		.2byte	0x104
 1125 0746 57060000 		.4byte	0x657
 1126 074a 38       		.byte	0x38
 1127 074b 08       		.uleb128 0x8
 1128 074c 73333100 		.ascii	"s31\000"
 1129 0750 0A       		.byte	0xa
 1130 0751 0501     		.2byte	0x105
 1131 0753 57060000 		.4byte	0x657
 1132 0757 3C       		.byte	0x3c
 1133 0758 08       		.uleb128 0x8
 1134 0759 723400   		.ascii	"r4\000"
 1135 075c 0A       		.byte	0xa
 1136 075d 0701     		.2byte	0x107
 1137 075f 57060000 		.4byte	0x657
 1138 0763 40       		.byte	0x40
 1139 0764 08       		.uleb128 0x8
 1140 0765 723500   		.ascii	"r5\000"
ARM GAS  /tmp/cc2znu0b.s 			page 21


 1141 0768 0A       		.byte	0xa
 1142 0769 0801     		.2byte	0x108
 1143 076b 57060000 		.4byte	0x657
 1144 076f 44       		.byte	0x44
 1145 0770 08       		.uleb128 0x8
 1146 0771 723600   		.ascii	"r6\000"
 1147 0774 0A       		.byte	0xa
 1148 0775 0901     		.2byte	0x109
 1149 0777 57060000 		.4byte	0x657
 1150 077b 48       		.byte	0x48
 1151 077c 08       		.uleb128 0x8
 1152 077d 723700   		.ascii	"r7\000"
 1153 0780 0A       		.byte	0xa
 1154 0781 0A01     		.2byte	0x10a
 1155 0783 57060000 		.4byte	0x657
 1156 0787 4C       		.byte	0x4c
 1157 0788 08       		.uleb128 0x8
 1158 0789 723800   		.ascii	"r8\000"
 1159 078c 0A       		.byte	0xa
 1160 078d 0B01     		.2byte	0x10b
 1161 078f 57060000 		.4byte	0x657
 1162 0793 50       		.byte	0x50
 1163 0794 08       		.uleb128 0x8
 1164 0795 723900   		.ascii	"r9\000"
 1165 0798 0A       		.byte	0xa
 1166 0799 0C01     		.2byte	0x10c
 1167 079b 57060000 		.4byte	0x657
 1168 079f 54       		.byte	0x54
 1169 07a0 08       		.uleb128 0x8
 1170 07a1 72313000 		.ascii	"r10\000"
 1171 07a5 0A       		.byte	0xa
 1172 07a6 0D01     		.2byte	0x10d
 1173 07a8 57060000 		.4byte	0x657
 1174 07ac 58       		.byte	0x58
 1175 07ad 08       		.uleb128 0x8
 1176 07ae 72313100 		.ascii	"r11\000"
 1177 07b2 0A       		.byte	0xa
 1178 07b3 0E01     		.2byte	0x10e
 1179 07b5 57060000 		.4byte	0x657
 1180 07b9 5C       		.byte	0x5c
 1181 07ba 08       		.uleb128 0x8
 1182 07bb 6C7200   		.ascii	"lr\000"
 1183 07be 0A       		.byte	0xa
 1184 07bf 0F01     		.2byte	0x10f
 1185 07c1 57060000 		.4byte	0x657
 1186 07c5 60       		.byte	0x60
 1187 07c6 00       		.byte	0
 1188 07c7 0A       		.uleb128 0xa
 1189 07c8 04       		.byte	0x4
 1190 07c9 86060000 		.4byte	0x686
 1191 07cd 06       		.uleb128 0x6
 1192 07ce 11040000 		.4byte	.LASF106
 1193 07d2 68       		.byte	0x68
 1194 07d3 0A       		.byte	0xa
 1195 07d4 D5       		.byte	0xd5
 1196 07d5 03090000 		.4byte	0x903
 1197 07d9 15       		.uleb128 0x15
ARM GAS  /tmp/cc2znu0b.s 			page 22


 1198 07da 723000   		.ascii	"r0\000"
 1199 07dd 0A       		.byte	0xa
 1200 07de D6       		.byte	0xd6
 1201 07df 57060000 		.4byte	0x657
 1202 07e3 00       		.byte	0
 1203 07e4 15       		.uleb128 0x15
 1204 07e5 723100   		.ascii	"r1\000"
 1205 07e8 0A       		.byte	0xa
 1206 07e9 D7       		.byte	0xd7
 1207 07ea 57060000 		.4byte	0x657
 1208 07ee 04       		.byte	0x4
 1209 07ef 15       		.uleb128 0x15
 1210 07f0 723200   		.ascii	"r2\000"
 1211 07f3 0A       		.byte	0xa
 1212 07f4 D8       		.byte	0xd8
 1213 07f5 57060000 		.4byte	0x657
 1214 07f9 08       		.byte	0x8
 1215 07fa 15       		.uleb128 0x15
 1216 07fb 723300   		.ascii	"r3\000"
 1217 07fe 0A       		.byte	0xa
 1218 07ff D9       		.byte	0xd9
 1219 0800 57060000 		.4byte	0x657
 1220 0804 0C       		.byte	0xc
 1221 0805 15       		.uleb128 0x15
 1222 0806 72313200 		.ascii	"r12\000"
 1223 080a 0A       		.byte	0xa
 1224 080b DA       		.byte	0xda
 1225 080c 57060000 		.4byte	0x657
 1226 0810 10       		.byte	0x10
 1227 0811 07       		.uleb128 0x7
 1228 0812 29050000 		.4byte	.LASF107
 1229 0816 0A       		.byte	0xa
 1230 0817 DB       		.byte	0xdb
 1231 0818 57060000 		.4byte	0x657
 1232 081c 14       		.byte	0x14
 1233 081d 15       		.uleb128 0x15
 1234 081e 706300   		.ascii	"pc\000"
 1235 0821 0A       		.byte	0xa
 1236 0822 DC       		.byte	0xdc
 1237 0823 57060000 		.4byte	0x657
 1238 0827 18       		.byte	0x18
 1239 0828 07       		.uleb128 0x7
 1240 0829 EE040000 		.4byte	.LASF108
 1241 082d 0A       		.byte	0xa
 1242 082e DD       		.byte	0xdd
 1243 082f 57060000 		.4byte	0x657
 1244 0833 1C       		.byte	0x1c
 1245 0834 15       		.uleb128 0x15
 1246 0835 733000   		.ascii	"s0\000"
 1247 0838 0A       		.byte	0xa
 1248 0839 DF       		.byte	0xdf
 1249 083a 57060000 		.4byte	0x657
 1250 083e 20       		.byte	0x20
 1251 083f 15       		.uleb128 0x15
 1252 0840 733100   		.ascii	"s1\000"
 1253 0843 0A       		.byte	0xa
 1254 0844 E0       		.byte	0xe0
ARM GAS  /tmp/cc2znu0b.s 			page 23


 1255 0845 57060000 		.4byte	0x657
 1256 0849 24       		.byte	0x24
 1257 084a 15       		.uleb128 0x15
 1258 084b 733200   		.ascii	"s2\000"
 1259 084e 0A       		.byte	0xa
 1260 084f E1       		.byte	0xe1
 1261 0850 57060000 		.4byte	0x657
 1262 0854 28       		.byte	0x28
 1263 0855 15       		.uleb128 0x15
 1264 0856 733300   		.ascii	"s3\000"
 1265 0859 0A       		.byte	0xa
 1266 085a E2       		.byte	0xe2
 1267 085b 57060000 		.4byte	0x657
 1268 085f 2C       		.byte	0x2c
 1269 0860 15       		.uleb128 0x15
 1270 0861 733400   		.ascii	"s4\000"
 1271 0864 0A       		.byte	0xa
 1272 0865 E3       		.byte	0xe3
 1273 0866 57060000 		.4byte	0x657
 1274 086a 30       		.byte	0x30
 1275 086b 15       		.uleb128 0x15
 1276 086c 733500   		.ascii	"s5\000"
 1277 086f 0A       		.byte	0xa
 1278 0870 E4       		.byte	0xe4
 1279 0871 57060000 		.4byte	0x657
 1280 0875 34       		.byte	0x34
 1281 0876 15       		.uleb128 0x15
 1282 0877 733600   		.ascii	"s6\000"
 1283 087a 0A       		.byte	0xa
 1284 087b E5       		.byte	0xe5
 1285 087c 57060000 		.4byte	0x657
 1286 0880 38       		.byte	0x38
 1287 0881 15       		.uleb128 0x15
 1288 0882 733700   		.ascii	"s7\000"
 1289 0885 0A       		.byte	0xa
 1290 0886 E6       		.byte	0xe6
 1291 0887 57060000 		.4byte	0x657
 1292 088b 3C       		.byte	0x3c
 1293 088c 15       		.uleb128 0x15
 1294 088d 733800   		.ascii	"s8\000"
 1295 0890 0A       		.byte	0xa
 1296 0891 E7       		.byte	0xe7
 1297 0892 57060000 		.4byte	0x657
 1298 0896 40       		.byte	0x40
 1299 0897 15       		.uleb128 0x15
 1300 0898 733900   		.ascii	"s9\000"
 1301 089b 0A       		.byte	0xa
 1302 089c E8       		.byte	0xe8
 1303 089d 57060000 		.4byte	0x657
 1304 08a1 44       		.byte	0x44
 1305 08a2 15       		.uleb128 0x15
 1306 08a3 73313000 		.ascii	"s10\000"
 1307 08a7 0A       		.byte	0xa
 1308 08a8 E9       		.byte	0xe9
 1309 08a9 57060000 		.4byte	0x657
 1310 08ad 48       		.byte	0x48
 1311 08ae 15       		.uleb128 0x15
ARM GAS  /tmp/cc2znu0b.s 			page 24


 1312 08af 73313100 		.ascii	"s11\000"
 1313 08b3 0A       		.byte	0xa
 1314 08b4 EA       		.byte	0xea
 1315 08b5 57060000 		.4byte	0x657
 1316 08b9 4C       		.byte	0x4c
 1317 08ba 15       		.uleb128 0x15
 1318 08bb 73313200 		.ascii	"s12\000"
 1319 08bf 0A       		.byte	0xa
 1320 08c0 EB       		.byte	0xeb
 1321 08c1 57060000 		.4byte	0x657
 1322 08c5 50       		.byte	0x50
 1323 08c6 15       		.uleb128 0x15
 1324 08c7 73313300 		.ascii	"s13\000"
 1325 08cb 0A       		.byte	0xa
 1326 08cc EC       		.byte	0xec
 1327 08cd 57060000 		.4byte	0x657
 1328 08d1 54       		.byte	0x54
 1329 08d2 15       		.uleb128 0x15
 1330 08d3 73313400 		.ascii	"s14\000"
 1331 08d7 0A       		.byte	0xa
 1332 08d8 ED       		.byte	0xed
 1333 08d9 57060000 		.4byte	0x657
 1334 08dd 58       		.byte	0x58
 1335 08de 15       		.uleb128 0x15
 1336 08df 73313500 		.ascii	"s15\000"
 1337 08e3 0A       		.byte	0xa
 1338 08e4 EE       		.byte	0xee
 1339 08e5 57060000 		.4byte	0x657
 1340 08e9 5C       		.byte	0x5c
 1341 08ea 07       		.uleb128 0x7
 1342 08eb 08050000 		.4byte	.LASF109
 1343 08ef 0A       		.byte	0xa
 1344 08f0 EF       		.byte	0xef
 1345 08f1 57060000 		.4byte	0x657
 1346 08f5 60       		.byte	0x60
 1347 08f6 07       		.uleb128 0x7
 1348 08f7 A0010000 		.4byte	.LASF110
 1349 08fb 0A       		.byte	0xa
 1350 08fc F0       		.byte	0xf0
 1351 08fd 57060000 		.4byte	0x657
 1352 0901 64       		.byte	0x64
 1353 0902 00       		.byte	0
 1354 0903 16       		.uleb128 0x16
 1355 0904 04       		.byte	0x4
 1356 0905 0B       		.byte	0xb
 1357 0906 38       		.byte	0x38
 1358 0907 18090000 		.4byte	0x918
 1359 090b 07       		.uleb128 0x7
 1360 090c 16060000 		.4byte	.LASF111
 1361 0910 0B       		.byte	0xb
 1362 0911 3C       		.byte	0x3c
 1363 0912 D4000000 		.4byte	0xd4
 1364 0916 00       		.byte	0
 1365 0917 00       		.byte	0
 1366 0918 04       		.uleb128 0x4
 1367 0919 1D040000 		.4byte	.LASF112
 1368 091d 0B       		.byte	0xb
ARM GAS  /tmp/cc2znu0b.s 			page 25


 1369 091e 3D       		.byte	0x3d
 1370 091f 03090000 		.4byte	0x903
 1371 0923 17       		.uleb128 0x17
 1372 0924 04       		.byte	0x4
 1373 0925 07       		.byte	0x7
 1374 0926 FA       		.byte	0xfa
 1375 0927 80090000 		.4byte	0x980
 1376 092b 18       		.uleb128 0x18
 1377 092c 55000000 		.4byte	.LASF113
 1378 0930 07       		.byte	0x7
 1379 0931 0101     		.2byte	0x101
 1380 0933 0B010000 		.4byte	0x10b
 1381 0937 18       		.uleb128 0x18
 1382 0938 A7000000 		.4byte	.LASF114
 1383 093c 07       		.byte	0x7
 1384 093d 0801     		.2byte	0x108
 1385 093f 0B010000 		.4byte	0x10b
 1386 0943 18       		.uleb128 0x18
 1387 0944 90060000 		.4byte	.LASF115
 1388 0948 07       		.byte	0x7
 1389 0949 0F01     		.2byte	0x10f
 1390 094b 17030000 		.4byte	0x317
 1391 094f 18       		.uleb128 0x18
 1392 0950 4F000000 		.4byte	.LASF116
 1393 0954 07       		.byte	0x7
 1394 0955 1601     		.2byte	0x116
 1395 0957 80090000 		.4byte	0x980
 1396 095b 18       		.uleb128 0x18
 1397 095c FA010000 		.4byte	.LASF117
 1398 0960 07       		.byte	0x7
 1399 0961 1E01     		.2byte	0x11e
 1400 0963 AB090000 		.4byte	0x9ab
 1401 0967 18       		.uleb128 0x18
 1402 0968 7A050000 		.4byte	.LASF118
 1403 096c 07       		.byte	0x7
 1404 096d 2701     		.2byte	0x127
 1405 096f E2090000 		.4byte	0x9e2
 1406 0973 18       		.uleb128 0x18
 1407 0974 FA040000 		.4byte	.LASF119
 1408 0978 07       		.byte	0x7
 1409 0979 2F01     		.2byte	0x12f
 1410 097b 16010000 		.4byte	0x116
 1411 097f 00       		.byte	0
 1412 0980 0A       		.uleb128 0xa
 1413 0981 04       		.byte	0x4
 1414 0982 2F020000 		.4byte	0x22f
 1415 0986 06       		.uleb128 0x6
 1416 0987 59050000 		.4byte	.LASF120
 1417 098b 0C       		.byte	0xc
 1418 098c 0C       		.byte	0xc
 1419 098d 34       		.byte	0x34
 1420 098e AB090000 		.4byte	0x9ab
 1421 0992 07       		.uleb128 0x7
 1422 0993 6C010000 		.4byte	.LASF121
 1423 0997 0C       		.byte	0xc
 1424 0998 35       		.byte	0x35
 1425 0999 64020000 		.4byte	0x264
ARM GAS  /tmp/cc2znu0b.s 			page 26


 1426 099d 00       		.byte	0
 1427 099e 07       		.uleb128 0x7
 1428 099f 37020000 		.4byte	.LASF122
 1429 09a3 0C       		.byte	0xc
 1430 09a4 37       		.byte	0x37
 1431 09a5 21010000 		.4byte	0x121
 1432 09a9 08       		.byte	0x8
 1433 09aa 00       		.byte	0
 1434 09ab 0A       		.uleb128 0xa
 1435 09ac 04       		.byte	0x4
 1436 09ad 86090000 		.4byte	0x986
 1437 09b1 06       		.uleb128 0x6
 1438 09b2 6D060000 		.4byte	.LASF123
 1439 09b6 10       		.byte	0x10
 1440 09b7 0D       		.byte	0xd
 1441 09b8 39       		.byte	0x39
 1442 09b9 E2090000 		.4byte	0x9e2
 1443 09bd 07       		.uleb128 0x7
 1444 09be 0E010000 		.4byte	.LASF124
 1445 09c2 0D       		.byte	0xd
 1446 09c3 3A       		.byte	0x3a
 1447 09c4 64020000 		.4byte	0x264
 1448 09c8 00       		.byte	0
 1449 09c9 07       		.uleb128 0x7
 1450 09ca C0060000 		.4byte	.LASF125
 1451 09ce 0D       		.byte	0xd
 1452 09cf 3C       		.byte	0x3c
 1453 09d0 3A020000 		.4byte	0x23a
 1454 09d4 08       		.byte	0x8
 1455 09d5 07       		.uleb128 0x7
 1456 09d6 CE050000 		.4byte	.LASF126
 1457 09da 0D       		.byte	0xd
 1458 09db 3E       		.byte	0x3e
 1459 09dc 200A0000 		.4byte	0xa20
 1460 09e0 0C       		.byte	0xc
 1461 09e1 00       		.byte	0
 1462 09e2 0A       		.uleb128 0xa
 1463 09e3 04       		.byte	0x4
 1464 09e4 B1090000 		.4byte	0x9b1
 1465 09e8 0A       		.uleb128 0xa
 1466 09e9 04       		.byte	0x4
 1467 09ea F5090000 		.4byte	0x9f5
 1468 09ee 03       		.uleb128 0x3
 1469 09ef 01       		.byte	0x1
 1470 09f0 08       		.byte	0x8
 1471 09f1 AB050000 		.4byte	.LASF127
 1472 09f5 11       		.uleb128 0x11
 1473 09f6 EE090000 		.4byte	0x9ee
 1474 09fa 0A       		.uleb128 0xa
 1475 09fb 04       		.byte	0x4
 1476 09fc 19030000 		.4byte	0x319
 1477 0a00 05       		.uleb128 0x5
 1478 0a01 E8090000 		.4byte	0x9e8
 1479 0a05 12       		.uleb128 0x12
 1480 0a06 62060000 		.4byte	0x662
 1481 0a0a 150A0000 		.4byte	0xa15
 1482 0a0e 13       		.uleb128 0x13
ARM GAS  /tmp/cc2znu0b.s 			page 27


 1483 0a0f 4D040000 		.4byte	0x44d
 1484 0a13 2B       		.byte	0x2b
 1485 0a14 00       		.byte	0
 1486 0a15 04       		.uleb128 0x4
 1487 0a16 B8060000 		.4byte	.LASF128
 1488 0a1a 0D       		.byte	0xd
 1489 0a1b 34       		.byte	0x34
 1490 0a1c B1090000 		.4byte	0x9b1
 1491 0a20 0A       		.uleb128 0xa
 1492 0a21 04       		.byte	0x4
 1493 0a22 150A0000 		.4byte	0xa15
 1494 0a26 19       		.uleb128 0x19
 1495 0a27 FE050000 		.4byte	.LASF131
 1496 0a2b 02       		.byte	0x2
 1497 0a2c 2002     		.2byte	0x220
 1498 0a2e 03       		.byte	0x3
 1499 0a2f 400A0000 		.4byte	0xa40
 1500 0a33 1A       		.uleb128 0x1a
 1501 0a34 B7010000 		.4byte	.LASF133
 1502 0a38 02       		.byte	0x2
 1503 0a39 2002     		.2byte	0x220
 1504 0a3b B4000000 		.4byte	0xb4
 1505 0a3f 00       		.byte	0
 1506 0a40 1B       		.uleb128 0x1b
 1507 0a41 9D000000 		.4byte	.LASF129
 1508 0a45 0A       		.byte	0xa
 1509 0a46 BC01     		.2byte	0x1bc
 1510 0a48 03       		.byte	0x3
 1511 0a49 1B       		.uleb128 0x1b
 1512 0a4a 22010000 		.4byte	.LASF130
 1513 0a4e 0A       		.byte	0xa
 1514 0a4f CA01     		.2byte	0x1ca
 1515 0a51 03       		.byte	0x3
 1516 0a52 19       		.uleb128 0x19
 1517 0a53 E8010000 		.4byte	.LASF132
 1518 0a57 02       		.byte	0x2
 1519 0a58 B701     		.2byte	0x1b7
 1520 0a5a 03       		.byte	0x3
 1521 0a5b 6C0A0000 		.4byte	0xa6c
 1522 0a5f 1A       		.uleb128 0x1a
 1523 0a60 98020000 		.4byte	.LASF134
 1524 0a64 02       		.byte	0x2
 1525 0a65 B701     		.2byte	0x1b7
 1526 0a67 B4000000 		.4byte	0xb4
 1527 0a6b 00       		.byte	0
 1528 0a6c 1C       		.uleb128 0x1c
 1529 0a6d 4C060000 		.4byte	.LASF136
 1530 0a71 02       		.byte	0x2
 1531 0a72 A801     		.2byte	0x1a8
 1532 0a74 B4000000 		.4byte	0xb4
 1533 0a78 03       		.byte	0x3
 1534 0a79 8A0A0000 		.4byte	0xa8a
 1535 0a7d 1D       		.uleb128 0x1d
 1536 0a7e C8060000 		.4byte	.LASF138
 1537 0a82 02       		.byte	0x2
 1538 0a83 AA01     		.2byte	0x1aa
 1539 0a85 B4000000 		.4byte	0xb4
ARM GAS  /tmp/cc2znu0b.s 			page 28


 1540 0a89 00       		.byte	0
 1541 0a8a 1B       		.uleb128 0x1b
 1542 0a8b B0050000 		.4byte	.LASF135
 1543 0a8f 0A       		.byte	0xa
 1544 0a90 E401     		.2byte	0x1e4
 1545 0a92 03       		.byte	0x3
 1546 0a93 1C       		.uleb128 0x1c
 1547 0a94 8D040000 		.4byte	.LASF137
 1548 0a98 02       		.byte	0x2
 1549 0a99 4B02     		.2byte	0x24b
 1550 0a9b B4000000 		.4byte	0xb4
 1551 0a9f 03       		.byte	0x3
 1552 0aa0 B10A0000 		.4byte	0xab1
 1553 0aa4 1D       		.uleb128 0x1d
 1554 0aa5 C8060000 		.4byte	.LASF138
 1555 0aa9 02       		.byte	0x2
 1556 0aaa 4E02     		.2byte	0x24e
 1557 0aac B4000000 		.4byte	0xb4
 1558 0ab0 00       		.byte	0
 1559 0ab1 1B       		.uleb128 0x1b
 1560 0ab2 39060000 		.4byte	.LASF139
 1561 0ab6 0A       		.byte	0xa
 1562 0ab7 D901     		.2byte	0x1d9
 1563 0ab9 03       		.byte	0x3
 1564 0aba 1E       		.uleb128 0x1e
 1565 0abb 36050000 		.4byte	.LASF140
 1566 0abf 01       		.byte	0x1
 1567 0ac0 3E       		.byte	0x3e
 1568 0ac1 00000000 		.4byte	.LFB229
 1569 0ac5 20000000 		.4byte	.LFE229-.LFB229
 1570 0ac9 01       		.uleb128 0x1
 1571 0aca 9C       		.byte	0x9c
 1572 0acb 5B0B0000 		.4byte	0xb5b
 1573 0acf 1F       		.uleb128 0x1f
 1574 0ad0 69040000 		.4byte	.LASF142
 1575 0ad4 01       		.byte	0x1
 1576 0ad5 40       		.byte	0x40
 1577 0ad6 5B0B0000 		.4byte	0xb5b
 1578 0ada 00000000 		.4byte	.LLST0
 1579 0ade 20       		.uleb128 0x20
 1580 0adf 6C0A0000 		.4byte	0xa6c
 1581 0ae3 0A000000 		.4byte	.LBB51
 1582 0ae7 04000000 		.4byte	.LBE51-.LBB51
 1583 0aeb 01       		.byte	0x1
 1584 0aec 48       		.byte	0x48
 1585 0aed 050B0000 		.4byte	0xb05
 1586 0af1 21       		.uleb128 0x21
 1587 0af2 0A000000 		.4byte	.LBB52
 1588 0af6 04000000 		.4byte	.LBE52-.LBB52
 1589 0afa 22       		.uleb128 0x22
 1590 0afb 7D0A0000 		.4byte	0xa7d
 1591 0aff 21000000 		.4byte	.LLST1
 1592 0b03 00       		.byte	0
 1593 0b04 00       		.byte	0
 1594 0b05 20       		.uleb128 0x20
 1595 0b06 520A0000 		.4byte	0xa52
 1596 0b0a 0E000000 		.4byte	.LBB53
ARM GAS  /tmp/cc2znu0b.s 			page 29


 1597 0b0e 06000000 		.4byte	.LBE53-.LBB53
 1598 0b12 01       		.byte	0x1
 1599 0b13 4F       		.byte	0x4f
 1600 0b14 220B0000 		.4byte	0xb22
 1601 0b18 23       		.uleb128 0x23
 1602 0b19 5F0A0000 		.4byte	0xa5f
 1603 0b1d 00000000 		.4byte	.LLST0
 1604 0b21 00       		.byte	0
 1605 0b22 24       		.uleb128 0x24
 1606 0b23 8A0A0000 		.4byte	0xa8a
 1607 0b27 14000000 		.4byte	.LBB55
 1608 0b2b 0C000000 		.4byte	.LBE55-.LBB55
 1609 0b2f 01       		.byte	0x1
 1610 0b30 52       		.byte	0x52
 1611 0b31 25       		.uleb128 0x25
 1612 0b32 490A0000 		.4byte	0xa49
 1613 0b36 14000000 		.4byte	.LBB56
 1614 0b3a 0C000000 		.4byte	.LBE56-.LBB56
 1615 0b3e 0A       		.byte	0xa
 1616 0b3f E601     		.2byte	0x1e6
 1617 0b41 25       		.uleb128 0x25
 1618 0b42 260A0000 		.4byte	0xa26
 1619 0b46 14000000 		.4byte	.LBB57
 1620 0b4a 0C000000 		.4byte	.LBE57-.LBB57
 1621 0b4e 0A       		.byte	0xa
 1622 0b4f CD01     		.2byte	0x1cd
 1623 0b51 26       		.uleb128 0x26
 1624 0b52 330A0000 		.4byte	0xa33
 1625 0b56 00       		.byte	0
 1626 0b57 00       		.byte	0
 1627 0b58 00       		.byte	0
 1628 0b59 00       		.byte	0
 1629 0b5a 00       		.byte	0
 1630 0b5b 0A       		.uleb128 0xa
 1631 0b5c 04       		.byte	0x4
 1632 0b5d CD070000 		.4byte	0x7cd
 1633 0b61 1E       		.uleb128 0x1e
 1634 0b62 63020000 		.4byte	.LASF141
 1635 0b66 01       		.byte	0x1
 1636 0b67 7A       		.byte	0x7a
 1637 0b68 00000000 		.4byte	.LFB230
 1638 0b6c 60000000 		.4byte	.LFE230-.LFB230
 1639 0b70 01       		.uleb128 0x1
 1640 0b71 9C       		.byte	0x9c
 1641 0b72 7B0C0000 		.4byte	0xc7b
 1642 0b76 20       		.uleb128 0x20
 1643 0b77 B10A0000 		.4byte	0xab1
 1644 0b7b 00000000 		.4byte	.LBB59
 1645 0b7f 06000000 		.4byte	.LBE59-.LBB59
 1646 0b83 01       		.byte	0x1
 1647 0b84 7C       		.byte	0x7c
 1648 0b85 B20B0000 		.4byte	0xbb2
 1649 0b89 25       		.uleb128 0x25
 1650 0b8a 400A0000 		.4byte	0xa40
 1651 0b8e 00000000 		.4byte	.LBB60
 1652 0b92 06000000 		.4byte	.LBE60-.LBB60
 1653 0b96 0A       		.byte	0xa
ARM GAS  /tmp/cc2znu0b.s 			page 30


 1654 0b97 DB01     		.2byte	0x1db
 1655 0b99 25       		.uleb128 0x25
 1656 0b9a 260A0000 		.4byte	0xa26
 1657 0b9e 00000000 		.4byte	.LBB61
 1658 0ba2 06000000 		.4byte	.LBE61-.LBB61
 1659 0ba6 0A       		.byte	0xa
 1660 0ba7 BF01     		.2byte	0x1bf
 1661 0ba9 26       		.uleb128 0x26
 1662 0baa 330A0000 		.4byte	0xa33
 1663 0bae 20       		.byte	0x20
 1664 0baf 00       		.byte	0
 1665 0bb0 00       		.byte	0
 1666 0bb1 00       		.byte	0
 1667 0bb2 20       		.uleb128 0x20
 1668 0bb3 8A0A0000 		.4byte	0xa8a
 1669 0bb7 10000000 		.4byte	.LBB63
 1670 0bbb 06000000 		.4byte	.LBE63-.LBB63
 1671 0bbf 01       		.byte	0x1
 1672 0bc0 A5       		.byte	0xa5
 1673 0bc1 F10B0000 		.4byte	0xbf1
 1674 0bc5 25       		.uleb128 0x25
 1675 0bc6 490A0000 		.4byte	0xa49
 1676 0bca 10000000 		.4byte	.LBB64
 1677 0bce 06000000 		.4byte	.LBE64-.LBB64
 1678 0bd2 0A       		.byte	0xa
 1679 0bd3 E601     		.2byte	0x1e6
 1680 0bd5 25       		.uleb128 0x25
 1681 0bd6 260A0000 		.4byte	0xa26
 1682 0bda 10000000 		.4byte	.LBB65
 1683 0bde 06000000 		.4byte	.LBE65-.LBB65
 1684 0be2 0A       		.byte	0xa
 1685 0be3 CD01     		.2byte	0x1cd
 1686 0be5 23       		.uleb128 0x23
 1687 0be6 330A0000 		.4byte	0xa33
 1688 0bea 42000000 		.4byte	.LLST3
 1689 0bee 00       		.byte	0
 1690 0bef 00       		.byte	0
 1691 0bf0 00       		.byte	0
 1692 0bf1 21       		.uleb128 0x21
 1693 0bf2 18000000 		.4byte	.LBB67
 1694 0bf6 48000000 		.4byte	.LBE67-.LBB67
 1695 0bfa 1F       		.uleb128 0x1f
 1696 0bfb 69040000 		.4byte	.LASF142
 1697 0bff 01       		.byte	0x1
 1698 0c00 7E       		.byte	0x7e
 1699 0c01 5B0B0000 		.4byte	0xb5b
 1700 0c05 56000000 		.4byte	.LLST4
 1701 0c09 20       		.uleb128 0x20
 1702 0c0a 930A0000 		.4byte	0xa93
 1703 0c0e 18000000 		.4byte	.LBB68
 1704 0c12 04000000 		.4byte	.LBE68-.LBB68
 1705 0c16 01       		.byte	0x1
 1706 0c17 82       		.byte	0x82
 1707 0c18 2C0C0000 		.4byte	0xc2c
 1708 0c1c 21       		.uleb128 0x21
 1709 0c1d 18000000 		.4byte	.LBB69
 1710 0c21 04000000 		.4byte	.LBE69-.LBB69
ARM GAS  /tmp/cc2znu0b.s 			page 31


 1711 0c25 27       		.uleb128 0x27
 1712 0c26 A40A0000 		.4byte	0xaa4
 1713 0c2a 00       		.byte	0
 1714 0c2b 00       		.byte	0
 1715 0c2c 20       		.uleb128 0x20
 1716 0c2d 6C0A0000 		.4byte	0xa6c
 1717 0c31 1C000000 		.4byte	.LBB70
 1718 0c35 04000000 		.4byte	.LBE70-.LBB70
 1719 0c39 01       		.byte	0x1
 1720 0c3a 86       		.byte	0x86
 1721 0c3b 530C0000 		.4byte	0xc53
 1722 0c3f 21       		.uleb128 0x21
 1723 0c40 1C000000 		.4byte	.LBB71
 1724 0c44 04000000 		.4byte	.LBE71-.LBB71
 1725 0c48 22       		.uleb128 0x22
 1726 0c49 7D0A0000 		.4byte	0xa7d
 1727 0c4d 85000000 		.4byte	.LLST5
 1728 0c51 00       		.byte	0
 1729 0c52 00       		.byte	0
 1730 0c53 20       		.uleb128 0x20
 1731 0c54 520A0000 		.4byte	0xa52
 1732 0c58 30000000 		.4byte	.LBB72
 1733 0c5c 08000000 		.4byte	.LBE72-.LBB72
 1734 0c60 01       		.byte	0x1
 1735 0c61 93       		.byte	0x93
 1736 0c62 700C0000 		.4byte	0xc70
 1737 0c66 23       		.uleb128 0x23
 1738 0c67 5F0A0000 		.4byte	0xa5f
 1739 0c6b 98000000 		.4byte	.LLST6
 1740 0c6f 00       		.byte	0
 1741 0c70 28       		.uleb128 0x28
 1742 0c71 3C000000 		.4byte	.LVL11
 1743 0c75 920C0000 		.4byte	0xc92
 1744 0c79 00       		.byte	0
 1745 0c7a 00       		.byte	0
 1746 0c7b 29       		.uleb128 0x29
 1747 0c7c C5040000 		.4byte	.LASF143
 1748 0c80 08       		.byte	0x8
 1749 0c81 A706     		.2byte	0x6a7
 1750 0c83 CA000000 		.4byte	0xca
 1751 0c87 2A       		.uleb128 0x2a
 1752 0c88 636800   		.ascii	"ch\000"
 1753 0c8b 07       		.byte	0x7
 1754 0c8c 0902     		.2byte	0x209
 1755 0c8e E6030000 		.4byte	0x3e6
 1756 0c92 2B       		.uleb128 0x2b
 1757 0c93 4A010000 		.4byte	.LASF147
 1758 0c97 4A010000 		.4byte	.LASF147
 1759 0c9b 07       		.byte	0x7
 1760 0c9c 1802     		.2byte	0x218
 1761 0c9e 00       		.byte	0
 1762              		.section	.debug_abbrev,"",%progbits
 1763              	.Ldebug_abbrev0:
 1764 0000 01       		.uleb128 0x1
 1765 0001 11       		.uleb128 0x11
 1766 0002 01       		.byte	0x1
 1767 0003 25       		.uleb128 0x25
ARM GAS  /tmp/cc2znu0b.s 			page 32


 1768 0004 0E       		.uleb128 0xe
 1769 0005 13       		.uleb128 0x13
 1770 0006 0B       		.uleb128 0xb
 1771 0007 03       		.uleb128 0x3
 1772 0008 0E       		.uleb128 0xe
 1773 0009 1B       		.uleb128 0x1b
 1774 000a 0E       		.uleb128 0xe
 1775 000b 55       		.uleb128 0x55
 1776 000c 17       		.uleb128 0x17
 1777 000d 11       		.uleb128 0x11
 1778 000e 01       		.uleb128 0x1
 1779 000f 10       		.uleb128 0x10
 1780 0010 17       		.uleb128 0x17
 1781 0011 00       		.byte	0
 1782 0012 00       		.byte	0
 1783 0013 02       		.uleb128 0x2
 1784 0014 24       		.uleb128 0x24
 1785 0015 00       		.byte	0
 1786 0016 0B       		.uleb128 0xb
 1787 0017 0B       		.uleb128 0xb
 1788 0018 3E       		.uleb128 0x3e
 1789 0019 0B       		.uleb128 0xb
 1790 001a 03       		.uleb128 0x3
 1791 001b 08       		.uleb128 0x8
 1792 001c 00       		.byte	0
 1793 001d 00       		.byte	0
 1794 001e 03       		.uleb128 0x3
 1795 001f 24       		.uleb128 0x24
 1796 0020 00       		.byte	0
 1797 0021 0B       		.uleb128 0xb
 1798 0022 0B       		.uleb128 0xb
 1799 0023 3E       		.uleb128 0x3e
 1800 0024 0B       		.uleb128 0xb
 1801 0025 03       		.uleb128 0x3
 1802 0026 0E       		.uleb128 0xe
 1803 0027 00       		.byte	0
 1804 0028 00       		.byte	0
 1805 0029 04       		.uleb128 0x4
 1806 002a 16       		.uleb128 0x16
 1807 002b 00       		.byte	0
 1808 002c 03       		.uleb128 0x3
 1809 002d 0E       		.uleb128 0xe
 1810 002e 3A       		.uleb128 0x3a
 1811 002f 0B       		.uleb128 0xb
 1812 0030 3B       		.uleb128 0x3b
 1813 0031 0B       		.uleb128 0xb
 1814 0032 49       		.uleb128 0x49
 1815 0033 13       		.uleb128 0x13
 1816 0034 00       		.byte	0
 1817 0035 00       		.byte	0
 1818 0036 05       		.uleb128 0x5
 1819 0037 35       		.uleb128 0x35
 1820 0038 00       		.byte	0
 1821 0039 49       		.uleb128 0x49
 1822 003a 13       		.uleb128 0x13
 1823 003b 00       		.byte	0
 1824 003c 00       		.byte	0
ARM GAS  /tmp/cc2znu0b.s 			page 33


 1825 003d 06       		.uleb128 0x6
 1826 003e 13       		.uleb128 0x13
 1827 003f 01       		.byte	0x1
 1828 0040 03       		.uleb128 0x3
 1829 0041 0E       		.uleb128 0xe
 1830 0042 0B       		.uleb128 0xb
 1831 0043 0B       		.uleb128 0xb
 1832 0044 3A       		.uleb128 0x3a
 1833 0045 0B       		.uleb128 0xb
 1834 0046 3B       		.uleb128 0x3b
 1835 0047 0B       		.uleb128 0xb
 1836 0048 01       		.uleb128 0x1
 1837 0049 13       		.uleb128 0x13
 1838 004a 00       		.byte	0
 1839 004b 00       		.byte	0
 1840 004c 07       		.uleb128 0x7
 1841 004d 0D       		.uleb128 0xd
 1842 004e 00       		.byte	0
 1843 004f 03       		.uleb128 0x3
 1844 0050 0E       		.uleb128 0xe
 1845 0051 3A       		.uleb128 0x3a
 1846 0052 0B       		.uleb128 0xb
 1847 0053 3B       		.uleb128 0x3b
 1848 0054 0B       		.uleb128 0xb
 1849 0055 49       		.uleb128 0x49
 1850 0056 13       		.uleb128 0x13
 1851 0057 38       		.uleb128 0x38
 1852 0058 0B       		.uleb128 0xb
 1853 0059 00       		.byte	0
 1854 005a 00       		.byte	0
 1855 005b 08       		.uleb128 0x8
 1856 005c 0D       		.uleb128 0xd
 1857 005d 00       		.byte	0
 1858 005e 03       		.uleb128 0x3
 1859 005f 08       		.uleb128 0x8
 1860 0060 3A       		.uleb128 0x3a
 1861 0061 0B       		.uleb128 0xb
 1862 0062 3B       		.uleb128 0x3b
 1863 0063 05       		.uleb128 0x5
 1864 0064 49       		.uleb128 0x49
 1865 0065 13       		.uleb128 0x13
 1866 0066 38       		.uleb128 0x38
 1867 0067 0B       		.uleb128 0xb
 1868 0068 00       		.byte	0
 1869 0069 00       		.byte	0
 1870 006a 09       		.uleb128 0x9
 1871 006b 0D       		.uleb128 0xd
 1872 006c 00       		.byte	0
 1873 006d 03       		.uleb128 0x3
 1874 006e 0E       		.uleb128 0xe
 1875 006f 3A       		.uleb128 0x3a
 1876 0070 0B       		.uleb128 0xb
 1877 0071 3B       		.uleb128 0x3b
 1878 0072 05       		.uleb128 0x5
 1879 0073 49       		.uleb128 0x49
 1880 0074 13       		.uleb128 0x13
 1881 0075 38       		.uleb128 0x38
ARM GAS  /tmp/cc2znu0b.s 			page 34


 1882 0076 0B       		.uleb128 0xb
 1883 0077 00       		.byte	0
 1884 0078 00       		.byte	0
 1885 0079 0A       		.uleb128 0xa
 1886 007a 0F       		.uleb128 0xf
 1887 007b 00       		.byte	0
 1888 007c 0B       		.uleb128 0xb
 1889 007d 0B       		.uleb128 0xb
 1890 007e 49       		.uleb128 0x49
 1891 007f 13       		.uleb128 0x13
 1892 0080 00       		.byte	0
 1893 0081 00       		.byte	0
 1894 0082 0B       		.uleb128 0xb
 1895 0083 13       		.uleb128 0x13
 1896 0084 01       		.byte	0x1
 1897 0085 03       		.uleb128 0x3
 1898 0086 0E       		.uleb128 0xe
 1899 0087 0B       		.uleb128 0xb
 1900 0088 0B       		.uleb128 0xb
 1901 0089 3A       		.uleb128 0x3a
 1902 008a 0B       		.uleb128 0xb
 1903 008b 3B       		.uleb128 0x3b
 1904 008c 05       		.uleb128 0x5
 1905 008d 01       		.uleb128 0x1
 1906 008e 13       		.uleb128 0x13
 1907 008f 00       		.byte	0
 1908 0090 00       		.byte	0
 1909 0091 0C       		.uleb128 0xc
 1910 0092 15       		.uleb128 0x15
 1911 0093 01       		.byte	0x1
 1912 0094 27       		.uleb128 0x27
 1913 0095 19       		.uleb128 0x19
 1914 0096 01       		.uleb128 0x1
 1915 0097 13       		.uleb128 0x13
 1916 0098 00       		.byte	0
 1917 0099 00       		.byte	0
 1918 009a 0D       		.uleb128 0xd
 1919 009b 05       		.uleb128 0x5
 1920 009c 00       		.byte	0
 1921 009d 49       		.uleb128 0x49
 1922 009e 13       		.uleb128 0x13
 1923 009f 00       		.byte	0
 1924 00a0 00       		.byte	0
 1925 00a1 0E       		.uleb128 0xe
 1926 00a2 0F       		.uleb128 0xf
 1927 00a3 00       		.byte	0
 1928 00a4 0B       		.uleb128 0xb
 1929 00a5 0B       		.uleb128 0xb
 1930 00a6 00       		.byte	0
 1931 00a7 00       		.byte	0
 1932 00a8 0F       		.uleb128 0xf
 1933 00a9 13       		.uleb128 0x13
 1934 00aa 01       		.byte	0x1
 1935 00ab 03       		.uleb128 0x3
 1936 00ac 0E       		.uleb128 0xe
 1937 00ad 0B       		.uleb128 0xb
 1938 00ae 05       		.uleb128 0x5
ARM GAS  /tmp/cc2znu0b.s 			page 35


 1939 00af 3A       		.uleb128 0x3a
 1940 00b0 0B       		.uleb128 0xb
 1941 00b1 3B       		.uleb128 0x3b
 1942 00b2 05       		.uleb128 0x5
 1943 00b3 01       		.uleb128 0x1
 1944 00b4 13       		.uleb128 0x13
 1945 00b5 00       		.byte	0
 1946 00b6 00       		.byte	0
 1947 00b7 10       		.uleb128 0x10
 1948 00b8 13       		.uleb128 0x13
 1949 00b9 01       		.byte	0x1
 1950 00ba 0B       		.uleb128 0xb
 1951 00bb 0B       		.uleb128 0xb
 1952 00bc 3A       		.uleb128 0x3a
 1953 00bd 0B       		.uleb128 0xb
 1954 00be 3B       		.uleb128 0x3b
 1955 00bf 05       		.uleb128 0x5
 1956 00c0 01       		.uleb128 0x1
 1957 00c1 13       		.uleb128 0x13
 1958 00c2 00       		.byte	0
 1959 00c3 00       		.byte	0
 1960 00c4 11       		.uleb128 0x11
 1961 00c5 26       		.uleb128 0x26
 1962 00c6 00       		.byte	0
 1963 00c7 49       		.uleb128 0x49
 1964 00c8 13       		.uleb128 0x13
 1965 00c9 00       		.byte	0
 1966 00ca 00       		.byte	0
 1967 00cb 12       		.uleb128 0x12
 1968 00cc 01       		.uleb128 0x1
 1969 00cd 01       		.byte	0x1
 1970 00ce 49       		.uleb128 0x49
 1971 00cf 13       		.uleb128 0x13
 1972 00d0 01       		.uleb128 0x1
 1973 00d1 13       		.uleb128 0x13
 1974 00d2 00       		.byte	0
 1975 00d3 00       		.byte	0
 1976 00d4 13       		.uleb128 0x13
 1977 00d5 21       		.uleb128 0x21
 1978 00d6 00       		.byte	0
 1979 00d7 49       		.uleb128 0x49
 1980 00d8 13       		.uleb128 0x13
 1981 00d9 2F       		.uleb128 0x2f
 1982 00da 0B       		.uleb128 0xb
 1983 00db 00       		.byte	0
 1984 00dc 00       		.byte	0
 1985 00dd 14       		.uleb128 0x14
 1986 00de 16       		.uleb128 0x16
 1987 00df 00       		.byte	0
 1988 00e0 03       		.uleb128 0x3
 1989 00e1 0E       		.uleb128 0xe
 1990 00e2 3A       		.uleb128 0x3a
 1991 00e3 0B       		.uleb128 0xb
 1992 00e4 3B       		.uleb128 0x3b
 1993 00e5 05       		.uleb128 0x5
 1994 00e6 49       		.uleb128 0x49
 1995 00e7 13       		.uleb128 0x13
ARM GAS  /tmp/cc2znu0b.s 			page 36


 1996 00e8 00       		.byte	0
 1997 00e9 00       		.byte	0
 1998 00ea 15       		.uleb128 0x15
 1999 00eb 0D       		.uleb128 0xd
 2000 00ec 00       		.byte	0
 2001 00ed 03       		.uleb128 0x3
 2002 00ee 08       		.uleb128 0x8
 2003 00ef 3A       		.uleb128 0x3a
 2004 00f0 0B       		.uleb128 0xb
 2005 00f1 3B       		.uleb128 0x3b
 2006 00f2 0B       		.uleb128 0xb
 2007 00f3 49       		.uleb128 0x49
 2008 00f4 13       		.uleb128 0x13
 2009 00f5 38       		.uleb128 0x38
 2010 00f6 0B       		.uleb128 0xb
 2011 00f7 00       		.byte	0
 2012 00f8 00       		.byte	0
 2013 00f9 16       		.uleb128 0x16
 2014 00fa 13       		.uleb128 0x13
 2015 00fb 01       		.byte	0x1
 2016 00fc 0B       		.uleb128 0xb
 2017 00fd 0B       		.uleb128 0xb
 2018 00fe 3A       		.uleb128 0x3a
 2019 00ff 0B       		.uleb128 0xb
 2020 0100 3B       		.uleb128 0x3b
 2021 0101 0B       		.uleb128 0xb
 2022 0102 01       		.uleb128 0x1
 2023 0103 13       		.uleb128 0x13
 2024 0104 00       		.byte	0
 2025 0105 00       		.byte	0
 2026 0106 17       		.uleb128 0x17
 2027 0107 17       		.uleb128 0x17
 2028 0108 01       		.byte	0x1
 2029 0109 0B       		.uleb128 0xb
 2030 010a 0B       		.uleb128 0xb
 2031 010b 3A       		.uleb128 0x3a
 2032 010c 0B       		.uleb128 0xb
 2033 010d 3B       		.uleb128 0x3b
 2034 010e 0B       		.uleb128 0xb
 2035 010f 01       		.uleb128 0x1
 2036 0110 13       		.uleb128 0x13
 2037 0111 00       		.byte	0
 2038 0112 00       		.byte	0
 2039 0113 18       		.uleb128 0x18
 2040 0114 0D       		.uleb128 0xd
 2041 0115 00       		.byte	0
 2042 0116 03       		.uleb128 0x3
 2043 0117 0E       		.uleb128 0xe
 2044 0118 3A       		.uleb128 0x3a
 2045 0119 0B       		.uleb128 0xb
 2046 011a 3B       		.uleb128 0x3b
 2047 011b 05       		.uleb128 0x5
 2048 011c 49       		.uleb128 0x49
 2049 011d 13       		.uleb128 0x13
 2050 011e 00       		.byte	0
 2051 011f 00       		.byte	0
 2052 0120 19       		.uleb128 0x19
ARM GAS  /tmp/cc2znu0b.s 			page 37


 2053 0121 2E       		.uleb128 0x2e
 2054 0122 01       		.byte	0x1
 2055 0123 03       		.uleb128 0x3
 2056 0124 0E       		.uleb128 0xe
 2057 0125 3A       		.uleb128 0x3a
 2058 0126 0B       		.uleb128 0xb
 2059 0127 3B       		.uleb128 0x3b
 2060 0128 05       		.uleb128 0x5
 2061 0129 27       		.uleb128 0x27
 2062 012a 19       		.uleb128 0x19
 2063 012b 20       		.uleb128 0x20
 2064 012c 0B       		.uleb128 0xb
 2065 012d 01       		.uleb128 0x1
 2066 012e 13       		.uleb128 0x13
 2067 012f 00       		.byte	0
 2068 0130 00       		.byte	0
 2069 0131 1A       		.uleb128 0x1a
 2070 0132 05       		.uleb128 0x5
 2071 0133 00       		.byte	0
 2072 0134 03       		.uleb128 0x3
 2073 0135 0E       		.uleb128 0xe
 2074 0136 3A       		.uleb128 0x3a
 2075 0137 0B       		.uleb128 0xb
 2076 0138 3B       		.uleb128 0x3b
 2077 0139 05       		.uleb128 0x5
 2078 013a 49       		.uleb128 0x49
 2079 013b 13       		.uleb128 0x13
 2080 013c 00       		.byte	0
 2081 013d 00       		.byte	0
 2082 013e 1B       		.uleb128 0x1b
 2083 013f 2E       		.uleb128 0x2e
 2084 0140 00       		.byte	0
 2085 0141 03       		.uleb128 0x3
 2086 0142 0E       		.uleb128 0xe
 2087 0143 3A       		.uleb128 0x3a
 2088 0144 0B       		.uleb128 0xb
 2089 0145 3B       		.uleb128 0x3b
 2090 0146 05       		.uleb128 0x5
 2091 0147 27       		.uleb128 0x27
 2092 0148 19       		.uleb128 0x19
 2093 0149 20       		.uleb128 0x20
 2094 014a 0B       		.uleb128 0xb
 2095 014b 00       		.byte	0
 2096 014c 00       		.byte	0
 2097 014d 1C       		.uleb128 0x1c
 2098 014e 2E       		.uleb128 0x2e
 2099 014f 01       		.byte	0x1
 2100 0150 03       		.uleb128 0x3
 2101 0151 0E       		.uleb128 0xe
 2102 0152 3A       		.uleb128 0x3a
 2103 0153 0B       		.uleb128 0xb
 2104 0154 3B       		.uleb128 0x3b
 2105 0155 05       		.uleb128 0x5
 2106 0156 27       		.uleb128 0x27
 2107 0157 19       		.uleb128 0x19
 2108 0158 49       		.uleb128 0x49
 2109 0159 13       		.uleb128 0x13
ARM GAS  /tmp/cc2znu0b.s 			page 38


 2110 015a 20       		.uleb128 0x20
 2111 015b 0B       		.uleb128 0xb
 2112 015c 01       		.uleb128 0x1
 2113 015d 13       		.uleb128 0x13
 2114 015e 00       		.byte	0
 2115 015f 00       		.byte	0
 2116 0160 1D       		.uleb128 0x1d
 2117 0161 34       		.uleb128 0x34
 2118 0162 00       		.byte	0
 2119 0163 03       		.uleb128 0x3
 2120 0164 0E       		.uleb128 0xe
 2121 0165 3A       		.uleb128 0x3a
 2122 0166 0B       		.uleb128 0xb
 2123 0167 3B       		.uleb128 0x3b
 2124 0168 05       		.uleb128 0x5
 2125 0169 49       		.uleb128 0x49
 2126 016a 13       		.uleb128 0x13
 2127 016b 00       		.byte	0
 2128 016c 00       		.byte	0
 2129 016d 1E       		.uleb128 0x1e
 2130 016e 2E       		.uleb128 0x2e
 2131 016f 01       		.byte	0x1
 2132 0170 3F       		.uleb128 0x3f
 2133 0171 19       		.uleb128 0x19
 2134 0172 03       		.uleb128 0x3
 2135 0173 0E       		.uleb128 0xe
 2136 0174 3A       		.uleb128 0x3a
 2137 0175 0B       		.uleb128 0xb
 2138 0176 3B       		.uleb128 0x3b
 2139 0177 0B       		.uleb128 0xb
 2140 0178 27       		.uleb128 0x27
 2141 0179 19       		.uleb128 0x19
 2142 017a 11       		.uleb128 0x11
 2143 017b 01       		.uleb128 0x1
 2144 017c 12       		.uleb128 0x12
 2145 017d 06       		.uleb128 0x6
 2146 017e 40       		.uleb128 0x40
 2147 017f 18       		.uleb128 0x18
 2148 0180 9742     		.uleb128 0x2117
 2149 0182 19       		.uleb128 0x19
 2150 0183 01       		.uleb128 0x1
 2151 0184 13       		.uleb128 0x13
 2152 0185 00       		.byte	0
 2153 0186 00       		.byte	0
 2154 0187 1F       		.uleb128 0x1f
 2155 0188 34       		.uleb128 0x34
 2156 0189 00       		.byte	0
 2157 018a 03       		.uleb128 0x3
 2158 018b 0E       		.uleb128 0xe
 2159 018c 3A       		.uleb128 0x3a
 2160 018d 0B       		.uleb128 0xb
 2161 018e 3B       		.uleb128 0x3b
 2162 018f 0B       		.uleb128 0xb
 2163 0190 49       		.uleb128 0x49
 2164 0191 13       		.uleb128 0x13
 2165 0192 02       		.uleb128 0x2
 2166 0193 17       		.uleb128 0x17
ARM GAS  /tmp/cc2znu0b.s 			page 39


 2167 0194 00       		.byte	0
 2168 0195 00       		.byte	0
 2169 0196 20       		.uleb128 0x20
 2170 0197 1D       		.uleb128 0x1d
 2171 0198 01       		.byte	0x1
 2172 0199 31       		.uleb128 0x31
 2173 019a 13       		.uleb128 0x13
 2174 019b 11       		.uleb128 0x11
 2175 019c 01       		.uleb128 0x1
 2176 019d 12       		.uleb128 0x12
 2177 019e 06       		.uleb128 0x6
 2178 019f 58       		.uleb128 0x58
 2179 01a0 0B       		.uleb128 0xb
 2180 01a1 59       		.uleb128 0x59
 2181 01a2 0B       		.uleb128 0xb
 2182 01a3 01       		.uleb128 0x1
 2183 01a4 13       		.uleb128 0x13
 2184 01a5 00       		.byte	0
 2185 01a6 00       		.byte	0
 2186 01a7 21       		.uleb128 0x21
 2187 01a8 0B       		.uleb128 0xb
 2188 01a9 01       		.byte	0x1
 2189 01aa 11       		.uleb128 0x11
 2190 01ab 01       		.uleb128 0x1
 2191 01ac 12       		.uleb128 0x12
 2192 01ad 06       		.uleb128 0x6
 2193 01ae 00       		.byte	0
 2194 01af 00       		.byte	0
 2195 01b0 22       		.uleb128 0x22
 2196 01b1 34       		.uleb128 0x34
 2197 01b2 00       		.byte	0
 2198 01b3 31       		.uleb128 0x31
 2199 01b4 13       		.uleb128 0x13
 2200 01b5 02       		.uleb128 0x2
 2201 01b6 17       		.uleb128 0x17
 2202 01b7 00       		.byte	0
 2203 01b8 00       		.byte	0
 2204 01b9 23       		.uleb128 0x23
 2205 01ba 05       		.uleb128 0x5
 2206 01bb 00       		.byte	0
 2207 01bc 31       		.uleb128 0x31
 2208 01bd 13       		.uleb128 0x13
 2209 01be 02       		.uleb128 0x2
 2210 01bf 17       		.uleb128 0x17
 2211 01c0 00       		.byte	0
 2212 01c1 00       		.byte	0
 2213 01c2 24       		.uleb128 0x24
 2214 01c3 1D       		.uleb128 0x1d
 2215 01c4 01       		.byte	0x1
 2216 01c5 31       		.uleb128 0x31
 2217 01c6 13       		.uleb128 0x13
 2218 01c7 11       		.uleb128 0x11
 2219 01c8 01       		.uleb128 0x1
 2220 01c9 12       		.uleb128 0x12
 2221 01ca 06       		.uleb128 0x6
 2222 01cb 58       		.uleb128 0x58
 2223 01cc 0B       		.uleb128 0xb
ARM GAS  /tmp/cc2znu0b.s 			page 40


 2224 01cd 59       		.uleb128 0x59
 2225 01ce 0B       		.uleb128 0xb
 2226 01cf 00       		.byte	0
 2227 01d0 00       		.byte	0
 2228 01d1 25       		.uleb128 0x25
 2229 01d2 1D       		.uleb128 0x1d
 2230 01d3 01       		.byte	0x1
 2231 01d4 31       		.uleb128 0x31
 2232 01d5 13       		.uleb128 0x13
 2233 01d6 11       		.uleb128 0x11
 2234 01d7 01       		.uleb128 0x1
 2235 01d8 12       		.uleb128 0x12
 2236 01d9 06       		.uleb128 0x6
 2237 01da 58       		.uleb128 0x58
 2238 01db 0B       		.uleb128 0xb
 2239 01dc 59       		.uleb128 0x59
 2240 01dd 05       		.uleb128 0x5
 2241 01de 00       		.byte	0
 2242 01df 00       		.byte	0
 2243 01e0 26       		.uleb128 0x26
 2244 01e1 05       		.uleb128 0x5
 2245 01e2 00       		.byte	0
 2246 01e3 31       		.uleb128 0x31
 2247 01e4 13       		.uleb128 0x13
 2248 01e5 1C       		.uleb128 0x1c
 2249 01e6 0B       		.uleb128 0xb
 2250 01e7 00       		.byte	0
 2251 01e8 00       		.byte	0
 2252 01e9 27       		.uleb128 0x27
 2253 01ea 34       		.uleb128 0x34
 2254 01eb 00       		.byte	0
 2255 01ec 31       		.uleb128 0x31
 2256 01ed 13       		.uleb128 0x13
 2257 01ee 00       		.byte	0
 2258 01ef 00       		.byte	0
 2259 01f0 28       		.uleb128 0x28
 2260 01f1 898201   		.uleb128 0x4109
 2261 01f4 00       		.byte	0
 2262 01f5 11       		.uleb128 0x11
 2263 01f6 01       		.uleb128 0x1
 2264 01f7 31       		.uleb128 0x31
 2265 01f8 13       		.uleb128 0x13
 2266 01f9 00       		.byte	0
 2267 01fa 00       		.byte	0
 2268 01fb 29       		.uleb128 0x29
 2269 01fc 34       		.uleb128 0x34
 2270 01fd 00       		.byte	0
 2271 01fe 03       		.uleb128 0x3
 2272 01ff 0E       		.uleb128 0xe
 2273 0200 3A       		.uleb128 0x3a
 2274 0201 0B       		.uleb128 0xb
 2275 0202 3B       		.uleb128 0x3b
 2276 0203 05       		.uleb128 0x5
 2277 0204 49       		.uleb128 0x49
 2278 0205 13       		.uleb128 0x13
 2279 0206 3F       		.uleb128 0x3f
 2280 0207 19       		.uleb128 0x19
ARM GAS  /tmp/cc2znu0b.s 			page 41


 2281 0208 3C       		.uleb128 0x3c
 2282 0209 19       		.uleb128 0x19
 2283 020a 00       		.byte	0
 2284 020b 00       		.byte	0
 2285 020c 2A       		.uleb128 0x2a
 2286 020d 34       		.uleb128 0x34
 2287 020e 00       		.byte	0
 2288 020f 03       		.uleb128 0x3
 2289 0210 08       		.uleb128 0x8
 2290 0211 3A       		.uleb128 0x3a
 2291 0212 0B       		.uleb128 0xb
 2292 0213 3B       		.uleb128 0x3b
 2293 0214 05       		.uleb128 0x5
 2294 0215 49       		.uleb128 0x49
 2295 0216 13       		.uleb128 0x13
 2296 0217 3F       		.uleb128 0x3f
 2297 0218 19       		.uleb128 0x19
 2298 0219 3C       		.uleb128 0x3c
 2299 021a 19       		.uleb128 0x19
 2300 021b 00       		.byte	0
 2301 021c 00       		.byte	0
 2302 021d 2B       		.uleb128 0x2b
 2303 021e 2E       		.uleb128 0x2e
 2304 021f 00       		.byte	0
 2305 0220 3F       		.uleb128 0x3f
 2306 0221 19       		.uleb128 0x19
 2307 0222 3C       		.uleb128 0x3c
 2308 0223 19       		.uleb128 0x19
 2309 0224 6E       		.uleb128 0x6e
 2310 0225 0E       		.uleb128 0xe
 2311 0226 03       		.uleb128 0x3
 2312 0227 0E       		.uleb128 0xe
 2313 0228 3A       		.uleb128 0x3a
 2314 0229 0B       		.uleb128 0xb
 2315 022a 3B       		.uleb128 0x3b
 2316 022b 05       		.uleb128 0x5
 2317 022c 00       		.byte	0
 2318 022d 00       		.byte	0
 2319 022e 00       		.byte	0
 2320              		.section	.debug_loc,"",%progbits
 2321              	.Ldebug_loc0:
 2322              	.LLST0:
 2323 0000 0E000000 		.4byte	.LVL0
 2324 0004 10000000 		.4byte	.LVL1
 2325 0008 0400     		.2byte	0x4
 2326 000a 73       		.byte	0x73
 2327 000b E800     		.sleb128 104
 2328 000d 9F       		.byte	0x9f
 2329 000e 10000000 		.4byte	.LVL1
 2330 0012 16000000 		.4byte	.LVL3
 2331 0016 0100     		.2byte	0x1
 2332 0018 53       		.byte	0x53
 2333 0019 00000000 		.4byte	0
 2334 001d 00000000 		.4byte	0
 2335              	.LLST1:
 2336 0021 0E000000 		.4byte	.LVL0
 2337 0025 10000000 		.4byte	.LVL1
ARM GAS  /tmp/cc2znu0b.s 			page 42


 2338 0029 0100     		.2byte	0x1
 2339 002b 53       		.byte	0x53
 2340 002c 10000000 		.4byte	.LVL1
 2341 0030 16000000 		.4byte	.LVL3
 2342 0034 0400     		.2byte	0x4
 2343 0036 73       		.byte	0x73
 2344 0037 987F     		.sleb128 -104
 2345 0039 9F       		.byte	0x9f
 2346 003a 00000000 		.4byte	0
 2347 003e 00000000 		.4byte	0
 2348              	.LLST3:
 2349 0042 10000000 		.4byte	.LVL5
 2350 0046 16000000 		.4byte	.LVL6
 2351 004a 0200     		.2byte	0x2
 2352 004c 30       		.byte	0x30
 2353 004d 9F       		.byte	0x9f
 2354 004e 00000000 		.4byte	0
 2355 0052 00000000 		.4byte	0
 2356              	.LLST4:
 2357 0056 20000000 		.4byte	.LVL8
 2358 005a 34000000 		.4byte	.LVL10
 2359 005e 0400     		.2byte	0x4
 2360 0060 74       		.byte	0x74
 2361 0061 987F     		.sleb128 -104
 2362 0063 9F       		.byte	0x9f
 2363 0064 34000000 		.4byte	.LVL10
 2364 0068 3B000000 		.4byte	.LVL11-1
 2365 006c 0100     		.2byte	0x1
 2366 006e 53       		.byte	0x53
 2367 006f 3B000000 		.4byte	.LVL11-1
 2368 0073 4E000000 		.4byte	.LVL13
 2369 0077 0400     		.2byte	0x4
 2370 0079 74       		.byte	0x74
 2371 007a 987F     		.sleb128 -104
 2372 007c 9F       		.byte	0x9f
 2373 007d 00000000 		.4byte	0
 2374 0081 00000000 		.4byte	0
 2375              	.LLST5:
 2376 0085 20000000 		.4byte	.LVL8
 2377 0089 4E000000 		.4byte	.LVL13
 2378 008d 0100     		.2byte	0x1
 2379 008f 54       		.byte	0x54
 2380 0090 00000000 		.4byte	0
 2381 0094 00000000 		.4byte	0
 2382              	.LLST6:
 2383 0098 2C000000 		.4byte	.LVL9
 2384 009c 34000000 		.4byte	.LVL10
 2385 00a0 0400     		.2byte	0x4
 2386 00a2 74       		.byte	0x74
 2387 00a3 987F     		.sleb128 -104
 2388 00a5 9F       		.byte	0x9f
 2389 00a6 34000000 		.4byte	.LVL10
 2390 00aa 3B000000 		.4byte	.LVL11-1
 2391 00ae 0100     		.2byte	0x1
 2392 00b0 53       		.byte	0x53
 2393 00b1 3B000000 		.4byte	.LVL11-1
 2394 00b5 4E000000 		.4byte	.LVL13
ARM GAS  /tmp/cc2znu0b.s 			page 43


 2395 00b9 0400     		.2byte	0x4
 2396 00bb 74       		.byte	0x74
 2397 00bc 987F     		.sleb128 -104
 2398 00be 9F       		.byte	0x9f
 2399 00bf 00000000 		.4byte	0
 2400 00c3 00000000 		.4byte	0
 2401              		.section	.debug_aranges,"",%progbits
 2402 0000 24000000 		.4byte	0x24
 2403 0004 0200     		.2byte	0x2
 2404 0006 00000000 		.4byte	.Ldebug_info0
 2405 000a 04       		.byte	0x4
 2406 000b 00       		.byte	0
 2407 000c 0000     		.2byte	0
 2408 000e 0000     		.2byte	0
 2409 0010 00000000 		.4byte	.LFB229
 2410 0014 20000000 		.4byte	.LFE229-.LFB229
 2411 0018 00000000 		.4byte	.LFB230
 2412 001c 60000000 		.4byte	.LFE230-.LFB230
 2413 0020 00000000 		.4byte	0
 2414 0024 00000000 		.4byte	0
 2415              		.section	.debug_ranges,"",%progbits
 2416              	.Ldebug_ranges0:
 2417 0000 00000000 		.4byte	.LFB229
 2418 0004 20000000 		.4byte	.LFE229
 2419 0008 00000000 		.4byte	.LFB230
 2420 000c 60000000 		.4byte	.LFE230
 2421 0010 00000000 		.4byte	0
 2422 0014 00000000 		.4byte	0
 2423              		.section	.debug_line,"",%progbits
 2424              	.Ldebug_line0:
 2425 0000 E2010000 		.section	.debug_str,"MS",%progbits,1
 2425      02007401 
 2425      00000201 
 2425      FB0E0D00 
 2425      01010101 
 2426              	.LASF51:
 2427 0000 72656164 		.ascii	"ready_list_t\000"
 2427      795F6C69 
 2427      73745F74 
 2427      00
 2428              	.LASF146:
 2429 000d 2F686F6D 		.ascii	"/home/sssilvar/Documents/embebidos/ChibiOS/iflab/pr"
 2429      652F7373 
 2429      73696C76 
 2429      61722F44 
 2429      6F63756D 
 2430 0040 6F6A6563 		.ascii	"ojects/ADC_LCD\000"
 2430      74732F41 
 2430      44435F4C 
 2430      434400
 2431              	.LASF116:
 2432 004f 77747472 		.ascii	"wttrp\000"
 2432      7000
 2433              	.LASF113:
 2434 0055 7264796D 		.ascii	"rdymsg\000"
 2434      736700
 2435              	.LASF98:
ARM GAS  /tmp/cc2znu0b.s 			page 44


 2436 005c 46504453 		.ascii	"FPDSCR\000"
 2436      435200
 2437              	.LASF17:
 2438 0063 75696E74 		.ascii	"uint64_t\000"
 2438      36345F74 
 2438      00
 2439              	.LASF3:
 2440 006c 7369676E 		.ascii	"signed char\000"
 2440      65642063 
 2440      68617200 
 2441              	.LASF7:
 2442 0078 5F5F7569 		.ascii	"__uint8_t\000"
 2442      6E74385F 
 2442      7400
 2443              	.LASF105:
 2444 0082 706F7274 		.ascii	"port_intctx\000"
 2444      5F696E74 
 2444      63747800 
 2445              	.LASF70:
 2446 008e 73797374 		.ascii	"system_debug_t\000"
 2446      656D5F64 
 2446      65627567 
 2446      5F7400
 2447              	.LASF129:
 2448 009d 706F7274 		.ascii	"port_lock\000"
 2448      5F6C6F63 
 2448      6B00
 2449              	.LASF114:
 2450 00a7 65786974 		.ascii	"exitcode\000"
 2450      636F6465 
 2450      00
 2451              	.LASF77:
 2452 00b0 6D61696E 		.ascii	"mainthread\000"
 2452      74687265 
 2452      616400
 2453              	.LASF67:
 2454 00bb 76697274 		.ascii	"virtual_timers_list_t\000"
 2454      75616C5F 
 2454      74696D65 
 2454      72735F6C 
 2454      6973745F 
 2455              	.LASF80:
 2456 00d1 43505549 		.ascii	"CPUID\000"
 2456      4400
 2457              	.LASF50:
 2458 00d7 63685F74 		.ascii	"ch_threads_queue\000"
 2458      68726561 
 2458      64735F71 
 2458      75657565 
 2458      00
 2459              	.LASF30:
 2460 00e8 705F7072 		.ascii	"p_prio\000"
 2460      696F00
 2461              	.LASF44:
 2462 00ef 705F6D70 		.ascii	"p_mpool\000"
 2462      6F6F6C00 
 2463              	.LASF13:
ARM GAS  /tmp/cc2znu0b.s 			page 45


 2464 00f7 6C6F6E67 		.ascii	"long long unsigned int\000"
 2464      206C6F6E 
 2464      6720756E 
 2464      7369676E 
 2464      65642069 
 2465              	.LASF124:
 2466 010e 6D5F7175 		.ascii	"m_queue\000"
 2466      65756500 
 2467              	.LASF92:
 2468 0116 49534152 		.ascii	"ISAR\000"
 2468      00
 2469              	.LASF76:
 2470 011b 76746C69 		.ascii	"vtlist\000"
 2470      737400
 2471              	.LASF130:
 2472 0122 706F7274 		.ascii	"port_unlock\000"
 2472      5F756E6C 
 2472      6F636B00 
 2473              	.LASF74:
 2474 012e 63685F73 		.ascii	"ch_system\000"
 2474      79737465 
 2474      6D00
 2475              	.LASF9:
 2476 0138 6C6F6E67 		.ascii	"long int\000"
 2476      20696E74 
 2476      00
 2477              	.LASF20:
 2478 0141 74737461 		.ascii	"tstate_t\000"
 2478      74655F74 
 2478      00
 2479              	.LASF147:
 2480 014a 63685363 		.ascii	"chSchIsPreemptionRequired\000"
 2480      68497350 
 2480      7265656D 
 2480      7074696F 
 2480      6E526571 
 2481              	.LASF32:
 2482 0164 705F6E65 		.ascii	"p_newer\000"
 2482      77657200 
 2483              	.LASF121:
 2484 016c 735F7175 		.ascii	"s_queue\000"
 2484      65756500 
 2485              	.LASF89:
 2486 0174 42464152 		.ascii	"BFAR\000"
 2486      00
 2487              	.LASF90:
 2488 0179 41465352 		.ascii	"AFSR\000"
 2488      00
 2489              	.LASF56:
 2490 017e 725F6E65 		.ascii	"r_newer\000"
 2490      77657200 
 2491              	.LASF102:
 2492 0186 72656761 		.ascii	"regarm_t\000"
 2492      726D5F74 
 2492      00
 2493              	.LASF63:
 2494 018f 76745F70 		.ascii	"vt_prev\000"
ARM GAS  /tmp/cc2znu0b.s 			page 46


 2494      72657600 
 2495              	.LASF95:
 2496 0197 5343425F 		.ascii	"SCB_Type\000"
 2496      54797065 
 2496      00
 2497              	.LASF110:
 2498 01a0 72657365 		.ascii	"reserved\000"
 2498      72766564 
 2498      00
 2499              	.LASF1:
 2500 01a9 6C6F6E67 		.ascii	"long long int\000"
 2500      206C6F6E 
 2500      6720696E 
 2500      7400
 2501              	.LASF133:
 2502 01b7 76616C75 		.ascii	"value\000"
 2502      6500
 2503              	.LASF78:
 2504 01bd 69646C65 		.ascii	"idle_thread_wa\000"
 2504      5F746872 
 2504      6561645F 
 2504      776100
 2505              	.LASF25:
 2506 01cc 636E745F 		.ascii	"cnt_t\000"
 2506      7400
 2507              	.LASF101:
 2508 01d2 4650555F 		.ascii	"FPU_Type\000"
 2508      54797065 
 2508      00
 2509              	.LASF0:
 2510 01db 756E7369 		.ascii	"unsigned int\000"
 2510      676E6564 
 2510      20696E74 
 2510      00
 2511              	.LASF132:
 2512 01e8 5F5F7365 		.ascii	"__set_PSP\000"
 2512      745F5053 
 2512      5000
 2513              	.LASF62:
 2514 01f2 76745F6E 		.ascii	"vt_next\000"
 2514      65787400 
 2515              	.LASF117:
 2516 01fa 77747365 		.ascii	"wtsemp\000"
 2516      6D7000
 2517              	.LASF145:
 2518 0201 2E2E2F2E 		.ascii	"../../os/rt/ports/ARMCMx/chcore_v7m.c\000"
 2518      2E2F6F73 
 2518      2F72742F 
 2518      706F7274 
 2518      732F4152 
 2519              	.LASF39:
 2520 0227 705F6D73 		.ascii	"p_msgqueue\000"
 2520      67717565 
 2520      756500
 2521              	.LASF82:
 2522 0232 56544F52 		.ascii	"VTOR\000"
 2522      00
ARM GAS  /tmp/cc2znu0b.s 			page 47


 2523              	.LASF122:
 2524 0237 735F636E 		.ascii	"s_cnt\000"
 2524      7400
 2525              	.LASF47:
 2526 023d 63685F74 		.ascii	"ch_thread\000"
 2526      68726561 
 2526      6400
 2527              	.LASF81:
 2528 0247 49435352 		.ascii	"ICSR\000"
 2528      00
 2529              	.LASF23:
 2530 024c 6D73675F 		.ascii	"msg_t\000"
 2530      7400
 2531              	.LASF83:
 2532 0252 41495243 		.ascii	"AIRCR\000"
 2532      5200
 2533              	.LASF87:
 2534 0258 44465352 		.ascii	"DFSR\000"
 2534      00
 2535              	.LASF88:
 2536 025d 4D4D4641 		.ascii	"MMFAR\000"
 2536      5200
 2537              	.LASF141:
 2538 0263 5F706F72 		.ascii	"_port_irq_epilogue\000"
 2538      745F6972 
 2538      715F6570 
 2538      696C6F67 
 2538      756500
 2539              	.LASF19:
 2540 0276 746D6F64 		.ascii	"tmode_t\000"
 2540      655F7400 
 2541              	.LASF52:
 2542 027e 63685F72 		.ascii	"ch_ready_list\000"
 2542      65616479 
 2542      5F6C6973 
 2542      7400
 2543              	.LASF24:
 2544 028c 6576656E 		.ascii	"eventmask_t\000"
 2544      746D6173 
 2544      6B5F7400 
 2545              	.LASF134:
 2546 0298 746F704F 		.ascii	"topOfProcStack\000"
 2546      6650726F 
 2546      63537461 
 2546      636B00
 2547              	.LASF8:
 2548 02a7 5F5F696E 		.ascii	"__int32_t\000"
 2548      7433325F 
 2548      7400
 2549              	.LASF103:
 2550 02b1 73746B61 		.ascii	"stkalign_t\000"
 2550      6C69676E 
 2550      5F7400
 2551              	.LASF144:
 2552 02bc 474E5520 		.ascii	"GNU C11 5.2.0 -mcpu=cortex-m4 -mfloat-abi=hard -mfp"
 2552      43313120 
 2552      352E322E 
ARM GAS  /tmp/cc2znu0b.s 			page 48


 2552      30202D6D 
 2552      6370753D 
 2553 02ef 753D6670 		.ascii	"u=fpv4-sp-d16 -mno-thumb-interwork -mthumb -ggdb -O"
 2553      76342D73 
 2553      702D6431 
 2553      36202D6D 
 2553      6E6F2D74 
 2554 0322 32202D66 		.ascii	"2 -fomit-frame-pointer -falign-functions=16 -ffunct"
 2554      6F6D6974 
 2554      2D667261 
 2554      6D652D70 
 2554      6F696E74 
 2555 0355 696F6E2D 		.ascii	"ion-sections -fdata-sections -fno-common -fsingle-p"
 2555      73656374 
 2555      696F6E73 
 2555      202D6664 
 2555      6174612D 
 2556 0388 72656369 		.ascii	"recision-constant\000"
 2556      73696F6E 
 2556      2D636F6E 
 2556      7374616E 
 2556      7400
 2557              	.LASF46:
 2558 039a 74687265 		.ascii	"threads_list_t\000"
 2558      6164735F 
 2558      6C697374 
 2558      5F7400
 2559              	.LASF38:
 2560 03a9 705F7761 		.ascii	"p_waiting\000"
 2560      6974696E 
 2560      6700
 2561              	.LASF79:
 2562 03b3 73697A65 		.ascii	"sizetype\000"
 2562      74797065 
 2562      00
 2563              	.LASF45:
 2564 03bc 74687265 		.ascii	"thread_reference_t\000"
 2564      61645F72 
 2564      65666572 
 2564      656E6365 
 2564      5F7400
 2565              	.LASF68:
 2566 03cf 63685F76 		.ascii	"ch_virtual_timers_list\000"
 2566      69727475 
 2566      616C5F74 
 2566      696D6572 
 2566      735F6C69 
 2567              	.LASF2:
 2568 03e6 6C6F6E67 		.ascii	"long double\000"
 2568      20646F75 
 2568      626C6500 
 2569              	.LASF85:
 2570 03f2 43465352 		.ascii	"CFSR\000"
 2570      00
 2571              	.LASF69:
 2572 03f7 76745F6C 		.ascii	"vt_lasttime\000"
 2572      61737474 
ARM GAS  /tmp/cc2znu0b.s 			page 49


 2572      696D6500 
 2573              	.LASF33:
 2574 0403 705F6F6C 		.ascii	"p_older\000"
 2574      64657200 
 2575              	.LASF55:
 2576 040b 725F6374 		.ascii	"r_ctx\000"
 2576      7800
 2577              	.LASF106:
 2578 0411 706F7274 		.ascii	"port_extctx\000"
 2578      5F657874 
 2578      63747800 
 2579              	.LASF112:
 2580 041d 746D5F63 		.ascii	"tm_calibration_t\000"
 2580      616C6962 
 2580      72617469 
 2580      6F6E5F74 
 2580      00
 2581              	.LASF58:
 2582 042e 725F6375 		.ascii	"r_current\000"
 2582      7272656E 
 2582      7400
 2583              	.LASF57:
 2584 0438 725F6F6C 		.ascii	"r_older\000"
 2584      64657200 
 2585              	.LASF12:
 2586 0440 5F5F7569 		.ascii	"__uint64_t\000"
 2586      6E743634 
 2586      5F7400
 2587              	.LASF99:
 2588 044b 4D564652 		.ascii	"MVFR0\000"
 2588      3000
 2589              	.LASF100:
 2590 0451 4D564652 		.ascii	"MVFR1\000"
 2590      3100
 2591              	.LASF21:
 2592 0457 74726566 		.ascii	"trefs_t\000"
 2592      735F7400 
 2593              	.LASF93:
 2594 045f 52455345 		.ascii	"RESERVED0\000"
 2594      52564544 
 2594      3000
 2595              	.LASF142:
 2596 0469 63747870 		.ascii	"ctxp\000"
 2596      00
 2597              	.LASF60:
 2598 046e 76697274 		.ascii	"virtual_timer_t\000"
 2598      75616C5F 
 2598      74696D65 
 2598      725F7400 
 2599              	.LASF29:
 2600 047e 705F7072 		.ascii	"p_prev\000"
 2600      657600
 2601              	.LASF22:
 2602 0485 74707269 		.ascii	"tprio_t\000"
 2602      6F5F7400 
 2603              	.LASF137:
 2604 048d 5F5F6765 		.ascii	"__get_FPSCR\000"
ARM GAS  /tmp/cc2znu0b.s 			page 50


 2604      745F4650 
 2604      53435200 
 2605              	.LASF71:
 2606 0499 63685F73 		.ascii	"ch_system_debug\000"
 2606      79737465 
 2606      6D5F6465 
 2606      62756700 
 2607              	.LASF15:
 2608 04a9 696E7433 		.ascii	"int32_t\000"
 2608      325F7400 
 2609              	.LASF4:
 2610 04b1 756E7369 		.ascii	"unsigned char\000"
 2610      676E6564 
 2610      20636861 
 2610      7200
 2611              	.LASF84:
 2612 04bf 53484353 		.ascii	"SHCSR\000"
 2612      5200
 2613              	.LASF143:
 2614 04c5 49544D5F 		.ascii	"ITM_RxBuffer\000"
 2614      52784275 
 2614      66666572 
 2614      00
 2615              	.LASF42:
 2616 04d2 705F6D74 		.ascii	"p_mtxlist\000"
 2616      786C6973 
 2616      7400
 2617              	.LASF5:
 2618 04dc 73686F72 		.ascii	"short int\000"
 2618      7420696E 
 2618      7400
 2619              	.LASF35:
 2620 04e6 705F7374 		.ascii	"p_state\000"
 2620      61746500 
 2621              	.LASF108:
 2622 04ee 78707372 		.ascii	"xpsr\000"
 2622      00
 2623              	.LASF54:
 2624 04f3 725F7072 		.ascii	"r_prio\000"
 2624      696F00
 2625              	.LASF119:
 2626 04fa 65776D61 		.ascii	"ewmask\000"
 2626      736B00
 2627              	.LASF28:
 2628 0501 705F6E65 		.ascii	"p_next\000"
 2628      787400
 2629              	.LASF109:
 2630 0508 66707363 		.ascii	"fpscr\000"
 2630      7200
 2631              	.LASF36:
 2632 050e 705F666C 		.ascii	"p_flags\000"
 2632      61677300 
 2633              	.LASF6:
 2634 0516 73686F72 		.ascii	"short unsigned int\000"
 2634      7420756E 
 2634      7369676E 
 2634      65642069 
ARM GAS  /tmp/cc2znu0b.s 			page 51


 2634      6E7400
 2635              	.LASF107:
 2636 0529 6C725F74 		.ascii	"lr_thd\000"
 2636      686400
 2637              	.LASF97:
 2638 0530 46504341 		.ascii	"FPCAR\000"
 2638      5200
 2639              	.LASF140:
 2640 0536 5356435F 		.ascii	"SVC_Handler\000"
 2640      48616E64 
 2640      6C657200 
 2641              	.LASF96:
 2642 0542 46504343 		.ascii	"FPCCR\000"
 2642      5200
 2643              	.LASF61:
 2644 0548 63685F76 		.ascii	"ch_virtual_timer\000"
 2644      69727475 
 2644      616C5F74 
 2644      696D6572 
 2644      00
 2645              	.LASF120:
 2646 0559 63685F73 		.ascii	"ch_semaphore\000"
 2646      656D6170 
 2646      686F7265 
 2646      00
 2647              	.LASF41:
 2648 0566 705F6570 		.ascii	"p_epending\000"
 2648      656E6469 
 2648      6E6700
 2649              	.LASF16:
 2650 0571 75696E74 		.ascii	"uint32_t\000"
 2650      33325F74 
 2650      00
 2651              	.LASF118:
 2652 057a 77746D74 		.ascii	"wtmtxp\000"
 2652      787000
 2653              	.LASF53:
 2654 0581 725F7175 		.ascii	"r_queue\000"
 2654      65756500 
 2655              	.LASF48:
 2656 0589 63685F74 		.ascii	"ch_threads_list\000"
 2656      68726561 
 2656      64735F6C 
 2656      69737400 
 2657              	.LASF11:
 2658 0599 6C6F6E67 		.ascii	"long unsigned int\000"
 2658      20756E73 
 2658      69676E65 
 2658      6420696E 
 2658      7400
 2659              	.LASF127:
 2660 05ab 63686172 		.ascii	"char\000"
 2660      00
 2661              	.LASF135:
 2662 05b0 706F7274 		.ascii	"port_unlock_from_isr\000"
 2662      5F756E6C 
 2662      6F636B5F 
ARM GAS  /tmp/cc2znu0b.s 			page 52


 2662      66726F6D 
 2662      5F697372 
 2663              	.LASF27:
 2664 05c5 74687265 		.ascii	"thread_t\000"
 2664      61645F74 
 2664      00
 2665              	.LASF126:
 2666 05ce 6D5F6E65 		.ascii	"m_next\000"
 2666      787400
 2667              	.LASF26:
 2668 05d5 73797374 		.ascii	"systime_t\000"
 2668      696D655F 
 2668      7400
 2669              	.LASF43:
 2670 05df 705F7265 		.ascii	"p_realprio\000"
 2670      616C7072 
 2670      696F00
 2671              	.LASF59:
 2672 05ea 76746675 		.ascii	"vtfunc_t\000"
 2672      6E635F74 
 2672      00
 2673              	.LASF10:
 2674 05f3 5F5F7569 		.ascii	"__uint32_t\000"
 2674      6E743332 
 2674      5F7400
 2675              	.LASF131:
 2676 05fe 5F5F7365 		.ascii	"__set_BASEPRI\000"
 2676      745F4241 
 2676      53455052 
 2676      4900
 2677              	.LASF72:
 2678 060c 70616E69 		.ascii	"panic_msg\000"
 2678      635F6D73 
 2678      6700
 2679              	.LASF111:
 2680 0616 6F666673 		.ascii	"offset\000"
 2680      657400
 2681              	.LASF104:
 2682 061d 636F6E74 		.ascii	"context\000"
 2682      65787400 
 2683              	.LASF73:
 2684 0625 63685F73 		.ascii	"ch_system_t\000"
 2684      79737465 
 2684      6D5F7400 
 2685              	.LASF18:
 2686 0631 7274636E 		.ascii	"rtcnt_t\000"
 2686      745F7400 
 2687              	.LASF139:
 2688 0639 706F7274 		.ascii	"port_lock_from_isr\000"
 2688      5F6C6F63 
 2688      6B5F6672 
 2688      6F6D5F69 
 2688      737200
 2689              	.LASF136:
 2690 064c 5F5F6765 		.ascii	"__get_PSP\000"
 2690      745F5053 
 2690      5000
ARM GAS  /tmp/cc2znu0b.s 			page 53


 2691              	.LASF66:
 2692 0656 76745F70 		.ascii	"vt_par\000"
 2692      617200
 2693              	.LASF49:
 2694 065d 74687265 		.ascii	"threads_queue_t\000"
 2694      6164735F 
 2694      71756575 
 2694      655F7400 
 2695              	.LASF123:
 2696 066d 63685F6D 		.ascii	"ch_mutex\000"
 2696      75746578 
 2696      00
 2697              	.LASF37:
 2698 0676 705F7265 		.ascii	"p_refs\000"
 2698      667300
 2699              	.LASF91:
 2700 067d 4D4D4652 		.ascii	"MMFR\000"
 2700      00
 2701              	.LASF75:
 2702 0682 726C6973 		.ascii	"rlist\000"
 2702      7400
 2703              	.LASF14:
 2704 0688 75696E74 		.ascii	"uint8_t\000"
 2704      385F7400 
 2705              	.LASF115:
 2706 0690 77746F62 		.ascii	"wtobjp\000"
 2706      6A7000
 2707              	.LASF34:
 2708 0697 705F6E61 		.ascii	"p_name\000"
 2708      6D6500
 2709              	.LASF64:
 2710 069e 76745F64 		.ascii	"vt_delta\000"
 2710      656C7461 
 2710      00
 2711              	.LASF40:
 2712 06a7 705F6D73 		.ascii	"p_msg\000"
 2712      6700
 2713              	.LASF94:
 2714 06ad 43504143 		.ascii	"CPACR\000"
 2714      5200
 2715              	.LASF86:
 2716 06b3 48465352 		.ascii	"HFSR\000"
 2716      00
 2717              	.LASF128:
 2718 06b8 6D757465 		.ascii	"mutex_t\000"
 2718      785F7400 
 2719              	.LASF125:
 2720 06c0 6D5F6F77 		.ascii	"m_owner\000"
 2720      6E657200 
 2721              	.LASF138:
 2722 06c8 72657375 		.ascii	"result\000"
 2722      6C7400
 2723              	.LASF31:
 2724 06cf 705F6374 		.ascii	"p_ctx\000"
 2724      7800
 2725              	.LASF65:
 2726 06d5 76745F66 		.ascii	"vt_func\000"
ARM GAS  /tmp/cc2znu0b.s 			page 54


 2726      756E6300 
 2727              		.ident	"GCC: (Fedora 5.2.0-2.fc22) 5.2.0"
ARM GAS  /tmp/cc2znu0b.s 			page 55


DEFINED SYMBOLS
                            *ABS*:0000000000000000 chcore_v7m.c
     /tmp/cc2znu0b.s:22     .text.SVC_Handler:0000000000000000 $t
     /tmp/cc2znu0b.s:28     .text.SVC_Handler:0000000000000000 SVC_Handler
     /tmp/cc2znu0b.s:87     .text.SVC_Handler:000000000000001c $d
     /tmp/cc2znu0b.s:96     .text._port_irq_epilogue:0000000000000000 $t
     /tmp/cc2znu0b.s:102    .text._port_irq_epilogue:0000000000000000 _port_irq_epilogue
     /tmp/cc2znu0b.s:224    .text._port_irq_epilogue:0000000000000050 $d
                     .debug_frame:0000000000000010 $d

UNDEFINED SYMBOLS
chSchIsPreemptionRequired
_port_switch_from_isr
_port_exit_from_isr
