ARM GAS  /tmp/ccbcwbNH.s 			page 1


   1              		.syntax unified
   2              		.cpu cortex-m4
   3              		.eabi_attribute 27, 1
   4              		.eabi_attribute 28, 1
   5              		.fpu fpv4-sp-d16
   6              		.eabi_attribute 20, 1
   7              		.eabi_attribute 21, 1
   8              		.eabi_attribute 23, 3
   9              		.eabi_attribute 24, 1
  10              		.eabi_attribute 25, 1
  11              		.eabi_attribute 26, 1
  12              		.eabi_attribute 30, 2
  13              		.eabi_attribute 34, 1
  14              		.eabi_attribute 18, 4
  15              		.thumb
  16              		.syntax unified
  17              		.file	"chmsg.c"
  18              		.text
  19              	.Ltext0:
  20              		.cfi_sections	.debug_frame
  21              		.section	.text.chMsgSend,"ax",%progbits
  22              		.align	2
  23              		.p2align 4,,15
  24              		.global	chMsgSend
  25              		.thumb
  26              		.thumb_func
  27              		.type	chMsgSend, %function
  28              	chMsgSend:
  29              	.LFB229:
  30              		.file 1 "../../os/rt/src/chmsg.c"
  31              		.loc 1 87 0
  32              		.cfi_startproc
  33              		@ args = 0, pretend = 0, frame = 0
  34              		@ frame_needed = 0, uses_anonymous_args = 0
  35              	.LVL0:
  36 0000 38B5     		push	{r3, r4, r5, lr}
  37              		.cfi_def_cfa_offset 16
  38              		.cfi_offset 3, -16
  39              		.cfi_offset 4, -12
  40              		.cfi_offset 5, -8
  41              		.cfi_offset 14, -4
  42              		.loc 1 88 0
  43 0002 0E4B     		ldr	r3, .L6
  44              	.LBB52:
  45              	.LBB53:
  46              	.LBB54:
  47              	.LBB55:
  48              		.file 2 "../../os/ext/CMSIS/include/core_cmFunc.h"
  49              		.loc 2 546 0
  50 0004 2022     		movs	r2, #32
  51              	.LBE55:
  52              	.LBE54:
  53              	.LBE53:
  54              	.LBE52:
  55              		.loc 1 88 0
  56 0006 9C69     		ldr	r4, [r3, #24]
  57              	.LVL1:
ARM GAS  /tmp/ccbcwbNH.s 			page 2


  58              	.LBB59:
  59              	.LBB58:
  60              	.LBB57:
  61              	.LBB56:
  62              		.loc 2 546 0
  63              		.syntax unified
  64              	@ 546 "../../os/ext/CMSIS/include/core_cmFunc.h" 1
  65 0008 82F31188 		MSR basepri, r2
  66              	@ 0 "" 2
  67              		.thumb
  68              		.syntax unified
  69              	.LBE56:
  70              	.LBE57:
  71              	.LBE58:
  72              	.LBE59:
  73              		.loc 1 94 0
  74 000c 00F12805 		add	r5, r0, #40
  75 0010 2562     		str	r5, [r4, #32]
  76              	.LVL2:
  77              	.LBB60:
  78              	.LBB61:
  79              		.file 3 "../../os/rt/include/chschd.h"
  80              		.loc 3 666 0
  81 0012 C26A     		ldr	r2, [r0, #44]
  82 0014 6260     		str	r2, [r4, #4]
  83              	.LBE61:
  84              	.LBE60:
  85              		.loc 1 93 0
  86 0016 2163     		str	r1, [r4, #48]
  87              	.LBB64:
  88              	.LBB62:
  89              		.loc 3 665 0
  90 0018 2560     		str	r5, [r4]
  91              		.loc 3 667 0
  92 001a 1460     		str	r4, [r2]
  93              	.LBE62:
  94              	.LBE64:
  95              		.loc 1 96 0
  96 001c 027F     		ldrb	r2, [r0, #28]	@ zero_extendqisi2
  97              	.LBB65:
  98              	.LBB63:
  99              		.loc 3 668 0
 100 001e C462     		str	r4, [r0, #44]
 101              	.LBE63:
 102              	.LBE65:
 103              		.loc 1 96 0
 104 0020 0E2A     		cmp	r2, #14
 105 0022 07D0     		beq	.L5
 106              	.LVL3:
 107              	.L2:
 108              		.loc 1 99 0
 109 0024 0C20     		movs	r0, #12
 110 0026 FFF7FEFF 		bl	chSchGoSleepS
 111              	.LVL4:
 112              		.loc 1 100 0
 113 002a 206A     		ldr	r0, [r4, #32]
 114              	.LVL5:
ARM GAS  /tmp/ccbcwbNH.s 			page 3


 115              	.LBB66:
 116              	.LBB67:
 117              	.LBB68:
 118              	.LBB69:
 119              	.LBB70:
 120              		.loc 2 546 0
 121 002c 0023     		movs	r3, #0
 122              		.syntax unified
 123              	@ 546 "../../os/ext/CMSIS/include/core_cmFunc.h" 1
 124 002e 83F31188 		MSR basepri, r3
 125              	@ 0 "" 2
 126              		.thumb
 127              		.syntax unified
 128              	.LBE70:
 129              	.LBE69:
 130              	.LBE68:
 131              	.LBE67:
 132              	.LBE66:
 133              		.loc 1 104 0
 134 0032 38BD     		pop	{r3, r4, r5, pc}
 135              	.LVL6:
 136              	.L5:
 137              		.loc 1 97 0
 138 0034 FFF7FEFF 		bl	chSchReadyI
 139              	.LVL7:
 140 0038 F4E7     		b	.L2
 141              	.L7:
 142 003a 00BF     		.align	2
 143              	.L6:
 144 003c 00000000 		.word	ch
 145              		.cfi_endproc
 146              	.LFE229:
 147              		.size	chMsgSend, .-chMsgSend
 148              		.section	.text.chMsgWait,"ax",%progbits
 149              		.align	2
 150              		.p2align 4,,15
 151              		.global	chMsgWait
 152              		.thumb
 153              		.thumb_func
 154              		.type	chMsgWait, %function
 155              	chMsgWait:
 156              	.LFB230:
 157              		.loc 1 120 0
 158              		.cfi_startproc
 159              		@ args = 0, pretend = 0, frame = 0
 160              		@ frame_needed = 0, uses_anonymous_args = 0
 161              	.LVL8:
 162 0000 10B5     		push	{r4, lr}
 163              		.cfi_def_cfa_offset 8
 164              		.cfi_offset 4, -8
 165              		.cfi_offset 14, -4
 166              	.LBB71:
 167              	.LBB72:
 168              	.LBB73:
 169              	.LBB74:
 170              		.loc 2 546 0
 171 0002 2023     		movs	r3, #32
ARM GAS  /tmp/ccbcwbNH.s 			page 4


 172              		.syntax unified
 173              	@ 546 "../../os/ext/CMSIS/include/core_cmFunc.h" 1
 174 0004 83F31188 		MSR basepri, r3
 175              	@ 0 "" 2
 176              		.thumb
 177              		.syntax unified
 178              	.LBE74:
 179              	.LBE73:
 180              	.LBE72:
 181              	.LBE71:
 182              		.loc 1 124 0
 183 0008 0B4C     		ldr	r4, .L12
 184 000a A269     		ldr	r2, [r4, #24]
 185              	.LVL9:
 186              	.LBB75:
 187              	.LBB76:
 188              		.file 4 "../../os/rt/include/chmsg.h"
 189              		.loc 4 83 0
 190 000c 1346     		mov	r3, r2
 191 000e 53F8280F 		ldr	r0, [r3, #40]!
 192              	.LBE76:
 193              	.LBE75:
 194              		.loc 1 124 0
 195 0012 9842     		cmp	r0, r3
 196 0014 08D0     		beq	.L11
 197              	.LVL10:
 198              	.L9:
 199              	.LBB77:
 200              	.LBB78:
 201              		.loc 3 674 0
 202 0016 0168     		ldr	r1, [r0]
 203 0018 9162     		str	r1, [r2, #40]
 204              	.LVL11:
 205              	.LBE78:
 206              	.LBE77:
 207              		.loc 1 128 0
 208 001a 0D22     		movs	r2, #13
 209              	.LBB80:
 210              	.LBB79:
 211              		.loc 3 675 0
 212 001c 4B60     		str	r3, [r1, #4]
 213              	.LVL12:
 214              	.LBE79:
 215              	.LBE80:
 216              	.LBB81:
 217              	.LBB82:
 218              	.LBB83:
 219              	.LBB84:
 220              	.LBB85:
 221              		.loc 2 546 0
 222 001e 0023     		movs	r3, #0
 223              	.LBE85:
 224              	.LBE84:
 225              	.LBE83:
 226              	.LBE82:
 227              	.LBE81:
 228              		.loc 1 128 0
ARM GAS  /tmp/ccbcwbNH.s 			page 5


 229 0020 0277     		strb	r2, [r0, #28]
 230              	.LVL13:
 231              	.LBB90:
 232              	.LBB89:
 233              	.LBB88:
 234              	.LBB87:
 235              	.LBB86:
 236              		.loc 2 546 0
 237              		.syntax unified
 238              	@ 546 "../../os/ext/CMSIS/include/core_cmFunc.h" 1
 239 0022 83F31188 		MSR basepri, r3
 240              	@ 0 "" 2
 241              		.thumb
 242              		.syntax unified
 243              	.LBE86:
 244              	.LBE87:
 245              	.LBE88:
 246              	.LBE89:
 247              	.LBE90:
 248              		.loc 1 132 0
 249 0026 10BD     		pop	{r4, pc}
 250              	.LVL14:
 251              	.L11:
 252              		.loc 1 125 0
 253 0028 0E20     		movs	r0, #14
 254 002a FFF7FEFF 		bl	chSchGoSleepS
 255              	.LVL15:
 256 002e A269     		ldr	r2, [r4, #24]
 257 0030 906A     		ldr	r0, [r2, #40]
 258 0032 02F12803 		add	r3, r2, #40
 259 0036 EEE7     		b	.L9
 260              	.L13:
 261              		.align	2
 262              	.L12:
 263 0038 00000000 		.word	ch
 264              		.cfi_endproc
 265              	.LFE230:
 266              		.size	chMsgWait, .-chMsgWait
 267 003c AFF30080 		.section	.text.chMsgRelease,"ax",%progbits
 268              		.align	2
 269              		.p2align 4,,15
 270              		.global	chMsgRelease
 271              		.thumb
 272              		.thumb_func
 273              		.type	chMsgRelease, %function
 274              	chMsgRelease:
 275              	.LFB231:
 276              		.loc 1 144 0
 277              		.cfi_startproc
 278              		@ args = 0, pretend = 0, frame = 0
 279              		@ frame_needed = 0, uses_anonymous_args = 0
 280              	.LVL16:
 281 0000 08B5     		push	{r3, lr}
 282              		.cfi_def_cfa_offset 8
 283              		.cfi_offset 3, -8
 284              		.cfi_offset 14, -4
 285              	.LBB91:
ARM GAS  /tmp/ccbcwbNH.s 			page 6


 286              	.LBB92:
 287              	.LBB93:
 288              	.LBB94:
 289              		.loc 2 546 0
 290 0002 2023     		movs	r3, #32
 291              		.syntax unified
 292              	@ 546 "../../os/ext/CMSIS/include/core_cmFunc.h" 1
 293 0004 83F31188 		MSR basepri, r3
 294              	@ 0 "" 2
 295              	.LVL17:
 296              		.thumb
 297              		.syntax unified
 298              	.LBE94:
 299              	.LBE93:
 300              	.LBE92:
 301              	.LBE91:
 302              	.LBB95:
 303              	.LBB96:
 304              		.loc 4 115 0
 305 0008 FFF7FEFF 		bl	chSchWakeupS
 306              	.LVL18:
 307              	.LBE96:
 308              	.LBE95:
 309              	.LBB97:
 310              	.LBB98:
 311              	.LBB99:
 312              	.LBB100:
 313              	.LBB101:
 314              		.loc 2 546 0
 315 000c 0023     		movs	r3, #0
 316              		.syntax unified
 317              	@ 546 "../../os/ext/CMSIS/include/core_cmFunc.h" 1
 318 000e 83F31188 		MSR basepri, r3
 319              	@ 0 "" 2
 320              		.thumb
 321              		.syntax unified
 322 0012 08BD     		pop	{r3, pc}
 323              	.LBE101:
 324              	.LBE100:
 325              	.LBE99:
 326              	.LBE98:
 327              	.LBE97:
 328              		.cfi_endproc
 329              	.LFE231:
 330              		.size	chMsgRelease, .-chMsgRelease
 331 0014 AFF30080 		.text
 331      AFF30080 
 331      AFF30080 
 332              	.Letext0:
 333              		.file 5 "/usr/arm-none-eabi/include/machine/_default_types.h"
 334              		.file 6 "/usr/arm-none-eabi/include/stdint.h"
 335              		.file 7 "../../os/rt/ports/ARMCMx/compilers/GCC/chtypes.h"
 336              		.file 8 "../../os/rt/include/chsystypes.h"
 337              		.file 9 "../../os/rt/ports/ARMCMx/chcore.h"
 338              		.file 10 "../../os/rt/ports/ARMCMx/chcore_v7m.h"
 339              		.file 11 "../../os/rt/include/chtm.h"
 340              		.file 12 "../../os/rt/include/chsem.h"
ARM GAS  /tmp/ccbcwbNH.s 			page 7


 341              		.file 13 "../../os/rt/include/chmtx.h"
 342              		.file 14 "../../os/rt/include/chsys.h"
 343              		.file 15 "../../os/ext/CMSIS/include/core_cm4.h"