ARM GAS  /tmp/ccbcwbNH.s 			page 1


   1              		.syntax unified
   2              		.cpu cortex-m4
   3              		.eabi_attribute 27, 1
   4              		.eabi_attribute 28, 1
   5              		.fpu fpv4-sp-d16
   6              		.eabi_attribute 20, 1
   7              		.eabi_attribute 21, 1
   8              		.eabi_attribute 23, 3
   9              		.eabi_attribute 24, 1
  10              		.eabi_attribute 25, 1
  11              		.eabi_attribute 26, 1
  12              		.eabi_attribute 30, 2
  13              		.eabi_attribute 34, 1
  14              		.eabi_attribute 18, 4
  15              		.thumb
  16              		.syntax unified
  17              		.file	"chmsg.c"
  18              		.text
  19              	.Ltext0:
  20              		.cfi_sections	.debug_frame
  21              		.section	.text.chMsgSend,"ax",%progbits
  22              		.align	2
  23              		.p2align 4,,15
  24              		.global	chMsgSend
  25              		.thumb
  26              		.thumb_func
  27              		.type	chMsgSend, %function
  28              	chMsgSend:
  29              	.LFB229:
  30              		.file 1 "../../os/rt/src/chmsg.c"
  31              		.loc 1 87 0
  32              		.cfi_startproc
  33              		@ args = 0, pretend = 0, frame = 0
  34              		@ frame_needed = 0, uses_anonymous_args = 0
  35              	.LVL0:
  36 0000 38B5     		push	{r3, r4, r5, lr}
  37              		.cfi_def_cfa_offset 16
  38              		.cfi_offset 3, -16
  39              		.cfi_offset 4, -12
  40              		.cfi_offset 5, -8
  41              		.cfi_offset 14, -4
  42              		.loc 1 88 0
  43 0002 0E4B     		ldr	r3, .L6
  44              	.LBB52:
  45              	.LBB53:
  46              	.LBB54:
  47              	.LBB55:
  48              		.file 2 "../../os/ext/CMSIS/include/core_cmFunc.h"
  49              		.loc 2 546 0
  50 0004 2022     		movs	r2, #32
  51              	.LBE55:
  52              	.LBE54:
  53              	.LBE53:
  54              	.LBE52:
  55              		.loc 1 88 0
  56 0006 9C69     		ldr	r4, [r3, #24]
  57              	.LVL1:
ARM GAS  /tmp/ccbcwbNH.s 			page 2


  58              	.LBB59:
  59              	.LBB58:
  60              	.LBB57:
  61              	.LBB56:
  62              		.loc 2 546 0
  63              		.syntax unified
  64              	@ 546 "../../os/ext/CMSIS/include/core_cmFunc.h" 1
  65 0008 82F31188 		MSR basepri, r2
  66              	@ 0 "" 2
  67              		.thumb
  68              		.syntax unified
  69              	.LBE56:
  70              	.LBE57:
  71              	.LBE58:
  72              	.LBE59:
  73              		.loc 1 94 0
  74 000c 00F12805 		add	r5, r0, #40
  75 0010 2562     		str	r5, [r4, #32]
  76              	.LVL2:
  77              	.LBB60:
  78              	.LBB61:
  79              		.file 3 "../../os/rt/include/chschd.h"
  80              		.loc 3 666 0
  81 0012 C26A     		ldr	r2, [r0, #44]
  82 0014 6260     		str	r2, [r4, #4]
  83              	.LBE61:
  84              	.LBE60:
  85              		.loc 1 93 0
  86 0016 2163     		str	r1, [r4, #48]
  87              	.LBB64:
  88              	.LBB62:
  89              		.loc 3 665 0
  90 0018 2560     		str	r5, [r4]
  91              		.loc 3 667 0
  92 001a 1460     		str	r4, [r2]
  93              	.LBE62:
  94              	.LBE64:
  95              		.loc 1 96 0
  96 001c 027F     		ldrb	r2, [r0, #28]	@ zero_extendqisi2
  97              	.LBB65:
  98              	.LBB63:
  99              		.loc 3 668 0
 100 001e C462     		str	r4, [r0, #44]
 101              	.LBE63:
 102              	.LBE65:
 103              		.loc 1 96 0
 104 0020 0E2A     		cmp	r2, #14
 105 0022 07D0     		beq	.L5
 106              	.LVL3:
 107              	.L2:
 108              		.loc 1 99 0
 109 0024 0C20     		movs	r0, #12
 110 0026 FFF7FEFF 		bl	chSchGoSleepS
 111              	.LVL4:
 112              		.loc 1 100 0
 113 002a 206A     		ldr	r0, [r4, #32]
 114              	.LVL5:
ARM GAS  /tmp/ccbcwbNH.s 			page 3


 115              	.LBB66:
 116              	.LBB67:
 117              	.LBB68:
 118              	.LBB69:
 119              	.LBB70:
 120              		.loc 2 546 0
 121 002c 0023     		movs	r3, #0
 122              		.syntax unified
 123              	@ 546 "../../os/ext/CMSIS/include/core_cmFunc.h" 1
 124 002e 83F31188 		MSR basepri, r3
 125              	@ 0 "" 2
 126              		.thumb
 127              		.syntax unified
 128              	.LBE70:
 129              	.LBE69:
 130              	.LBE68:
 131              	.LBE67:
 132              	.LBE66:
 133              		.loc 1 104 0
 134 0032 38BD     		pop	{r3, r4, r5, pc}
 135              	.LVL6:
 136              	.L5:
 137              		.loc 1 97 0
 138 0034 FFF7FEFF 		bl	chSchReadyI
 139              	.LVL7:
 140 0038 F4E7     		b	.L2
 141              	.L7:
 142 003a 00BF     		.align	2
 143              	.L6:
 144 003c 00000000 		.word	ch
 145              		.cfi_endproc
 146              	.LFE229:
 147              		.size	chMsgSend, .-chMsgSend
 148              		.section	.text.chMsgWait,"ax",%progbits
 149              		.align	2
 150              		.p2align 4,,15
 151              		.global	chMsgWait
 152              		.thumb
 153              		.thumb_func
 154              		.type	chMsgWait, %function
 155              	chMsgWait:
 156              	.LFB230:
 157              		.loc 1 120 0
 158              		.cfi_startproc
 159              		@ args = 0, pretend = 0, frame = 0
 160              		@ frame_needed = 0, uses_anonymous_args = 0
 161              	.LVL8:
 162 0000 10B5     		push	{r4, lr}
 163              		.cfi_def_cfa_offset 8
 164              		.cfi_offset 4, -8
 165              		.cfi_offset 14, -4
 166              	.LBB71:
 167              	.LBB72:
 168              	.LBB73:
 169              	.LBB74:
 170              		.loc 2 546 0
 171 0002 2023     		movs	r3, #32
ARM GAS  /tmp/ccbcwbNH.s 			page 4


 172              		.syntax unified
 173              	@ 546 "../../os/ext/CMSIS/include/core_cmFunc.h" 1
 174 0004 83F31188 		MSR basepri, r3
 175              	@ 0 "" 2
 176              		.thumb
 177              		.syntax unified
 178              	.LBE74:
 179              	.LBE73:
 180              	.LBE72:
 181              	.LBE71:
 182              		.loc 1 124 0
 183 0008 0B4C     		ldr	r4, .L12
 184 000a A269     		ldr	r2, [r4, #24]
 185              	.LVL9:
 186              	.LBB75:
 187              	.LBB76:
 188              		.file 4 "../../os/rt/include/chmsg.h"
 189              		.loc 4 83 0
 190 000c 1346     		mov	r3, r2
 191 000e 53F8280F 		ldr	r0, [r3, #40]!
 192              	.LBE76:
 193              	.LBE75:
 194              		.loc 1 124 0
 195 0012 9842     		cmp	r0, r3
 196 0014 08D0     		beq	.L11
 197              	.LVL10:
 198              	.L9:
 199              	.LBB77:
 200              	.LBB78:
 201              		.loc 3 674 0
 202 0016 0168     		ldr	r1, [r0]
 203 0018 9162     		str	r1, [r2, #40]
 204              	.LVL11:
 205              	.LBE78:
 206              	.LBE77:
 207              		.loc 1 128 0
 208 001a 0D22     		movs	r2, #13
 209              	.LBB80:
 210              	.LBB79:
 211              		.loc 3 675 0
 212 001c 4B60     		str	r3, [r1, #4]
 213              	.LVL12:
 214              	.LBE79:
 215              	.LBE80:
 216              	.LBB81:
 217              	.LBB82:
 218              	.LBB83:
 219              	.LBB84:
 220              	.LBB85:
 221              		.loc 2 546 0
 222 001e 0023     		movs	r3, #0
 223              	.LBE85:
 224              	.LBE84:
 225              	.LBE83:
 226              	.LBE82:
 227              	.LBE81:
 228              		.loc 1 128 0
ARM GAS  /tmp/ccbcwbNH.s 			page 5


 229 0020 0277     		strb	r2, [r0, #28]
 230              	.LVL13:
 231              	.LBB90:
 232              	.LBB89:
 233              	.LBB88:
 234              	.LBB87:
 235              	.LBB86:
 236              		.loc 2 546 0
 237              		.syntax unified
 238              	@ 546 "../../os/ext/CMSIS/include/core_cmFunc.h" 1
 239 0022 83F31188 		MSR basepri, r3
 240              	@ 0 "" 2
 241              		.thumb
 242              		.syntax unified
 243              	.LBE86:
 244              	.LBE87:
 245              	.LBE88:
 246              	.LBE89:
 247              	.LBE90:
 248              		.loc 1 132 0
 249 0026 10BD     		pop	{r4, pc}
 250              	.LVL14:
 251              	.L11:
 252              		.loc 1 125 0
 253 0028 0E20     		movs	r0, #14
 254 002a FFF7FEFF 		bl	chSchGoSleepS
 255              	.LVL15:
 256 002e A269     		ldr	r2, [r4, #24]
 257 0030 906A     		ldr	r0, [r2, #40]
 258 0032 02F12803 		add	r3, r2, #40
 259 0036 EEE7     		b	.L9
 260              	.L13:
 261              		.align	2
 262              	.L12:
 263 0038 00000000 		.word	ch
 264              		.cfi_endproc
 265              	.LFE230:
 266              		.size	chMsgWait, .-chMsgWait
 267 003c AFF30080 		.section	.text.chMsgRelease,"ax",%progbits
 268              		.align	2
 269              		.p2align 4,,15
 270              		.global	chMsgRelease
 271              		.thumb
 272              		.thumb_func
 273              		.type	chMsgRelease, %function
 274              	chMsgRelease:
 275              	.LFB231:
 276              		.loc 1 144 0
 277              		.cfi_startproc
 278              		@ args = 0, pretend = 0, frame = 0
 279              		@ frame_needed = 0, uses_anonymous_args = 0
 280              	.LVL16:
 281 0000 08B5     		push	{r3, lr}
 282              		.cfi_def_cfa_offset 8
 283              		.cfi_offset 3, -8
 284              		.cfi_offset 14, -4
 285              	.LBB91:
ARM GAS  /tmp/ccbcwbNH.s 			page 6


 286              	.LBB92:
 287              	.LBB93:
 288              	.LBB94:
 289              		.loc 2 546 0
 290 0002 2023     		movs	r3, #32
 291              		.syntax unified
 292              	@ 546 "../../os/ext/CMSIS/include/core_cmFunc.h" 1
 293 0004 83F31188 		MSR basepri, r3
 294              	@ 0 "" 2
 295              	.LVL17:
 296              		.thumb
 297              		.syntax unified
 298              	.LBE94:
 299              	.LBE93:
 300              	.LBE92:
 301              	.LBE91:
 302              	.LBB95:
 303              	.LBB96:
 304              		.loc 4 115 0
 305 0008 FFF7FEFF 		bl	chSchWakeupS
 306              	.LVL18:
 307              	.LBE96:
 308              	.LBE95:
 309              	.LBB97:
 310              	.LBB98:
 311              	.LBB99:
 312              	.LBB100:
 313              	.LBB101:
 314              		.loc 2 546 0
 315 000c 0023     		movs	r3, #0
 316              		.syntax unified
 317              	@ 546 "../../os/ext/CMSIS/include/core_cmFunc.h" 1
 318 000e 83F31188 		MSR basepri, r3
 319              	@ 0 "" 2
 320              		.thumb
 321              		.syntax unified
 322 0012 08BD     		pop	{r3, pc}
 323              	.LBE101:
 324              	.LBE100:
 325              	.LBE99:
 326              	.LBE98:
 327              	.LBE97:
 328              		.cfi_endproc
 329              	.LFE231:
 330              		.size	chMsgRelease, .-chMsgRelease
 331 0014 AFF30080 		.text
 331      AFF30080 
 331      AFF30080 
 332              	.Letext0:
 333              		.file 5 "/usr/arm-none-eabi/include/machine/_default_types.h"
 334              		.file 6 "/usr/arm-none-eabi/include/stdint.h"
 335              		.file 7 "../../os/rt/ports/ARMCMx/compilers/GCC/chtypes.h"
 336              		.file 8 "../../os/rt/include/chsystypes.h"
 337              		.file 9 "../../os/rt/ports/ARMCMx/chcore.h"
 338              		.file 10 "../../os/rt/ports/ARMCMx/chcore_v7m.h"
 339              		.file 11 "../../os/rt/include/chtm.h"
 340              		.file 12 "../../os/rt/include/chsem.h"
ARM GAS  /tmp/ccbcwbNH.s 			page 7


 341              		.file 13 "../../os/rt/include/chmtx.h"
 342              		.file 14 "../../os/rt/include/chsys.h"
 343              		.file 15 "../../os/ext/CMSIS/include/core_cm4.h"
 344              		.section	.debug_info,"",%progbits
 345              	.Ldebug_info0:
 346 0000 530B0000 		.4byte	0xb53
 347 0004 0400     		.2byte	0x4
 348 0006 00000000 		.4byte	.Ldebug_abbrev0
 349 000a 04       		.byte	0x4
 350 000b 01       		.uleb128 0x1
 351 000c 6F020000 		.4byte	.LASF120
 352 0010 0C       		.byte	0xc
 353 0011 4D030000 		.4byte	.LASF121
 354 0015 1A000000 		.4byte	.LASF122
 355 0019 68000000 		.4byte	.Ldebug_ranges0+0x68
 356 001d 00000000 		.4byte	0
 357 0021 00000000 		.4byte	.Ldebug_line0
 358 0025 02       		.uleb128 0x2
 359 0026 04       		.byte	0x4
 360 0027 05       		.byte	0x5
 361 0028 696E7400 		.ascii	"int\000"
 362 002c 03       		.uleb128 0x3
 363 002d 04       		.byte	0x4
 364 002e 07       		.byte	0x7
 365 002f C6010000 		.4byte	.LASF0
 366 0033 03       		.uleb128 0x3
 367 0034 08       		.byte	0x8
 368 0035 05       		.byte	0x5
 369 0036 07010000 		.4byte	.LASF1
 370 003a 03       		.uleb128 0x3
 371 003b 08       		.byte	0x8
 372 003c 04       		.byte	0x4
 373 003d A2030000 		.4byte	.LASF2
 374 0041 03       		.uleb128 0x3
 375 0042 01       		.byte	0x1
 376 0043 06       		.byte	0x6
 377 0044 15010000 		.4byte	.LASF3
 378 0048 04       		.uleb128 0x4
 379 0049 72000000 		.4byte	.LASF7
 380 004d 05       		.byte	0x5
 381 004e 1D       		.byte	0x1d
 382 004f 53000000 		.4byte	0x53
 383 0053 03       		.uleb128 0x3
 384 0054 01       		.byte	0x1
 385 0055 08       		.byte	0x8
 386 0056 42040000 		.4byte	.LASF4
 387 005a 03       		.uleb128 0x3
 388 005b 02       		.byte	0x2
 389 005c 05       		.byte	0x5
 390 005d 5A040000 		.4byte	.LASF5
 391 0061 03       		.uleb128 0x3
 392 0062 02       		.byte	0x2
 393 0063 07       		.byte	0x7
 394 0064 FC010000 		.4byte	.LASF6
 395 0068 04       		.uleb128 0x4
 396 0069 5A020000 		.4byte	.LASF8
 397 006d 05       		.byte	0x5
ARM GAS  /tmp/ccbcwbNH.s 			page 8


 398 006e 3F       		.byte	0x3f
 399 006f 73000000 		.4byte	0x73
 400 0073 03       		.uleb128 0x3
 401 0074 04       		.byte	0x4
 402 0075 05       		.byte	0x5
 403 0076 4E010000 		.4byte	.LASF9
 404 007a 04       		.uleb128 0x4
 405 007b 64050000 		.4byte	.LASF10
 406 007f 05       		.byte	0x5
 407 0080 41       		.byte	0x41
 408 0081 85000000 		.4byte	0x85
 409 0085 03       		.uleb128 0x3
 410 0086 04       		.byte	0x4
 411 0087 07       		.byte	0x7
 412 0088 14050000 		.4byte	.LASF11
 413 008c 04       		.uleb128 0x4
 414 008d F2030000 		.4byte	.LASF12
 415 0091 05       		.byte	0x5
 416 0092 5B       		.byte	0x5b
 417 0093 97000000 		.4byte	0x97
 418 0097 03       		.uleb128 0x3
 419 0098 08       		.byte	0x8
 420 0099 07       		.byte	0x7
 421 009a A1000000 		.4byte	.LASF13
 422 009e 04       		.uleb128 0x4
 423 009f D5050000 		.4byte	.LASF14
 424 00a3 06       		.byte	0x6
 425 00a4 15       		.byte	0x15
 426 00a5 48000000 		.4byte	0x48
 427 00a9 04       		.uleb128 0x4
 428 00aa 3A040000 		.4byte	.LASF15
 429 00ae 06       		.byte	0x6
 430 00af 2C       		.byte	0x2c
 431 00b0 68000000 		.4byte	0x68
 432 00b4 04       		.uleb128 0x4
 433 00b5 E0040000 		.4byte	.LASF16
 434 00b9 06       		.byte	0x6
 435 00ba 2D       		.byte	0x2d
 436 00bb 7A000000 		.4byte	0x7a
 437 00bf 04       		.uleb128 0x4
 438 00c0 69000000 		.4byte	.LASF17
 439 00c4 06       		.byte	0x6
 440 00c5 39       		.byte	0x39
 441 00c6 8C000000 		.4byte	0x8c
 442 00ca 05       		.uleb128 0x5
 443 00cb A9000000 		.4byte	0xa9
 444 00cf 04       		.uleb128 0x4
 445 00d0 96050000 		.4byte	.LASF18
 446 00d4 07       		.byte	0x7
 447 00d5 45       		.byte	0x45
 448 00d6 B4000000 		.4byte	0xb4
 449 00da 04       		.uleb128 0x4
 450 00db 38020000 		.4byte	.LASF19
 451 00df 07       		.byte	0x7
 452 00e0 48       		.byte	0x48
 453 00e1 9E000000 		.4byte	0x9e
 454 00e5 04       		.uleb128 0x4
ARM GAS  /tmp/ccbcwbNH.s 			page 9


 455 00e6 61010000 		.4byte	.LASF20
 456 00ea 07       		.byte	0x7
 457 00eb 49       		.byte	0x49
 458 00ec 9E000000 		.4byte	0x9e
 459 00f0 04       		.uleb128 0x4
 460 00f1 FD030000 		.4byte	.LASF21
 461 00f5 07       		.byte	0x7
 462 00f6 4A       		.byte	0x4a
 463 00f7 9E000000 		.4byte	0x9e
 464 00fb 04       		.uleb128 0x4
 465 00fc 1C040000 		.4byte	.LASF22
 466 0100 07       		.byte	0x7
 467 0101 4C       		.byte	0x4c
 468 0102 B4000000 		.4byte	0xb4
 469 0106 04       		.uleb128 0x4
 470 0107 26020000 		.4byte	.LASF23
 471 010b 07       		.byte	0x7
 472 010c 4D       		.byte	0x4d
 473 010d A9000000 		.4byte	0xa9
 474 0111 04       		.uleb128 0x4
 475 0112 4E020000 		.4byte	.LASF24
 476 0116 07       		.byte	0x7
 477 0117 4F       		.byte	0x4f
 478 0118 B4000000 		.4byte	0xb4
 479 011c 04       		.uleb128 0x4
 480 011d C0010000 		.4byte	.LASF25
 481 0121 07       		.byte	0x7
 482 0122 51       		.byte	0x51
 483 0123 A9000000 		.4byte	0xa9
 484 0127 04       		.uleb128 0x4
 485 0128 46050000 		.4byte	.LASF26
 486 012c 08       		.byte	0x8
 487 012d 33       		.byte	0x33
 488 012e B4000000 		.4byte	0xb4
 489 0132 04       		.uleb128 0x4
 490 0133 2B050000 		.4byte	.LASF27
 491 0137 08       		.byte	0x8
 492 0138 3F       		.byte	0x3f
 493 0139 3D010000 		.4byte	0x13d
 494 013d 06       		.uleb128 0x6
 495 013e 0F020000 		.4byte	.LASF47
 496 0142 44       		.byte	0x44
 497 0143 03       		.byte	0x3
 498 0144 C2       		.byte	0xc2
 499 0145 2A020000 		.4byte	0x22a
 500 0149 07       		.uleb128 0x7
 501 014a 7A040000 		.4byte	.LASF28
 502 014e 03       		.byte	0x3
 503 014f C3       		.byte	0xc3
 504 0150 35020000 		.4byte	0x235
 505 0154 00       		.byte	0
 506 0155 07       		.uleb128 0x7
 507 0156 15040000 		.4byte	.LASF29
 508 015a 03       		.byte	0x3
 509 015b C5       		.byte	0xc5
 510 015c 35020000 		.4byte	0x235
 511 0160 04       		.byte	0x4
ARM GAS  /tmp/ccbcwbNH.s 			page 10


 512 0161 07       		.uleb128 0x7
 513 0162 00010000 		.4byte	.LASF30
 514 0166 03       		.byte	0x3
 515 0167 C7       		.byte	0xc7
 516 0168 FB000000 		.4byte	0xfb
 517 016c 08       		.byte	0x8
 518 016d 07       		.uleb128 0x7
 519 016e 22060000 		.4byte	.LASF31
 520 0172 03       		.byte	0x3
 521 0173 C8       		.byte	0xc8
 522 0174 65040000 		.4byte	0x465
 523 0178 0C       		.byte	0xc
 524 0179 07       		.uleb128 0x7
 525 017a 7A010000 		.4byte	.LASF32
 526 017e 03       		.byte	0x3
 527 017f CA       		.byte	0xca
 528 0180 35020000 		.4byte	0x235
 529 0184 10       		.byte	0x10
 530 0185 07       		.uleb128 0x7
 531 0186 BA030000 		.4byte	.LASF33
 532 018a 03       		.byte	0x3
 533 018b CB       		.byte	0xcb
 534 018c 35020000 		.4byte	0x235
 535 0190 14       		.byte	0x14
 536 0191 07       		.uleb128 0x7
 537 0192 E4050000 		.4byte	.LASF34
 538 0196 03       		.byte	0x3
 539 0197 D2       		.byte	0xd2
 540 0198 AA060000 		.4byte	0x6aa
 541 019c 18       		.byte	0x18
 542 019d 07       		.uleb128 0x7
 543 019e 64040000 		.4byte	.LASF35
 544 01a2 03       		.byte	0x3
 545 01a3 DD       		.byte	0xdd
 546 01a4 E5000000 		.4byte	0xe5
 547 01a8 1C       		.byte	0x1c
 548 01a9 07       		.uleb128 0x7
 549 01aa 81040000 		.4byte	.LASF36
 550 01ae 03       		.byte	0x3
 551 01af E1       		.byte	0xe1
 552 01b0 DA000000 		.4byte	0xda
 553 01b4 1D       		.byte	0x1d
 554 01b5 07       		.uleb128 0x7
 555 01b6 C8050000 		.4byte	.LASF37
 556 01ba 03       		.byte	0x3
 557 01bb E6       		.byte	0xe6
 558 01bc F0000000 		.4byte	0xf0
 559 01c0 1E       		.byte	0x1e
 560 01c1 08       		.uleb128 0x8
 561 01c2 705F7500 		.ascii	"p_u\000"
 562 01c6 03       		.byte	0x3
 563 01c7 3101     		.2byte	0x131
 564 01c9 E5050000 		.4byte	0x5e5
 565 01cd 20       		.byte	0x20
 566 01ce 09       		.uleb128 0x9
 567 01cf 65030000 		.4byte	.LASF38
 568 01d3 03       		.byte	0x3
ARM GAS  /tmp/ccbcwbNH.s 			page 11


 569 01d4 3601     		.2byte	0x136
 570 01d6 3B020000 		.4byte	0x23b
 571 01da 24       		.byte	0x24
 572 01db 09       		.uleb128 0x9
 573 01dc EB010000 		.4byte	.LASF39
 574 01e0 03       		.byte	0x3
 575 01e1 3C01     		.2byte	0x13c
 576 01e3 5F020000 		.4byte	0x25f
 577 01e7 28       		.byte	0x28
 578 01e8 09       		.uleb128 0x9
 579 01e9 06060000 		.4byte	.LASF40
 580 01ed 03       		.byte	0x3
 581 01ee 4001     		.2byte	0x140
 582 01f0 06010000 		.4byte	0x106
 583 01f4 30       		.byte	0x30
 584 01f5 09       		.uleb128 0x9
 585 01f6 D5040000 		.4byte	.LASF41
 586 01fa 03       		.byte	0x3
 587 01fb 4601     		.2byte	0x146
 588 01fd 11010000 		.4byte	0x111
 589 0201 34       		.byte	0x34
 590 0202 09       		.uleb128 0x9
 591 0203 50040000 		.4byte	.LASF42
 592 0207 03       		.byte	0x3
 593 0208 4D01     		.2byte	0x14d
 594 020a A4060000 		.4byte	0x6a4
 595 020e 38       		.byte	0x38
 596 020f 09       		.uleb128 0x9
 597 0210 50050000 		.4byte	.LASF43
 598 0214 03       		.byte	0x3
 599 0215 5101     		.2byte	0x151
 600 0217 FB000000 		.4byte	0xfb
 601 021b 3C       		.byte	0x3c
 602 021c 09       		.uleb128 0x9
 603 021d 21010000 		.4byte	.LASF44
 604 0221 03       		.byte	0x3
 605 0222 5801     		.2byte	0x158
 606 0224 12030000 		.4byte	0x312
 607 0228 40       		.byte	0x40
 608 0229 00       		.byte	0
 609 022a 04       		.uleb128 0x4
 610 022b 78030000 		.4byte	.LASF45
 611 022f 08       		.byte	0x8
 612 0230 44       		.byte	0x44
 613 0231 35020000 		.4byte	0x235
 614 0235 0A       		.uleb128 0xa
 615 0236 04       		.byte	0x4
 616 0237 32010000 		.4byte	0x132
 617 023b 04       		.uleb128 0x4
 618 023c EB050000 		.4byte	.LASF46
 619 0240 08       		.byte	0x8
 620 0241 49       		.byte	0x49
 621 0242 46020000 		.4byte	0x246
 622 0246 06       		.uleb128 0x6
 623 0247 04050000 		.4byte	.LASF48
 624 024b 04       		.byte	0x4
 625 024c 03       		.byte	0x3
ARM GAS  /tmp/ccbcwbNH.s 			page 12


 626 024d B0       		.byte	0xb0
 627 024e 5F020000 		.4byte	0x25f
 628 0252 07       		.uleb128 0x7
 629 0253 7A040000 		.4byte	.LASF28
 630 0257 03       		.byte	0x3
 631 0258 B1       		.byte	0xb1
 632 0259 35020000 		.4byte	0x235
 633 025d 00       		.byte	0
 634 025e 00       		.byte	0
 635 025f 04       		.uleb128 0x4
 636 0260 AF050000 		.4byte	.LASF49
 637 0264 08       		.byte	0x8
 638 0265 50       		.byte	0x50
 639 0266 6A020000 		.4byte	0x26a
 640 026a 06       		.uleb128 0x6
 641 026b EF000000 		.4byte	.LASF50
 642 026f 08       		.byte	0x8
 643 0270 03       		.byte	0x3
 644 0271 B7       		.byte	0xb7
 645 0272 8F020000 		.4byte	0x28f
 646 0276 07       		.uleb128 0x7
 647 0277 7A040000 		.4byte	.LASF28
 648 027b 03       		.byte	0x3
 649 027c B8       		.byte	0xb8
 650 027d 35020000 		.4byte	0x235
 651 0281 00       		.byte	0
 652 0282 07       		.uleb128 0x7
 653 0283 15040000 		.4byte	.LASF29
 654 0287 03       		.byte	0x3
 655 0288 B9       		.byte	0xb9
 656 0289 35020000 		.4byte	0x235
 657 028d 04       		.byte	0x4
 658 028e 00       		.byte	0
 659 028f 04       		.uleb128 0x4
 660 0290 00000000 		.4byte	.LASF51
 661 0294 08       		.byte	0x8
 662 0295 57       		.byte	0x57
 663 0296 9A020000 		.4byte	0x29a
 664 029a 0B       		.uleb128 0xb
 665 029b 40020000 		.4byte	.LASF52
 666 029f 1C       		.byte	0x1c
 667 02a0 03       		.byte	0x3
 668 02a1 9001     		.2byte	0x190
 669 02a3 F6020000 		.4byte	0x2f6
 670 02a7 09       		.uleb128 0x9
 671 02a8 F0040000 		.4byte	.LASF53
 672 02ac 03       		.byte	0x3
 673 02ad 9101     		.2byte	0x191
 674 02af 5F020000 		.4byte	0x25f
 675 02b3 00       		.byte	0
 676 02b4 09       		.uleb128 0x9
 677 02b5 6C040000 		.4byte	.LASF54
 678 02b9 03       		.byte	0x3
 679 02ba 9201     		.2byte	0x192
 680 02bc FB000000 		.4byte	0xfb
 681 02c0 08       		.byte	0x8
 682 02c1 09       		.uleb128 0x9
ARM GAS  /tmp/ccbcwbNH.s 			page 13


 683 02c2 C2030000 		.4byte	.LASF55
 684 02c6 03       		.byte	0x3
 685 02c7 9401     		.2byte	0x194
 686 02c9 65040000 		.4byte	0x465
 687 02cd 0C       		.byte	0xc
 688 02ce 09       		.uleb128 0x9
 689 02cf 8A010000 		.4byte	.LASF56
 690 02d3 03       		.byte	0x3
 691 02d4 9701     		.2byte	0x197
 692 02d6 35020000 		.4byte	0x235
 693 02da 10       		.byte	0x10
 694 02db 09       		.uleb128 0x9
 695 02dc EA030000 		.4byte	.LASF57
 696 02e0 03       		.byte	0x3
 697 02e1 9801     		.2byte	0x198
 698 02e3 35020000 		.4byte	0x235
 699 02e7 14       		.byte	0x14
 700 02e8 09       		.uleb128 0x9
 701 02e9 E0030000 		.4byte	.LASF58
 702 02ed 03       		.byte	0x3
 703 02ee 9B01     		.2byte	0x19b
 704 02f0 35020000 		.4byte	0x235
 705 02f4 18       		.byte	0x18
 706 02f5 00       		.byte	0
 707 02f6 04       		.uleb128 0x4
 708 02f7 5B050000 		.4byte	.LASF59
 709 02fb 08       		.byte	0x8
 710 02fc 5C       		.byte	0x5c
 711 02fd 01030000 		.4byte	0x301
 712 0301 0A       		.uleb128 0xa
 713 0302 04       		.byte	0x4
 714 0303 07030000 		.4byte	0x307
 715 0307 0C       		.uleb128 0xc
 716 0308 12030000 		.4byte	0x312
 717 030c 0D       		.uleb128 0xd
 718 030d 12030000 		.4byte	0x312
 719 0311 00       		.byte	0
 720 0312 0E       		.uleb128 0xe
 721 0313 04       		.byte	0x4
 722 0314 04       		.uleb128 0x4
 723 0315 05040000 		.4byte	.LASF60
 724 0319 08       		.byte	0x8
 725 031a 61       		.byte	0x61
 726 031b 1F030000 		.4byte	0x31f
 727 031f 0B       		.uleb128 0xb
 728 0320 9C040000 		.4byte	.LASF61
 729 0324 14       		.byte	0x14
 730 0325 03       		.byte	0x3
 731 0326 6B01     		.2byte	0x16b
 732 0328 6E030000 		.4byte	0x36e
 733 032c 09       		.uleb128 0x9
 734 032d D3010000 		.4byte	.LASF62
 735 0331 03       		.byte	0x3
 736 0332 6C01     		.2byte	0x16c
 737 0334 BC060000 		.4byte	0x6bc
 738 0338 00       		.byte	0
 739 0339 09       		.uleb128 0x9
ARM GAS  /tmp/ccbcwbNH.s 			page 14


 740 033a 9B010000 		.4byte	.LASF63
 741 033e 03       		.byte	0x3
 742 033f 6D01     		.2byte	0x16d
 743 0341 BC060000 		.4byte	0x6bc
 744 0345 04       		.byte	0x4
 745 0346 09       		.uleb128 0x9
 746 0347 E2010000 		.4byte	.LASF64
 747 034b 03       		.byte	0x3
 748 034c 6E01     		.2byte	0x16e
 749 034e 27010000 		.4byte	0x127
 750 0352 08       		.byte	0x8
 751 0353 09       		.uleb128 0x9
 752 0354 28060000 		.4byte	.LASF65
 753 0358 03       		.byte	0x3
 754 0359 6F01     		.2byte	0x16f
 755 035b F6020000 		.4byte	0x2f6
 756 035f 0C       		.byte	0xc
 757 0360 09       		.uleb128 0x9
 758 0361 9E050000 		.4byte	.LASF66
 759 0365 03       		.byte	0x3
 760 0366 7101     		.2byte	0x171
 761 0368 12030000 		.4byte	0x312
 762 036c 10       		.byte	0x10
 763 036d 00       		.byte	0
 764 036e 04       		.uleb128 0x4
 765 036f CC000000 		.4byte	.LASF67
 766 0373 08       		.byte	0x8
 767 0374 66       		.byte	0x66
 768 0375 79030000 		.4byte	0x379
 769 0379 0B       		.uleb128 0xb
 770 037a 8B030000 		.4byte	.LASF68
 771 037e 10       		.byte	0x10
 772 037f 03       		.byte	0x3
 773 0380 7B01     		.2byte	0x17b
 774 0382 BB030000 		.4byte	0x3bb
 775 0386 09       		.uleb128 0x9
 776 0387 D3010000 		.4byte	.LASF62
 777 038b 03       		.byte	0x3
 778 038c 7C01     		.2byte	0x17c
 779 038e BC060000 		.4byte	0x6bc
 780 0392 00       		.byte	0
 781 0393 09       		.uleb128 0x9
 782 0394 9B010000 		.4byte	.LASF63
 783 0398 03       		.byte	0x3
 784 0399 7E01     		.2byte	0x17e
 785 039b BC060000 		.4byte	0x6bc
 786 039f 04       		.byte	0x4
 787 03a0 09       		.uleb128 0x9
 788 03a1 E2010000 		.4byte	.LASF64
 789 03a5 03       		.byte	0x3
 790 03a6 8001     		.2byte	0x180
 791 03a8 27010000 		.4byte	0x127
 792 03ac 08       		.byte	0x8
 793 03ad 09       		.uleb128 0x9
 794 03ae AE030000 		.4byte	.LASF69
 795 03b2 03       		.byte	0x3
 796 03b3 8801     		.2byte	0x188
ARM GAS  /tmp/ccbcwbNH.s 			page 15


 797 03b5 27010000 		.4byte	0x127
 798 03b9 0C       		.byte	0xc
 799 03ba 00       		.byte	0
 800 03bb 04       		.uleb128 0x4
 801 03bc 88000000 		.4byte	.LASF70
 802 03c0 08       		.byte	0x8
 803 03c1 6B       		.byte	0x6b
 804 03c2 C6030000 		.4byte	0x3c6
 805 03c6 0B       		.uleb128 0xb
 806 03c7 24040000 		.4byte	.LASF71
 807 03cb 04       		.byte	0x4
 808 03cc 03       		.byte	0x3
 809 03cd A201     		.2byte	0x1a2
 810 03cf E1030000 		.4byte	0x3e1
 811 03d3 09       		.uleb128 0x9
 812 03d4 7D050000 		.4byte	.LASF72
 813 03d8 03       		.byte	0x3
 814 03d9 AA01     		.2byte	0x1aa
 815 03db C2060000 		.4byte	0x6c2
 816 03df 00       		.byte	0
 817 03e0 00       		.byte	0
 818 03e1 04       		.uleb128 0x4
 819 03e2 2C020000 		.4byte	.LASF73
 820 03e6 08       		.byte	0x8
 821 03e7 70       		.byte	0x70
 822 03e8 EC030000 		.4byte	0x3ec
 823 03ec 0F       		.uleb128 0xf
 824 03ed 44010000 		.4byte	.LASF74
 825 03f1 D801     		.2byte	0x1d8
 826 03f3 03       		.byte	0x3
 827 03f4 C201     		.2byte	0x1c2
 828 03f6 48040000 		.4byte	0x448
 829 03fa 09       		.uleb128 0x9
 830 03fb CF050000 		.4byte	.LASF75
 831 03ff 03       		.byte	0x3
 832 0400 C601     		.2byte	0x1c6
 833 0402 8F020000 		.4byte	0x28f
 834 0406 00       		.byte	0
 835 0407 09       		.uleb128 0x9
 836 0408 31010000 		.4byte	.LASF76
 837 040c 03       		.byte	0x3
 838 040d CA01     		.2byte	0x1ca
 839 040f 6E030000 		.4byte	0x36e
 840 0413 1C       		.byte	0x1c
 841 0414 08       		.uleb128 0x8
 842 0415 64626700 		.ascii	"dbg\000"
 843 0419 03       		.byte	0x3
 844 041a CE01     		.2byte	0x1ce
 845 041c BB030000 		.4byte	0x3bb
 846 0420 2C       		.byte	0x2c
 847 0421 09       		.uleb128 0x9
 848 0422 C1000000 		.4byte	.LASF77
 849 0426 03       		.byte	0x3
 850 0427 D201     		.2byte	0x1d2
 851 0429 32010000 		.4byte	0x132
 852 042d 30       		.byte	0x30
 853 042e 08       		.uleb128 0x8
ARM GAS  /tmp/ccbcwbNH.s 			page 16


 854 042f 746D00   		.ascii	"tm\000"
 855 0432 03       		.byte	0x3
 856 0433 D701     		.2byte	0x1d7
 857 0435 DA050000 		.4byte	0x5da
 858 0439 74       		.byte	0x74
 859 043a 09       		.uleb128 0x9
 860 043b B1010000 		.4byte	.LASF78
 861 043f 03       		.byte	0x3
 862 0440 E301     		.2byte	0x1e3
 863 0442 C7060000 		.4byte	0x6c7
 864 0446 78       		.byte	0x78
 865 0447 00       		.byte	0
 866 0448 03       		.uleb128 0x3
 867 0449 04       		.byte	0x4
 868 044a 07       		.byte	0x7
 869 044b 6F030000 		.4byte	.LASF79
 870 044f 04       		.uleb128 0x4
 871 0450 92010000 		.4byte	.LASF80
 872 0454 09       		.byte	0x9
 873 0455 65       		.byte	0x65
 874 0456 12030000 		.4byte	0x312
 875 045a 04       		.uleb128 0x4
 876 045b 64020000 		.4byte	.LASF81
 877 045f 09       		.byte	0x9
 878 0460 6D       		.byte	0x6d
 879 0461 BF000000 		.4byte	0xbf
 880 0465 06       		.uleb128 0x6
 881 0466 8E050000 		.4byte	.LASF82
 882 046a 04       		.byte	0x4
 883 046b 09       		.byte	0x9
 884 046c 89       		.byte	0x89
 885 046d 7E040000 		.4byte	0x47e
 886 0471 10       		.uleb128 0x10
 887 0472 72313300 		.ascii	"r13\000"
 888 0476 09       		.byte	0x9
 889 0477 8A       		.byte	0x8a
 890 0478 BF050000 		.4byte	0x5bf
 891 047c 00       		.byte	0
 892 047d 00       		.byte	0
 893 047e 06       		.uleb128 0x6
 894 047f 7C000000 		.4byte	.LASF83
 895 0483 64       		.byte	0x64
 896 0484 0A       		.byte	0xa
 897 0485 F4       		.byte	0xf4
 898 0486 BF050000 		.4byte	0x5bf
 899 048a 10       		.uleb128 0x10
 900 048b 73313600 		.ascii	"s16\000"
 901 048f 0A       		.byte	0xa
 902 0490 F6       		.byte	0xf6
 903 0491 4F040000 		.4byte	0x44f
 904 0495 00       		.byte	0
 905 0496 10       		.uleb128 0x10
 906 0497 73313700 		.ascii	"s17\000"
 907 049b 0A       		.byte	0xa
 908 049c F7       		.byte	0xf7
 909 049d 4F040000 		.4byte	0x44f
 910 04a1 04       		.byte	0x4
ARM GAS  /tmp/ccbcwbNH.s 			page 17


 911 04a2 10       		.uleb128 0x10
 912 04a3 73313800 		.ascii	"s18\000"
 913 04a7 0A       		.byte	0xa
 914 04a8 F8       		.byte	0xf8
 915 04a9 4F040000 		.4byte	0x44f
 916 04ad 08       		.byte	0x8
 917 04ae 10       		.uleb128 0x10
 918 04af 73313900 		.ascii	"s19\000"
 919 04b3 0A       		.byte	0xa
 920 04b4 F9       		.byte	0xf9
 921 04b5 4F040000 		.4byte	0x44f
 922 04b9 0C       		.byte	0xc
 923 04ba 10       		.uleb128 0x10
 924 04bb 73323000 		.ascii	"s20\000"
 925 04bf 0A       		.byte	0xa
 926 04c0 FA       		.byte	0xfa
 927 04c1 4F040000 		.4byte	0x44f
 928 04c5 10       		.byte	0x10
 929 04c6 10       		.uleb128 0x10
 930 04c7 73323100 		.ascii	"s21\000"
 931 04cb 0A       		.byte	0xa
 932 04cc FB       		.byte	0xfb
 933 04cd 4F040000 		.4byte	0x44f
 934 04d1 14       		.byte	0x14
 935 04d2 10       		.uleb128 0x10
 936 04d3 73323200 		.ascii	"s22\000"
 937 04d7 0A       		.byte	0xa
 938 04d8 FC       		.byte	0xfc
 939 04d9 4F040000 		.4byte	0x44f
 940 04dd 18       		.byte	0x18
 941 04de 10       		.uleb128 0x10
 942 04df 73323300 		.ascii	"s23\000"
 943 04e3 0A       		.byte	0xa
 944 04e4 FD       		.byte	0xfd
 945 04e5 4F040000 		.4byte	0x44f
 946 04e9 1C       		.byte	0x1c
 947 04ea 10       		.uleb128 0x10
 948 04eb 73323400 		.ascii	"s24\000"
 949 04ef 0A       		.byte	0xa
 950 04f0 FE       		.byte	0xfe
 951 04f1 4F040000 		.4byte	0x44f
 952 04f5 20       		.byte	0x20
 953 04f6 10       		.uleb128 0x10
 954 04f7 73323500 		.ascii	"s25\000"
 955 04fb 0A       		.byte	0xa
 956 04fc FF       		.byte	0xff
 957 04fd 4F040000 		.4byte	0x44f
 958 0501 24       		.byte	0x24
 959 0502 08       		.uleb128 0x8
 960 0503 73323600 		.ascii	"s26\000"
 961 0507 0A       		.byte	0xa
 962 0508 0001     		.2byte	0x100
 963 050a 4F040000 		.4byte	0x44f
 964 050e 28       		.byte	0x28
 965 050f 08       		.uleb128 0x8
 966 0510 73323700 		.ascii	"s27\000"
 967 0514 0A       		.byte	0xa
ARM GAS  /tmp/ccbcwbNH.s 			page 18


 968 0515 0101     		.2byte	0x101
 969 0517 4F040000 		.4byte	0x44f
 970 051b 2C       		.byte	0x2c
 971 051c 08       		.uleb128 0x8
 972 051d 73323800 		.ascii	"s28\000"
 973 0521 0A       		.byte	0xa
 974 0522 0201     		.2byte	0x102
 975 0524 4F040000 		.4byte	0x44f
 976 0528 30       		.byte	0x30
 977 0529 08       		.uleb128 0x8
 978 052a 73323900 		.ascii	"s29\000"
 979 052e 0A       		.byte	0xa
 980 052f 0301     		.2byte	0x103
 981 0531 4F040000 		.4byte	0x44f
 982 0535 34       		.byte	0x34
 983 0536 08       		.uleb128 0x8
 984 0537 73333000 		.ascii	"s30\000"
 985 053b 0A       		.byte	0xa
 986 053c 0401     		.2byte	0x104
 987 053e 4F040000 		.4byte	0x44f
 988 0542 38       		.byte	0x38
 989 0543 08       		.uleb128 0x8
 990 0544 73333100 		.ascii	"s31\000"
 991 0548 0A       		.byte	0xa
 992 0549 0501     		.2byte	0x105
 993 054b 4F040000 		.4byte	0x44f
 994 054f 3C       		.byte	0x3c
 995 0550 08       		.uleb128 0x8
 996 0551 723400   		.ascii	"r4\000"
 997 0554 0A       		.byte	0xa
 998 0555 0701     		.2byte	0x107
 999 0557 4F040000 		.4byte	0x44f
 1000 055b 40       		.byte	0x40
 1001 055c 08       		.uleb128 0x8
 1002 055d 723500   		.ascii	"r5\000"
 1003 0560 0A       		.byte	0xa
 1004 0561 0801     		.2byte	0x108
 1005 0563 4F040000 		.4byte	0x44f
 1006 0567 44       		.byte	0x44
 1007 0568 08       		.uleb128 0x8
 1008 0569 723600   		.ascii	"r6\000"
 1009 056c 0A       		.byte	0xa
 1010 056d 0901     		.2byte	0x109
 1011 056f 4F040000 		.4byte	0x44f
 1012 0573 48       		.byte	0x48
 1013 0574 08       		.uleb128 0x8
 1014 0575 723700   		.ascii	"r7\000"
 1015 0578 0A       		.byte	0xa
 1016 0579 0A01     		.2byte	0x10a
 1017 057b 4F040000 		.4byte	0x44f
 1018 057f 4C       		.byte	0x4c
 1019 0580 08       		.uleb128 0x8
 1020 0581 723800   		.ascii	"r8\000"
 1021 0584 0A       		.byte	0xa
 1022 0585 0B01     		.2byte	0x10b
 1023 0587 4F040000 		.4byte	0x44f
 1024 058b 50       		.byte	0x50
ARM GAS  /tmp/ccbcwbNH.s 			page 19


 1025 058c 08       		.uleb128 0x8
 1026 058d 723900   		.ascii	"r9\000"
 1027 0590 0A       		.byte	0xa
 1028 0591 0C01     		.2byte	0x10c
 1029 0593 4F040000 		.4byte	0x44f
 1030 0597 54       		.byte	0x54
 1031 0598 08       		.uleb128 0x8
 1032 0599 72313000 		.ascii	"r10\000"
 1033 059d 0A       		.byte	0xa
 1034 059e 0D01     		.2byte	0x10d
 1035 05a0 4F040000 		.4byte	0x44f
 1036 05a4 58       		.byte	0x58
 1037 05a5 08       		.uleb128 0x8
 1038 05a6 72313100 		.ascii	"r11\000"
 1039 05aa 0A       		.byte	0xa
 1040 05ab 0E01     		.2byte	0x10e
 1041 05ad 4F040000 		.4byte	0x44f
 1042 05b1 5C       		.byte	0x5c
 1043 05b2 08       		.uleb128 0x8
 1044 05b3 6C7200   		.ascii	"lr\000"
 1045 05b6 0A       		.byte	0xa
 1046 05b7 0F01     		.2byte	0x10f
 1047 05b9 4F040000 		.4byte	0x44f
 1048 05bd 60       		.byte	0x60
 1049 05be 00       		.byte	0
 1050 05bf 0A       		.uleb128 0xa
 1051 05c0 04       		.byte	0x4
 1052 05c1 7E040000 		.4byte	0x47e
 1053 05c5 11       		.uleb128 0x11
 1054 05c6 04       		.byte	0x4
 1055 05c7 0B       		.byte	0xb
 1056 05c8 38       		.byte	0x38
 1057 05c9 DA050000 		.4byte	0x5da
 1058 05cd 07       		.uleb128 0x7
 1059 05ce 87050000 		.4byte	.LASF84
 1060 05d2 0B       		.byte	0xb
 1061 05d3 3C       		.byte	0x3c
 1062 05d4 CF000000 		.4byte	0xcf
 1063 05d8 00       		.byte	0
 1064 05d9 00       		.byte	0
 1065 05da 04       		.uleb128 0x4
 1066 05db C8030000 		.4byte	.LASF85
 1067 05df 0B       		.byte	0xb
 1068 05e0 3D       		.byte	0x3d
 1069 05e1 C5050000 		.4byte	0x5c5
 1070 05e5 12       		.uleb128 0x12
 1071 05e6 04       		.byte	0x4
 1072 05e7 03       		.byte	0x3
 1073 05e8 FA       		.byte	0xfa
 1074 05e9 42060000 		.4byte	0x642
 1075 05ed 13       		.uleb128 0x13
 1076 05ee 62000000 		.4byte	.LASF86
 1077 05f2 03       		.byte	0x3
 1078 05f3 0101     		.2byte	0x101
 1079 05f5 06010000 		.4byte	0x106
 1080 05f9 13       		.uleb128 0x13
 1081 05fa B8000000 		.4byte	.LASF87
ARM GAS  /tmp/ccbcwbNH.s 			page 20


 1082 05fe 03       		.byte	0x3
 1083 05ff 0801     		.2byte	0x108
 1084 0601 06010000 		.4byte	0x106
 1085 0605 13       		.uleb128 0x13
 1086 0606 DD050000 		.4byte	.LASF88
 1087 060a 03       		.byte	0x3
 1088 060b 0F01     		.2byte	0x10f
 1089 060d 12030000 		.4byte	0x312
 1090 0611 13       		.uleb128 0x13
 1091 0612 5C000000 		.4byte	.LASF89
 1092 0616 03       		.byte	0x3
 1093 0617 1601     		.2byte	0x116
 1094 0619 42060000 		.4byte	0x642
 1095 061d 13       		.uleb128 0x13
 1096 061e DB010000 		.4byte	.LASF90
 1097 0622 03       		.byte	0x3
 1098 0623 1E01     		.2byte	0x11e
 1099 0625 6D060000 		.4byte	0x66d
 1100 0629 13       		.uleb128 0x13
 1101 062a E9040000 		.4byte	.LASF91
 1102 062e 03       		.byte	0x3
 1103 062f 2701     		.2byte	0x127
 1104 0631 A4060000 		.4byte	0x6a4
 1105 0635 13       		.uleb128 0x13
 1106 0636 73040000 		.4byte	.LASF92
 1107 063a 03       		.byte	0x3
 1108 063b 2F01     		.2byte	0x12f
 1109 063d 11010000 		.4byte	0x111
 1110 0641 00       		.byte	0
 1111 0642 0A       		.uleb128 0xa
 1112 0643 04       		.byte	0x4
 1113 0644 2A020000 		.4byte	0x22a
 1114 0648 06       		.uleb128 0x6
 1115 0649 BA040000 		.4byte	.LASF93
 1116 064d 0C       		.byte	0xc
 1117 064e 0C       		.byte	0xc
 1118 064f 34       		.byte	0x34
 1119 0650 6D060000 		.4byte	0x66d
 1120 0654 07       		.uleb128 0x7
 1121 0655 82010000 		.4byte	.LASF94
 1122 0659 0C       		.byte	0xc
 1123 065a 35       		.byte	0x35
 1124 065b 5F020000 		.4byte	0x25f
 1125 065f 00       		.byte	0
 1126 0660 07       		.uleb128 0x7
 1127 0661 F6010000 		.4byte	.LASF95
 1128 0665 0C       		.byte	0xc
 1129 0666 37       		.byte	0x37
 1130 0667 1C010000 		.4byte	0x11c
 1131 066b 08       		.byte	0x8
 1132 066c 00       		.byte	0
 1133 066d 0A       		.uleb128 0xa
 1134 066e 04       		.byte	0x4
 1135 066f 48060000 		.4byte	0x648
 1136 0673 06       		.uleb128 0x6
 1137 0674 BF050000 		.4byte	.LASF96
 1138 0678 10       		.byte	0x10
ARM GAS  /tmp/ccbcwbNH.s 			page 21


 1139 0679 0D       		.byte	0xd
 1140 067a 39       		.byte	0x39
 1141 067b A4060000 		.4byte	0x6a4
 1142 067f 07       		.uleb128 0x7
 1143 0680 29010000 		.4byte	.LASF97
 1144 0684 0D       		.byte	0xd
 1145 0685 3A       		.byte	0x3a
 1146 0686 5F020000 		.4byte	0x25f
 1147 068a 00       		.byte	0
 1148 068b 07       		.uleb128 0x7
 1149 068c 1A060000 		.4byte	.LASF98
 1150 0690 0D       		.byte	0xd
 1151 0691 3C       		.byte	0x3c
 1152 0692 35020000 		.4byte	0x235
 1153 0696 08       		.byte	0x8
 1154 0697 07       		.uleb128 0x7
 1155 0698 D9030000 		.4byte	.LASF99
 1156 069c 0D       		.byte	0xd
 1157 069d 3E       		.byte	0x3e
 1158 069e E2060000 		.4byte	0x6e2
 1159 06a2 0C       		.byte	0xc
 1160 06a3 00       		.byte	0
 1161 06a4 0A       		.uleb128 0xa
 1162 06a5 04       		.byte	0x4
 1163 06a6 73060000 		.4byte	0x673
 1164 06aa 0A       		.uleb128 0xa
 1165 06ab 04       		.byte	0x4
 1166 06ac B7060000 		.4byte	0x6b7
 1167 06b0 03       		.uleb128 0x3
 1168 06b1 01       		.byte	0x1
 1169 06b2 08       		.byte	0x8
 1170 06b3 26050000 		.4byte	.LASF100
 1171 06b7 14       		.uleb128 0x14
 1172 06b8 B0060000 		.4byte	0x6b0
 1173 06bc 0A       		.uleb128 0xa
 1174 06bd 04       		.byte	0x4
 1175 06be 14030000 		.4byte	0x314
 1176 06c2 05       		.uleb128 0x5
 1177 06c3 AA060000 		.4byte	0x6aa
 1178 06c7 15       		.uleb128 0x15
 1179 06c8 5A040000 		.4byte	0x45a
 1180 06cc D7060000 		.4byte	0x6d7
 1181 06d0 16       		.uleb128 0x16
 1182 06d1 48040000 		.4byte	0x448
 1183 06d5 2B       		.byte	0x2b
 1184 06d6 00       		.byte	0
 1185 06d7 04       		.uleb128 0x4
 1186 06d8 A3010000 		.4byte	.LASF101
 1187 06dc 0D       		.byte	0xd
 1188 06dd 34       		.byte	0x34
 1189 06de 73060000 		.4byte	0x673
 1190 06e2 0A       		.uleb128 0xa
 1191 06e3 04       		.byte	0x4
 1192 06e4 D7060000 		.4byte	0x6d7
 1193 06e8 17       		.uleb128 0x17
 1194 06e9 6F050000 		.4byte	.LASF104
 1195 06ed 02       		.byte	0x2
ARM GAS  /tmp/ccbcwbNH.s 			page 22


 1196 06ee 2002     		.2byte	0x220
 1197 06f0 03       		.byte	0x3
 1198 06f1 02070000 		.4byte	0x702
 1199 06f5 18       		.uleb128 0x18
 1200 06f6 AB010000 		.4byte	.LASF106
 1201 06fa 02       		.byte	0x2
 1202 06fb 2002     		.2byte	0x220
 1203 06fd B4000000 		.4byte	0xb4
 1204 0701 00       		.byte	0
 1205 0702 19       		.uleb128 0x19
 1206 0703 97000000 		.4byte	.LASF102
 1207 0707 0A       		.byte	0xa
 1208 0708 BC01     		.2byte	0x1bc
 1209 070a 03       		.byte	0x3
 1210 070b 19       		.uleb128 0x19
 1211 070c 38010000 		.4byte	.LASF103
 1212 0710 0A       		.byte	0xa
 1213 0711 CA01     		.2byte	0x1ca
 1214 0713 03       		.byte	0x3
 1215 0714 17       		.uleb128 0x17
 1216 0715 0D000000 		.4byte	.LASF105
 1217 0719 03       		.byte	0x3
 1218 071a 9702     		.2byte	0x297
 1219 071c 03       		.byte	0x3
 1220 071d 39070000 		.4byte	0x739
 1221 0721 1A       		.uleb128 0x1a
 1222 0722 747000   		.ascii	"tp\000"
 1223 0725 03       		.byte	0x3
 1224 0726 9702     		.2byte	0x297
 1225 0728 35020000 		.4byte	0x235
 1226 072c 1A       		.uleb128 0x1a
 1227 072d 74717000 		.ascii	"tqp\000"
 1228 0731 03       		.byte	0x3
 1229 0732 9702     		.2byte	0x297
 1230 0734 39070000 		.4byte	0x739
 1231 0738 00       		.byte	0
 1232 0739 0A       		.uleb128 0xa
 1233 073a 04       		.byte	0x4
 1234 073b 5F020000 		.4byte	0x25f
 1235 073f 19       		.uleb128 0x19
 1236 0740 92040000 		.4byte	.LASF107
 1237 0744 0E       		.byte	0xe
 1238 0745 5A01     		.2byte	0x15a
 1239 0747 03       		.byte	0x3
 1240 0748 17       		.uleb128 0x17
 1241 0749 FA050000 		.4byte	.LASF108
 1242 074d 0E       		.byte	0xe
 1243 074e 6601     		.2byte	0x166
 1244 0750 03       		.byte	0x3
 1245 0751 63070000 		.4byte	0x763
 1246 0755 1B       		.uleb128 0x1b
 1247 0756 89040000 		.4byte	.LASF112
 1248 075a 73070000 		.4byte	0x773
 1249 075e FA050000 		.4byte	.LASF108
 1250 0762 00       		.byte	0
 1251 0763 15       		.uleb128 0x15
 1252 0764 B0060000 		.4byte	0x6b0
ARM GAS  /tmp/ccbcwbNH.s 			page 23


 1253 0768 73070000 		.4byte	0x773
 1254 076c 16       		.uleb128 0x16
 1255 076d 48040000 		.4byte	0x448
 1256 0771 0B       		.byte	0xb
 1257 0772 00       		.byte	0
 1258 0773 14       		.uleb128 0x14
 1259 0774 63070000 		.4byte	0x763
 1260 0778 1C       		.uleb128 0x1c
 1261 0779 6A010000 		.4byte	.LASF110
 1262 077d 04       		.byte	0x4
 1263 077e 4F       		.byte	0x4f
 1264 077f 93070000 		.4byte	0x793
 1265 0783 03       		.byte	0x3
 1266 0784 93070000 		.4byte	0x793
 1267 0788 1D       		.uleb128 0x1d
 1268 0789 747000   		.ascii	"tp\000"
 1269 078c 04       		.byte	0x4
 1270 078d 4F       		.byte	0x4f
 1271 078e 35020000 		.4byte	0x235
 1272 0792 00       		.byte	0
 1273 0793 03       		.uleb128 0x3
 1274 0794 01       		.byte	0x1
 1275 0795 02       		.byte	0x2
 1276 0796 34040000 		.4byte	.LASF109
 1277 079a 1E       		.uleb128 0x1e
 1278 079b 34050000 		.4byte	.LASF111
 1279 079f 03       		.byte	0x3
 1280 07a0 9F02     		.2byte	0x29f
 1281 07a2 35020000 		.4byte	0x235
 1282 07a6 03       		.byte	0x3
 1283 07a7 C3070000 		.4byte	0x7c3
 1284 07ab 1A       		.uleb128 0x1a
 1285 07ac 74717000 		.ascii	"tqp\000"
 1286 07b0 03       		.byte	0x3
 1287 07b1 9F02     		.2byte	0x29f
 1288 07b3 39070000 		.4byte	0x739
 1289 07b7 1F       		.uleb128 0x1f
 1290 07b8 747000   		.ascii	"tp\000"
 1291 07bb 03       		.byte	0x3
 1292 07bc A002     		.2byte	0x2a0
 1293 07be 35020000 		.4byte	0x235
 1294 07c2 00       		.byte	0
 1295 07c3 20       		.uleb128 0x20
 1296 07c4 0C060000 		.4byte	.LASF113
 1297 07c8 04       		.byte	0x4
 1298 07c9 6F       		.byte	0x6f
 1299 07ca 03       		.byte	0x3
 1300 07cb E5070000 		.4byte	0x7e5
 1301 07cf 1D       		.uleb128 0x1d
 1302 07d0 747000   		.ascii	"tp\000"
 1303 07d3 04       		.byte	0x4
 1304 07d4 6F       		.byte	0x6f
 1305 07d5 35020000 		.4byte	0x235
 1306 07d9 1D       		.uleb128 0x1d
 1307 07da 6D736700 		.ascii	"msg\000"
 1308 07de 04       		.byte	0x4
 1309 07df 6F       		.byte	0x6f
ARM GAS  /tmp/ccbcwbNH.s 			page 24


 1310 07e0 06010000 		.4byte	0x106
 1311 07e4 00       		.byte	0
 1312 07e5 21       		.uleb128 0x21
 1313 07e6 57010000 		.4byte	.LASF114
 1314 07ea 01       		.byte	0x1
 1315 07eb 57       		.byte	0x57
 1316 07ec 06010000 		.4byte	0x106
 1317 07f0 00000000 		.4byte	.LFB229
 1318 07f4 40000000 		.4byte	.LFE229-.LFB229
 1319 07f8 01       		.uleb128 0x1
 1320 07f9 9C       		.byte	0x9c
 1321 07fa FA080000 		.4byte	0x8fa
 1322 07fe 22       		.uleb128 0x22
 1323 07ff 747000   		.ascii	"tp\000"
 1324 0802 01       		.byte	0x1
 1325 0803 57       		.byte	0x57
 1326 0804 35020000 		.4byte	0x235
 1327 0808 00000000 		.4byte	.LLST0
 1328 080c 22       		.uleb128 0x22
 1329 080d 6D736700 		.ascii	"msg\000"
 1330 0811 01       		.byte	0x1
 1331 0812 57       		.byte	0x57
 1332 0813 06010000 		.4byte	0x106
 1333 0817 38000000 		.4byte	.LLST1
 1334 081b 23       		.uleb128 0x23
 1335 081c 63747000 		.ascii	"ctp\000"
 1336 0820 01       		.byte	0x1
 1337 0821 58       		.byte	0x58
 1338 0822 35020000 		.4byte	0x235
 1339 0826 01       		.uleb128 0x1
 1340 0827 54       		.byte	0x54
 1341 0828 24       		.uleb128 0x24
 1342 0829 89040000 		.4byte	.LASF112
 1343 082d 0A090000 		.4byte	0x90a
 1344 0831 25       		.uleb128 0x25
 1345 0832 3F070000 		.4byte	0x73f
 1346 0836 04000000 		.4byte	.LBB52
 1347 083a 00000000 		.4byte	.Ldebug_ranges0+0
 1348 083e 01       		.byte	0x1
 1349 083f 5C       		.byte	0x5c
 1350 0840 6D080000 		.4byte	0x86d
 1351 0844 26       		.uleb128 0x26
 1352 0845 02070000 		.4byte	0x702
 1353 0849 04000000 		.4byte	.LBB53
 1354 084d 00000000 		.4byte	.Ldebug_ranges0+0
 1355 0851 0E       		.byte	0xe
 1356 0852 5C01     		.2byte	0x15c
 1357 0854 26       		.uleb128 0x26
 1358 0855 E8060000 		.4byte	0x6e8
 1359 0859 04000000 		.4byte	.LBB54
 1360 085d 00000000 		.4byte	.Ldebug_ranges0+0
 1361 0861 0A       		.byte	0xa
 1362 0862 BF01     		.2byte	0x1bf
 1363 0864 27       		.uleb128 0x27
 1364 0865 F5060000 		.4byte	0x6f5
 1365 0869 20       		.byte	0x20
 1366 086a 00       		.byte	0
ARM GAS  /tmp/ccbcwbNH.s 			page 25


 1367 086b 00       		.byte	0
 1368 086c 00       		.byte	0
 1369 086d 25       		.uleb128 0x25
 1370 086e 14070000 		.4byte	0x714
 1371 0872 12000000 		.4byte	.LBB60
 1372 0876 18000000 		.4byte	.Ldebug_ranges0+0x18
 1373 087a 01       		.byte	0x1
 1374 087b 5F       		.byte	0x5f
 1375 087c 8F080000 		.4byte	0x88f
 1376 0880 28       		.uleb128 0x28
 1377 0881 2C070000 		.4byte	0x72c
 1378 0885 01       		.uleb128 0x1
 1379 0886 55       		.byte	0x55
 1380 0887 28       		.uleb128 0x28
 1381 0888 21070000 		.4byte	0x721
 1382 088c 01       		.uleb128 0x1
 1383 088d 54       		.byte	0x54
 1384 088e 00       		.byte	0
 1385 088f 29       		.uleb128 0x29
 1386 0890 48070000 		.4byte	0x748
 1387 0894 2C000000 		.4byte	.LBB66
 1388 0898 06000000 		.4byte	.LBE66-.LBB66
 1389 089c 01       		.byte	0x1
 1390 089d 65       		.byte	0x65
 1391 089e DD080000 		.4byte	0x8dd
 1392 08a2 2A       		.uleb128 0x2a
 1393 08a3 2C000000 		.4byte	.LBB67
 1394 08a7 06000000 		.4byte	.LBE67-.LBB67
 1395 08ab 2B       		.uleb128 0x2b
 1396 08ac 55070000 		.4byte	0x755
 1397 08b0 2C       		.uleb128 0x2c
 1398 08b1 0B070000 		.4byte	0x70b
 1399 08b5 2C000000 		.4byte	.LBB68
 1400 08b9 06000000 		.4byte	.LBE68-.LBB68
 1401 08bd 0E       		.byte	0xe
 1402 08be 7301     		.2byte	0x173
 1403 08c0 2C       		.uleb128 0x2c
 1404 08c1 E8060000 		.4byte	0x6e8
 1405 08c5 2C000000 		.4byte	.LBB69
 1406 08c9 06000000 		.4byte	.LBE69-.LBB69
 1407 08cd 0A       		.byte	0xa
 1408 08ce CD01     		.2byte	0x1cd
 1409 08d0 2D       		.uleb128 0x2d
 1410 08d1 F5060000 		.4byte	0x6f5
 1411 08d5 7D000000 		.4byte	.LLST2
 1412 08d9 00       		.byte	0
 1413 08da 00       		.byte	0
 1414 08db 00       		.byte	0
 1415 08dc 00       		.byte	0
 1416 08dd 2E       		.uleb128 0x2e
 1417 08de 2A000000 		.4byte	.LVL4
 1418 08e2 320B0000 		.4byte	0xb32
 1419 08e6 F0080000 		.4byte	0x8f0
 1420 08ea 2F       		.uleb128 0x2f
 1421 08eb 01       		.uleb128 0x1
 1422 08ec 50       		.byte	0x50
 1423 08ed 01       		.uleb128 0x1
ARM GAS  /tmp/ccbcwbNH.s 			page 26


 1424 08ee 3C       		.byte	0x3c
 1425 08ef 00       		.byte	0
 1426 08f0 30       		.uleb128 0x30
 1427 08f1 38000000 		.4byte	.LVL7
 1428 08f5 3E0B0000 		.4byte	0xb3e
 1429 08f9 00       		.byte	0
 1430 08fa 15       		.uleb128 0x15
 1431 08fb B0060000 		.4byte	0x6b0
 1432 08ff 0A090000 		.4byte	0x90a
 1433 0903 16       		.uleb128 0x16
 1434 0904 48040000 		.4byte	0x448
 1435 0908 09       		.byte	0x9
 1436 0909 00       		.byte	0
 1437 090a 14       		.uleb128 0x14
 1438 090b FA080000 		.4byte	0x8fa
 1439 090f 21       		.uleb128 0x21
 1440 0910 A5050000 		.4byte	.LASF115
 1441 0914 01       		.byte	0x1
 1442 0915 78       		.byte	0x78
 1443 0916 35020000 		.4byte	0x235
 1444 091a 00000000 		.4byte	.LFB230
 1445 091e 3C000000 		.4byte	.LFE230-.LFB230
 1446 0922 01       		.uleb128 0x1
 1447 0923 9C       		.byte	0x9c
 1448 0924 090A0000 		.4byte	0xa09
 1449 0928 31       		.uleb128 0x31
 1450 0929 747000   		.ascii	"tp\000"
 1451 092c 01       		.byte	0x1
 1452 092d 79       		.byte	0x79
 1453 092e 35020000 		.4byte	0x235
 1454 0932 29       		.uleb128 0x29
 1455 0933 3F070000 		.4byte	0x73f
 1456 0937 02000000 		.4byte	.LBB71
 1457 093b 06000000 		.4byte	.LBE71-.LBB71
 1458 093f 01       		.byte	0x1
 1459 0940 7B       		.byte	0x7b
 1460 0941 6E090000 		.4byte	0x96e
 1461 0945 2C       		.uleb128 0x2c
 1462 0946 02070000 		.4byte	0x702
 1463 094a 02000000 		.4byte	.LBB72
 1464 094e 06000000 		.4byte	.LBE72-.LBB72
 1465 0952 0E       		.byte	0xe
 1466 0953 5C01     		.2byte	0x15c
 1467 0955 2C       		.uleb128 0x2c
 1468 0956 E8060000 		.4byte	0x6e8
 1469 095a 02000000 		.4byte	.LBB73
 1470 095e 06000000 		.4byte	.LBE73-.LBB73
 1471 0962 0A       		.byte	0xa
 1472 0963 BF01     		.2byte	0x1bf
 1473 0965 27       		.uleb128 0x27
 1474 0966 F5060000 		.4byte	0x6f5
 1475 096a 20       		.byte	0x20
 1476 096b 00       		.byte	0
 1477 096c 00       		.byte	0
 1478 096d 00       		.byte	0
 1479 096e 29       		.uleb128 0x29
 1480 096f 78070000 		.4byte	0x778
ARM GAS  /tmp/ccbcwbNH.s 			page 27


 1481 0973 0C000000 		.4byte	.LBB75
 1482 0977 06000000 		.4byte	.LBE75-.LBB75
 1483 097b 01       		.byte	0x1
 1484 097c 7C       		.byte	0x7c
 1485 097d 8B090000 		.4byte	0x98b
 1486 0981 2D       		.uleb128 0x2d
 1487 0982 88070000 		.4byte	0x788
 1488 0986 91000000 		.4byte	.LLST3
 1489 098a 00       		.byte	0
 1490 098b 25       		.uleb128 0x25
 1491 098c 9A070000 		.4byte	0x79a
 1492 0990 16000000 		.4byte	.LBB77
 1493 0994 38000000 		.4byte	.Ldebug_ranges0+0x38
 1494 0998 01       		.byte	0x1
 1495 0999 7F       		.byte	0x7f
 1496 099a AF090000 		.4byte	0x9af
 1497 099e 32       		.uleb128 0x32
 1498 099f AB070000 		.4byte	0x7ab
 1499 09a3 33       		.uleb128 0x33
 1500 09a4 38000000 		.4byte	.Ldebug_ranges0+0x38
 1501 09a8 2B       		.uleb128 0x2b
 1502 09a9 B7070000 		.4byte	0x7b7
 1503 09ad 00       		.byte	0
 1504 09ae 00       		.byte	0
 1505 09af 25       		.uleb128 0x25
 1506 09b0 48070000 		.4byte	0x748
 1507 09b4 1E000000 		.4byte	.LBB81
 1508 09b8 50000000 		.4byte	.Ldebug_ranges0+0x50
 1509 09bc 01       		.byte	0x1
 1510 09bd 81       		.byte	0x81
 1511 09be F9090000 		.4byte	0x9f9
 1512 09c2 33       		.uleb128 0x33
 1513 09c3 50000000 		.4byte	.Ldebug_ranges0+0x50
 1514 09c7 2B       		.uleb128 0x2b
 1515 09c8 55070000 		.4byte	0x755
 1516 09cc 26       		.uleb128 0x26
 1517 09cd 0B070000 		.4byte	0x70b
 1518 09d1 1E000000 		.4byte	.LBB83
 1519 09d5 50000000 		.4byte	.Ldebug_ranges0+0x50
 1520 09d9 0E       		.byte	0xe
 1521 09da 7301     		.2byte	0x173
 1522 09dc 26       		.uleb128 0x26
 1523 09dd E8060000 		.4byte	0x6e8
 1524 09e1 1E000000 		.4byte	.LBB84
 1525 09e5 50000000 		.4byte	.Ldebug_ranges0+0x50
 1526 09e9 0A       		.byte	0xa
 1527 09ea CD01     		.2byte	0x1cd
 1528 09ec 2D       		.uleb128 0x2d
 1529 09ed F5060000 		.4byte	0x6f5
 1530 09f1 AF000000 		.4byte	.LLST4
 1531 09f5 00       		.byte	0
 1532 09f6 00       		.byte	0
 1533 09f7 00       		.byte	0
 1534 09f8 00       		.byte	0
 1535 09f9 34       		.uleb128 0x34
 1536 09fa 2E000000 		.4byte	.LVL15
 1537 09fe 320B0000 		.4byte	0xb32
ARM GAS  /tmp/ccbcwbNH.s 			page 28


 1538 0a02 2F       		.uleb128 0x2f
 1539 0a03 01       		.uleb128 0x1
 1540 0a04 50       		.byte	0x50
 1541 0a05 01       		.uleb128 0x1
 1542 0a06 3E       		.byte	0x3e
 1543 0a07 00       		.byte	0
 1544 0a08 00       		.byte	0
 1545 0a09 35       		.uleb128 0x35
 1546 0a0a AD040000 		.4byte	.LASF123
 1547 0a0e 01       		.byte	0x1
 1548 0a0f 90       		.byte	0x90
 1549 0a10 00000000 		.4byte	.LFB231
 1550 0a14 14000000 		.4byte	.LFE231-.LFB231
 1551 0a18 01       		.uleb128 0x1
 1552 0a19 9C       		.byte	0x9c
 1553 0a1a 060B0000 		.4byte	0xb06
 1554 0a1e 22       		.uleb128 0x22
 1555 0a1f 747000   		.ascii	"tp\000"
 1556 0a22 01       		.byte	0x1
 1557 0a23 90       		.byte	0x90
 1558 0a24 35020000 		.4byte	0x235
 1559 0a28 C3000000 		.4byte	.LLST5
 1560 0a2c 22       		.uleb128 0x22
 1561 0a2d 6D736700 		.ascii	"msg\000"
 1562 0a31 01       		.byte	0x1
 1563 0a32 90       		.byte	0x90
 1564 0a33 06010000 		.4byte	0x106
 1565 0a37 E4000000 		.4byte	.LLST6
 1566 0a3b 24       		.uleb128 0x24
 1567 0a3c 89040000 		.4byte	.LASF112
 1568 0a40 160B0000 		.4byte	0xb16
 1569 0a44 29       		.uleb128 0x29
 1570 0a45 3F070000 		.4byte	0x73f
 1571 0a49 02000000 		.4byte	.LBB91
 1572 0a4d 06000000 		.4byte	.LBE91-.LBB91
 1573 0a51 01       		.byte	0x1
 1574 0a52 92       		.byte	0x92
 1575 0a53 800A0000 		.4byte	0xa80
 1576 0a57 2C       		.uleb128 0x2c
 1577 0a58 02070000 		.4byte	0x702
 1578 0a5c 02000000 		.4byte	.LBB92
 1579 0a60 06000000 		.4byte	.LBE92-.LBB92
 1580 0a64 0E       		.byte	0xe
 1581 0a65 5C01     		.2byte	0x15c
 1582 0a67 2C       		.uleb128 0x2c
 1583 0a68 E8060000 		.4byte	0x6e8
 1584 0a6c 02000000 		.4byte	.LBB93
 1585 0a70 06000000 		.4byte	.LBE93-.LBB93
 1586 0a74 0A       		.byte	0xa
 1587 0a75 BF01     		.2byte	0x1bf
 1588 0a77 27       		.uleb128 0x27
 1589 0a78 F5060000 		.4byte	0x6f5
 1590 0a7c 20       		.byte	0x20
 1591 0a7d 00       		.byte	0
 1592 0a7e 00       		.byte	0
 1593 0a7f 00       		.byte	0
 1594 0a80 29       		.uleb128 0x29
ARM GAS  /tmp/ccbcwbNH.s 			page 29


 1595 0a81 C3070000 		.4byte	0x7c3
 1596 0a85 08000000 		.4byte	.LBB95
 1597 0a89 04000000 		.4byte	.LBE95-.LBB95
 1598 0a8d 01       		.byte	0x1
 1599 0a8e 94       		.byte	0x94
 1600 0a8f BE0A0000 		.4byte	0xabe
 1601 0a93 2D       		.uleb128 0x2d
 1602 0a94 D9070000 		.4byte	0x7d9
 1603 0a98 05010000 		.4byte	.LLST7
 1604 0a9c 2D       		.uleb128 0x2d
 1605 0a9d CF070000 		.4byte	0x7cf
 1606 0aa1 26010000 		.4byte	.LLST8
 1607 0aa5 34       		.uleb128 0x34
 1608 0aa6 0C000000 		.4byte	.LVL18
 1609 0aaa 4A0B0000 		.4byte	0xb4a
 1610 0aae 2F       		.uleb128 0x2f
 1611 0aaf 01       		.uleb128 0x1
 1612 0ab0 50       		.byte	0x50
 1613 0ab1 03       		.uleb128 0x3
 1614 0ab2 F3       		.byte	0xf3
 1615 0ab3 01       		.uleb128 0x1
 1616 0ab4 50       		.byte	0x50
 1617 0ab5 2F       		.uleb128 0x2f
 1618 0ab6 01       		.uleb128 0x1
 1619 0ab7 51       		.byte	0x51
 1620 0ab8 03       		.uleb128 0x3
 1621 0ab9 F3       		.byte	0xf3
 1622 0aba 01       		.uleb128 0x1
 1623 0abb 51       		.byte	0x51
 1624 0abc 00       		.byte	0
 1625 0abd 00       		.byte	0
 1626 0abe 36       		.uleb128 0x36
 1627 0abf 48070000 		.4byte	0x748
 1628 0ac3 0C000000 		.4byte	.LBB97
 1629 0ac7 08000000 		.4byte	.LBE97-.LBB97
 1630 0acb 01       		.byte	0x1
 1631 0acc 95       		.byte	0x95
 1632 0acd 2A       		.uleb128 0x2a
 1633 0ace 0C000000 		.4byte	.LBB98
 1634 0ad2 08000000 		.4byte	.LBE98-.LBB98
 1635 0ad6 2B       		.uleb128 0x2b
 1636 0ad7 55070000 		.4byte	0x755
 1637 0adb 2C       		.uleb128 0x2c
 1638 0adc 0B070000 		.4byte	0x70b
 1639 0ae0 0C000000 		.4byte	.LBB99
 1640 0ae4 08000000 		.4byte	.LBE99-.LBB99
 1641 0ae8 0E       		.byte	0xe
 1642 0ae9 7301     		.2byte	0x173
 1643 0aeb 2C       		.uleb128 0x2c
 1644 0aec E8060000 		.4byte	0x6e8
 1645 0af0 0C000000 		.4byte	.LBB100
 1646 0af4 08000000 		.4byte	.LBE100-.LBB100
 1647 0af8 0A       		.byte	0xa
 1648 0af9 CD01     		.2byte	0x1cd
 1649 0afb 27       		.uleb128 0x27
 1650 0afc F5060000 		.4byte	0x6f5
 1651 0b00 00       		.byte	0
ARM GAS  /tmp/ccbcwbNH.s 			page 30


 1652 0b01 00       		.byte	0
 1653 0b02 00       		.byte	0
 1654 0b03 00       		.byte	0
 1655 0b04 00       		.byte	0
 1656 0b05 00       		.byte	0
 1657 0b06 15       		.uleb128 0x15
 1658 0b07 B0060000 		.4byte	0x6b0
 1659 0b0b 160B0000 		.4byte	0xb16
 1660 0b0f 16       		.uleb128 0x16
 1661 0b10 48040000 		.4byte	0x448
 1662 0b14 0C       		.byte	0xc
 1663 0b15 00       		.byte	0
 1664 0b16 14       		.uleb128 0x14
 1665 0b17 060B0000 		.4byte	0xb06
 1666 0b1b 37       		.uleb128 0x37
 1667 0b1c E2000000 		.4byte	.LASF116
 1668 0b20 0F       		.byte	0xf
 1669 0b21 A706     		.2byte	0x6a7
 1670 0b23 CA000000 		.4byte	0xca
 1671 0b27 38       		.uleb128 0x38
 1672 0b28 636800   		.ascii	"ch\000"
 1673 0b2b 03       		.byte	0x3
 1674 0b2c 0902     		.2byte	0x209
 1675 0b2e E1030000 		.4byte	0x3e1
 1676 0b32 39       		.uleb128 0x39
 1677 0b33 C7040000 		.4byte	.LASF117
 1678 0b37 C7040000 		.4byte	.LASF117
 1679 0b3b 03       		.byte	0x3
 1680 0b3c 1402     		.2byte	0x214
 1681 0b3e 39       		.uleb128 0x39
 1682 0b3f F8040000 		.4byte	.LASF118
 1683 0b43 F8040000 		.4byte	.LASF118
 1684 0b47 03       		.byte	0x3
 1685 0b48 1302     		.2byte	0x213
 1686 0b4a 39       		.uleb128 0x39
 1687 0b4b 19020000 		.4byte	.LASF119
 1688 0b4f 19020000 		.4byte	.LASF119
 1689 0b53 03       		.byte	0x3
 1690 0b54 1602     		.2byte	0x216
 1691 0b56 00       		.byte	0
 1692              		.section	.debug_abbrev,"",%progbits
 1693              	.Ldebug_abbrev0:
 1694 0000 01       		.uleb128 0x1
 1695 0001 11       		.uleb128 0x11
 1696 0002 01       		.byte	0x1
 1697 0003 25       		.uleb128 0x25
 1698 0004 0E       		.uleb128 0xe
 1699 0005 13       		.uleb128 0x13
 1700 0006 0B       		.uleb128 0xb
 1701 0007 03       		.uleb128 0x3
 1702 0008 0E       		.uleb128 0xe
 1703 0009 1B       		.uleb128 0x1b
 1704 000a 0E       		.uleb128 0xe
 1705 000b 55       		.uleb128 0x55
 1706 000c 17       		.uleb128 0x17
 1707 000d 11       		.uleb128 0x11
 1708 000e 01       		.uleb128 0x1
ARM GAS  /tmp/ccbcwbNH.s 			page 31


 1709 000f 10       		.uleb128 0x10
 1710 0010 17       		.uleb128 0x17
 1711 0011 00       		.byte	0
 1712 0012 00       		.byte	0
 1713 0013 02       		.uleb128 0x2
 1714 0014 24       		.uleb128 0x24
 1715 0015 00       		.byte	0
 1716 0016 0B       		.uleb128 0xb
 1717 0017 0B       		.uleb128 0xb
 1718 0018 3E       		.uleb128 0x3e
 1719 0019 0B       		.uleb128 0xb
 1720 001a 03       		.uleb128 0x3
 1721 001b 08       		.uleb128 0x8
 1722 001c 00       		.byte	0
 1723 001d 00       		.byte	0
 1724 001e 03       		.uleb128 0x3
 1725 001f 24       		.uleb128 0x24
 1726 0020 00       		.byte	0
 1727 0021 0B       		.uleb128 0xb
 1728 0022 0B       		.uleb128 0xb
 1729 0023 3E       		.uleb128 0x3e
 1730 0024 0B       		.uleb128 0xb
 1731 0025 03       		.uleb128 0x3
 1732 0026 0E       		.uleb128 0xe
 1733 0027 00       		.byte	0
 1734 0028 00       		.byte	0
 1735 0029 04       		.uleb128 0x4
 1736 002a 16       		.uleb128 0x16
 1737 002b 00       		.byte	0
 1738 002c 03       		.uleb128 0x3
 1739 002d 0E       		.uleb128 0xe
 1740 002e 3A       		.uleb128 0x3a
 1741 002f 0B       		.uleb128 0xb
 1742 0030 3B       		.uleb128 0x3b
 1743 0031 0B       		.uleb128 0xb
 1744 0032 49       		.uleb128 0x49
 1745 0033 13       		.uleb128 0x13
 1746 0034 00       		.byte	0
 1747 0035 00       		.byte	0
 1748 0036 05       		.uleb128 0x5
 1749 0037 35       		.uleb128 0x35
 1750 0038 00       		.byte	0
 1751 0039 49       		.uleb128 0x49
 1752 003a 13       		.uleb128 0x13
 1753 003b 00       		.byte	0
 1754 003c 00       		.byte	0
 1755 003d 06       		.uleb128 0x6
 1756 003e 13       		.uleb128 0x13
 1757 003f 01       		.byte	0x1
 1758 0040 03       		.uleb128 0x3
 1759 0041 0E       		.uleb128 0xe
 1760 0042 0B       		.uleb128 0xb
 1761 0043 0B       		.uleb128 0xb
 1762 0044 3A       		.uleb128 0x3a
 1763 0045 0B       		.uleb128 0xb
 1764 0046 3B       		.uleb128 0x3b
 1765 0047 0B       		.uleb128 0xb
ARM GAS  /tmp/ccbcwbNH.s 			page 32


 1766 0048 01       		.uleb128 0x1
 1767 0049 13       		.uleb128 0x13
 1768 004a 00       		.byte	0
 1769 004b 00       		.byte	0
 1770 004c 07       		.uleb128 0x7
 1771 004d 0D       		.uleb128 0xd
 1772 004e 00       		.byte	0
 1773 004f 03       		.uleb128 0x3
 1774 0050 0E       		.uleb128 0xe
 1775 0051 3A       		.uleb128 0x3a
 1776 0052 0B       		.uleb128 0xb
 1777 0053 3B       		.uleb128 0x3b
 1778 0054 0B       		.uleb128 0xb
 1779 0055 49       		.uleb128 0x49
 1780 0056 13       		.uleb128 0x13
 1781 0057 38       		.uleb128 0x38
 1782 0058 0B       		.uleb128 0xb
 1783 0059 00       		.byte	0
 1784 005a 00       		.byte	0
 1785 005b 08       		.uleb128 0x8
 1786 005c 0D       		.uleb128 0xd
 1787 005d 00       		.byte	0
 1788 005e 03       		.uleb128 0x3
 1789 005f 08       		.uleb128 0x8
 1790 0060 3A       		.uleb128 0x3a
 1791 0061 0B       		.uleb128 0xb
 1792 0062 3B       		.uleb128 0x3b
 1793 0063 05       		.uleb128 0x5
 1794 0064 49       		.uleb128 0x49
 1795 0065 13       		.uleb128 0x13
 1796 0066 38       		.uleb128 0x38
 1797 0067 0B       		.uleb128 0xb
 1798 0068 00       		.byte	0
 1799 0069 00       		.byte	0
 1800 006a 09       		.uleb128 0x9
 1801 006b 0D       		.uleb128 0xd
 1802 006c 00       		.byte	0
 1803 006d 03       		.uleb128 0x3
 1804 006e 0E       		.uleb128 0xe
 1805 006f 3A       		.uleb128 0x3a
 1806 0070 0B       		.uleb128 0xb
 1807 0071 3B       		.uleb128 0x3b
 1808 0072 05       		.uleb128 0x5
 1809 0073 49       		.uleb128 0x49
 1810 0074 13       		.uleb128 0x13
 1811 0075 38       		.uleb128 0x38
 1812 0076 0B       		.uleb128 0xb
 1813 0077 00       		.byte	0
 1814 0078 00       		.byte	0
 1815 0079 0A       		.uleb128 0xa
 1816 007a 0F       		.uleb128 0xf
 1817 007b 00       		.byte	0
 1818 007c 0B       		.uleb128 0xb
 1819 007d 0B       		.uleb128 0xb
 1820 007e 49       		.uleb128 0x49
 1821 007f 13       		.uleb128 0x13
 1822 0080 00       		.byte	0
ARM GAS  /tmp/ccbcwbNH.s 			page 33


 1823 0081 00       		.byte	0
 1824 0082 0B       		.uleb128 0xb
 1825 0083 13       		.uleb128 0x13
 1826 0084 01       		.byte	0x1
 1827 0085 03       		.uleb128 0x3
 1828 0086 0E       		.uleb128 0xe
 1829 0087 0B       		.uleb128 0xb
 1830 0088 0B       		.uleb128 0xb
 1831 0089 3A       		.uleb128 0x3a
 1832 008a 0B       		.uleb128 0xb
 1833 008b 3B       		.uleb128 0x3b
 1834 008c 05       		.uleb128 0x5
 1835 008d 01       		.uleb128 0x1
 1836 008e 13       		.uleb128 0x13
 1837 008f 00       		.byte	0
 1838 0090 00       		.byte	0
 1839 0091 0C       		.uleb128 0xc
 1840 0092 15       		.uleb128 0x15
 1841 0093 01       		.byte	0x1
 1842 0094 27       		.uleb128 0x27
 1843 0095 19       		.uleb128 0x19
 1844 0096 01       		.uleb128 0x1
 1845 0097 13       		.uleb128 0x13
 1846 0098 00       		.byte	0
 1847 0099 00       		.byte	0
 1848 009a 0D       		.uleb128 0xd
 1849 009b 05       		.uleb128 0x5
 1850 009c 00       		.byte	0
 1851 009d 49       		.uleb128 0x49
 1852 009e 13       		.uleb128 0x13
 1853 009f 00       		.byte	0
 1854 00a0 00       		.byte	0
 1855 00a1 0E       		.uleb128 0xe
 1856 00a2 0F       		.uleb128 0xf
 1857 00a3 00       		.byte	0
 1858 00a4 0B       		.uleb128 0xb
 1859 00a5 0B       		.uleb128 0xb
 1860 00a6 00       		.byte	0
 1861 00a7 00       		.byte	0
 1862 00a8 0F       		.uleb128 0xf
 1863 00a9 13       		.uleb128 0x13
 1864 00aa 01       		.byte	0x1
 1865 00ab 03       		.uleb128 0x3
 1866 00ac 0E       		.uleb128 0xe
 1867 00ad 0B       		.uleb128 0xb
 1868 00ae 05       		.uleb128 0x5
 1869 00af 3A       		.uleb128 0x3a
 1870 00b0 0B       		.uleb128 0xb
 1871 00b1 3B       		.uleb128 0x3b
 1872 00b2 05       		.uleb128 0x5
 1873 00b3 01       		.uleb128 0x1
 1874 00b4 13       		.uleb128 0x13
 1875 00b5 00       		.byte	0
 1876 00b6 00       		.byte	0
 1877 00b7 10       		.uleb128 0x10
 1878 00b8 0D       		.uleb128 0xd
 1879 00b9 00       		.byte	0
ARM GAS  /tmp/ccbcwbNH.s 			page 34


 1880 00ba 03       		.uleb128 0x3
 1881 00bb 08       		.uleb128 0x8
 1882 00bc 3A       		.uleb128 0x3a
 1883 00bd 0B       		.uleb128 0xb
 1884 00be 3B       		.uleb128 0x3b
 1885 00bf 0B       		.uleb128 0xb
 1886 00c0 49       		.uleb128 0x49
 1887 00c1 13       		.uleb128 0x13
 1888 00c2 38       		.uleb128 0x38
 1889 00c3 0B       		.uleb128 0xb
 1890 00c4 00       		.byte	0
 1891 00c5 00       		.byte	0
 1892 00c6 11       		.uleb128 0x11
 1893 00c7 13       		.uleb128 0x13
 1894 00c8 01       		.byte	0x1
 1895 00c9 0B       		.uleb128 0xb
 1896 00ca 0B       		.uleb128 0xb
 1897 00cb 3A       		.uleb128 0x3a
 1898 00cc 0B       		.uleb128 0xb
 1899 00cd 3B       		.uleb128 0x3b
 1900 00ce 0B       		.uleb128 0xb
 1901 00cf 01       		.uleb128 0x1
 1902 00d0 13       		.uleb128 0x13
 1903 00d1 00       		.byte	0
 1904 00d2 00       		.byte	0
 1905 00d3 12       		.uleb128 0x12
 1906 00d4 17       		.uleb128 0x17
 1907 00d5 01       		.byte	0x1
 1908 00d6 0B       		.uleb128 0xb
 1909 00d7 0B       		.uleb128 0xb
 1910 00d8 3A       		.uleb128 0x3a
 1911 00d9 0B       		.uleb128 0xb
 1912 00da 3B       		.uleb128 0x3b
 1913 00db 0B       		.uleb128 0xb
 1914 00dc 01       		.uleb128 0x1
 1915 00dd 13       		.uleb128 0x13
 1916 00de 00       		.byte	0
 1917 00df 00       		.byte	0
 1918 00e0 13       		.uleb128 0x13
 1919 00e1 0D       		.uleb128 0xd
 1920 00e2 00       		.byte	0
 1921 00e3 03       		.uleb128 0x3
 1922 00e4 0E       		.uleb128 0xe
 1923 00e5 3A       		.uleb128 0x3a
 1924 00e6 0B       		.uleb128 0xb
 1925 00e7 3B       		.uleb128 0x3b
 1926 00e8 05       		.uleb128 0x5
 1927 00e9 49       		.uleb128 0x49
 1928 00ea 13       		.uleb128 0x13
 1929 00eb 00       		.byte	0
 1930 00ec 00       		.byte	0
 1931 00ed 14       		.uleb128 0x14
 1932 00ee 26       		.uleb128 0x26
 1933 00ef 00       		.byte	0
 1934 00f0 49       		.uleb128 0x49
 1935 00f1 13       		.uleb128 0x13
 1936 00f2 00       		.byte	0
ARM GAS  /tmp/ccbcwbNH.s 			page 35


 1937 00f3 00       		.byte	0
 1938 00f4 15       		.uleb128 0x15
 1939 00f5 01       		.uleb128 0x1
 1940 00f6 01       		.byte	0x1
 1941 00f7 49       		.uleb128 0x49
 1942 00f8 13       		.uleb128 0x13
 1943 00f9 01       		.uleb128 0x1
 1944 00fa 13       		.uleb128 0x13
 1945 00fb 00       		.byte	0
 1946 00fc 00       		.byte	0
 1947 00fd 16       		.uleb128 0x16
 1948 00fe 21       		.uleb128 0x21
 1949 00ff 00       		.byte	0
 1950 0100 49       		.uleb128 0x49
 1951 0101 13       		.uleb128 0x13
 1952 0102 2F       		.uleb128 0x2f
 1953 0103 0B       		.uleb128 0xb
 1954 0104 00       		.byte	0
 1955 0105 00       		.byte	0
 1956 0106 17       		.uleb128 0x17
 1957 0107 2E       		.uleb128 0x2e
 1958 0108 01       		.byte	0x1
 1959 0109 03       		.uleb128 0x3
 1960 010a 0E       		.uleb128 0xe
 1961 010b 3A       		.uleb128 0x3a
 1962 010c 0B       		.uleb128 0xb
 1963 010d 3B       		.uleb128 0x3b
 1964 010e 05       		.uleb128 0x5
 1965 010f 27       		.uleb128 0x27
 1966 0110 19       		.uleb128 0x19
 1967 0111 20       		.uleb128 0x20
 1968 0112 0B       		.uleb128 0xb
 1969 0113 01       		.uleb128 0x1
 1970 0114 13       		.uleb128 0x13
 1971 0115 00       		.byte	0
 1972 0116 00       		.byte	0
 1973 0117 18       		.uleb128 0x18
 1974 0118 05       		.uleb128 0x5
 1975 0119 00       		.byte	0
 1976 011a 03       		.uleb128 0x3
 1977 011b 0E       		.uleb128 0xe
 1978 011c 3A       		.uleb128 0x3a
 1979 011d 0B       		.uleb128 0xb
 1980 011e 3B       		.uleb128 0x3b
 1981 011f 05       		.uleb128 0x5
 1982 0120 49       		.uleb128 0x49
 1983 0121 13       		.uleb128 0x13
 1984 0122 00       		.byte	0
 1985 0123 00       		.byte	0
 1986 0124 19       		.uleb128 0x19
 1987 0125 2E       		.uleb128 0x2e
 1988 0126 00       		.byte	0
 1989 0127 03       		.uleb128 0x3
 1990 0128 0E       		.uleb128 0xe
 1991 0129 3A       		.uleb128 0x3a
 1992 012a 0B       		.uleb128 0xb
 1993 012b 3B       		.uleb128 0x3b
ARM GAS  /tmp/ccbcwbNH.s 			page 36


 1994 012c 05       		.uleb128 0x5
 1995 012d 27       		.uleb128 0x27
 1996 012e 19       		.uleb128 0x19
 1997 012f 20       		.uleb128 0x20
 1998 0130 0B       		.uleb128 0xb
 1999 0131 00       		.byte	0
 2000 0132 00       		.byte	0
 2001 0133 1A       		.uleb128 0x1a
 2002 0134 05       		.uleb128 0x5
 2003 0135 00       		.byte	0
 2004 0136 03       		.uleb128 0x3
 2005 0137 08       		.uleb128 0x8
 2006 0138 3A       		.uleb128 0x3a
 2007 0139 0B       		.uleb128 0xb
 2008 013a 3B       		.uleb128 0x3b
 2009 013b 05       		.uleb128 0x5
 2010 013c 49       		.uleb128 0x49
 2011 013d 13       		.uleb128 0x13
 2012 013e 00       		.byte	0
 2013 013f 00       		.byte	0
 2014 0140 1B       		.uleb128 0x1b
 2015 0141 34       		.uleb128 0x34
 2016 0142 00       		.byte	0
 2017 0143 03       		.uleb128 0x3
 2018 0144 0E       		.uleb128 0xe
 2019 0145 49       		.uleb128 0x49
 2020 0146 13       		.uleb128 0x13
 2021 0147 34       		.uleb128 0x34
 2022 0148 19       		.uleb128 0x19
 2023 0149 1C       		.uleb128 0x1c
 2024 014a 0E       		.uleb128 0xe
 2025 014b 00       		.byte	0
 2026 014c 00       		.byte	0
 2027 014d 1C       		.uleb128 0x1c
 2028 014e 2E       		.uleb128 0x2e
 2029 014f 01       		.byte	0x1
 2030 0150 03       		.uleb128 0x3
 2031 0151 0E       		.uleb128 0xe
 2032 0152 3A       		.uleb128 0x3a
 2033 0153 0B       		.uleb128 0xb
 2034 0154 3B       		.uleb128 0x3b
 2035 0155 0B       		.uleb128 0xb
 2036 0156 27       		.uleb128 0x27
 2037 0157 19       		.uleb128 0x19
 2038 0158 49       		.uleb128 0x49
 2039 0159 13       		.uleb128 0x13
 2040 015a 20       		.uleb128 0x20
 2041 015b 0B       		.uleb128 0xb
 2042 015c 01       		.uleb128 0x1
 2043 015d 13       		.uleb128 0x13
 2044 015e 00       		.byte	0
 2045 015f 00       		.byte	0
 2046 0160 1D       		.uleb128 0x1d
 2047 0161 05       		.uleb128 0x5
 2048 0162 00       		.byte	0
 2049 0163 03       		.uleb128 0x3
 2050 0164 08       		.uleb128 0x8
ARM GAS  /tmp/ccbcwbNH.s 			page 37


 2051 0165 3A       		.uleb128 0x3a
 2052 0166 0B       		.uleb128 0xb
 2053 0167 3B       		.uleb128 0x3b
 2054 0168 0B       		.uleb128 0xb
 2055 0169 49       		.uleb128 0x49
 2056 016a 13       		.uleb128 0x13
 2057 016b 00       		.byte	0
 2058 016c 00       		.byte	0
 2059 016d 1E       		.uleb128 0x1e
 2060 016e 2E       		.uleb128 0x2e
 2061 016f 01       		.byte	0x1
 2062 0170 03       		.uleb128 0x3
 2063 0171 0E       		.uleb128 0xe
 2064 0172 3A       		.uleb128 0x3a
 2065 0173 0B       		.uleb128 0xb
 2066 0174 3B       		.uleb128 0x3b
 2067 0175 05       		.uleb128 0x5
 2068 0176 27       		.uleb128 0x27
 2069 0177 19       		.uleb128 0x19
 2070 0178 49       		.uleb128 0x49
 2071 0179 13       		.uleb128 0x13
 2072 017a 20       		.uleb128 0x20
 2073 017b 0B       		.uleb128 0xb
 2074 017c 01       		.uleb128 0x1
 2075 017d 13       		.uleb128 0x13
 2076 017e 00       		.byte	0
 2077 017f 00       		.byte	0
 2078 0180 1F       		.uleb128 0x1f
 2079 0181 34       		.uleb128 0x34
 2080 0182 00       		.byte	0
 2081 0183 03       		.uleb128 0x3
 2082 0184 08       		.uleb128 0x8
 2083 0185 3A       		.uleb128 0x3a
 2084 0186 0B       		.uleb128 0xb
 2085 0187 3B       		.uleb128 0x3b
 2086 0188 05       		.uleb128 0x5
 2087 0189 49       		.uleb128 0x49
 2088 018a 13       		.uleb128 0x13
 2089 018b 00       		.byte	0
 2090 018c 00       		.byte	0
 2091 018d 20       		.uleb128 0x20
 2092 018e 2E       		.uleb128 0x2e
 2093 018f 01       		.byte	0x1
 2094 0190 03       		.uleb128 0x3
 2095 0191 0E       		.uleb128 0xe
 2096 0192 3A       		.uleb128 0x3a
 2097 0193 0B       		.uleb128 0xb
 2098 0194 3B       		.uleb128 0x3b
 2099 0195 0B       		.uleb128 0xb
 2100 0196 27       		.uleb128 0x27
 2101 0197 19       		.uleb128 0x19
 2102 0198 20       		.uleb128 0x20
 2103 0199 0B       		.uleb128 0xb
 2104 019a 01       		.uleb128 0x1
 2105 019b 13       		.uleb128 0x13
 2106 019c 00       		.byte	0
 2107 019d 00       		.byte	0
ARM GAS  /tmp/ccbcwbNH.s 			page 38


 2108 019e 21       		.uleb128 0x21
 2109 019f 2E       		.uleb128 0x2e
 2110 01a0 01       		.byte	0x1
 2111 01a1 3F       		.uleb128 0x3f
 2112 01a2 19       		.uleb128 0x19
 2113 01a3 03       		.uleb128 0x3
 2114 01a4 0E       		.uleb128 0xe
 2115 01a5 3A       		.uleb128 0x3a
 2116 01a6 0B       		.uleb128 0xb
 2117 01a7 3B       		.uleb128 0x3b
 2118 01a8 0B       		.uleb128 0xb
 2119 01a9 27       		.uleb128 0x27
 2120 01aa 19       		.uleb128 0x19
 2121 01ab 49       		.uleb128 0x49
 2122 01ac 13       		.uleb128 0x13
 2123 01ad 11       		.uleb128 0x11
 2124 01ae 01       		.uleb128 0x1
 2125 01af 12       		.uleb128 0x12
 2126 01b0 06       		.uleb128 0x6
 2127 01b1 40       		.uleb128 0x40
 2128 01b2 18       		.uleb128 0x18
 2129 01b3 9742     		.uleb128 0x2117
 2130 01b5 19       		.uleb128 0x19
 2131 01b6 01       		.uleb128 0x1
 2132 01b7 13       		.uleb128 0x13
 2133 01b8 00       		.byte	0
 2134 01b9 00       		.byte	0
 2135 01ba 22       		.uleb128 0x22
 2136 01bb 05       		.uleb128 0x5
 2137 01bc 00       		.byte	0
 2138 01bd 03       		.uleb128 0x3
 2139 01be 08       		.uleb128 0x8
 2140 01bf 3A       		.uleb128 0x3a
 2141 01c0 0B       		.uleb128 0xb
 2142 01c1 3B       		.uleb128 0x3b
 2143 01c2 0B       		.uleb128 0xb
 2144 01c3 49       		.uleb128 0x49
 2145 01c4 13       		.uleb128 0x13
 2146 01c5 02       		.uleb128 0x2
 2147 01c6 17       		.uleb128 0x17
 2148 01c7 00       		.byte	0
 2149 01c8 00       		.byte	0
 2150 01c9 23       		.uleb128 0x23
 2151 01ca 34       		.uleb128 0x34
 2152 01cb 00       		.byte	0
 2153 01cc 03       		.uleb128 0x3
 2154 01cd 08       		.uleb128 0x8
 2155 01ce 3A       		.uleb128 0x3a
 2156 01cf 0B       		.uleb128 0xb
 2157 01d0 3B       		.uleb128 0x3b
 2158 01d1 0B       		.uleb128 0xb
 2159 01d2 49       		.uleb128 0x49
 2160 01d3 13       		.uleb128 0x13
 2161 01d4 02       		.uleb128 0x2
 2162 01d5 18       		.uleb128 0x18
 2163 01d6 00       		.byte	0
 2164 01d7 00       		.byte	0
ARM GAS  /tmp/ccbcwbNH.s 			page 39


 2165 01d8 24       		.uleb128 0x24
 2166 01d9 34       		.uleb128 0x34
 2167 01da 00       		.byte	0
 2168 01db 03       		.uleb128 0x3
 2169 01dc 0E       		.uleb128 0xe
 2170 01dd 49       		.uleb128 0x49
 2171 01de 13       		.uleb128 0x13
 2172 01df 34       		.uleb128 0x34
 2173 01e0 19       		.uleb128 0x19
 2174 01e1 00       		.byte	0
 2175 01e2 00       		.byte	0
 2176 01e3 25       		.uleb128 0x25
 2177 01e4 1D       		.uleb128 0x1d
 2178 01e5 01       		.byte	0x1
 2179 01e6 31       		.uleb128 0x31
 2180 01e7 13       		.uleb128 0x13
 2181 01e8 52       		.uleb128 0x52
 2182 01e9 01       		.uleb128 0x1
 2183 01ea 55       		.uleb128 0x55
 2184 01eb 17       		.uleb128 0x17
 2185 01ec 58       		.uleb128 0x58
 2186 01ed 0B       		.uleb128 0xb
 2187 01ee 59       		.uleb128 0x59
 2188 01ef 0B       		.uleb128 0xb
 2189 01f0 01       		.uleb128 0x1
 2190 01f1 13       		.uleb128 0x13
 2191 01f2 00       		.byte	0
 2192 01f3 00       		.byte	0
 2193 01f4 26       		.uleb128 0x26
 2194 01f5 1D       		.uleb128 0x1d
 2195 01f6 01       		.byte	0x1
 2196 01f7 31       		.uleb128 0x31
 2197 01f8 13       		.uleb128 0x13
 2198 01f9 52       		.uleb128 0x52
 2199 01fa 01       		.uleb128 0x1
 2200 01fb 55       		.uleb128 0x55
 2201 01fc 17       		.uleb128 0x17
 2202 01fd 58       		.uleb128 0x58
 2203 01fe 0B       		.uleb128 0xb
 2204 01ff 59       		.uleb128 0x59
 2205 0200 05       		.uleb128 0x5
 2206 0201 00       		.byte	0
 2207 0202 00       		.byte	0
 2208 0203 27       		.uleb128 0x27
 2209 0204 05       		.uleb128 0x5
 2210 0205 00       		.byte	0
 2211 0206 31       		.uleb128 0x31
 2212 0207 13       		.uleb128 0x13
 2213 0208 1C       		.uleb128 0x1c
 2214 0209 0B       		.uleb128 0xb
 2215 020a 00       		.byte	0
 2216 020b 00       		.byte	0
 2217 020c 28       		.uleb128 0x28
 2218 020d 05       		.uleb128 0x5
 2219 020e 00       		.byte	0
 2220 020f 31       		.uleb128 0x31
 2221 0210 13       		.uleb128 0x13
ARM GAS  /tmp/ccbcwbNH.s 			page 40


 2222 0211 02       		.uleb128 0x2
 2223 0212 18       		.uleb128 0x18
 2224 0213 00       		.byte	0
 2225 0214 00       		.byte	0
 2226 0215 29       		.uleb128 0x29
 2227 0216 1D       		.uleb128 0x1d
 2228 0217 01       		.byte	0x1
 2229 0218 31       		.uleb128 0x31
 2230 0219 13       		.uleb128 0x13
 2231 021a 11       		.uleb128 0x11
 2232 021b 01       		.uleb128 0x1
 2233 021c 12       		.uleb128 0x12
 2234 021d 06       		.uleb128 0x6
 2235 021e 58       		.uleb128 0x58
 2236 021f 0B       		.uleb128 0xb
 2237 0220 59       		.uleb128 0x59
 2238 0221 0B       		.uleb128 0xb
 2239 0222 01       		.uleb128 0x1
 2240 0223 13       		.uleb128 0x13
 2241 0224 00       		.byte	0
 2242 0225 00       		.byte	0
 2243 0226 2A       		.uleb128 0x2a
 2244 0227 0B       		.uleb128 0xb
 2245 0228 01       		.byte	0x1
 2246 0229 11       		.uleb128 0x11
 2247 022a 01       		.uleb128 0x1
 2248 022b 12       		.uleb128 0x12
 2249 022c 06       		.uleb128 0x6
 2250 022d 00       		.byte	0
 2251 022e 00       		.byte	0
 2252 022f 2B       		.uleb128 0x2b
 2253 0230 34       		.uleb128 0x34
 2254 0231 00       		.byte	0
 2255 0232 31       		.uleb128 0x31
 2256 0233 13       		.uleb128 0x13
 2257 0234 00       		.byte	0
 2258 0235 00       		.byte	0
 2259 0236 2C       		.uleb128 0x2c
 2260 0237 1D       		.uleb128 0x1d
 2261 0238 01       		.byte	0x1
 2262 0239 31       		.uleb128 0x31
 2263 023a 13       		.uleb128 0x13
 2264 023b 11       		.uleb128 0x11
 2265 023c 01       		.uleb128 0x1
 2266 023d 12       		.uleb128 0x12
 2267 023e 06       		.uleb128 0x6
 2268 023f 58       		.uleb128 0x58
 2269 0240 0B       		.uleb128 0xb
 2270 0241 59       		.uleb128 0x59
 2271 0242 05       		.uleb128 0x5
 2272 0243 00       		.byte	0
 2273 0244 00       		.byte	0
 2274 0245 2D       		.uleb128 0x2d
 2275 0246 05       		.uleb128 0x5
 2276 0247 00       		.byte	0
 2277 0248 31       		.uleb128 0x31
 2278 0249 13       		.uleb128 0x13
ARM GAS  /tmp/ccbcwbNH.s 			page 41


 2279 024a 02       		.uleb128 0x2
 2280 024b 17       		.uleb128 0x17
 2281 024c 00       		.byte	0
 2282 024d 00       		.byte	0
 2283 024e 2E       		.uleb128 0x2e
 2284 024f 898201   		.uleb128 0x4109
 2285 0252 01       		.byte	0x1
 2286 0253 11       		.uleb128 0x11
 2287 0254 01       		.uleb128 0x1
 2288 0255 31       		.uleb128 0x31
 2289 0256 13       		.uleb128 0x13
 2290 0257 01       		.uleb128 0x1
 2291 0258 13       		.uleb128 0x13
 2292 0259 00       		.byte	0
 2293 025a 00       		.byte	0
 2294 025b 2F       		.uleb128 0x2f
 2295 025c 8A8201   		.uleb128 0x410a
 2296 025f 00       		.byte	0
 2297 0260 02       		.uleb128 0x2
 2298 0261 18       		.uleb128 0x18
 2299 0262 9142     		.uleb128 0x2111
 2300 0264 18       		.uleb128 0x18
 2301 0265 00       		.byte	0
 2302 0266 00       		.byte	0
 2303 0267 30       		.uleb128 0x30
 2304 0268 898201   		.uleb128 0x4109
 2305 026b 00       		.byte	0
 2306 026c 11       		.uleb128 0x11
 2307 026d 01       		.uleb128 0x1
 2308 026e 31       		.uleb128 0x31
 2309 026f 13       		.uleb128 0x13
 2310 0270 00       		.byte	0
 2311 0271 00       		.byte	0
 2312 0272 31       		.uleb128 0x31
 2313 0273 34       		.uleb128 0x34
 2314 0274 00       		.byte	0
 2315 0275 03       		.uleb128 0x3
 2316 0276 08       		.uleb128 0x8
 2317 0277 3A       		.uleb128 0x3a
 2318 0278 0B       		.uleb128 0xb
 2319 0279 3B       		.uleb128 0x3b
 2320 027a 0B       		.uleb128 0xb
 2321 027b 49       		.uleb128 0x49
 2322 027c 13       		.uleb128 0x13
 2323 027d 00       		.byte	0
 2324 027e 00       		.byte	0
 2325 027f 32       		.uleb128 0x32
 2326 0280 05       		.uleb128 0x5
 2327 0281 00       		.byte	0
 2328 0282 31       		.uleb128 0x31
 2329 0283 13       		.uleb128 0x13
 2330 0284 00       		.byte	0
 2331 0285 00       		.byte	0
 2332 0286 33       		.uleb128 0x33
 2333 0287 0B       		.uleb128 0xb
 2334 0288 01       		.byte	0x1
 2335 0289 55       		.uleb128 0x55
ARM GAS  /tmp/ccbcwbNH.s 			page 42


 2336 028a 17       		.uleb128 0x17
 2337 028b 00       		.byte	0
 2338 028c 00       		.byte	0
 2339 028d 34       		.uleb128 0x34
 2340 028e 898201   		.uleb128 0x4109
 2341 0291 01       		.byte	0x1
 2342 0292 11       		.uleb128 0x11
 2343 0293 01       		.uleb128 0x1
 2344 0294 31       		.uleb128 0x31
 2345 0295 13       		.uleb128 0x13
 2346 0296 00       		.byte	0
 2347 0297 00       		.byte	0
 2348 0298 35       		.uleb128 0x35
 2349 0299 2E       		.uleb128 0x2e
 2350 029a 01       		.byte	0x1
 2351 029b 3F       		.uleb128 0x3f
 2352 029c 19       		.uleb128 0x19
 2353 029d 03       		.uleb128 0x3
 2354 029e 0E       		.uleb128 0xe
 2355 029f 3A       		.uleb128 0x3a
 2356 02a0 0B       		.uleb128 0xb
 2357 02a1 3B       		.uleb128 0x3b
 2358 02a2 0B       		.uleb128 0xb
 2359 02a3 27       		.uleb128 0x27
 2360 02a4 19       		.uleb128 0x19
 2361 02a5 11       		.uleb128 0x11
 2362 02a6 01       		.uleb128 0x1
 2363 02a7 12       		.uleb128 0x12
 2364 02a8 06       		.uleb128 0x6
 2365 02a9 40       		.uleb128 0x40
 2366 02aa 18       		.uleb128 0x18
 2367 02ab 9742     		.uleb128 0x2117
 2368 02ad 19       		.uleb128 0x19
 2369 02ae 01       		.uleb128 0x1
 2370 02af 13       		.uleb128 0x13
 2371 02b0 00       		.byte	0
 2372 02b1 00       		.byte	0
 2373 02b2 36       		.uleb128 0x36
 2374 02b3 1D       		.uleb128 0x1d
 2375 02b4 01       		.byte	0x1
 2376 02b5 31       		.uleb128 0x31
 2377 02b6 13       		.uleb128 0x13
 2378 02b7 11       		.uleb128 0x11
 2379 02b8 01       		.uleb128 0x1
 2380 02b9 12       		.uleb128 0x12
 2381 02ba 06       		.uleb128 0x6
 2382 02bb 58       		.uleb128 0x58
 2383 02bc 0B       		.uleb128 0xb
 2384 02bd 59       		.uleb128 0x59
 2385 02be 0B       		.uleb128 0xb
 2386 02bf 00       		.byte	0
 2387 02c0 00       		.byte	0
 2388 02c1 37       		.uleb128 0x37
 2389 02c2 34       		.uleb128 0x34
 2390 02c3 00       		.byte	0
 2391 02c4 03       		.uleb128 0x3
 2392 02c5 0E       		.uleb128 0xe
ARM GAS  /tmp/ccbcwbNH.s 			page 43


 2393 02c6 3A       		.uleb128 0x3a
 2394 02c7 0B       		.uleb128 0xb
 2395 02c8 3B       		.uleb128 0x3b
 2396 02c9 05       		.uleb128 0x5
 2397 02ca 49       		.uleb128 0x49
 2398 02cb 13       		.uleb128 0x13
 2399 02cc 3F       		.uleb128 0x3f
 2400 02cd 19       		.uleb128 0x19
 2401 02ce 3C       		.uleb128 0x3c
 2402 02cf 19       		.uleb128 0x19
 2403 02d0 00       		.byte	0
 2404 02d1 00       		.byte	0
 2405 02d2 38       		.uleb128 0x38
 2406 02d3 34       		.uleb128 0x34
 2407 02d4 00       		.byte	0
 2408 02d5 03       		.uleb128 0x3
 2409 02d6 08       		.uleb128 0x8
 2410 02d7 3A       		.uleb128 0x3a
 2411 02d8 0B       		.uleb128 0xb
 2412 02d9 3B       		.uleb128 0x3b
 2413 02da 05       		.uleb128 0x5
 2414 02db 49       		.uleb128 0x49
 2415 02dc 13       		.uleb128 0x13
 2416 02dd 3F       		.uleb128 0x3f
 2417 02de 19       		.uleb128 0x19
 2418 02df 3C       		.uleb128 0x3c
 2419 02e0 19       		.uleb128 0x19
 2420 02e1 00       		.byte	0
 2421 02e2 00       		.byte	0
 2422 02e3 39       		.uleb128 0x39
 2423 02e4 2E       		.uleb128 0x2e
 2424 02e5 00       		.byte	0
 2425 02e6 3F       		.uleb128 0x3f
 2426 02e7 19       		.uleb128 0x19
 2427 02e8 3C       		.uleb128 0x3c
 2428 02e9 19       		.uleb128 0x19
 2429 02ea 6E       		.uleb128 0x6e
 2430 02eb 0E       		.uleb128 0xe
 2431 02ec 03       		.uleb128 0x3
 2432 02ed 0E       		.uleb128 0xe
 2433 02ee 3A       		.uleb128 0x3a
 2434 02ef 0B       		.uleb128 0xb
 2435 02f0 3B       		.uleb128 0x3b
 2436 02f1 05       		.uleb128 0x5
 2437 02f2 00       		.byte	0
 2438 02f3 00       		.byte	0
 2439 02f4 00       		.byte	0
 2440              		.section	.debug_loc,"",%progbits
 2441              	.Ldebug_loc0:
 2442              	.LLST0:
 2443 0000 00000000 		.4byte	.LVL0
 2444 0004 24000000 		.4byte	.LVL3
 2445 0008 0100     		.2byte	0x1
 2446 000a 50       		.byte	0x50
 2447 000b 24000000 		.4byte	.LVL3
 2448 000f 34000000 		.4byte	.LVL6
 2449 0013 0300     		.2byte	0x3
ARM GAS  /tmp/ccbcwbNH.s 			page 44


 2450 0015 75       		.byte	0x75
 2451 0016 58       		.sleb128 -40
 2452 0017 9F       		.byte	0x9f
 2453 0018 34000000 		.4byte	.LVL6
 2454 001c 37000000 		.4byte	.LVL7-1
 2455 0020 0100     		.2byte	0x1
 2456 0022 50       		.byte	0x50
 2457 0023 37000000 		.4byte	.LVL7-1
 2458 0027 40000000 		.4byte	.LFE229
 2459 002b 0300     		.2byte	0x3
 2460 002d 75       		.byte	0x75
 2461 002e 58       		.sleb128 -40
 2462 002f 9F       		.byte	0x9f
 2463 0030 00000000 		.4byte	0
 2464 0034 00000000 		.4byte	0
 2465              	.LLST1:
 2466 0038 00000000 		.4byte	.LVL0
 2467 003c 24000000 		.4byte	.LVL3
 2468 0040 0100     		.2byte	0x1
 2469 0042 51       		.byte	0x51
 2470 0043 24000000 		.4byte	.LVL3
 2471 0047 2C000000 		.4byte	.LVL5
 2472 004b 0400     		.2byte	0x4
 2473 004d F3       		.byte	0xf3
 2474 004e 01       		.uleb128 0x1
 2475 004f 51       		.byte	0x51
 2476 0050 9F       		.byte	0x9f
 2477 0051 2C000000 		.4byte	.LVL5
 2478 0055 34000000 		.4byte	.LVL6
 2479 0059 0100     		.2byte	0x1
 2480 005b 50       		.byte	0x50
 2481 005c 34000000 		.4byte	.LVL6
 2482 0060 37000000 		.4byte	.LVL7-1
 2483 0064 0100     		.2byte	0x1
 2484 0066 51       		.byte	0x51
 2485 0067 37000000 		.4byte	.LVL7-1
 2486 006b 40000000 		.4byte	.LFE229
 2487 006f 0400     		.2byte	0x4
 2488 0071 F3       		.byte	0xf3
 2489 0072 01       		.uleb128 0x1
 2490 0073 51       		.byte	0x51
 2491 0074 9F       		.byte	0x9f
 2492 0075 00000000 		.4byte	0
 2493 0079 00000000 		.4byte	0
 2494              	.LLST2:
 2495 007d 2C000000 		.4byte	.LVL5
 2496 0081 34000000 		.4byte	.LVL6
 2497 0085 0200     		.2byte	0x2
 2498 0087 30       		.byte	0x30
 2499 0088 9F       		.byte	0x9f
 2500 0089 00000000 		.4byte	0
 2501 008d 00000000 		.4byte	0
 2502              	.LLST3:
 2503 0091 0C000000 		.4byte	.LVL9
 2504 0095 16000000 		.4byte	.LVL10
 2505 0099 0100     		.2byte	0x1
 2506 009b 52       		.byte	0x52
ARM GAS  /tmp/ccbcwbNH.s 			page 45


 2507 009c 28000000 		.4byte	.LVL14
 2508 00a0 2D000000 		.4byte	.LVL15-1
 2509 00a4 0100     		.2byte	0x1
 2510 00a6 52       		.byte	0x52
 2511 00a7 00000000 		.4byte	0
 2512 00ab 00000000 		.4byte	0
 2513              	.LLST4:
 2514 00af 22000000 		.4byte	.LVL13
 2515 00b3 28000000 		.4byte	.LVL14
 2516 00b7 0200     		.2byte	0x2
 2517 00b9 30       		.byte	0x30
 2518 00ba 9F       		.byte	0x9f
 2519 00bb 00000000 		.4byte	0
 2520 00bf 00000000 		.4byte	0
 2521              	.LLST5:
 2522 00c3 00000000 		.4byte	.LVL16
 2523 00c7 0B000000 		.4byte	.LVL18-1
 2524 00cb 0100     		.2byte	0x1
 2525 00cd 50       		.byte	0x50
 2526 00ce 0B000000 		.4byte	.LVL18-1
 2527 00d2 14000000 		.4byte	.LFE231
 2528 00d6 0400     		.2byte	0x4
 2529 00d8 F3       		.byte	0xf3
 2530 00d9 01       		.uleb128 0x1
 2531 00da 50       		.byte	0x50
 2532 00db 9F       		.byte	0x9f
 2533 00dc 00000000 		.4byte	0
 2534 00e0 00000000 		.4byte	0
 2535              	.LLST6:
 2536 00e4 00000000 		.4byte	.LVL16
 2537 00e8 0B000000 		.4byte	.LVL18-1
 2538 00ec 0100     		.2byte	0x1
 2539 00ee 51       		.byte	0x51
 2540 00ef 0B000000 		.4byte	.LVL18-1
 2541 00f3 14000000 		.4byte	.LFE231
 2542 00f7 0400     		.2byte	0x4
 2543 00f9 F3       		.byte	0xf3
 2544 00fa 01       		.uleb128 0x1
 2545 00fb 51       		.byte	0x51
 2546 00fc 9F       		.byte	0x9f
 2547 00fd 00000000 		.4byte	0
 2548 0101 00000000 		.4byte	0
 2549              	.LLST7:
 2550 0105 08000000 		.4byte	.LVL17
 2551 0109 0B000000 		.4byte	.LVL18-1
 2552 010d 0100     		.2byte	0x1
 2553 010f 51       		.byte	0x51
 2554 0110 0B000000 		.4byte	.LVL18-1
 2555 0114 14000000 		.4byte	.LFE231
 2556 0118 0400     		.2byte	0x4
 2557 011a F3       		.byte	0xf3
 2558 011b 01       		.uleb128 0x1
 2559 011c 51       		.byte	0x51
 2560 011d 9F       		.byte	0x9f
 2561 011e 00000000 		.4byte	0
 2562 0122 00000000 		.4byte	0
 2563              	.LLST8:
ARM GAS  /tmp/ccbcwbNH.s 			page 46


 2564 0126 08000000 		.4byte	.LVL17
 2565 012a 0B000000 		.4byte	.LVL18-1
 2566 012e 0100     		.2byte	0x1
 2567 0130 50       		.byte	0x50
 2568 0131 0B000000 		.4byte	.LVL18-1
 2569 0135 14000000 		.4byte	.LFE231
 2570 0139 0400     		.2byte	0x4
 2571 013b F3       		.byte	0xf3
 2572 013c 01       		.uleb128 0x1
 2573 013d 50       		.byte	0x50
 2574 013e 9F       		.byte	0x9f
 2575 013f 00000000 		.4byte	0
 2576 0143 00000000 		.4byte	0
 2577              		.section	.debug_aranges,"",%progbits
 2578 0000 2C000000 		.4byte	0x2c
 2579 0004 0200     		.2byte	0x2
 2580 0006 00000000 		.4byte	.Ldebug_info0
 2581 000a 04       		.byte	0x4
 2582 000b 00       		.byte	0
 2583 000c 0000     		.2byte	0
 2584 000e 0000     		.2byte	0
 2585 0010 00000000 		.4byte	.LFB229
 2586 0014 40000000 		.4byte	.LFE229-.LFB229
 2587 0018 00000000 		.4byte	.LFB230
 2588 001c 3C000000 		.4byte	.LFE230-.LFB230
 2589 0020 00000000 		.4byte	.LFB231
 2590 0024 14000000 		.4byte	.LFE231-.LFB231
 2591 0028 00000000 		.4byte	0
 2592 002c 00000000 		.4byte	0
 2593              		.section	.debug_ranges,"",%progbits
 2594              	.Ldebug_ranges0:
 2595 0000 04000000 		.4byte	.LBB52
 2596 0004 06000000 		.4byte	.LBE52
 2597 0008 08000000 		.4byte	.LBB59
 2598 000c 0C000000 		.4byte	.LBE59
 2599 0010 00000000 		.4byte	0
 2600 0014 00000000 		.4byte	0
 2601 0018 12000000 		.4byte	.LBB60
 2602 001c 16000000 		.4byte	.LBE60
 2603 0020 18000000 		.4byte	.LBB64
 2604 0024 1C000000 		.4byte	.LBE64
 2605 0028 1E000000 		.4byte	.LBB65
 2606 002c 20000000 		.4byte	.LBE65
 2607 0030 00000000 		.4byte	0
 2608 0034 00000000 		.4byte	0
 2609 0038 16000000 		.4byte	.LBB77
 2610 003c 1A000000 		.4byte	.LBE77
 2611 0040 1C000000 		.4byte	.LBB80
 2612 0044 1E000000 		.4byte	.LBE80
 2613 0048 00000000 		.4byte	0
 2614 004c 00000000 		.4byte	0
 2615 0050 1E000000 		.4byte	.LBB81
 2616 0054 20000000 		.4byte	.LBE81
 2617 0058 22000000 		.4byte	.LBB90
 2618 005c 26000000 		.4byte	.LBE90
 2619 0060 00000000 		.4byte	0
 2620 0064 00000000 		.4byte	0
ARM GAS  /tmp/ccbcwbNH.s 			page 47


 2621 0068 00000000 		.4byte	.LFB229
 2622 006c 40000000 		.4byte	.LFE229
 2623 0070 00000000 		.4byte	.LFB230
 2624 0074 3C000000 		.4byte	.LFE230
 2625 0078 00000000 		.4byte	.LFB231
 2626 007c 14000000 		.4byte	.LFE231
 2627 0080 00000000 		.4byte	0
 2628 0084 00000000 		.4byte	0
 2629              		.section	.debug_line,"",%progbits
 2630              	.Ldebug_line0:
 2631 0000 6F020000 		.section	.debug_str,"MS",%progbits,1
 2631      02009501 
 2631      00000201 
 2631      FB0E0D00 
 2631      01010101 
 2632              	.LASF51:
 2633 0000 72656164 		.ascii	"ready_list_t\000"
 2633      795F6C69 
 2633      73745F74 
 2633      00
 2634              	.LASF105:
 2635 000d 71756575 		.ascii	"queue_insert\000"
 2635      655F696E 
 2635      73657274 
 2635      00
 2636              	.LASF122:
 2637 001a 2F686F6D 		.ascii	"/home/sssilvar/Documents/embebidos/ChibiOS/iflab/pr"
 2637      652F7373 
 2637      73696C76 
 2637      61722F44 
 2637      6F63756D 
 2638 004d 6F6A6563 		.ascii	"ojects/ADC_LCD\000"
 2638      74732F41 
 2638      44435F4C 
 2638      434400
 2639              	.LASF89:
 2640 005c 77747472 		.ascii	"wttrp\000"
 2640      7000
 2641              	.LASF86:
 2642 0062 7264796D 		.ascii	"rdymsg\000"
 2642      736700
 2643              	.LASF17:
 2644 0069 75696E74 		.ascii	"uint64_t\000"
 2644      36345F74 
 2644      00
 2645              	.LASF7:
 2646 0072 5F5F7569 		.ascii	"__uint8_t\000"
 2646      6E74385F 
 2646      7400
 2647              	.LASF83:
 2648 007c 706F7274 		.ascii	"port_intctx\000"
 2648      5F696E74 
 2648      63747800 
 2649              	.LASF70:
 2650 0088 73797374 		.ascii	"system_debug_t\000"
 2650      656D5F64 
 2650      65627567 
ARM GAS  /tmp/ccbcwbNH.s 			page 48


 2650      5F7400
 2651              	.LASF102:
 2652 0097 706F7274 		.ascii	"port_lock\000"
 2652      5F6C6F63 
 2652      6B00
 2653              	.LASF13:
 2654 00a1 6C6F6E67 		.ascii	"long long unsigned int\000"
 2654      206C6F6E 
 2654      6720756E 
 2654      7369676E 
 2654      65642069 
 2655              	.LASF87:
 2656 00b8 65786974 		.ascii	"exitcode\000"
 2656      636F6465 
 2656      00
 2657              	.LASF77:
 2658 00c1 6D61696E 		.ascii	"mainthread\000"
 2658      74687265 
 2658      616400
 2659              	.LASF67:
 2660 00cc 76697274 		.ascii	"virtual_timers_list_t\000"
 2660      75616C5F 
 2660      74696D65 
 2660      72735F6C 
 2660      6973745F 
 2661              	.LASF116:
 2662 00e2 49544D5F 		.ascii	"ITM_RxBuffer\000"
 2662      52784275 
 2662      66666572 
 2662      00
 2663              	.LASF50:
 2664 00ef 63685F74 		.ascii	"ch_threads_queue\000"
 2664      68726561 
 2664      64735F71 
 2664      75657565 
 2664      00
 2665              	.LASF30:
 2666 0100 705F7072 		.ascii	"p_prio\000"
 2666      696F00
 2667              	.LASF1:
 2668 0107 6C6F6E67 		.ascii	"long long int\000"
 2668      206C6F6E 
 2668      6720696E 
 2668      7400
 2669              	.LASF3:
 2670 0115 7369676E 		.ascii	"signed char\000"
 2670      65642063 
 2670      68617200 
 2671              	.LASF44:
 2672 0121 705F6D70 		.ascii	"p_mpool\000"
 2672      6F6F6C00 
 2673              	.LASF97:
 2674 0129 6D5F7175 		.ascii	"m_queue\000"
 2674      65756500 
 2675              	.LASF76:
 2676 0131 76746C69 		.ascii	"vtlist\000"
 2676      737400
ARM GAS  /tmp/ccbcwbNH.s 			page 49


 2677              	.LASF103:
 2678 0138 706F7274 		.ascii	"port_unlock\000"
 2678      5F756E6C 
 2678      6F636B00 
 2679              	.LASF74:
 2680 0144 63685F73 		.ascii	"ch_system\000"
 2680      79737465 
 2680      6D00
 2681              	.LASF9:
 2682 014e 6C6F6E67 		.ascii	"long int\000"
 2682      20696E74 
 2682      00
 2683              	.LASF114:
 2684 0157 63684D73 		.ascii	"chMsgSend\000"
 2684      6753656E 
 2684      6400
 2685              	.LASF20:
 2686 0161 74737461 		.ascii	"tstate_t\000"
 2686      74655F74 
 2686      00
 2687              	.LASF110:
 2688 016a 63684D73 		.ascii	"chMsgIsPendingI\000"
 2688      67497350 
 2688      656E6469 
 2688      6E674900 
 2689              	.LASF32:
 2690 017a 705F6E65 		.ascii	"p_newer\000"
 2690      77657200 
 2691              	.LASF94:
 2692 0182 735F7175 		.ascii	"s_queue\000"
 2692      65756500 
 2693              	.LASF56:
 2694 018a 725F6E65 		.ascii	"r_newer\000"
 2694      77657200 
 2695              	.LASF80:
 2696 0192 72656761 		.ascii	"regarm_t\000"
 2696      726D5F74 
 2696      00
 2697              	.LASF63:
 2698 019b 76745F70 		.ascii	"vt_prev\000"
 2698      72657600 
 2699              	.LASF101:
 2700 01a3 6D757465 		.ascii	"mutex_t\000"
 2700      785F7400 
 2701              	.LASF106:
 2702 01ab 76616C75 		.ascii	"value\000"
 2702      6500
 2703              	.LASF78:
 2704 01b1 69646C65 		.ascii	"idle_thread_wa\000"
 2704      5F746872 
 2704      6561645F 
 2704      776100
 2705              	.LASF25:
 2706 01c0 636E745F 		.ascii	"cnt_t\000"
 2706      7400
 2707              	.LASF0:
 2708 01c6 756E7369 		.ascii	"unsigned int\000"
ARM GAS  /tmp/ccbcwbNH.s 			page 50


 2708      676E6564 
 2708      20696E74 
 2708      00
 2709              	.LASF62:
 2710 01d3 76745F6E 		.ascii	"vt_next\000"
 2710      65787400 
 2711              	.LASF90:
 2712 01db 77747365 		.ascii	"wtsemp\000"
 2712      6D7000
 2713              	.LASF64:
 2714 01e2 76745F64 		.ascii	"vt_delta\000"
 2714      656C7461 
 2714      00
 2715              	.LASF39:
 2716 01eb 705F6D73 		.ascii	"p_msgqueue\000"
 2716      67717565 
 2716      756500
 2717              	.LASF95:
 2718 01f6 735F636E 		.ascii	"s_cnt\000"
 2718      7400
 2719              	.LASF6:
 2720 01fc 73686F72 		.ascii	"short unsigned int\000"
 2720      7420756E 
 2720      7369676E 
 2720      65642069 
 2720      6E7400
 2721              	.LASF47:
 2722 020f 63685F74 		.ascii	"ch_thread\000"
 2722      68726561 
 2722      6400
 2723              	.LASF119:
 2724 0219 63685363 		.ascii	"chSchWakeupS\000"
 2724      6857616B 
 2724      65757053 
 2724      00
 2725              	.LASF23:
 2726 0226 6D73675F 		.ascii	"msg_t\000"
 2726      7400
 2727              	.LASF73:
 2728 022c 63685F73 		.ascii	"ch_system_t\000"
 2728      79737465 
 2728      6D5F7400 
 2729              	.LASF19:
 2730 0238 746D6F64 		.ascii	"tmode_t\000"
 2730      655F7400 
 2731              	.LASF52:
 2732 0240 63685F72 		.ascii	"ch_ready_list\000"
 2732      65616479 
 2732      5F6C6973 
 2732      7400
 2733              	.LASF24:
 2734 024e 6576656E 		.ascii	"eventmask_t\000"
 2734      746D6173 
 2734      6B5F7400 
 2735              	.LASF8:
 2736 025a 5F5F696E 		.ascii	"__int32_t\000"
 2736      7433325F 
ARM GAS  /tmp/ccbcwbNH.s 			page 51


 2736      7400
 2737              	.LASF81:
 2738 0264 73746B61 		.ascii	"stkalign_t\000"
 2738      6C69676E 
 2738      5F7400
 2739              	.LASF120:
 2740 026f 474E5520 		.ascii	"GNU C11 5.2.0 -mcpu=cortex-m4 -mfloat-abi=hard -mfp"
 2740      43313120 
 2740      352E322E 
 2740      30202D6D 
 2740      6370753D 
 2741 02a2 753D6670 		.ascii	"u=fpv4-sp-d16 -mno-thumb-interwork -mthumb -ggdb -O"
 2741      76342D73 
 2741      702D6431 
 2741      36202D6D 
 2741      6E6F2D74 
 2742 02d5 32202D66 		.ascii	"2 -fomit-frame-pointer -falign-functions=16 -ffunct"
 2742      6F6D6974 
 2742      2D667261 
 2742      6D652D70 
 2742      6F696E74 
 2743 0308 696F6E2D 		.ascii	"ion-sections -fdata-sections -fno-common -fsingle-p"
 2743      73656374 
 2743      696F6E73 
 2743      202D6664 
 2743      6174612D 
 2744 033b 72656369 		.ascii	"recision-constant\000"
 2744      73696F6E 
 2744      2D636F6E 
 2744      7374616E 
 2744      7400
 2745              	.LASF121:
 2746 034d 2E2E2F2E 		.ascii	"../../os/rt/src/chmsg.c\000"
 2746      2E2F6F73 
 2746      2F72742F 
 2746      7372632F 
 2746      63686D73 
 2747              	.LASF38:
 2748 0365 705F7761 		.ascii	"p_waiting\000"
 2748      6974696E 
 2748      6700
 2749              	.LASF79:
 2750 036f 73697A65 		.ascii	"sizetype\000"
 2750      74797065 
 2750      00
 2751              	.LASF45:
 2752 0378 74687265 		.ascii	"thread_reference_t\000"
 2752      61645F72 
 2752      65666572 
 2752      656E6365 
 2752      5F7400
 2753              	.LASF68:
 2754 038b 63685F76 		.ascii	"ch_virtual_timers_list\000"
 2754      69727475 
 2754      616C5F74 
 2754      696D6572 
 2754      735F6C69 
ARM GAS  /tmp/ccbcwbNH.s 			page 52


 2755              	.LASF2:
 2756 03a2 6C6F6E67 		.ascii	"long double\000"
 2756      20646F75 
 2756      626C6500 
 2757              	.LASF69:
 2758 03ae 76745F6C 		.ascii	"vt_lasttime\000"
 2758      61737474 
 2758      696D6500 
 2759              	.LASF33:
 2760 03ba 705F6F6C 		.ascii	"p_older\000"
 2760      64657200 
 2761              	.LASF55:
 2762 03c2 725F6374 		.ascii	"r_ctx\000"
 2762      7800
 2763              	.LASF85:
 2764 03c8 746D5F63 		.ascii	"tm_calibration_t\000"
 2764      616C6962 
 2764      72617469 
 2764      6F6E5F74 
 2764      00
 2765              	.LASF99:
 2766 03d9 6D5F6E65 		.ascii	"m_next\000"
 2766      787400
 2767              	.LASF58:
 2768 03e0 725F6375 		.ascii	"r_current\000"
 2768      7272656E 
 2768      7400
 2769              	.LASF57:
 2770 03ea 725F6F6C 		.ascii	"r_older\000"
 2770      64657200 
 2771              	.LASF12:
 2772 03f2 5F5F7569 		.ascii	"__uint64_t\000"
 2772      6E743634 
 2772      5F7400
 2773              	.LASF21:
 2774 03fd 74726566 		.ascii	"trefs_t\000"
 2774      735F7400 
 2775              	.LASF60:
 2776 0405 76697274 		.ascii	"virtual_timer_t\000"
 2776      75616C5F 
 2776      74696D65 
 2776      725F7400 
 2777              	.LASF29:
 2778 0415 705F7072 		.ascii	"p_prev\000"
 2778      657600
 2779              	.LASF22:
 2780 041c 74707269 		.ascii	"tprio_t\000"
 2780      6F5F7400 
 2781              	.LASF71:
 2782 0424 63685F73 		.ascii	"ch_system_debug\000"
 2782      79737465 
 2782      6D5F6465 
 2782      62756700 
 2783              	.LASF109:
 2784 0434 5F426F6F 		.ascii	"_Bool\000"
 2784      6C00
 2785              	.LASF15:
ARM GAS  /tmp/ccbcwbNH.s 			page 53


 2786 043a 696E7433 		.ascii	"int32_t\000"
 2786      325F7400 
 2787              	.LASF4:
 2788 0442 756E7369 		.ascii	"unsigned char\000"
 2788      676E6564 
 2788      20636861 
 2788      7200
 2789              	.LASF42:
 2790 0450 705F6D74 		.ascii	"p_mtxlist\000"
 2790      786C6973 
 2790      7400
 2791              	.LASF5:
 2792 045a 73686F72 		.ascii	"short int\000"
 2792      7420696E 
 2792      7400
 2793              	.LASF35:
 2794 0464 705F7374 		.ascii	"p_state\000"
 2794      61746500 
 2795              	.LASF54:
 2796 046c 725F7072 		.ascii	"r_prio\000"
 2796      696F00
 2797              	.LASF92:
 2798 0473 65776D61 		.ascii	"ewmask\000"
 2798      736B00
 2799              	.LASF28:
 2800 047a 705F6E65 		.ascii	"p_next\000"
 2800      787400
 2801              	.LASF36:
 2802 0481 705F666C 		.ascii	"p_flags\000"
 2802      61677300 
 2803              	.LASF112:
 2804 0489 5F5F6675 		.ascii	"__func__\000"
 2804      6E635F5F 
 2804      00
 2805              	.LASF107:
 2806 0492 63685379 		.ascii	"chSysLock\000"
 2806      734C6F63 
 2806      6B00
 2807              	.LASF61:
 2808 049c 63685F76 		.ascii	"ch_virtual_timer\000"
 2808      69727475 
 2808      616C5F74 
 2808      696D6572 
 2808      00
 2809              	.LASF123:
 2810 04ad 63684D73 		.ascii	"chMsgRelease\000"
 2810      6752656C 
 2810      65617365 
 2810      00
 2811              	.LASF93:
 2812 04ba 63685F73 		.ascii	"ch_semaphore\000"
 2812      656D6170 
 2812      686F7265 
 2812      00
 2813              	.LASF117:
 2814 04c7 63685363 		.ascii	"chSchGoSleepS\000"
 2814      68476F53 
ARM GAS  /tmp/ccbcwbNH.s 			page 54


 2814      6C656570 
 2814      5300
 2815              	.LASF41:
 2816 04d5 705F6570 		.ascii	"p_epending\000"
 2816      656E6469 
 2816      6E6700
 2817              	.LASF16:
 2818 04e0 75696E74 		.ascii	"uint32_t\000"
 2818      33325F74 
 2818      00
 2819              	.LASF91:
 2820 04e9 77746D74 		.ascii	"wtmtxp\000"
 2820      787000
 2821              	.LASF53:
 2822 04f0 725F7175 		.ascii	"r_queue\000"
 2822      65756500 
 2823              	.LASF118:
 2824 04f8 63685363 		.ascii	"chSchReadyI\000"
 2824      68526561 
 2824      64794900 
 2825              	.LASF48:
 2826 0504 63685F74 		.ascii	"ch_threads_list\000"
 2826      68726561 
 2826      64735F6C 
 2826      69737400 
 2827              	.LASF11:
 2828 0514 6C6F6E67 		.ascii	"long unsigned int\000"
 2828      20756E73 
 2828      69676E65 
 2828      6420696E 
 2828      7400
 2829              	.LASF100:
 2830 0526 63686172 		.ascii	"char\000"
 2830      00
 2831              	.LASF27:
 2832 052b 74687265 		.ascii	"thread_t\000"
 2832      61645F74 
 2832      00
 2833              	.LASF111:
 2834 0534 71756575 		.ascii	"queue_fifo_remove\000"
 2834      655F6669 
 2834      666F5F72 
 2834      656D6F76 
 2834      6500
 2835              	.LASF26:
 2836 0546 73797374 		.ascii	"systime_t\000"
 2836      696D655F 
 2836      7400
 2837              	.LASF43:
 2838 0550 705F7265 		.ascii	"p_realprio\000"
 2838      616C7072 
 2838      696F00
 2839              	.LASF59:
 2840 055b 76746675 		.ascii	"vtfunc_t\000"
 2840      6E635F74 
 2840      00
 2841              	.LASF10:
ARM GAS  /tmp/ccbcwbNH.s 			page 55


 2842 0564 5F5F7569 		.ascii	"__uint32_t\000"
 2842      6E743332 
 2842      5F7400
 2843              	.LASF104:
 2844 056f 5F5F7365 		.ascii	"__set_BASEPRI\000"
 2844      745F4241 
 2844      53455052 
 2844      4900
 2845              	.LASF72:
 2846 057d 70616E69 		.ascii	"panic_msg\000"
 2846      635F6D73 
 2846      6700
 2847              	.LASF84:
 2848 0587 6F666673 		.ascii	"offset\000"
 2848      657400
 2849              	.LASF82:
 2850 058e 636F6E74 		.ascii	"context\000"
 2850      65787400 
 2851              	.LASF18:
 2852 0596 7274636E 		.ascii	"rtcnt_t\000"
 2852      745F7400 
 2853              	.LASF66:
 2854 059e 76745F70 		.ascii	"vt_par\000"
 2854      617200
 2855              	.LASF115:
 2856 05a5 63684D73 		.ascii	"chMsgWait\000"
 2856      67576169 
 2856      7400
 2857              	.LASF49:
 2858 05af 74687265 		.ascii	"threads_queue_t\000"
 2858      6164735F 
 2858      71756575 
 2858      655F7400 
 2859              	.LASF96:
 2860 05bf 63685F6D 		.ascii	"ch_mutex\000"
 2860      75746578 
 2860      00
 2861              	.LASF37:
 2862 05c8 705F7265 		.ascii	"p_refs\000"
 2862      667300
 2863              	.LASF75:
 2864 05cf 726C6973 		.ascii	"rlist\000"
 2864      7400
 2865              	.LASF14:
 2866 05d5 75696E74 		.ascii	"uint8_t\000"
 2866      385F7400 
 2867              	.LASF88:
 2868 05dd 77746F62 		.ascii	"wtobjp\000"
 2868      6A7000
 2869              	.LASF34:
 2870 05e4 705F6E61 		.ascii	"p_name\000"
 2870      6D6500
 2871              	.LASF46:
 2872 05eb 74687265 		.ascii	"threads_list_t\000"
 2872      6164735F 
 2872      6C697374 
 2872      5F7400
ARM GAS  /tmp/ccbcwbNH.s 			page 56


 2873              	.LASF108:
 2874 05fa 63685379 		.ascii	"chSysUnlock\000"
 2874      73556E6C 
 2874      6F636B00 
 2875              	.LASF40:
 2876 0606 705F6D73 		.ascii	"p_msg\000"
 2876      6700
 2877              	.LASF113:
 2878 060c 63684D73 		.ascii	"chMsgReleaseS\000"
 2878      6752656C 
 2878      65617365 
 2878      5300
 2879              	.LASF98:
 2880 061a 6D5F6F77 		.ascii	"m_owner\000"
 2880      6E657200 
 2881              	.LASF31:
 2882 0622 705F6374 		.ascii	"p_ctx\000"
 2882      7800
 2883              	.LASF65:
 2884 0628 76745F66 		.ascii	"vt_func\000"
 2884      756E6300 
 2885              		.ident	"GCC: (Fedora 5.2.0-2.fc22) 5.2.0"
ARM GAS  /tmp/ccbcwbNH.s 			page 57


DEFINED SYMBOLS
                            *ABS*:0000000000000000 chmsg.c
     /tmp/ccbcwbNH.s:22     .text.chMsgSend:0000000000000000 $t
     /tmp/ccbcwbNH.s:28     .text.chMsgSend:0000000000000000 chMsgSend
     /tmp/ccbcwbNH.s:144    .text.chMsgSend:000000000000003c $d
     /tmp/ccbcwbNH.s:149    .text.chMsgWait:0000000000000000 $t
     /tmp/ccbcwbNH.s:155    .text.chMsgWait:0000000000000000 chMsgWait
     /tmp/ccbcwbNH.s:263    .text.chMsgWait:0000000000000038 $d
     /tmp/ccbcwbNH.s:268    .text.chMsgRelease:0000000000000000 $t
     /tmp/ccbcwbNH.s:274    .text.chMsgRelease:0000000000000000 chMsgRelease
                     .debug_frame:0000000000000010 $d
     /tmp/ccbcwbNH.s:267    .text.chMsgWait:000000000000003c $t

UNDEFINED SYMBOLS
chSchGoSleepS
chSchReadyI
ch
chSchWakeupS
