ARM GAS  /tmp/ccvKUrVh.s 			page 1


   1              		.syntax unified
   2              		.cpu cortex-m4
   3              		.eabi_attribute 27, 1
   4              		.eabi_attribute 28, 1
   5              		.fpu fpv4-sp-d16
   6              		.eabi_attribute 20, 1
   7              		.eabi_attribute 21, 1
   8              		.eabi_attribute 23, 3
   9              		.eabi_attribute 24, 1
  10              		.eabi_attribute 25, 1
  11              		.eabi_attribute 26, 1
  12              		.eabi_attribute 30, 2
  13              		.eabi_attribute 34, 1
  14              		.eabi_attribute 18, 4
  15              		.thumb
  16              		.syntax unified
  17              		.file	"chsem.c"
  18              		.text
  19              	.Ltext0:
  20              		.cfi_sections	.debug_frame
  21              		.section	.text.chSemObjectInit,"ax",%progbits
  22              		.align	2
  23              		.p2align 4,,15
  24              		.global	chSemObjectInit
  25              		.thumb
  26              		.thumb_func
  27              		.type	chSemObjectInit, %function
  28              	chSemObjectInit:
  29              	.LFB229:
  30              		.file 1 "../../os/rt/src/chsem.c"
  31              		.loc 1 97 0
  32              		.cfi_startproc
  33              		@ args = 0, pretend = 0, frame = 0
  34              		@ frame_needed = 0, uses_anonymous_args = 0
  35              		@ link register save eliminated.
  36              	.LVL0:
  37              	.LBB92:
  38              	.LBB93:
  39              		.file 2 "../../os/rt/include/chschd.h"
  40              		.loc 2 604 0
  41 0000 0060     		str	r0, [r0]
  42              		.loc 2 605 0
  43 0002 4060     		str	r0, [r0, #4]
  44              	.LBE93:
  45              	.LBE92:
  46              		.loc 1 102 0
  47 0004 8160     		str	r1, [r0, #8]
  48 0006 7047     		bx	lr
  49              		.cfi_endproc
  50              	.LFE229:
  51              		.size	chSemObjectInit, .-chSemObjectInit
  52 0008 AFF30080 		.section	.text.chSemResetI,"ax",%progbits
  52      AFF30080 
  53              		.align	2
  54              		.p2align 4,,15
  55              		.global	chSemResetI
  56              		.thumb
ARM GAS  /tmp/ccvKUrVh.s 			page 2


  57              		.thumb_func
  58              		.type	chSemResetI, %function
  59              	chSemResetI:
  60              	.LFB231:
  61              		.loc 1 147 0
  62              		.cfi_startproc
  63              		@ args = 0, pretend = 0, frame = 0
  64              		@ frame_needed = 0, uses_anonymous_args = 0
  65              	.LVL1:
  66 0000 70B5     		push	{r4, r5, r6, lr}
  67              		.cfi_def_cfa_offset 16
  68              		.cfi_offset 4, -16
  69              		.cfi_offset 5, -12
  70              		.cfi_offset 6, -8
  71              		.cfi_offset 14, -4
  72              		.loc 1 156 0
  73 0002 8568     		ldr	r5, [r0, #8]
  74              	.LVL2:
  75              		.loc 1 157 0
  76 0004 8160     		str	r1, [r0, #8]
  77              		.loc 1 158 0
  78 0006 0135     		adds	r5, r5, #1
  79              	.LVL3:
  80 0008 002D     		cmp	r5, #0
  81 000a 0CDC     		bgt	.L2
  82 000c 0446     		mov	r4, r0
  83              		.loc 1 159 0
  84 000e 6FF00106 		mvn	r6, #1
  85              	.LVL4:
  86              	.L4:
  87              	.LBB94:
  88              	.LBB95:
  89              		.loc 2 681 0
  90 0012 6068     		ldr	r0, [r4, #4]
  91              	.LVL5:
  92              		.loc 2 683 0
  93 0014 4368     		ldr	r3, [r0, #4]
  94 0016 6360     		str	r3, [r4, #4]
  95              		.loc 2 684 0
  96 0018 1C60     		str	r4, [r3]
  97              	.LBE95:
  98              	.LBE94:
  99              		.loc 1 159 0
 100 001a FFF7FEFF 		bl	chSchReadyI
 101              	.LVL6:
 102              		.loc 1 158 0
 103 001e 0135     		adds	r5, r5, #1
 104              	.LVL7:
 105 0020 012D     		cmp	r5, #1
 106              		.loc 1 159 0
 107 0022 0662     		str	r6, [r0, #32]
 108              	.LVL8:
 109              		.loc 1 158 0
 110 0024 F5D1     		bne	.L4
 111              	.LVL9:
 112              	.L2:
 113 0026 70BD     		pop	{r4, r5, r6, pc}
ARM GAS  /tmp/ccvKUrVh.s 			page 3


 114              		.cfi_endproc
 115              	.LFE231:
 116              		.size	chSemResetI, .-chSemResetI
 117 0028 AFF30080 		.section	.text.chSemReset,"ax",%progbits
 117      AFF30080 
 118              		.align	2
 119              		.p2align 4,,15
 120              		.global	chSemReset
 121              		.thumb
 122              		.thumb_func
 123              		.type	chSemReset, %function
 124              	chSemReset:
 125              	.LFB230:
 126              		.loc 1 120 0
 127              		.cfi_startproc
 128              		@ args = 0, pretend = 0, frame = 0
 129              		@ frame_needed = 0, uses_anonymous_args = 0
 130              	.LVL10:
 131 0000 08B5     		push	{r3, lr}
 132              		.cfi_def_cfa_offset 8
 133              		.cfi_offset 3, -8
 134              		.cfi_offset 14, -4
 135              	.LBB96:
 136              	.LBB97:
 137              	.LBB98:
 138              	.LBB99:
 139              		.file 3 "../../os/ext/CMSIS/include/core_cmFunc.h"
 140              		.loc 3 546 0
 141 0002 2023     		movs	r3, #32
 142              		.syntax unified
 143              	@ 546 "../../os/ext/CMSIS/include/core_cmFunc.h" 1
 144 0004 83F31188 		MSR basepri, r3
 145              	@ 0 "" 2
 146              		.thumb
 147              		.syntax unified
 148              	.LBE99:
 149              	.LBE98:
 150              	.LBE97:
 151              	.LBE96:
 152              		.loc 1 123 0
 153 0008 FFF7FEFF 		bl	chSemResetI
 154              	.LVL11:
 155              		.loc 1 124 0
 156 000c FFF7FEFF 		bl	chSchRescheduleS
 157              	.LVL12:
 158              	.LBB100:
 159              	.LBB101:
 160              	.LBB102:
 161              	.LBB103:
 162              	.LBB104:
 163              		.loc 3 546 0
 164 0010 0023     		movs	r3, #0
 165              		.syntax unified
 166              	@ 546 "../../os/ext/CMSIS/include/core_cmFunc.h" 1
 167 0012 83F31188 		MSR basepri, r3
 168              	@ 0 "" 2
 169              		.thumb
ARM GAS  /tmp/ccvKUrVh.s 			page 4


 170              		.syntax unified
 171 0016 08BD     		pop	{r3, pc}
 172              	.LBE104:
 173              	.LBE103:
 174              	.LBE102:
 175              	.LBE101:
 176              	.LBE100:
 177              		.cfi_endproc
 178              	.LFE230:
 179              		.size	chSemReset, .-chSemReset
 180 0018 AFF30080 		.section	.text.chSemWait,"ax",%progbits
 180      AFF30080 
 181              		.align	2
 182              		.p2align 4,,15
 183              		.global	chSemWait
 184              		.thumb
 185              		.thumb_func
 186              		.type	chSemWait, %function
 187              	chSemWait:
 188              	.LFB232:
 189              		.loc 1 175 0
 190              		.cfi_startproc
 191              		@ args = 0, pretend = 0, frame = 0
 192              		@ frame_needed = 0, uses_anonymous_args = 0
 193              	.LVL13:
 194              	.LBB120:
 195              	.LBB121:
 196              	.LBB122:
 197              	.LBB123:
 198              		.loc 3 546 0
 199 0000 2023     		movs	r3, #32
 200              		.syntax unified
 201              	@ 546 "../../os/ext/CMSIS/include/core_cmFunc.h" 1
 202 0002 83F31188 		MSR basepri, r3
 203              	@ 0 "" 2
 204              	.LVL14:
 205              		.thumb
 206              		.syntax unified
 207              	.LBE123:
 208              	.LBE122:
 209              	.LBE121:
 210              	.LBE120:
 211              	.LBB124:
 212              	.LBB125:
 213              		.loc 1 205 0
 214 0006 8368     		ldr	r3, [r0, #8]
 215 0008 013B     		subs	r3, r3, #1
 216 000a 002B     		cmp	r3, #0
 217 000c 8360     		str	r3, [r0, #8]
 218 000e 04DB     		blt	.L16
 219              		.loc 1 213 0
 220 0010 0020     		movs	r0, #0
 221              	.LVL15:
 222              	.LBE125:
 223              	.LBE124:
 224              	.LBB133:
 225              	.LBB134:
ARM GAS  /tmp/ccvKUrVh.s 			page 5


 226              	.LBB135:
 227              	.LBB136:
 228              	.LBB137:
 229              		.loc 3 546 0
 230 0012 0023     		movs	r3, #0
 231              		.syntax unified
 232              	@ 546 "../../os/ext/CMSIS/include/core_cmFunc.h" 1
 233 0014 83F31188 		MSR basepri, r3
 234              	@ 0 "" 2
 235              		.thumb
 236              		.syntax unified
 237              	.LBE137:
 238              	.LBE136:
 239              	.LBE135:
 240              	.LBE134:
 241              	.LBE133:
 242              		.loc 1 183 0
 243 0018 7047     		bx	lr
 244              	.LVL16:
 245              	.L16:
 246              		.loc 1 175 0
 247 001a 10B5     		push	{r4, lr}
 248              		.cfi_def_cfa_offset 8
 249              		.cfi_offset 4, -8
 250              		.cfi_offset 14, -4
 251              	.LBB142:
 252              	.LBB132:
 253              	.LBB126:
 254              	.LBB127:
 255              		.loc 1 206 0
 256 001c 084C     		ldr	r4, .L17
 257 001e A269     		ldr	r2, [r4, #24]
 258 0020 1062     		str	r0, [r2, #32]
 259              	.LBB128:
 260              	.LBB129:
 261              		.loc 2 666 0
 262 0022 4168     		ldr	r1, [r0, #4]
 263 0024 5160     		str	r1, [r2, #4]
 264 0026 0346     		mov	r3, r0
 265              	.LVL17:
 266              		.loc 2 665 0
 267 0028 1060     		str	r0, [r2]
 268              		.loc 2 667 0
 269 002a 0A60     		str	r2, [r1]
 270              	.LBE129:
 271              	.LBE128:
 272              		.loc 1 208 0
 273 002c 0520     		movs	r0, #5
 274              	.LVL18:
 275              	.LBB131:
 276              	.LBB130:
 277              		.loc 2 668 0
 278 002e 5A60     		str	r2, [r3, #4]
 279              	.LBE130:
 280              	.LBE131:
 281              		.loc 1 208 0
 282 0030 FFF7FEFF 		bl	chSchGoSleepS
ARM GAS  /tmp/ccvKUrVh.s 			page 6


 283              	.LVL19:
 284              		.loc 1 210 0
 285 0034 A369     		ldr	r3, [r4, #24]
 286 0036 186A     		ldr	r0, [r3, #32]
 287              	.LVL20:
 288              	.LBE127:
 289              	.LBE126:
 290              	.LBE132:
 291              	.LBE142:
 292              	.LBB143:
 293              	.LBB141:
 294              	.LBB140:
 295              	.LBB139:
 296              	.LBB138:
 297              		.loc 3 546 0
 298 0038 0023     		movs	r3, #0
 299              		.syntax unified
 300              	@ 546 "../../os/ext/CMSIS/include/core_cmFunc.h" 1
 301 003a 83F31188 		MSR basepri, r3
 302              	@ 0 "" 2
 303              		.thumb
 304              		.syntax unified
 305              	.LBE138:
 306              	.LBE139:
 307              	.LBE140:
 308              	.LBE141:
 309              	.LBE143:
 310              		.loc 1 183 0
 311 003e 10BD     		pop	{r4, pc}
 312              	.L18:
 313              		.align	2
 314              	.L17:
 315 0040 00000000 		.word	ch
 316              		.cfi_endproc
 317              	.LFE232:
 318              		.size	chSemWait, .-chSemWait
 319 0044 AFF30080 		.section	.text.chSemWaitS,"ax",%progbits
 319      AFF30080 
 319      AFF30080 
 320              		.align	2
 321              		.p2align 4,,15
 322              		.global	chSemWaitS
 323              		.thumb
 324              		.thumb_func
 325              		.type	chSemWaitS, %function
 326              	chSemWaitS:
 327              	.LFB233:
 328              		.loc 1 197 0
 329              		.cfi_startproc
 330              		@ args = 0, pretend = 0, frame = 0
 331              		@ frame_needed = 0, uses_anonymous_args = 0
 332              	.LVL21:
 333              		.loc 1 205 0
 334 0000 8368     		ldr	r3, [r0, #8]
 335 0002 013B     		subs	r3, r3, #1
 336 0004 002B     		cmp	r3, #0
 337 0006 8360     		str	r3, [r0, #8]
ARM GAS  /tmp/ccvKUrVh.s 			page 7


 338 0008 01DB     		blt	.L24
 339              		.loc 1 213 0
 340 000a 0020     		movs	r0, #0
 341              	.LVL22:
 342 000c 7047     		bx	lr
 343              	.LVL23:
 344              	.L24:
 345              		.loc 1 197 0
 346 000e 10B5     		push	{r4, lr}
 347              		.cfi_def_cfa_offset 8
 348              		.cfi_offset 4, -8
 349              		.cfi_offset 14, -4
 350              	.LBB148:
 351              	.LBB149:
 352              		.loc 1 206 0
 353 0010 074C     		ldr	r4, .L25
 354 0012 A269     		ldr	r2, [r4, #24]
 355 0014 1062     		str	r0, [r2, #32]
 356              	.LBB150:
 357              	.LBB151:
 358              		.loc 2 666 0
 359 0016 4168     		ldr	r1, [r0, #4]
 360 0018 5160     		str	r1, [r2, #4]
 361 001a 0346     		mov	r3, r0
 362              	.LVL24:
 363              		.loc 2 665 0
 364 001c 1060     		str	r0, [r2]
 365              		.loc 2 667 0
 366 001e 0A60     		str	r2, [r1]
 367              	.LBE151:
 368              	.LBE150:
 369              		.loc 1 208 0
 370 0020 0520     		movs	r0, #5
 371              	.LVL25:
 372              	.LBB153:
 373              	.LBB152:
 374              		.loc 2 668 0
 375 0022 5A60     		str	r2, [r3, #4]
 376              	.LBE152:
 377              	.LBE153:
 378              		.loc 1 208 0
 379 0024 FFF7FEFF 		bl	chSchGoSleepS
 380              	.LVL26:
 381              		.loc 1 210 0
 382 0028 A369     		ldr	r3, [r4, #24]
 383 002a 186A     		ldr	r0, [r3, #32]
 384 002c 10BD     		pop	{r4, pc}
 385              	.L26:
 386 002e 00BF     		.align	2
 387              	.L25:
 388 0030 00000000 		.word	ch
 389              	.LBE149:
 390              	.LBE148:
 391              		.cfi_endproc
 392              	.LFE233:
 393              		.size	chSemWaitS, .-chSemWaitS
 394 0034 AFF30080 		.section	.text.chSemWaitTimeout,"ax",%progbits
ARM GAS  /tmp/ccvKUrVh.s 			page 8


 394      AFF30080 
 394      AFF30080 
 395              		.align	2
 396              		.p2align 4,,15
 397              		.global	chSemWaitTimeout
 398              		.thumb
 399              		.thumb_func
 400              		.type	chSemWaitTimeout, %function
 401              	chSemWaitTimeout:
 402              	.LFB234:
 403              		.loc 1 235 0
 404              		.cfi_startproc
 405              		@ args = 0, pretend = 0, frame = 0
 406              		@ frame_needed = 0, uses_anonymous_args = 0
 407              	.LVL27:
 408              	.LBB169:
 409              	.LBB170:
 410              	.LBB171:
 411              	.LBB172:
 412              		.loc 3 546 0
 413 0000 2023     		movs	r3, #32
 414              		.syntax unified
 415              	@ 546 "../../os/ext/CMSIS/include/core_cmFunc.h" 1
 416 0002 83F31188 		MSR basepri, r3
 417              	@ 0 "" 2
 418              	.LVL28:
 419              		.thumb
 420              		.syntax unified
 421              	.LBE172:
 422              	.LBE171:
 423              	.LBE170:
 424              	.LBE169:
 425              	.LBB173:
 426              	.LBB174:
 427              		.loc 1 272 0
 428 0006 8268     		ldr	r2, [r0, #8]
 429 0008 531E     		subs	r3, r2, #1
 430 000a 002B     		cmp	r3, #0
 431 000c 8360     		str	r3, [r0, #8]
 432 000e 04DB     		blt	.L33
 433              		.loc 1 284 0
 434 0010 0020     		movs	r0, #0
 435              	.LVL29:
 436              	.LBE174:
 437              	.LBE173:
 438              	.LBB183:
 439              	.LBB184:
 440              	.LBB185:
 441              	.LBB186:
 442              	.LBB187:
 443              		.loc 3 546 0
 444 0012 0023     		movs	r3, #0
 445              		.syntax unified
 446              	@ 546 "../../os/ext/CMSIS/include/core_cmFunc.h" 1
 447 0014 83F31188 		MSR basepri, r3
 448              	@ 0 "" 2
 449              		.thumb
ARM GAS  /tmp/ccvKUrVh.s 			page 9


 450              		.syntax unified
 451              	.LBE187:
 452              	.LBE186:
 453              	.LBE185:
 454              	.LBE184:
 455              	.LBE183:
 456              		.loc 1 243 0
 457 0018 7047     		bx	lr
 458              	.LVL30:
 459              	.L33:
 460              		.loc 1 235 0
 461 001a 10B5     		push	{r4, lr}
 462              		.cfi_def_cfa_offset 8
 463              		.cfi_offset 4, -8
 464              		.cfi_offset 14, -4
 465              	.LBB192:
 466              	.LBB181:
 467              		.loc 1 273 0
 468 001c 79B1     		cbz	r1, .L34
 469              	.LBB175:
 470              	.LBB176:
 471              		.loc 1 278 0
 472 001e 0A4A     		ldr	r2, .L35
 473 0020 9269     		ldr	r2, [r2, #24]
 474 0022 1062     		str	r0, [r2, #32]
 475              	.LBB177:
 476              	.LBB178:
 477              		.loc 2 666 0
 478 0024 4468     		ldr	r4, [r0, #4]
 479              	.LVL31:
 480 0026 0346     		mov	r3, r0
 481              	.LVL32:
 482 0028 82E81800 		stmia	r2, {r3, r4}
 483              	.LBE178:
 484              	.LBE177:
 485              		.loc 1 281 0
 486 002c 0520     		movs	r0, #5
 487              	.LVL33:
 488              	.LBB180:
 489              	.LBB179:
 490              		.loc 2 667 0
 491 002e 2260     		str	r2, [r4]
 492              		.loc 2 668 0
 493 0030 5A60     		str	r2, [r3, #4]
 494              	.LBE179:
 495              	.LBE180:
 496              		.loc 1 281 0
 497 0032 FFF7FEFF 		bl	chSchGoSleepTimeoutS
 498              	.LVL34:
 499              	.L28:
 500              	.LBE176:
 501              	.LBE175:
 502              	.LBE181:
 503              	.LBE192:
 504              	.LBB193:
 505              	.LBB191:
 506              	.LBB190:
ARM GAS  /tmp/ccvKUrVh.s 			page 10


 507              	.LBB189:
 508              	.LBB188:
 509              		.loc 3 546 0
 510 0036 0023     		movs	r3, #0
 511              		.syntax unified
 512              	@ 546 "../../os/ext/CMSIS/include/core_cmFunc.h" 1
 513 0038 83F31188 		MSR basepri, r3
 514              	@ 0 "" 2
 515              		.thumb
 516              		.syntax unified
 517              	.LBE188:
 518              	.LBE189:
 519              	.LBE190:
 520              	.LBE191:
 521              	.LBE193:
 522              		.loc 1 243 0
 523 003c 10BD     		pop	{r4, pc}
 524              	.LVL35:
 525              	.L34:
 526              	.LBB194:
 527              	.LBB182:
 528              		.loc 1 274 0
 529 003e 8260     		str	r2, [r0, #8]
 530              		.loc 1 276 0
 531 0040 4FF0FF30 		mov	r0, #-1
 532              	.LVL36:
 533 0044 F7E7     		b	.L28
 534              	.L36:
 535 0046 00BF     		.align	2
 536              	.L35:
 537 0048 00000000 		.word	ch
 538              	.LBE182:
 539              	.LBE194:
 540              		.cfi_endproc
 541              	.LFE234:
 542              		.size	chSemWaitTimeout, .-chSemWaitTimeout
 543 004c AFF30080 		.section	.text.chSemWaitTimeoutS,"ax",%progbits
 544              		.align	2
 545              		.p2align 4,,15
 546              		.global	chSemWaitTimeoutS
 547              		.thumb
 548              		.thumb_func
 549              		.type	chSemWaitTimeoutS, %function
 550              	chSemWaitTimeoutS:
 551              	.LFB235:
 552              		.loc 1 264 0
 553              		.cfi_startproc
 554              		@ args = 0, pretend = 0, frame = 0
 555              		@ frame_needed = 0, uses_anonymous_args = 0
 556              		@ link register save eliminated.
 557              	.LVL37:
 558 0000 0346     		mov	r3, r0
 559              		.loc 1 272 0
 560 0002 8068     		ldr	r0, [r0, #8]
 561              	.LVL38:
 562 0004 421E     		subs	r2, r0, #1
 563 0006 002A     		cmp	r2, #0
ARM GAS  /tmp/ccvKUrVh.s 			page 11


 564 0008 9A60     		str	r2, [r3, #8]
 565 000a 01DB     		blt	.L43
 566              		.loc 1 284 0
 567 000c 0020     		movs	r0, #0
 568 000e 7047     		bx	lr
 569              	.L43:
 570              		.loc 1 264 0
 571 0010 10B4     		push	{r4}
 572              		.cfi_def_cfa_offset 4
 573              		.cfi_offset 4, -4
 574              		.loc 1 273 0
 575 0012 61B1     		cbz	r1, .L44
 576              	.LVL39:
 577              	.LBB199:
 578              	.LBB200:
 579              		.loc 1 278 0
 580 0014 094A     		ldr	r2, .L45
 581 0016 9269     		ldr	r2, [r2, #24]
 582 0018 1362     		str	r3, [r2, #32]
 583              	.LVL40:
 584              	.LBB201:
 585              	.LBB202:
 586              		.loc 2 666 0
 587 001a 5C68     		ldr	r4, [r3, #4]
 588              	.LBE202:
 589              	.LBE201:
 590              		.loc 1 281 0
 591 001c 0520     		movs	r0, #5
 592              	.LBB204:
 593              	.LBB203:
 594              		.loc 2 666 0
 595 001e 82E81800 		stmia	r2, {r3, r4}
 596              		.loc 2 667 0
 597 0022 2260     		str	r2, [r4]
 598              		.loc 2 668 0
 599 0024 5A60     		str	r2, [r3, #4]
 600              	.LBE203:
 601              	.LBE204:
 602              	.LBE200:
 603              	.LBE199:
 604              		.loc 1 285 0
 605 0026 5DF8044B 		ldr	r4, [sp], #4
 606              		.cfi_remember_state
 607              		.cfi_restore 4
 608              		.cfi_def_cfa_offset 0
 609              	.LBB206:
 610              	.LBB205:
 611              		.loc 1 281 0
 612 002a FFF7FEBF 		b	chSchGoSleepTimeoutS
 613              	.LVL41:
 614              	.L44:
 615              		.cfi_restore_state
 616              	.LBE205:
 617              	.LBE206:
 618              		.loc 1 274 0
 619 002e 9860     		str	r0, [r3, #8]
 620              		.loc 1 285 0
ARM GAS  /tmp/ccvKUrVh.s 			page 12


 621 0030 5DF8044B 		ldr	r4, [sp], #4
 622              		.cfi_restore 4
 623              		.cfi_def_cfa_offset 0
 624              		.loc 1 276 0
 625 0034 4FF0FF30 		mov	r0, #-1
 626              		.loc 1 285 0
 627 0038 7047     		bx	lr
 628              	.L46:
 629 003a 00BF     		.align	2
 630              	.L45:
 631 003c 00000000 		.word	ch
 632              		.cfi_endproc
 633              	.LFE235:
 634              		.size	chSemWaitTimeoutS, .-chSemWaitTimeoutS
 635              		.section	.text.chSemSignal,"ax",%progbits
 636              		.align	2
 637              		.p2align 4,,15
 638              		.global	chSemSignal
 639              		.thumb
 640              		.thumb_func
 641              		.type	chSemSignal, %function
 642              	chSemSignal:
 643              	.LFB236:
 644              		.loc 1 294 0
 645              		.cfi_startproc
 646              		@ args = 0, pretend = 0, frame = 0
 647              		@ frame_needed = 0, uses_anonymous_args = 0
 648              	.LVL42:
 649 0000 08B5     		push	{r3, lr}
 650              		.cfi_def_cfa_offset 8
 651              		.cfi_offset 3, -8
 652              		.cfi_offset 14, -4
 653              	.LBB207:
 654              	.LBB208:
 655              	.LBB209:
 656              	.LBB210:
 657              		.loc 3 546 0
 658 0002 2023     		movs	r3, #32
 659              		.syntax unified
 660              	@ 546 "../../os/ext/CMSIS/include/core_cmFunc.h" 1
 661 0004 83F31188 		MSR basepri, r3
 662              	@ 0 "" 2
 663              		.thumb
 664              		.syntax unified
 665              	.LBE210:
 666              	.LBE209:
 667              	.LBE208:
 668              	.LBE207:
 669              		.loc 1 302 0
 670 0008 8368     		ldr	r3, [r0, #8]
 671 000a 0133     		adds	r3, r3, #1
 672 000c 002B     		cmp	r3, #0
 673 000e 8360     		str	r3, [r0, #8]
 674 0010 03DD     		ble	.L50
 675              	.LVL43:
 676              	.LBB211:
 677              	.LBB212:
ARM GAS  /tmp/ccvKUrVh.s 			page 13


 678              	.LBB213:
 679              	.LBB214:
 680              	.LBB215:
 681              		.loc 3 546 0
 682 0012 0023     		movs	r3, #0
 683              		.syntax unified
 684              	@ 546 "../../os/ext/CMSIS/include/core_cmFunc.h" 1
 685 0014 83F31188 		MSR basepri, r3
 686              	@ 0 "" 2
 687              		.thumb
 688              		.syntax unified
 689 0018 08BD     		pop	{r3, pc}
 690              	.LVL44:
 691              	.L50:
 692 001a 0346     		mov	r3, r0
 693              	.LVL45:
 694              	.LBE215:
 695              	.LBE214:
 696              	.LBE213:
 697              	.LBE212:
 698              	.LBE211:
 699              	.LBB220:
 700              	.LBB221:
 701              		.loc 2 672 0
 702 001c 0068     		ldr	r0, [r0]
 703              	.LVL46:
 704              		.loc 2 674 0
 705 001e 0268     		ldr	r2, [r0]
 706 0020 1A60     		str	r2, [r3]
 707              	.LBE221:
 708              	.LBE220:
 709              		.loc 1 303 0
 710 0022 0021     		movs	r1, #0
 711              	.LBB223:
 712              	.LBB222:
 713              		.loc 2 675 0
 714 0024 5360     		str	r3, [r2, #4]
 715              	.LBE222:
 716              	.LBE223:
 717              		.loc 1 303 0
 718 0026 FFF7FEFF 		bl	chSchWakeupS
 719              	.LVL47:
 720              	.LBB224:
 721              	.LBB219:
 722              	.LBB218:
 723              	.LBB217:
 724              	.LBB216:
 725              		.loc 3 546 0
 726 002a 0023     		movs	r3, #0
 727              		.syntax unified
 728              	@ 546 "../../os/ext/CMSIS/include/core_cmFunc.h" 1
 729 002c 83F31188 		MSR basepri, r3
 730              	@ 0 "" 2
 731              		.thumb
 732              		.syntax unified
 733 0030 08BD     		pop	{r3, pc}
 734              	.LBE216:
ARM GAS  /tmp/ccvKUrVh.s 			page 14


 735              	.LBE217:
 736              	.LBE218:
 737              	.LBE219:
 738              	.LBE224:
 739              		.cfi_endproc
 740              	.LFE236:
 741              		.size	chSemSignal, .-chSemSignal
 742 0032 00BFAFF3 		.section	.text.chSemSignalI,"ax",%progbits
 742      0080AFF3 
 742      0080AFF3 
 742      0080
 743              		.align	2
 744              		.p2align 4,,15
 745              		.global	chSemSignalI
 746              		.thumb
 747              		.thumb_func
 748              		.type	chSemSignalI, %function
 749              	chSemSignalI:
 750              	.LFB237:
 751              		.loc 1 319 0
 752              		.cfi_startproc
 753              		@ args = 0, pretend = 0, frame = 0
 754              		@ frame_needed = 0, uses_anonymous_args = 0
 755              		@ link register save eliminated.
 756              	.LVL48:
 757              		.loc 1 327 0
 758 0000 8368     		ldr	r3, [r0, #8]
 759 0002 0133     		adds	r3, r3, #1
 760 0004 002B     		cmp	r3, #0
 761 0006 8360     		str	r3, [r0, #8]
 762 0008 00DD     		ble	.L53
 763 000a 7047     		bx	lr
 764              	.L53:
 765              	.LVL49:
 766              	.LBB225:
 767              	.LBB226:
 768              	.LBB227:
 769              		.loc 2 672 0
 770 000c 0368     		ldr	r3, [r0]
 771              	.LVL50:
 772              		.loc 2 674 0
 773 000e 1A68     		ldr	r2, [r3]
 774 0010 0260     		str	r2, [r0]
 775              	.LBE227:
 776              	.LBE226:
 777              		.loc 1 331 0
 778 0012 0021     		movs	r1, #0
 779              	.LBB229:
 780              	.LBB228:
 781              		.loc 2 675 0
 782 0014 5060     		str	r0, [r2, #4]
 783              	.LBE228:
 784              	.LBE229:
 785              		.loc 1 332 0
 786 0016 1846     		mov	r0, r3
 787              	.LVL51:
 788              		.loc 1 331 0
ARM GAS  /tmp/ccvKUrVh.s 			page 15


 789 0018 1962     		str	r1, [r3, #32]
 790              	.LVL52:
 791              		.loc 1 332 0
 792 001a FFF7FEBF 		b	chSchReadyI
 793              	.LVL53:
 794              	.LBE225:
 795              		.cfi_endproc
 796              	.LFE237:
 797              		.size	chSemSignalI, .-chSemSignalI
 798 001e 00BF     		.section	.text.chSemAddCounterI,"ax",%progbits
 799              		.align	2
 800              		.p2align 4,,15
 801              		.global	chSemAddCounterI
 802              		.thumb
 803              		.thumb_func
 804              		.type	chSemAddCounterI, %function
 805              	chSemAddCounterI:
 806              	.LFB238:
 807              		.loc 1 349 0
 808              		.cfi_startproc
 809              		@ args = 0, pretend = 0, frame = 0
 810              		@ frame_needed = 0, uses_anonymous_args = 0
 811              	.LVL54:
 812 0000 70B5     		push	{r4, r5, r6, lr}
 813              		.cfi_def_cfa_offset 16
 814              		.cfi_offset 4, -16
 815              		.cfi_offset 5, -12
 816              		.cfi_offset 6, -8
 817              		.cfi_offset 14, -4
 818              		.loc 1 357 0
 819 0002 0C1E     		subs	r4, r1, #0
 820 0004 12DD     		ble	.L54
 821 0006 0546     		mov	r5, r0
 822              		.loc 1 359 0
 823 0008 0026     		movs	r6, #0
 824 000a 01E0     		b	.L57
 825              	.LVL55:
 826              	.L56:
 827              		.loc 1 357 0
 828 000c 013C     		subs	r4, r4, #1
 829              	.LVL56:
 830 000e 0DD0     		beq	.L54
 831              	.LVL57:
 832              	.L57:
 833              		.loc 1 358 0
 834 0010 AB68     		ldr	r3, [r5, #8]
 835 0012 0133     		adds	r3, r3, #1
 836 0014 002B     		cmp	r3, #0
 837 0016 AB60     		str	r3, [r5, #8]
 838 0018 F8DC     		bgt	.L56
 839              	.LVL58:
 840              	.LBB230:
 841              	.LBB231:
 842              		.loc 2 672 0
 843 001a 2868     		ldr	r0, [r5]
 844              	.LVL59:
 845              		.loc 2 674 0
ARM GAS  /tmp/ccvKUrVh.s 			page 16


 846 001c 0368     		ldr	r3, [r0]
 847 001e 2B60     		str	r3, [r5]
 848              		.loc 2 675 0
 849 0020 5D60     		str	r5, [r3, #4]
 850              	.LBE231:
 851              	.LBE230:
 852              		.loc 1 359 0
 853 0022 FFF7FEFF 		bl	chSchReadyI
 854              	.LVL60:
 855              		.loc 1 357 0
 856 0026 013C     		subs	r4, r4, #1
 857              	.LVL61:
 858              		.loc 1 359 0
 859 0028 0662     		str	r6, [r0, #32]
 860              	.LVL62:
 861              		.loc 1 357 0
 862 002a F1D1     		bne	.L57
 863              	.LVL63:
 864              	.L54:
 865 002c 70BD     		pop	{r4, r5, r6, pc}
 866              		.cfi_endproc
 867              	.LFE238:
 868              		.size	chSemAddCounterI, .-chSemAddCounterI
 869 002e 00BF     		.section	.text.chSemSignalWait,"ax",%progbits
 870              		.align	2
 871              		.p2align 4,,15
 872              		.global	chSemSignalWait
 873              		.thumb
 874              		.thumb_func
 875              		.type	chSemSignalWait, %function
 876              	chSemSignalWait:
 877              	.LFB239:
 878              		.loc 1 378 0
 879              		.cfi_startproc
 880              		@ args = 0, pretend = 0, frame = 8
 881              		@ frame_needed = 0, uses_anonymous_args = 0
 882              	.LVL64:
 883 0000 10B5     		push	{r4, lr}
 884              		.cfi_def_cfa_offset 8
 885              		.cfi_offset 4, -8
 886              		.cfi_offset 14, -4
 887              	.LBB232:
 888              	.LBB233:
 889              	.LBB234:
 890              	.LBB235:
 891              		.loc 3 546 0
 892 0002 2023     		movs	r3, #32
 893              	.LBE235:
 894              	.LBE234:
 895              	.LBE233:
 896              	.LBE232:
 897              		.loc 1 378 0
 898 0004 82B0     		sub	sp, sp, #8
 899              		.cfi_def_cfa_offset 16
 900              	.LBB239:
 901              	.LBB238:
 902              	.LBB237:
ARM GAS  /tmp/ccvKUrVh.s 			page 17


 903              	.LBB236:
 904              		.loc 3 546 0
 905              		.syntax unified
 906              	@ 546 "../../os/ext/CMSIS/include/core_cmFunc.h" 1
 907 0006 83F31188 		MSR basepri, r3
 908              	@ 0 "" 2
 909              		.thumb
 910              		.syntax unified
 911              	.LBE236:
 912              	.LBE237:
 913              	.LBE238:
 914              	.LBE239:
 915              		.loc 1 390 0
 916 000a 8368     		ldr	r3, [r0, #8]
 917 000c 0133     		adds	r3, r3, #1
 918 000e 002B     		cmp	r3, #0
 919 0010 8360     		str	r3, [r0, #8]
 920 0012 1DDD     		ble	.L66
 921              	.LVL65:
 922              	.L62:
 923              		.loc 1 393 0
 924 0014 8B68     		ldr	r3, [r1, #8]
 925 0016 013B     		subs	r3, r3, #1
 926 0018 002B     		cmp	r3, #0
 927 001a 8B60     		str	r3, [r1, #8]
 928 001c 07DB     		blt	.L67
 929              		.loc 1 401 0
 930 001e FFF7FEFF 		bl	chSchRescheduleS
 931              	.LVL66:
 932              		.loc 1 402 0
 933 0022 0020     		movs	r0, #0
 934              	.LVL67:
 935              	.LBB240:
 936              	.LBB241:
 937              	.LBB242:
 938              	.LBB243:
 939              	.LBB244:
 940              		.loc 3 546 0
 941 0024 0023     		movs	r3, #0
 942              		.syntax unified
 943              	@ 546 "../../os/ext/CMSIS/include/core_cmFunc.h" 1
 944 0026 83F31188 		MSR basepri, r3
 945              	@ 0 "" 2
 946              		.thumb
 947              		.syntax unified
 948              	.LBE244:
 949              	.LBE243:
 950              	.LBE242:
 951              	.LBE241:
 952              	.LBE240:
 953              		.loc 1 407 0
 954 002a 02B0     		add	sp, sp, #8
 955              		.cfi_remember_state
 956              		.cfi_def_cfa_offset 8
 957              		@ sp needed
 958 002c 10BD     		pop	{r4, pc}
 959              	.LVL68:
ARM GAS  /tmp/ccvKUrVh.s 			page 18


 960              	.L67:
 961              		.cfi_restore_state
 962              	.LBB249:
 963              		.loc 1 394 0
 964 002e 0E4A     		ldr	r2, .L68
 965              	.LBB250:
 966              	.LBB251:
 967              		.loc 2 666 0
 968 0030 4B68     		ldr	r3, [r1, #4]
 969              	.LBE251:
 970              	.LBE250:
 971              		.loc 1 394 0
 972 0032 9469     		ldr	r4, [r2, #24]
 973              	.LVL69:
 974              		.loc 1 397 0
 975 0034 0520     		movs	r0, #5
 976              	.LBB253:
 977              	.LBB252:
 978              		.loc 2 666 0
 979 0036 84E80A00 		stmia	r4, {r1, r3}
 980              		.loc 2 667 0
 981 003a 1C60     		str	r4, [r3]
 982              		.loc 2 668 0
 983 003c 4C60     		str	r4, [r1, #4]
 984              	.LBE252:
 985              	.LBE253:
 986              		.loc 1 396 0
 987 003e 2162     		str	r1, [r4, #32]
 988              		.loc 1 397 0
 989 0040 FFF7FEFF 		bl	chSchGoSleepS
 990              	.LVL70:
 991              		.loc 1 398 0
 992 0044 206A     		ldr	r0, [r4, #32]
 993              	.LVL71:
 994              	.LBE249:
 995              	.LBB254:
 996              	.LBB248:
 997              	.LBB247:
 998              	.LBB246:
 999              	.LBB245:
 1000              		.loc 3 546 0
 1001 0046 0023     		movs	r3, #0
 1002              		.syntax unified
 1003              	@ 546 "../../os/ext/CMSIS/include/core_cmFunc.h" 1
 1004 0048 83F31188 		MSR basepri, r3
 1005              	@ 0 "" 2
 1006              		.thumb
 1007              		.syntax unified
 1008              	.LBE245:
 1009              	.LBE246:
 1010              	.LBE247:
 1011              	.LBE248:
 1012              	.LBE254:
 1013              		.loc 1 407 0
 1014 004c 02B0     		add	sp, sp, #8
 1015              		.cfi_remember_state
 1016              		.cfi_def_cfa_offset 8
ARM GAS  /tmp/ccvKUrVh.s 			page 19


 1017              		@ sp needed
 1018 004e 10BD     		pop	{r4, pc}
 1019              	.LVL72:
 1020              	.L66:
 1021              		.cfi_restore_state
 1022 0050 0246     		mov	r2, r0
 1023              	.LBB255:
 1024              	.LBB256:
 1025              		.loc 2 672 0
 1026 0052 0068     		ldr	r0, [r0]
 1027              	.LVL73:
 1028 0054 0191     		str	r1, [sp, #4]
 1029              	.LVL74:
 1030              		.loc 2 674 0
 1031 0056 0368     		ldr	r3, [r0]
 1032 0058 1360     		str	r3, [r2]
 1033              		.loc 2 675 0
 1034 005a 5A60     		str	r2, [r3, #4]
 1035              	.LBE256:
 1036              	.LBE255:
 1037              		.loc 1 391 0
 1038 005c FFF7FEFF 		bl	chSchReadyI
 1039              	.LVL75:
 1040 0060 0023     		movs	r3, #0
 1041 0062 0362     		str	r3, [r0, #32]
 1042 0064 0199     		ldr	r1, [sp, #4]
 1043 0066 D5E7     		b	.L62
 1044              	.L69:
 1045              		.align	2
 1046              	.L68:
 1047 0068 00000000 		.word	ch
 1048              		.cfi_endproc
 1049              	.LFE239:
 1050              		.size	chSemSignalWait, .-chSemSignalWait
 1051 006c AFF30080 		.text
 1052              	.Letext0:
 1053              		.file 4 "/usr/arm-none-eabi/include/machine/_default_types.h"
 1054              		.file 5 "/usr/arm-none-eabi/include/stdint.h"
 1055              		.file 6 "../../os/rt/ports/ARMCMx/compilers/GCC/chtypes.h"
 1056              		.file 7 "../../os/rt/include/chsystypes.h"
 1057              		.file 8 "../../os/rt/ports/ARMCMx/chcore.h"
 1058              		.file 9 "../../os/rt/ports/ARMCMx/chcore_v7m.h"
 1059              		.file 10 "../../os/rt/include/chtm.h"
 1060              		.file 11 "../../os/rt/include/chsem.h"
 1061              		.file 12 "../../os/rt/include/chmtx.h"
 1062              		.file 13 "../../os/rt/include/chsys.h"
 1063              		.file 14 "../../os/ext/CMSIS/include/core_cm4.h"