ARM GAS  /tmp/ccvKUrVh.s 			page 1


   1              		.syntax unified
   2              		.cpu cortex-m4
   3              		.eabi_attribute 27, 1
   4              		.eabi_attribute 28, 1
   5              		.fpu fpv4-sp-d16
   6              		.eabi_attribute 20, 1
   7              		.eabi_attribute 21, 1
   8              		.eabi_attribute 23, 3
   9              		.eabi_attribute 24, 1
  10              		.eabi_attribute 25, 1
  11              		.eabi_attribute 26, 1
  12              		.eabi_attribute 30, 2
  13              		.eabi_attribute 34, 1
  14              		.eabi_attribute 18, 4
  15              		.thumb
  16              		.syntax unified
  17              		.file	"chsem.c"
  18              		.text
  19              	.Ltext0:
  20              		.cfi_sections	.debug_frame
  21              		.section	.text.chSemObjectInit,"ax",%progbits
  22              		.align	2
  23              		.p2align 4,,15
  24              		.global	chSemObjectInit
  25              		.thumb
  26              		.thumb_func
  27              		.type	chSemObjectInit, %function
  28              	chSemObjectInit:
  29              	.LFB229:
  30              		.file 1 "../../os/rt/src/chsem.c"
  31              		.loc 1 97 0
  32              		.cfi_startproc
  33              		@ args = 0, pretend = 0, frame = 0
  34              		@ frame_needed = 0, uses_anonymous_args = 0
  35              		@ link register save eliminated.
  36              	.LVL0:
  37              	.LBB92:
  38              	.LBB93:
  39              		.file 2 "../../os/rt/include/chschd.h"
  40              		.loc 2 604 0
  41 0000 0060     		str	r0, [r0]
  42              		.loc 2 605 0
  43 0002 4060     		str	r0, [r0, #4]
  44              	.LBE93:
  45              	.LBE92:
  46              		.loc 1 102 0
  47 0004 8160     		str	r1, [r0, #8]
  48 0006 7047     		bx	lr
  49              		.cfi_endproc
  50              	.LFE229:
  51              		.size	chSemObjectInit, .-chSemObjectInit
  52 0008 AFF30080 		.section	.text.chSemResetI,"ax",%progbits
  52      AFF30080 
  53              		.align	2
  54              		.p2align 4,,15
  55              		.global	chSemResetI
  56              		.thumb
ARM GAS  /tmp/ccvKUrVh.s 			page 2


  57              		.thumb_func
  58              		.type	chSemResetI, %function
  59              	chSemResetI:
  60              	.LFB231:
  61              		.loc 1 147 0
  62              		.cfi_startproc
  63              		@ args = 0, pretend = 0, frame = 0
  64              		@ frame_needed = 0, uses_anonymous_args = 0
  65              	.LVL1:
  66 0000 70B5     		push	{r4, r5, r6, lr}
  67              		.cfi_def_cfa_offset 16
  68              		.cfi_offset 4, -16
  69              		.cfi_offset 5, -12
  70              		.cfi_offset 6, -8
  71              		.cfi_offset 14, -4
  72              		.loc 1 156 0
  73 0002 8568     		ldr	r5, [r0, #8]
  74              	.LVL2:
  75              		.loc 1 157 0
  76 0004 8160     		str	r1, [r0, #8]
  77              		.loc 1 158 0
  78 0006 0135     		adds	r5, r5, #1
  79              	.LVL3:
  80 0008 002D     		cmp	r5, #0
  81 000a 0CDC     		bgt	.L2
  82 000c 0446     		mov	r4, r0
  83              		.loc 1 159 0
  84 000e 6FF00106 		mvn	r6, #1
  85              	.LVL4:
  86              	.L4:
  87              	.LBB94:
  88              	.LBB95:
  89              		.loc 2 681 0
  90 0012 6068     		ldr	r0, [r4, #4]
  91              	.LVL5:
  92              		.loc 2 683 0
  93 0014 4368     		ldr	r3, [r0, #4]
  94 0016 6360     		str	r3, [r4, #4]
  95              		.loc 2 684 0
  96 0018 1C60     		str	r4, [r3]
  97              	.LBE95:
  98              	.LBE94:
  99              		.loc 1 159 0
 100 001a FFF7FEFF 		bl	chSchReadyI
 101              	.LVL6:
 102              		.loc 1 158 0
 103 001e 0135     		adds	r5, r5, #1
 104              	.LVL7:
 105 0020 012D     		cmp	r5, #1
 106              		.loc 1 159 0
 107 0022 0662     		str	r6, [r0, #32]
 108              	.LVL8:
 109              		.loc 1 158 0
 110 0024 F5D1     		bne	.L4
 111              	.LVL9:
 112              	.L2:
 113 0026 70BD     		pop	{r4, r5, r6, pc}
ARM GAS  /tmp/ccvKUrVh.s 			page 3


 114              		.cfi_endproc
 115              	.LFE231:
 116              		.size	chSemResetI, .-chSemResetI
 117 0028 AFF30080 		.section	.text.chSemReset,"ax",%progbits
 117      AFF30080 
 118              		.align	2
 119              		.p2align 4,,15
 120              		.global	chSemReset
 121              		.thumb
 122              		.thumb_func
 123              		.type	chSemReset, %function
 124              	chSemReset:
 125              	.LFB230:
 126              		.loc 1 120 0
 127              		.cfi_startproc
 128              		@ args = 0, pretend = 0, frame = 0
 129              		@ frame_needed = 0, uses_anonymous_args = 0
 130              	.LVL10:
 131 0000 08B5     		push	{r3, lr}
 132              		.cfi_def_cfa_offset 8
 133              		.cfi_offset 3, -8
 134              		.cfi_offset 14, -4
 135              	.LBB96:
 136              	.LBB97:
 137              	.LBB98:
 138              	.LBB99:
 139              		.file 3 "../../os/ext/CMSIS/include/core_cmFunc.h"
 140              		.loc 3 546 0
 141 0002 2023     		movs	r3, #32
 142              		.syntax unified
 143              	@ 546 "../../os/ext/CMSIS/include/core_cmFunc.h" 1
 144 0004 83F31188 		MSR basepri, r3
 145              	@ 0 "" 2
 146              		.thumb
 147              		.syntax unified
 148              	.LBE99:
 149              	.LBE98:
 150              	.LBE97:
 151              	.LBE96:
 152              		.loc 1 123 0
 153 0008 FFF7FEFF 		bl	chSemResetI
 154              	.LVL11:
 155              		.loc 1 124 0
 156 000c FFF7FEFF 		bl	chSchRescheduleS
 157              	.LVL12:
 158              	.LBB100:
 159              	.LBB101:
 160              	.LBB102:
 161              	.LBB103:
 162              	.LBB104:
 163              		.loc 3 546 0
 164 0010 0023     		movs	r3, #0
 165              		.syntax unified
 166              	@ 546 "../../os/ext/CMSIS/include/core_cmFunc.h" 1
 167 0012 83F31188 		MSR basepri, r3
 168              	@ 0 "" 2
 169              		.thumb
ARM GAS  /tmp/ccvKUrVh.s 			page 4


 170              		.syntax unified
 171 0016 08BD     		pop	{r3, pc}
 172              	.LBE104:
 173              	.LBE103:
 174              	.LBE102:
 175              	.LBE101:
 176              	.LBE100:
 177              		.cfi_endproc
 178              	.LFE230:
 179              		.size	chSemReset, .-chSemReset
 180 0018 AFF30080 		.section	.text.chSemWait,"ax",%progbits
 180      AFF30080 
 181              		.align	2
 182              		.p2align 4,,15
 183              		.global	chSemWait
 184              		.thumb
 185              		.thumb_func
 186              		.type	chSemWait, %function
 187              	chSemWait:
 188              	.LFB232:
 189              		.loc 1 175 0
 190              		.cfi_startproc
 191              		@ args = 0, pretend = 0, frame = 0
 192              		@ frame_needed = 0, uses_anonymous_args = 0
 193              	.LVL13:
 194              	.LBB120:
 195              	.LBB121:
 196              	.LBB122:
 197              	.LBB123:
 198              		.loc 3 546 0
 199 0000 2023     		movs	r3, #32
 200              		.syntax unified
 201              	@ 546 "../../os/ext/CMSIS/include/core_cmFunc.h" 1
 202 0002 83F31188 		MSR basepri, r3
 203              	@ 0 "" 2
 204              	.LVL14:
 205              		.thumb
 206              		.syntax unified
 207              	.LBE123:
 208              	.LBE122:
 209              	.LBE121:
 210              	.LBE120:
 211              	.LBB124:
 212              	.LBB125:
 213              		.loc 1 205 0
 214 0006 8368     		ldr	r3, [r0, #8]
 215 0008 013B     		subs	r3, r3, #1
 216 000a 002B     		cmp	r3, #0
 217 000c 8360     		str	r3, [r0, #8]
 218 000e 04DB     		blt	.L16
 219              		.loc 1 213 0
 220 0010 0020     		movs	r0, #0
 221              	.LVL15:
 222              	.LBE125:
 223              	.LBE124:
 224              	.LBB133:
 225              	.LBB134:
ARM GAS  /tmp/ccvKUrVh.s 			page 5


 226              	.LBB135:
 227              	.LBB136:
 228              	.LBB137:
 229              		.loc 3 546 0
 230 0012 0023     		movs	r3, #0
 231              		.syntax unified
 232              	@ 546 "../../os/ext/CMSIS/include/core_cmFunc.h" 1
 233 0014 83F31188 		MSR basepri, r3
 234              	@ 0 "" 2
 235              		.thumb
 236              		.syntax unified
 237              	.LBE137:
 238              	.LBE136:
 239              	.LBE135:
 240              	.LBE134:
 241              	.LBE133:
 242              		.loc 1 183 0
 243 0018 7047     		bx	lr
 244              	.LVL16:
 245              	.L16:
 246              		.loc 1 175 0
 247 001a 10B5     		push	{r4, lr}
 248              		.cfi_def_cfa_offset 8
 249              		.cfi_offset 4, -8
 250              		.cfi_offset 14, -4
 251              	.LBB142:
 252              	.LBB132:
 253              	.LBB126:
 254              	.LBB127:
 255              		.loc 1 206 0
 256 001c 084C     		ldr	r4, .L17
 257 001e A269     		ldr	r2, [r4, #24]
 258 0020 1062     		str	r0, [r2, #32]
 259              	.LBB128:
 260              	.LBB129:
 261              		.loc 2 666 0
 262 0022 4168     		ldr	r1, [r0, #4]
 263 0024 5160     		str	r1, [r2, #4]
 264 0026 0346     		mov	r3, r0
 265              	.LVL17:
 266              		.loc 2 665 0
 267 0028 1060     		str	r0, [r2]
 268              		.loc 2 667 0
 269 002a 0A60     		str	r2, [r1]
 270              	.LBE129:
 271              	.LBE128:
 272              		.loc 1 208 0
 273 002c 0520     		movs	r0, #5
 274              	.LVL18:
 275              	.LBB131:
 276              	.LBB130:
 277              		.loc 2 668 0
 278 002e 5A60     		str	r2, [r3, #4]
 279              	.LBE130:
 280              	.LBE131:
 281              		.loc 1 208 0
 282 0030 FFF7FEFF 		bl	chSchGoSleepS
ARM GAS  /tmp/ccvKUrVh.s 			page 6


 283              	.LVL19:
 284              		.loc 1 210 0
 285 0034 A369     		ldr	r3, [r4, #24]
 286 0036 186A     		ldr	r0, [r3, #32]
 287              	.LVL20:
 288              	.LBE127:
 289              	.LBE126:
 290              	.LBE132:
 291              	.LBE142:
 292              	.LBB143:
 293              	.LBB141:
 294              	.LBB140:
 295              	.LBB139:
 296              	.LBB138:
 297              		.loc 3 546 0
 298 0038 0023     		movs	r3, #0
 299              		.syntax unified
 300              	@ 546 "../../os/ext/CMSIS/include/core_cmFunc.h" 1
 301 003a 83F31188 		MSR basepri, r3
 302              	@ 0 "" 2
 303              		.thumb
 304              		.syntax unified
 305              	.LBE138:
 306              	.LBE139:
 307              	.LBE140:
 308              	.LBE141:
 309              	.LBE143:
 310              		.loc 1 183 0
 311 003e 10BD     		pop	{r4, pc}
 312              	.L18:
 313              		.align	2
 314              	.L17:
 315 0040 00000000 		.word	ch
 316              		.cfi_endproc
 317              	.LFE232:
 318              		.size	chSemWait, .-chSemWait
 319 0044 AFF30080 		.section	.text.chSemWaitS,"ax",%progbits
 319      AFF30080 
 319      AFF30080 
 320              		.align	2
 321              		.p2align 4,,15
 322              		.global	chSemWaitS
 323              		.thumb
 324              		.thumb_func
 325              		.type	chSemWaitS, %function
 326              	chSemWaitS:
 327              	.LFB233:
 328              		.loc 1 197 0
 329              		.cfi_startproc
 330              		@ args = 0, pretend = 0, frame = 0
 331              		@ frame_needed = 0, uses_anonymous_args = 0
 332              	.LVL21:
 333              		.loc 1 205 0
 334 0000 8368     		ldr	r3, [r0, #8]
 335 0002 013B     		subs	r3, r3, #1
 336 0004 002B     		cmp	r3, #0
 337 0006 8360     		str	r3, [r0, #8]
ARM GAS  /tmp/ccvKUrVh.s 			page 7


 338 0008 01DB     		blt	.L24
 339              		.loc 1 213 0
 340 000a 0020     		movs	r0, #0
 341              	.LVL22:
 342 000c 7047     		bx	lr
 343              	.LVL23:
 344              	.L24:
 345              		.loc 1 197 0
 346 000e 10B5     		push	{r4, lr}
 347              		.cfi_def_cfa_offset 8
 348              		.cfi_offset 4, -8
 349              		.cfi_offset 14, -4
 350              	.LBB148:
 351              	.LBB149:
 352              		.loc 1 206 0
 353 0010 074C     		ldr	r4, .L25
 354 0012 A269     		ldr	r2, [r4, #24]
 355 0014 1062     		str	r0, [r2, #32]
 356              	.LBB150:
 357              	.LBB151:
 358              		.loc 2 666 0
 359 0016 4168     		ldr	r1, [r0, #4]
 360 0018 5160     		str	r1, [r2, #4]
 361 001a 0346     		mov	r3, r0
 362              	.LVL24:
 363              		.loc 2 665 0
 364 001c 1060     		str	r0, [r2]
 365              		.loc 2 667 0
 366 001e 0A60     		str	r2, [r1]
 367              	.LBE151:
 368              	.LBE150:
 369              		.loc 1 208 0
 370 0020 0520     		movs	r0, #5
 371              	.LVL25:
 372              	.LBB153:
 373              	.LBB152:
 374              		.loc 2 668 0
 375 0022 5A60     		str	r2, [r3, #4]
 376              	.LBE152:
 377              	.LBE153:
 378              		.loc 1 208 0
 379 0024 FFF7FEFF 		bl	chSchGoSleepS
 380              	.LVL26:
 381              		.loc 1 210 0
 382 0028 A369     		ldr	r3, [r4, #24]
 383 002a 186A     		ldr	r0, [r3, #32]
 384 002c 10BD     		pop	{r4, pc}
 385              	.L26:
 386 002e 00BF     		.align	2
 387              	.L25:
 388 0030 00000000 		.word	ch
 389              	.LBE149:
 390              	.LBE148:
 391              		.cfi_endproc
 392              	.LFE233:
 393              		.size	chSemWaitS, .-chSemWaitS
 394 0034 AFF30080 		.section	.text.chSemWaitTimeout,"ax",%progbits
ARM GAS  /tmp/ccvKUrVh.s 			page 8


 394      AFF30080 
 394      AFF30080 
 395              		.align	2
 396              		.p2align 4,,15
 397              		.global	chSemWaitTimeout
 398              		.thumb
 399              		.thumb_func
 400              		.type	chSemWaitTimeout, %function
 401              	chSemWaitTimeout:
 402              	.LFB234:
 403              		.loc 1 235 0
 404              		.cfi_startproc
 405              		@ args = 0, pretend = 0, frame = 0
 406              		@ frame_needed = 0, uses_anonymous_args = 0
 407              	.LVL27:
 408              	.LBB169:
 409              	.LBB170:
 410              	.LBB171:
 411              	.LBB172:
 412              		.loc 3 546 0
 413 0000 2023     		movs	r3, #32
 414              		.syntax unified
 415              	@ 546 "../../os/ext/CMSIS/include/core_cmFunc.h" 1
 416 0002 83F31188 		MSR basepri, r3
 417              	@ 0 "" 2
 418              	.LVL28:
 419              		.thumb
 420              		.syntax unified
 421              	.LBE172:
 422              	.LBE171:
 423              	.LBE170:
 424              	.LBE169:
 425              	.LBB173:
 426              	.LBB174:
 427              		.loc 1 272 0
 428 0006 8268     		ldr	r2, [r0, #8]
 429 0008 531E     		subs	r3, r2, #1
 430 000a 002B     		cmp	r3, #0
 431 000c 8360     		str	r3, [r0, #8]
 432 000e 04DB     		blt	.L33
 433              		.loc 1 284 0
 434 0010 0020     		movs	r0, #0
 435              	.LVL29:
 436              	.LBE174:
 437              	.LBE173:
 438              	.LBB183:
 439              	.LBB184:
 440              	.LBB185:
 441              	.LBB186:
 442              	.LBB187:
 443              		.loc 3 546 0
 444 0012 0023     		movs	r3, #0
 445              		.syntax unified
 446              	@ 546 "../../os/ext/CMSIS/include/core_cmFunc.h" 1
 447 0014 83F31188 		MSR basepri, r3
 448              	@ 0 "" 2
 449              		.thumb
ARM GAS  /tmp/ccvKUrVh.s 			page 9


 450              		.syntax unified
 451              	.LBE187:
 452              	.LBE186:
 453              	.LBE185:
 454              	.LBE184:
 455              	.LBE183:
 456              		.loc 1 243 0
 457 0018 7047     		bx	lr
 458              	.LVL30:
 459              	.L33:
 460              		.loc 1 235 0
 461 001a 10B5     		push	{r4, lr}
 462              		.cfi_def_cfa_offset 8
 463              		.cfi_offset 4, -8
 464              		.cfi_offset 14, -4
 465              	.LBB192:
 466              	.LBB181:
 467              		.loc 1 273 0
 468 001c 79B1     		cbz	r1, .L34
 469              	.LBB175:
 470              	.LBB176:
 471              		.loc 1 278 0
 472 001e 0A4A     		ldr	r2, .L35
 473 0020 9269     		ldr	r2, [r2, #24]
 474 0022 1062     		str	r0, [r2, #32]
 475              	.LBB177:
 476              	.LBB178:
 477              		.loc 2 666 0
 478 0024 4468     		ldr	r4, [r0, #4]
 479              	.LVL31:
 480 0026 0346     		mov	r3, r0
 481              	.LVL32:
 482 0028 82E81800 		stmia	r2, {r3, r4}
 483              	.LBE178:
 484              	.LBE177:
 485              		.loc 1 281 0
 486 002c 0520     		movs	r0, #5
 487              	.LVL33:
 488              	.LBB180:
 489              	.LBB179:
 490              		.loc 2 667 0
 491 002e 2260     		str	r2, [r4]
 492              		.loc 2 668 0
 493 0030 5A60     		str	r2, [r3, #4]
 494              	.LBE179:
 495              	.LBE180:
 496              		.loc 1 281 0
 497 0032 FFF7FEFF 		bl	chSchGoSleepTimeoutS
 498              	.LVL34:
 499              	.L28:
 500              	.LBE176:
 501              	.LBE175:
 502              	.LBE181:
 503              	.LBE192:
 504              	.LBB193:
 505              	.LBB191:
 506              	.LBB190:
ARM GAS  /tmp/ccvKUrVh.s 			page 10


 507              	.LBB189:
 508              	.LBB188:
 509              		.loc 3 546 0
 510 0036 0023     		movs	r3, #0
 511              		.syntax unified
 512              	@ 546 "../../os/ext/CMSIS/include/core_cmFunc.h" 1
 513 0038 83F31188 		MSR basepri, r3
 514              	@ 0 "" 2
 515              		.thumb
 516              		.syntax unified
 517              	.LBE188:
 518              	.LBE189:
 519              	.LBE190:
 520              	.LBE191:
 521              	.LBE193:
 522              		.loc 1 243 0
 523 003c 10BD     		pop	{r4, pc}
 524              	.LVL35:
 525              	.L34:
 526              	.LBB194:
 527              	.LBB182:
 528              		.loc 1 274 0
 529 003e 8260     		str	r2, [r0, #8]
 530              		.loc 1 276 0
 531 0040 4FF0FF30 		mov	r0, #-1
 532              	.LVL36:
 533 0044 F7E7     		b	.L28
 534              	.L36:
 535 0046 00BF     		.align	2
 536              	.L35:
 537 0048 00000000 		.word	ch
 538              	.LBE182:
 539              	.LBE194:
 540              		.cfi_endproc
 541              	.LFE234:
 542              		.size	chSemWaitTimeout, .-chSemWaitTimeout
 543 004c AFF30080 		.section	.text.chSemWaitTimeoutS,"ax",%progbits
 544              		.align	2
 545              		.p2align 4,,15
 546              		.global	chSemWaitTimeoutS
 547              		.thumb
 548              		.thumb_func
 549              		.type	chSemWaitTimeoutS, %function
 550              	chSemWaitTimeoutS:
 551              	.LFB235:
 552              		.loc 1 264 0
 553              		.cfi_startproc
 554              		@ args = 0, pretend = 0, frame = 0
 555              		@ frame_needed = 0, uses_anonymous_args = 0
 556              		@ link register save eliminated.
 557              	.LVL37:
 558 0000 0346     		mov	r3, r0
 559              		.loc 1 272 0
 560 0002 8068     		ldr	r0, [r0, #8]
 561              	.LVL38:
 562 0004 421E     		subs	r2, r0, #1
 563 0006 002A     		cmp	r2, #0
ARM GAS  /tmp/ccvKUrVh.s 			page 11


 564 0008 9A60     		str	r2, [r3, #8]
 565 000a 01DB     		blt	.L43
 566              		.loc 1 284 0
 567 000c 0020     		movs	r0, #0
 568 000e 7047     		bx	lr
 569              	.L43:
 570              		.loc 1 264 0
 571 0010 10B4     		push	{r4}
 572              		.cfi_def_cfa_offset 4
 573              		.cfi_offset 4, -4
 574              		.loc 1 273 0
 575 0012 61B1     		cbz	r1, .L44
 576              	.LVL39:
 577              	.LBB199:
 578              	.LBB200:
 579              		.loc 1 278 0
 580 0014 094A     		ldr	r2, .L45
 581 0016 9269     		ldr	r2, [r2, #24]
 582 0018 1362     		str	r3, [r2, #32]
 583              	.LVL40:
 584              	.LBB201:
 585              	.LBB202:
 586              		.loc 2 666 0
 587 001a 5C68     		ldr	r4, [r3, #4]
 588              	.LBE202:
 589              	.LBE201:
 590              		.loc 1 281 0
 591 001c 0520     		movs	r0, #5
 592              	.LBB204:
 593              	.LBB203:
 594              		.loc 2 666 0
 595 001e 82E81800 		stmia	r2, {r3, r4}
 596              		.loc 2 667 0
 597 0022 2260     		str	r2, [r4]
 598              		.loc 2 668 0
 599 0024 5A60     		str	r2, [r3, #4]
 600              	.LBE203:
 601              	.LBE204:
 602              	.LBE200:
 603              	.LBE199:
 604              		.loc 1 285 0
 605 0026 5DF8044B 		ldr	r4, [sp], #4
 606              		.cfi_remember_state
 607              		.cfi_restore 4
 608              		.cfi_def_cfa_offset 0
 609              	.LBB206:
 610              	.LBB205:
 611              		.loc 1 281 0
 612 002a FFF7FEBF 		b	chSchGoSleepTimeoutS
 613              	.LVL41:
 614              	.L44:
 615              		.cfi_restore_state
 616              	.LBE205:
 617              	.LBE206:
 618              		.loc 1 274 0
 619 002e 9860     		str	r0, [r3, #8]
 620              		.loc 1 285 0
ARM GAS  /tmp/ccvKUrVh.s 			page 12


 621 0030 5DF8044B 		ldr	r4, [sp], #4
 622              		.cfi_restore 4
 623              		.cfi_def_cfa_offset 0
 624              		.loc 1 276 0
 625 0034 4FF0FF30 		mov	r0, #-1
 626              		.loc 1 285 0
 627 0038 7047     		bx	lr
 628              	.L46:
 629 003a 00BF     		.align	2
 630              	.L45:
 631 003c 00000000 		.word	ch
 632              		.cfi_endproc
 633              	.LFE235:
 634              		.size	chSemWaitTimeoutS, .-chSemWaitTimeoutS
 635              		.section	.text.chSemSignal,"ax",%progbits
 636              		.align	2
 637              		.p2align 4,,15
 638              		.global	chSemSignal
 639              		.thumb
 640              		.thumb_func
 641              		.type	chSemSignal, %function
 642              	chSemSignal:
 643              	.LFB236:
 644              		.loc 1 294 0
 645              		.cfi_startproc
 646              		@ args = 0, pretend = 0, frame = 0
 647              		@ frame_needed = 0, uses_anonymous_args = 0
 648              	.LVL42:
 649 0000 08B5     		push	{r3, lr}
 650              		.cfi_def_cfa_offset 8
 651              		.cfi_offset 3, -8
 652              		.cfi_offset 14, -4
 653              	.LBB207:
 654              	.LBB208:
 655              	.LBB209:
 656              	.LBB210:
 657              		.loc 3 546 0
 658 0002 2023     		movs	r3, #32
 659              		.syntax unified
 660              	@ 546 "../../os/ext/CMSIS/include/core_cmFunc.h" 1
 661 0004 83F31188 		MSR basepri, r3
 662              	@ 0 "" 2
 663              		.thumb
 664              		.syntax unified
 665              	.LBE210:
 666              	.LBE209:
 667              	.LBE208:
 668              	.LBE207:
 669              		.loc 1 302 0
 670 0008 8368     		ldr	r3, [r0, #8]
 671 000a 0133     		adds	r3, r3, #1
 672 000c 002B     		cmp	r3, #0
 673 000e 8360     		str	r3, [r0, #8]
 674 0010 03DD     		ble	.L50
 675              	.LVL43:
 676              	.LBB211:
 677              	.LBB212:
ARM GAS  /tmp/ccvKUrVh.s 			page 13


 678              	.LBB213:
 679              	.LBB214:
 680              	.LBB215:
 681              		.loc 3 546 0
 682 0012 0023     		movs	r3, #0
 683              		.syntax unified
 684              	@ 546 "../../os/ext/CMSIS/include/core_cmFunc.h" 1
 685 0014 83F31188 		MSR basepri, r3
 686              	@ 0 "" 2
 687              		.thumb
 688              		.syntax unified
 689 0018 08BD     		pop	{r3, pc}
 690              	.LVL44:
 691              	.L50:
 692 001a 0346     		mov	r3, r0
 693              	.LVL45:
 694              	.LBE215:
 695              	.LBE214:
 696              	.LBE213:
 697              	.LBE212:
 698              	.LBE211:
 699              	.LBB220:
 700              	.LBB221:
 701              		.loc 2 672 0
 702 001c 0068     		ldr	r0, [r0]
 703              	.LVL46:
 704              		.loc 2 674 0
 705 001e 0268     		ldr	r2, [r0]
 706 0020 1A60     		str	r2, [r3]
 707              	.LBE221:
 708              	.LBE220:
 709              		.loc 1 303 0
 710 0022 0021     		movs	r1, #0
 711              	.LBB223:
 712              	.LBB222:
 713              		.loc 2 675 0
 714 0024 5360     		str	r3, [r2, #4]
 715              	.LBE222:
 716              	.LBE223:
 717              		.loc 1 303 0
 718 0026 FFF7FEFF 		bl	chSchWakeupS
 719              	.LVL47:
 720              	.LBB224:
 721              	.LBB219:
 722              	.LBB218:
 723              	.LBB217:
 724              	.LBB216:
 725              		.loc 3 546 0
 726 002a 0023     		movs	r3, #0
 727              		.syntax unified
 728              	@ 546 "../../os/ext/CMSIS/include/core_cmFunc.h" 1
 729 002c 83F31188 		MSR basepri, r3
 730              	@ 0 "" 2
 731              		.thumb
 732              		.syntax unified
 733 0030 08BD     		pop	{r3, pc}
 734              	.LBE216:
ARM GAS  /tmp/ccvKUrVh.s 			page 14


 735              	.LBE217:
 736              	.LBE218:
 737              	.LBE219:
 738              	.LBE224:
 739              		.cfi_endproc
 740              	.LFE236:
 741              		.size	chSemSignal, .-chSemSignal
 742 0032 00BFAFF3 		.section	.text.chSemSignalI,"ax",%progbits
 742      0080AFF3 
 742      0080AFF3 
 742      0080
 743              		.align	2
 744              		.p2align 4,,15
 745              		.global	chSemSignalI
 746              		.thumb
 747              		.thumb_func
 748              		.type	chSemSignalI, %function
 749              	chSemSignalI:
 750              	.LFB237:
 751              		.loc 1 319 0
 752              		.cfi_startproc
 753              		@ args = 0, pretend = 0, frame = 0
 754              		@ frame_needed = 0, uses_anonymous_args = 0
 755              		@ link register save eliminated.
 756              	.LVL48:
 757              		.loc 1 327 0
 758 0000 8368     		ldr	r3, [r0, #8]
 759 0002 0133     		adds	r3, r3, #1
 760 0004 002B     		cmp	r3, #0
 761 0006 8360     		str	r3, [r0, #8]
 762 0008 00DD     		ble	.L53
 763 000a 7047     		bx	lr
 764              	.L53:
 765              	.LVL49:
 766              	.LBB225:
 767              	.LBB226:
 768              	.LBB227:
 769              		.loc 2 672 0
 770 000c 0368     		ldr	r3, [r0]
 771              	.LVL50:
 772              		.loc 2 674 0
 773 000e 1A68     		ldr	r2, [r3]
 774 0010 0260     		str	r2, [r0]
 775              	.LBE227:
 776              	.LBE226:
 777              		.loc 1 331 0
 778 0012 0021     		movs	r1, #0
 779              	.LBB229:
 780              	.LBB228:
 781              		.loc 2 675 0
 782 0014 5060     		str	r0, [r2, #4]
 783              	.LBE228:
 784              	.LBE229:
 785              		.loc 1 332 0
 786 0016 1846     		mov	r0, r3
 787              	.LVL51:
 788              		.loc 1 331 0
ARM GAS  /tmp/ccvKUrVh.s 			page 15


 789 0018 1962     		str	r1, [r3, #32]
 790              	.LVL52:
 791              		.loc 1 332 0
 792 001a FFF7FEBF 		b	chSchReadyI
 793              	.LVL53:
 794              	.LBE225:
 795              		.cfi_endproc
 796              	.LFE237:
 797              		.size	chSemSignalI, .-chSemSignalI
 798 001e 00BF     		.section	.text.chSemAddCounterI,"ax",%progbits
 799              		.align	2
 800              		.p2align 4,,15
 801              		.global	chSemAddCounterI
 802              		.thumb
 803              		.thumb_func
 804              		.type	chSemAddCounterI, %function
 805              	chSemAddCounterI:
 806              	.LFB238:
 807              		.loc 1 349 0
 808              		.cfi_startproc
 809              		@ args = 0, pretend = 0, frame = 0
 810              		@ frame_needed = 0, uses_anonymous_args = 0
 811              	.LVL54:
 812 0000 70B5     		push	{r4, r5, r6, lr}
 813              		.cfi_def_cfa_offset 16
 814              		.cfi_offset 4, -16
 815              		.cfi_offset 5, -12
 816              		.cfi_offset 6, -8
 817              		.cfi_offset 14, -4
 818              		.loc 1 357 0
 819 0002 0C1E     		subs	r4, r1, #0
 820 0004 12DD     		ble	.L54
 821 0006 0546     		mov	r5, r0
 822              		.loc 1 359 0
 823 0008 0026     		movs	r6, #0
 824 000a 01E0     		b	.L57
 825              	.LVL55:
 826              	.L56:
 827              		.loc 1 357 0
 828 000c 013C     		subs	r4, r4, #1
 829              	.LVL56:
 830 000e 0DD0     		beq	.L54
 831              	.LVL57:
 832              	.L57:
 833              		.loc 1 358 0
 834 0010 AB68     		ldr	r3, [r5, #8]
 835 0012 0133     		adds	r3, r3, #1
 836 0014 002B     		cmp	r3, #0
 837 0016 AB60     		str	r3, [r5, #8]
 838 0018 F8DC     		bgt	.L56
 839              	.LVL58:
 840              	.LBB230:
 841              	.LBB231:
 842              		.loc 2 672 0
 843 001a 2868     		ldr	r0, [r5]
 844              	.LVL59:
 845              		.loc 2 674 0
ARM GAS  /tmp/ccvKUrVh.s 			page 16


 846 001c 0368     		ldr	r3, [r0]
 847 001e 2B60     		str	r3, [r5]
 848              		.loc 2 675 0
 849 0020 5D60     		str	r5, [r3, #4]
 850              	.LBE231:
 851              	.LBE230:
 852              		.loc 1 359 0
 853 0022 FFF7FEFF 		bl	chSchReadyI
 854              	.LVL60:
 855              		.loc 1 357 0
 856 0026 013C     		subs	r4, r4, #1
 857              	.LVL61:
 858              		.loc 1 359 0
 859 0028 0662     		str	r6, [r0, #32]
 860              	.LVL62:
 861              		.loc 1 357 0
 862 002a F1D1     		bne	.L57
 863              	.LVL63:
 864              	.L54:
 865 002c 70BD     		pop	{r4, r5, r6, pc}
 866              		.cfi_endproc
 867              	.LFE238:
 868              		.size	chSemAddCounterI, .-chSemAddCounterI
 869 002e 00BF     		.section	.text.chSemSignalWait,"ax",%progbits
 870              		.align	2
 871              		.p2align 4,,15
 872              		.global	chSemSignalWait
 873              		.thumb
 874              		.thumb_func
 875              		.type	chSemSignalWait, %function
 876              	chSemSignalWait:
 877              	.LFB239:
 878              		.loc 1 378 0
 879              		.cfi_startproc
 880              		@ args = 0, pretend = 0, frame = 8
 881              		@ frame_needed = 0, uses_anonymous_args = 0
 882              	.LVL64:
 883 0000 10B5     		push	{r4, lr}
 884              		.cfi_def_cfa_offset 8
 885              		.cfi_offset 4, -8
 886              		.cfi_offset 14, -4
 887              	.LBB232:
 888              	.LBB233:
 889              	.LBB234:
 890              	.LBB235:
 891              		.loc 3 546 0
 892 0002 2023     		movs	r3, #32
 893              	.LBE235:
 894              	.LBE234:
 895              	.LBE233:
 896              	.LBE232:
 897              		.loc 1 378 0
 898 0004 82B0     		sub	sp, sp, #8
 899              		.cfi_def_cfa_offset 16
 900              	.LBB239:
 901              	.LBB238:
 902              	.LBB237:
ARM GAS  /tmp/ccvKUrVh.s 			page 17


 903              	.LBB236:
 904              		.loc 3 546 0
 905              		.syntax unified
 906              	@ 546 "../../os/ext/CMSIS/include/core_cmFunc.h" 1
 907 0006 83F31188 		MSR basepri, r3
 908              	@ 0 "" 2
 909              		.thumb
 910              		.syntax unified
 911              	.LBE236:
 912              	.LBE237:
 913              	.LBE238:
 914              	.LBE239:
 915              		.loc 1 390 0
 916 000a 8368     		ldr	r3, [r0, #8]
 917 000c 0133     		adds	r3, r3, #1
 918 000e 002B     		cmp	r3, #0
 919 0010 8360     		str	r3, [r0, #8]
 920 0012 1DDD     		ble	.L66
 921              	.LVL65:
 922              	.L62:
 923              		.loc 1 393 0
 924 0014 8B68     		ldr	r3, [r1, #8]
 925 0016 013B     		subs	r3, r3, #1
 926 0018 002B     		cmp	r3, #0
 927 001a 8B60     		str	r3, [r1, #8]
 928 001c 07DB     		blt	.L67
 929              		.loc 1 401 0
 930 001e FFF7FEFF 		bl	chSchRescheduleS
 931              	.LVL66:
 932              		.loc 1 402 0
 933 0022 0020     		movs	r0, #0
 934              	.LVL67:
 935              	.LBB240:
 936              	.LBB241:
 937              	.LBB242:
 938              	.LBB243:
 939              	.LBB244:
 940              		.loc 3 546 0
 941 0024 0023     		movs	r3, #0
 942              		.syntax unified
 943              	@ 546 "../../os/ext/CMSIS/include/core_cmFunc.h" 1
 944 0026 83F31188 		MSR basepri, r3
 945              	@ 0 "" 2
 946              		.thumb
 947              		.syntax unified
 948              	.LBE244:
 949              	.LBE243:
 950              	.LBE242:
 951              	.LBE241:
 952              	.LBE240:
 953              		.loc 1 407 0
 954 002a 02B0     		add	sp, sp, #8
 955              		.cfi_remember_state
 956              		.cfi_def_cfa_offset 8
 957              		@ sp needed
 958 002c 10BD     		pop	{r4, pc}
 959              	.LVL68:
ARM GAS  /tmp/ccvKUrVh.s 			page 18


 960              	.L67:
 961              		.cfi_restore_state
 962              	.LBB249:
 963              		.loc 1 394 0
 964 002e 0E4A     		ldr	r2, .L68
 965              	.LBB250:
 966              	.LBB251:
 967              		.loc 2 666 0
 968 0030 4B68     		ldr	r3, [r1, #4]
 969              	.LBE251:
 970              	.LBE250:
 971              		.loc 1 394 0
 972 0032 9469     		ldr	r4, [r2, #24]
 973              	.LVL69:
 974              		.loc 1 397 0
 975 0034 0520     		movs	r0, #5
 976              	.LBB253:
 977              	.LBB252:
 978              		.loc 2 666 0
 979 0036 84E80A00 		stmia	r4, {r1, r3}
 980              		.loc 2 667 0
 981 003a 1C60     		str	r4, [r3]
 982              		.loc 2 668 0
 983 003c 4C60     		str	r4, [r1, #4]
 984              	.LBE252:
 985              	.LBE253:
 986              		.loc 1 396 0
 987 003e 2162     		str	r1, [r4, #32]
 988              		.loc 1 397 0
 989 0040 FFF7FEFF 		bl	chSchGoSleepS
 990              	.LVL70:
 991              		.loc 1 398 0
 992 0044 206A     		ldr	r0, [r4, #32]
 993              	.LVL71:
 994              	.LBE249:
 995              	.LBB254:
 996              	.LBB248:
 997              	.LBB247:
 998              	.LBB246:
 999              	.LBB245:
 1000              		.loc 3 546 0
 1001 0046 0023     		movs	r3, #0
 1002              		.syntax unified
 1003              	@ 546 "../../os/ext/CMSIS/include/core_cmFunc.h" 1
 1004 0048 83F31188 		MSR basepri, r3
 1005              	@ 0 "" 2
 1006              		.thumb
 1007              		.syntax unified
 1008              	.LBE245:
 1009              	.LBE246:
 1010              	.LBE247:
 1011              	.LBE248:
 1012              	.LBE254:
 1013              		.loc 1 407 0
 1014 004c 02B0     		add	sp, sp, #8
 1015              		.cfi_remember_state
 1016              		.cfi_def_cfa_offset 8
ARM GAS  /tmp/ccvKUrVh.s 			page 19


 1017              		@ sp needed
 1018 004e 10BD     		pop	{r4, pc}
 1019              	.LVL72:
 1020              	.L66:
 1021              		.cfi_restore_state
 1022 0050 0246     		mov	r2, r0
 1023              	.LBB255:
 1024              	.LBB256:
 1025              		.loc 2 672 0
 1026 0052 0068     		ldr	r0, [r0]
 1027              	.LVL73:
 1028 0054 0191     		str	r1, [sp, #4]
 1029              	.LVL74:
 1030              		.loc 2 674 0
 1031 0056 0368     		ldr	r3, [r0]
 1032 0058 1360     		str	r3, [r2]
 1033              		.loc 2 675 0
 1034 005a 5A60     		str	r2, [r3, #4]
 1035              	.LBE256:
 1036              	.LBE255:
 1037              		.loc 1 391 0
 1038 005c FFF7FEFF 		bl	chSchReadyI
 1039              	.LVL75:
 1040 0060 0023     		movs	r3, #0
 1041 0062 0362     		str	r3, [r0, #32]
 1042 0064 0199     		ldr	r1, [sp, #4]
 1043 0066 D5E7     		b	.L62
 1044              	.L69:
 1045              		.align	2
 1046              	.L68:
 1047 0068 00000000 		.word	ch
 1048              		.cfi_endproc
 1049              	.LFE239:
 1050              		.size	chSemSignalWait, .-chSemSignalWait
 1051 006c AFF30080 		.text
 1052              	.Letext0:
 1053              		.file 4 "/usr/arm-none-eabi/include/machine/_default_types.h"
 1054              		.file 5 "/usr/arm-none-eabi/include/stdint.h"
 1055              		.file 6 "../../os/rt/ports/ARMCMx/compilers/GCC/chtypes.h"
 1056              		.file 7 "../../os/rt/include/chsystypes.h"
 1057              		.file 8 "../../os/rt/ports/ARMCMx/chcore.h"
 1058              		.file 9 "../../os/rt/ports/ARMCMx/chcore_v7m.h"
 1059              		.file 10 "../../os/rt/include/chtm.h"
 1060              		.file 11 "../../os/rt/include/chsem.h"
 1061              		.file 12 "../../os/rt/include/chmtx.h"
 1062              		.file 13 "../../os/rt/include/chsys.h"
 1063              		.file 14 "../../os/ext/CMSIS/include/core_cm4.h"
 1064              		.section	.debug_info,"",%progbits
 1065              	.Ldebug_info0:
 1066 0000 9B110000 		.4byte	0x119b
 1067 0004 0400     		.2byte	0x4
 1068 0006 00000000 		.4byte	.Ldebug_abbrev0
 1069 000a 04       		.byte	0x4
 1070 000b 01       		.uleb128 0x1
 1071 000c F4020000 		.4byte	.LASF132
 1072 0010 0C       		.byte	0xc
 1073 0011 94010000 		.4byte	.LASF133
ARM GAS  /tmp/ccvKUrVh.s 			page 20


 1074 0015 1A000000 		.4byte	.LASF134
 1075 0019 70010000 		.4byte	.Ldebug_ranges0+0x170
 1076 001d 00000000 		.4byte	0
 1077 0021 00000000 		.4byte	.Ldebug_line0
 1078 0025 02       		.uleb128 0x2
 1079 0026 04       		.byte	0x4
 1080 0027 05       		.byte	0x5
 1081 0028 696E7400 		.ascii	"int\000"
 1082 002c 03       		.uleb128 0x3
 1083 002d 04       		.byte	0x4
 1084 002e 07       		.byte	0x7
 1085 002f 19020000 		.4byte	.LASF0
 1086 0033 03       		.uleb128 0x3
 1087 0034 08       		.byte	0x8
 1088 0035 05       		.byte	0x5
 1089 0036 14010000 		.4byte	.LASF1
 1090 003a 03       		.uleb128 0x3
 1091 003b 08       		.byte	0x8
 1092 003c 04       		.byte	0x4
 1093 003d 0F040000 		.4byte	.LASF2
 1094 0041 03       		.uleb128 0x3
 1095 0042 01       		.byte	0x1
 1096 0043 06       		.byte	0x6
 1097 0044 22010000 		.4byte	.LASF3
 1098 0048 04       		.uleb128 0x4
 1099 0049 72000000 		.4byte	.LASF7
 1100 004d 04       		.byte	0x4
 1101 004e 1D       		.byte	0x1d
 1102 004f 53000000 		.4byte	0x53
 1103 0053 03       		.uleb128 0x3
 1104 0054 01       		.byte	0x1
 1105 0055 08       		.byte	0x8
 1106 0056 B8040000 		.4byte	.LASF4
 1107 005a 03       		.uleb128 0x3
 1108 005b 02       		.byte	0x2
 1109 005c 05       		.byte	0x5
 1110 005d D0040000 		.4byte	.LASF5
 1111 0061 03       		.uleb128 0x3
 1112 0062 02       		.byte	0x2
 1113 0063 07       		.byte	0x7
 1114 0064 6B020000 		.4byte	.LASF6
 1115 0068 04       		.uleb128 0x4
 1116 0069 C9020000 		.4byte	.LASF8
 1117 006d 04       		.byte	0x4
 1118 006e 3F       		.byte	0x3f
 1119 006f 73000000 		.4byte	0x73
 1120 0073 03       		.uleb128 0x3
 1121 0074 04       		.byte	0x4
 1122 0075 05       		.byte	0x5
 1123 0076 82010000 		.4byte	.LASF9
 1124 007a 04       		.uleb128 0x4
 1125 007b EC050000 		.4byte	.LASF10
 1126 007f 04       		.byte	0x4
 1127 0080 41       		.byte	0x41
 1128 0081 85000000 		.4byte	0x85
 1129 0085 03       		.uleb128 0x3
 1130 0086 04       		.byte	0x4
ARM GAS  /tmp/ccvKUrVh.s 			page 21


 1131 0087 07       		.byte	0x7
 1132 0088 8A050000 		.4byte	.LASF11
 1133 008c 04       		.uleb128 0x4
 1134 008d 6E040000 		.4byte	.LASF12
 1135 0091 04       		.byte	0x4
 1136 0092 5B       		.byte	0x5b
 1137 0093 97000000 		.4byte	0x97
 1138 0097 03       		.uleb128 0x3
 1139 0098 08       		.byte	0x8
 1140 0099 07       		.byte	0x7
 1141 009a 46010000 		.4byte	.LASF13
 1142 009e 04       		.uleb128 0x4
 1143 009f 76060000 		.4byte	.LASF14
 1144 00a3 05       		.byte	0x5
 1145 00a4 15       		.byte	0x15
 1146 00a5 48000000 		.4byte	0x48
 1147 00a9 04       		.uleb128 0x4
 1148 00aa B0040000 		.4byte	.LASF15
 1149 00ae 05       		.byte	0x5
 1150 00af 2C       		.byte	0x2c
 1151 00b0 68000000 		.4byte	0x68
 1152 00b4 04       		.uleb128 0x4
 1153 00b5 56050000 		.4byte	.LASF16
 1154 00b9 05       		.byte	0x5
 1155 00ba 2D       		.byte	0x2d
 1156 00bb 7A000000 		.4byte	0x7a
 1157 00bf 04       		.uleb128 0x4
 1158 00c0 69000000 		.4byte	.LASF17
 1159 00c4 05       		.byte	0x5
 1160 00c5 39       		.byte	0x39
 1161 00c6 8C000000 		.4byte	0x8c
 1162 00ca 05       		.uleb128 0x5
 1163 00cb A9000000 		.4byte	0xa9
 1164 00cf 04       		.uleb128 0x4
 1165 00d0 28060000 		.4byte	.LASF18
 1166 00d4 06       		.byte	0x6
 1167 00d5 45       		.byte	0x45
 1168 00d6 B4000000 		.4byte	0xb4
 1169 00da 04       		.uleb128 0x4
 1170 00db A7020000 		.4byte	.LASF19
 1171 00df 06       		.byte	0x6
 1172 00e0 48       		.byte	0x48
 1173 00e1 9E000000 		.4byte	0x9e
 1174 00e5 04       		.uleb128 0x4
 1175 00e6 8B010000 		.4byte	.LASF20
 1176 00ea 06       		.byte	0x6
 1177 00eb 49       		.byte	0x49
 1178 00ec 9E000000 		.4byte	0x9e
 1179 00f0 04       		.uleb128 0x4
 1180 00f1 79040000 		.4byte	.LASF21
 1181 00f5 06       		.byte	0x6
 1182 00f6 4A       		.byte	0x4a
 1183 00f7 9E000000 		.4byte	0x9e
 1184 00fb 04       		.uleb128 0x4
 1185 00fc 98040000 		.4byte	.LASF22
 1186 0100 06       		.byte	0x6
 1187 0101 4C       		.byte	0x4c
ARM GAS  /tmp/ccvKUrVh.s 			page 22


 1188 0102 B4000000 		.4byte	0xb4
 1189 0106 04       		.uleb128 0x4
 1190 0107 95020000 		.4byte	.LASF23
 1191 010b 06       		.byte	0x6
 1192 010c 4D       		.byte	0x4d
 1193 010d A9000000 		.4byte	0xa9
 1194 0111 04       		.uleb128 0x4
 1195 0112 BD020000 		.4byte	.LASF24
 1196 0116 06       		.byte	0x6
 1197 0117 4F       		.byte	0x4f
 1198 0118 B4000000 		.4byte	0xb4
 1199 011c 04       		.uleb128 0x4
 1200 011d 13020000 		.4byte	.LASF25
 1201 0121 06       		.byte	0x6
 1202 0122 51       		.byte	0x51
 1203 0123 A9000000 		.4byte	0xa9
 1204 0127 04       		.uleb128 0x4
 1205 0128 CE050000 		.4byte	.LASF26
 1206 012c 07       		.byte	0x7
 1207 012d 33       		.byte	0x33
 1208 012e B4000000 		.4byte	0xb4
 1209 0132 04       		.uleb128 0x4
 1210 0133 B3050000 		.4byte	.LASF27
 1211 0137 07       		.byte	0x7
 1212 0138 3F       		.byte	0x3f
 1213 0139 3D010000 		.4byte	0x13d
 1214 013d 06       		.uleb128 0x6
 1215 013e 7E020000 		.4byte	.LASF47
 1216 0142 44       		.byte	0x44
 1217 0143 02       		.byte	0x2
 1218 0144 C2       		.byte	0xc2
 1219 0145 2A020000 		.4byte	0x22a
 1220 0149 07       		.uleb128 0x7
 1221 014a F0040000 		.4byte	.LASF28
 1222 014e 02       		.byte	0x2
 1223 014f C3       		.byte	0xc3
 1224 0150 35020000 		.4byte	0x235
 1225 0154 00       		.byte	0
 1226 0155 07       		.uleb128 0x7
 1227 0156 91040000 		.4byte	.LASF29
 1228 015a 02       		.byte	0x2
 1229 015b C5       		.byte	0xc5
 1230 015c 35020000 		.4byte	0x235
 1231 0160 04       		.byte	0x4
 1232 0161 07       		.uleb128 0x7
 1233 0162 0D010000 		.4byte	.LASF30
 1234 0166 02       		.byte	0x2
 1235 0167 C7       		.byte	0xc7
 1236 0168 FB000000 		.4byte	0xfb
 1237 016c 08       		.byte	0x8
 1238 016d 07       		.uleb128 0x7
 1239 016e CA060000 		.4byte	.LASF31
 1240 0172 02       		.byte	0x2
 1241 0173 C8       		.byte	0xc8
 1242 0174 65040000 		.4byte	0x465
 1243 0178 0C       		.byte	0xc
 1244 0179 07       		.uleb128 0x7
ARM GAS  /tmp/ccvKUrVh.s 			page 23


 1245 017a AC010000 		.4byte	.LASF32
 1246 017e 02       		.byte	0x2
 1247 017f CA       		.byte	0xca
 1248 0180 35020000 		.4byte	0x235
 1249 0184 10       		.byte	0x10
 1250 0185 07       		.uleb128 0x7
 1251 0186 31040000 		.4byte	.LASF33
 1252 018a 02       		.byte	0x2
 1253 018b CB       		.byte	0xcb
 1254 018c 35020000 		.4byte	0x235
 1255 0190 14       		.byte	0x14
 1256 0191 07       		.uleb128 0x7
 1257 0192 85060000 		.4byte	.LASF34
 1258 0196 02       		.byte	0x2
 1259 0197 D2       		.byte	0xd2
 1260 0198 AA060000 		.4byte	0x6aa
 1261 019c 18       		.byte	0x18
 1262 019d 07       		.uleb128 0x7
 1263 019e DA040000 		.4byte	.LASF35
 1264 01a2 02       		.byte	0x2
 1265 01a3 DD       		.byte	0xdd
 1266 01a4 E5000000 		.4byte	0xe5
 1267 01a8 1C       		.byte	0x1c
 1268 01a9 07       		.uleb128 0x7
 1269 01aa F7040000 		.4byte	.LASF36
 1270 01ae 02       		.byte	0x2
 1271 01af E1       		.byte	0xe1
 1272 01b0 DA000000 		.4byte	0xda
 1273 01b4 1D       		.byte	0x1d
 1274 01b5 07       		.uleb128 0x7
 1275 01b6 50060000 		.4byte	.LASF37
 1276 01ba 02       		.byte	0x2
 1277 01bb E6       		.byte	0xe6
 1278 01bc F0000000 		.4byte	0xf0
 1279 01c0 1E       		.byte	0x1e
 1280 01c1 08       		.uleb128 0x8
 1281 01c2 705F7500 		.ascii	"p_u\000"
 1282 01c6 02       		.byte	0x2
 1283 01c7 3101     		.2byte	0x131
 1284 01c9 E5050000 		.4byte	0x5e5
 1285 01cd 20       		.byte	0x20
 1286 01ce 09       		.uleb128 0x9
 1287 01cf D2030000 		.4byte	.LASF38
 1288 01d3 02       		.byte	0x2
 1289 01d4 3601     		.2byte	0x136
 1290 01d6 3B020000 		.4byte	0x23b
 1291 01da 24       		.byte	0x24
 1292 01db 09       		.uleb128 0x9
 1293 01dc 4F020000 		.4byte	.LASF39
 1294 01e0 02       		.byte	0x2
 1295 01e1 3C01     		.2byte	0x13c
 1296 01e3 5F020000 		.4byte	0x25f
 1297 01e7 28       		.byte	0x28
 1298 01e8 09       		.uleb128 0x9
 1299 01e9 BC060000 		.4byte	.LASF40
 1300 01ed 02       		.byte	0x2
 1301 01ee 4001     		.2byte	0x140
ARM GAS  /tmp/ccvKUrVh.s 			page 24


 1302 01f0 06010000 		.4byte	0x106
 1303 01f4 30       		.byte	0x30
 1304 01f5 09       		.uleb128 0x9
 1305 01f6 4B050000 		.4byte	.LASF41
 1306 01fa 02       		.byte	0x2
 1307 01fb 4601     		.2byte	0x146
 1308 01fd 11010000 		.4byte	0x111
 1309 0201 34       		.byte	0x34
 1310 0202 09       		.uleb128 0x9
 1311 0203 C6040000 		.4byte	.LASF42
 1312 0207 02       		.byte	0x2
 1313 0208 4D01     		.2byte	0x14d
 1314 020a A4060000 		.4byte	0x6a4
 1315 020e 38       		.byte	0x38
 1316 020f 09       		.uleb128 0x9
 1317 0210 D8050000 		.4byte	.LASF43
 1318 0214 02       		.byte	0x2
 1319 0215 5101     		.2byte	0x151
 1320 0217 FB000000 		.4byte	0xfb
 1321 021b 3C       		.byte	0x3c
 1322 021c 09       		.uleb128 0x9
 1323 021d 3E010000 		.4byte	.LASF44
 1324 0221 02       		.byte	0x2
 1325 0222 5801     		.2byte	0x158
 1326 0224 12030000 		.4byte	0x312
 1327 0228 40       		.byte	0x40
 1328 0229 00       		.byte	0
 1329 022a 04       		.uleb128 0x4
 1330 022b E5030000 		.4byte	.LASF45
 1331 022f 07       		.byte	0x7
 1332 0230 44       		.byte	0x44
 1333 0231 35020000 		.4byte	0x235
 1334 0235 0A       		.uleb128 0xa
 1335 0236 04       		.byte	0x4
 1336 0237 32010000 		.4byte	0x132
 1337 023b 04       		.uleb128 0x4
 1338 023c 8C060000 		.4byte	.LASF46
 1339 0240 07       		.byte	0x7
 1340 0241 49       		.byte	0x49
 1341 0242 46020000 		.4byte	0x246
 1342 0246 06       		.uleb128 0x6
 1343 0247 7A050000 		.4byte	.LASF48
 1344 024b 04       		.byte	0x4
 1345 024c 02       		.byte	0x2
 1346 024d B0       		.byte	0xb0
 1347 024e 5F020000 		.4byte	0x25f
 1348 0252 07       		.uleb128 0x7
 1349 0253 F0040000 		.4byte	.LASF28
 1350 0257 02       		.byte	0x2
 1351 0258 B1       		.byte	0xb1
 1352 0259 35020000 		.4byte	0x235
 1353 025d 00       		.byte	0
 1354 025e 00       		.byte	0
 1355 025f 04       		.uleb128 0x4
 1356 0260 37060000 		.4byte	.LASF49
 1357 0264 07       		.byte	0x7
 1358 0265 50       		.byte	0x50
ARM GAS  /tmp/ccvKUrVh.s 			page 25


 1359 0266 6A020000 		.4byte	0x26a
 1360 026a 06       		.uleb128 0x6
 1361 026b FC000000 		.4byte	.LASF50
 1362 026f 08       		.byte	0x8
 1363 0270 02       		.byte	0x2
 1364 0271 B7       		.byte	0xb7
 1365 0272 8F020000 		.4byte	0x28f
 1366 0276 07       		.uleb128 0x7
 1367 0277 F0040000 		.4byte	.LASF28
 1368 027b 02       		.byte	0x2
 1369 027c B8       		.byte	0xb8
 1370 027d 35020000 		.4byte	0x235
 1371 0281 00       		.byte	0
 1372 0282 07       		.uleb128 0x7
 1373 0283 91040000 		.4byte	.LASF29
 1374 0287 02       		.byte	0x2
 1375 0288 B9       		.byte	0xb9
 1376 0289 35020000 		.4byte	0x235
 1377 028d 04       		.byte	0x4
 1378 028e 00       		.byte	0
 1379 028f 04       		.uleb128 0x4
 1380 0290 00000000 		.4byte	.LASF51
 1381 0294 07       		.byte	0x7
 1382 0295 57       		.byte	0x57
 1383 0296 9A020000 		.4byte	0x29a
 1384 029a 0B       		.uleb128 0xb
 1385 029b AF020000 		.4byte	.LASF52
 1386 029f 1C       		.byte	0x1c
 1387 02a0 02       		.byte	0x2
 1388 02a1 9001     		.2byte	0x190
 1389 02a3 F6020000 		.4byte	0x2f6
 1390 02a7 09       		.uleb128 0x9
 1391 02a8 66050000 		.4byte	.LASF53
 1392 02ac 02       		.byte	0x2
 1393 02ad 9101     		.2byte	0x191
 1394 02af 5F020000 		.4byte	0x25f
 1395 02b3 00       		.byte	0
 1396 02b4 09       		.uleb128 0x9
 1397 02b5 E2040000 		.4byte	.LASF54
 1398 02b9 02       		.byte	0x2
 1399 02ba 9201     		.2byte	0x192
 1400 02bc FB000000 		.4byte	0xfb
 1401 02c0 08       		.byte	0x8
 1402 02c1 09       		.uleb128 0x9
 1403 02c2 39040000 		.4byte	.LASF55
 1404 02c6 02       		.byte	0x2
 1405 02c7 9401     		.2byte	0x194
 1406 02c9 65040000 		.4byte	0x465
 1407 02cd 0C       		.byte	0xc
 1408 02ce 09       		.uleb128 0x9
 1409 02cf CD010000 		.4byte	.LASF56
 1410 02d3 02       		.byte	0x2
 1411 02d4 9701     		.2byte	0x197
 1412 02d6 35020000 		.4byte	0x235
 1413 02da 10       		.byte	0x10
 1414 02db 09       		.uleb128 0x9
 1415 02dc 66040000 		.4byte	.LASF57
ARM GAS  /tmp/ccvKUrVh.s 			page 26


 1416 02e0 02       		.byte	0x2
 1417 02e1 9801     		.2byte	0x198
 1418 02e3 35020000 		.4byte	0x235
 1419 02e7 14       		.byte	0x14
 1420 02e8 09       		.uleb128 0x9
 1421 02e9 5C040000 		.4byte	.LASF58
 1422 02ed 02       		.byte	0x2
 1423 02ee 9B01     		.2byte	0x19b
 1424 02f0 35020000 		.4byte	0x235
 1425 02f4 18       		.byte	0x18
 1426 02f5 00       		.byte	0
 1427 02f6 04       		.uleb128 0x4
 1428 02f7 E3050000 		.4byte	.LASF59
 1429 02fb 07       		.byte	0x7
 1430 02fc 5C       		.byte	0x5c
 1431 02fd 01030000 		.4byte	0x301
 1432 0301 0A       		.uleb128 0xa
 1433 0302 04       		.byte	0x4
 1434 0303 07030000 		.4byte	0x307
 1435 0307 0C       		.uleb128 0xc
 1436 0308 12030000 		.4byte	0x312
 1437 030c 0D       		.uleb128 0xd
 1438 030d 12030000 		.4byte	0x312
 1439 0311 00       		.byte	0
 1440 0312 0E       		.uleb128 0xe
 1441 0313 04       		.byte	0x4
 1442 0314 04       		.uleb128 0x4
 1443 0315 81040000 		.4byte	.LASF60
 1444 0319 07       		.byte	0x7
 1445 031a 61       		.byte	0x61
 1446 031b 1F030000 		.4byte	0x31f
 1447 031f 0B       		.uleb128 0xb
 1448 0320 1F050000 		.4byte	.LASF61
 1449 0324 14       		.byte	0x14
 1450 0325 02       		.byte	0x2
 1451 0326 6B01     		.2byte	0x16b
 1452 0328 6E030000 		.4byte	0x36e
 1453 032c 09       		.uleb128 0x9
 1454 032d 37020000 		.4byte	.LASF62
 1455 0331 02       		.byte	0x2
 1456 0332 6C01     		.2byte	0x16c
 1457 0334 BC060000 		.4byte	0x6bc
 1458 0338 00       		.byte	0
 1459 0339 09       		.uleb128 0x9
 1460 033a DE010000 		.4byte	.LASF63
 1461 033e 02       		.byte	0x2
 1462 033f 6D01     		.2byte	0x16d
 1463 0341 BC060000 		.4byte	0x6bc
 1464 0345 04       		.byte	0x4
 1465 0346 09       		.uleb128 0x9
 1466 0347 46020000 		.4byte	.LASF64
 1467 034b 02       		.byte	0x2
 1468 034c 6E01     		.2byte	0x16e
 1469 034e 27010000 		.4byte	0x127
 1470 0352 08       		.byte	0x8
 1471 0353 09       		.uleb128 0x9
 1472 0354 D0060000 		.4byte	.LASF65
ARM GAS  /tmp/ccvKUrVh.s 			page 27


 1473 0358 02       		.byte	0x2
 1474 0359 6F01     		.2byte	0x16f
 1475 035b F6020000 		.4byte	0x2f6
 1476 035f 0C       		.byte	0xc
 1477 0360 09       		.uleb128 0x9
 1478 0361 30060000 		.4byte	.LASF66
 1479 0365 02       		.byte	0x2
 1480 0366 7101     		.2byte	0x171
 1481 0368 12030000 		.4byte	0x312
 1482 036c 10       		.byte	0x10
 1483 036d 00       		.byte	0
 1484 036e 04       		.uleb128 0x4
 1485 036f D3020000 		.4byte	.LASF67
 1486 0373 07       		.byte	0x7
 1487 0374 66       		.byte	0x66
 1488 0375 79030000 		.4byte	0x379
 1489 0379 0B       		.uleb128 0xb
 1490 037a F8030000 		.4byte	.LASF68
 1491 037e 10       		.byte	0x10
 1492 037f 02       		.byte	0x2
 1493 0380 7B01     		.2byte	0x17b
 1494 0382 BB030000 		.4byte	0x3bb
 1495 0386 09       		.uleb128 0x9
 1496 0387 37020000 		.4byte	.LASF62
 1497 038b 02       		.byte	0x2
 1498 038c 7C01     		.2byte	0x17c
 1499 038e BC060000 		.4byte	0x6bc
 1500 0392 00       		.byte	0
 1501 0393 09       		.uleb128 0x9
 1502 0394 DE010000 		.4byte	.LASF63
 1503 0398 02       		.byte	0x2
 1504 0399 7E01     		.2byte	0x17e
 1505 039b BC060000 		.4byte	0x6bc
 1506 039f 04       		.byte	0x4
 1507 03a0 09       		.uleb128 0x9
 1508 03a1 46020000 		.4byte	.LASF64
 1509 03a5 02       		.byte	0x2
 1510 03a6 8001     		.2byte	0x180
 1511 03a8 27010000 		.4byte	0x127
 1512 03ac 08       		.byte	0x8
 1513 03ad 09       		.uleb128 0x9
 1514 03ae 1B040000 		.4byte	.LASF69
 1515 03b2 02       		.byte	0x2
 1516 03b3 8801     		.2byte	0x188
 1517 03b5 27010000 		.4byte	0x127
 1518 03b9 0C       		.byte	0xc
 1519 03ba 00       		.byte	0
 1520 03bb 04       		.uleb128 0x4
 1521 03bc 88000000 		.4byte	.LASF70
 1522 03c0 07       		.byte	0x7
 1523 03c1 6B       		.byte	0x6b
 1524 03c2 C6030000 		.4byte	0x3c6
 1525 03c6 0B       		.uleb128 0xb
 1526 03c7 A0040000 		.4byte	.LASF71
 1527 03cb 04       		.byte	0x4
 1528 03cc 02       		.byte	0x2
 1529 03cd A201     		.2byte	0x1a2
ARM GAS  /tmp/ccvKUrVh.s 			page 28


 1530 03cf E1030000 		.4byte	0x3e1
 1531 03d3 09       		.uleb128 0x9
 1532 03d4 0F060000 		.4byte	.LASF72
 1533 03d8 02       		.byte	0x2
 1534 03d9 AA01     		.2byte	0x1aa
 1535 03db C2060000 		.4byte	0x6c2
 1536 03df 00       		.byte	0
 1537 03e0 00       		.byte	0
 1538 03e1 04       		.uleb128 0x4
 1539 03e2 9B020000 		.4byte	.LASF73
 1540 03e6 07       		.byte	0x7
 1541 03e7 70       		.byte	0x70
 1542 03e8 EC030000 		.4byte	0x3ec
 1543 03ec 0F       		.uleb128 0xf
 1544 03ed 78010000 		.4byte	.LASF74
 1545 03f1 D801     		.2byte	0x1d8
 1546 03f3 02       		.byte	0x2
 1547 03f4 C201     		.2byte	0x1c2
 1548 03f6 48040000 		.4byte	0x448
 1549 03fa 09       		.uleb128 0x9
 1550 03fb 70060000 		.4byte	.LASF75
 1551 03ff 02       		.byte	0x2
 1552 0400 C601     		.2byte	0x1c6
 1553 0402 8F020000 		.4byte	0x28f
 1554 0406 00       		.byte	0
 1555 0407 09       		.uleb128 0x9
 1556 0408 65010000 		.4byte	.LASF76
 1557 040c 02       		.byte	0x2
 1558 040d CA01     		.2byte	0x1ca
 1559 040f 6E030000 		.4byte	0x36e
 1560 0413 1C       		.byte	0x1c
 1561 0414 08       		.uleb128 0x8
 1562 0415 64626700 		.ascii	"dbg\000"
 1563 0419 02       		.byte	0x2
 1564 041a CE01     		.2byte	0x1ce
 1565 041c BB030000 		.4byte	0x3bb
 1566 0420 2C       		.byte	0x2c
 1567 0421 09       		.uleb128 0x9
 1568 0422 D3000000 		.4byte	.LASF77
 1569 0426 02       		.byte	0x2
 1570 0427 D201     		.2byte	0x1d2
 1571 0429 32010000 		.4byte	0x132
 1572 042d 30       		.byte	0x30
 1573 042e 08       		.uleb128 0x8
 1574 042f 746D00   		.ascii	"tm\000"
 1575 0432 02       		.byte	0x2
 1576 0433 D701     		.2byte	0x1d7
 1577 0435 DA050000 		.4byte	0x5da
 1578 0439 74       		.byte	0x74
 1579 043a 09       		.uleb128 0x9
 1580 043b F4010000 		.4byte	.LASF78
 1581 043f 02       		.byte	0x2
 1582 0440 E301     		.2byte	0x1e3
 1583 0442 C7060000 		.4byte	0x6c7
 1584 0446 78       		.byte	0x78
 1585 0447 00       		.byte	0
 1586 0448 03       		.uleb128 0x3
ARM GAS  /tmp/ccvKUrVh.s 			page 29


 1587 0449 04       		.byte	0x4
 1588 044a 07       		.byte	0x7
 1589 044b DC030000 		.4byte	.LASF79
 1590 044f 04       		.uleb128 0x4
 1591 0450 D5010000 		.4byte	.LASF80
 1592 0454 08       		.byte	0x8
 1593 0455 65       		.byte	0x65
 1594 0456 12030000 		.4byte	0x312
 1595 045a 04       		.uleb128 0x4
 1596 045b E9020000 		.4byte	.LASF81
 1597 045f 08       		.byte	0x8
 1598 0460 6D       		.byte	0x6d
 1599 0461 BF000000 		.4byte	0xbf
 1600 0465 06       		.uleb128 0x6
 1601 0466 20060000 		.4byte	.LASF82
 1602 046a 04       		.byte	0x4
 1603 046b 08       		.byte	0x8
 1604 046c 89       		.byte	0x89
 1605 046d 7E040000 		.4byte	0x47e
 1606 0471 10       		.uleb128 0x10
 1607 0472 72313300 		.ascii	"r13\000"
 1608 0476 08       		.byte	0x8
 1609 0477 8A       		.byte	0x8a
 1610 0478 BF050000 		.4byte	0x5bf
 1611 047c 00       		.byte	0
 1612 047d 00       		.byte	0
 1613 047e 06       		.uleb128 0x6
 1614 047f 7C000000 		.4byte	.LASF83
 1615 0483 64       		.byte	0x64
 1616 0484 09       		.byte	0x9
 1617 0485 F4       		.byte	0xf4
 1618 0486 BF050000 		.4byte	0x5bf
 1619 048a 10       		.uleb128 0x10
 1620 048b 73313600 		.ascii	"s16\000"
 1621 048f 09       		.byte	0x9
 1622 0490 F6       		.byte	0xf6
 1623 0491 4F040000 		.4byte	0x44f
 1624 0495 00       		.byte	0
 1625 0496 10       		.uleb128 0x10
 1626 0497 73313700 		.ascii	"s17\000"
 1627 049b 09       		.byte	0x9
 1628 049c F7       		.byte	0xf7
 1629 049d 4F040000 		.4byte	0x44f
 1630 04a1 04       		.byte	0x4
 1631 04a2 10       		.uleb128 0x10
 1632 04a3 73313800 		.ascii	"s18\000"
 1633 04a7 09       		.byte	0x9
 1634 04a8 F8       		.byte	0xf8
 1635 04a9 4F040000 		.4byte	0x44f
 1636 04ad 08       		.byte	0x8
 1637 04ae 10       		.uleb128 0x10
 1638 04af 73313900 		.ascii	"s19\000"
 1639 04b3 09       		.byte	0x9
 1640 04b4 F9       		.byte	0xf9
 1641 04b5 4F040000 		.4byte	0x44f
 1642 04b9 0C       		.byte	0xc
 1643 04ba 10       		.uleb128 0x10
ARM GAS  /tmp/ccvKUrVh.s 			page 30


 1644 04bb 73323000 		.ascii	"s20\000"
 1645 04bf 09       		.byte	0x9
 1646 04c0 FA       		.byte	0xfa
 1647 04c1 4F040000 		.4byte	0x44f
 1648 04c5 10       		.byte	0x10
 1649 04c6 10       		.uleb128 0x10
 1650 04c7 73323100 		.ascii	"s21\000"
 1651 04cb 09       		.byte	0x9
 1652 04cc FB       		.byte	0xfb
 1653 04cd 4F040000 		.4byte	0x44f
 1654 04d1 14       		.byte	0x14
 1655 04d2 10       		.uleb128 0x10
 1656 04d3 73323200 		.ascii	"s22\000"
 1657 04d7 09       		.byte	0x9
 1658 04d8 FC       		.byte	0xfc
 1659 04d9 4F040000 		.4byte	0x44f
 1660 04dd 18       		.byte	0x18
 1661 04de 10       		.uleb128 0x10
 1662 04df 73323300 		.ascii	"s23\000"
 1663 04e3 09       		.byte	0x9
 1664 04e4 FD       		.byte	0xfd
 1665 04e5 4F040000 		.4byte	0x44f
 1666 04e9 1C       		.byte	0x1c
 1667 04ea 10       		.uleb128 0x10
 1668 04eb 73323400 		.ascii	"s24\000"
 1669 04ef 09       		.byte	0x9
 1670 04f0 FE       		.byte	0xfe
 1671 04f1 4F040000 		.4byte	0x44f
 1672 04f5 20       		.byte	0x20
 1673 04f6 10       		.uleb128 0x10
 1674 04f7 73323500 		.ascii	"s25\000"
 1675 04fb 09       		.byte	0x9
 1676 04fc FF       		.byte	0xff
 1677 04fd 4F040000 		.4byte	0x44f
 1678 0501 24       		.byte	0x24
 1679 0502 08       		.uleb128 0x8
 1680 0503 73323600 		.ascii	"s26\000"
 1681 0507 09       		.byte	0x9
 1682 0508 0001     		.2byte	0x100
 1683 050a 4F040000 		.4byte	0x44f
 1684 050e 28       		.byte	0x28
 1685 050f 08       		.uleb128 0x8
 1686 0510 73323700 		.ascii	"s27\000"
 1687 0514 09       		.byte	0x9
 1688 0515 0101     		.2byte	0x101
 1689 0517 4F040000 		.4byte	0x44f
 1690 051b 2C       		.byte	0x2c
 1691 051c 08       		.uleb128 0x8
 1692 051d 73323800 		.ascii	"s28\000"
 1693 0521 09       		.byte	0x9
 1694 0522 0201     		.2byte	0x102
 1695 0524 4F040000 		.4byte	0x44f
 1696 0528 30       		.byte	0x30
 1697 0529 08       		.uleb128 0x8
 1698 052a 73323900 		.ascii	"s29\000"
 1699 052e 09       		.byte	0x9
 1700 052f 0301     		.2byte	0x103
ARM GAS  /tmp/ccvKUrVh.s 			page 31


 1701 0531 4F040000 		.4byte	0x44f
 1702 0535 34       		.byte	0x34
 1703 0536 08       		.uleb128 0x8
 1704 0537 73333000 		.ascii	"s30\000"
 1705 053b 09       		.byte	0x9
 1706 053c 0401     		.2byte	0x104
 1707 053e 4F040000 		.4byte	0x44f
 1708 0542 38       		.byte	0x38
 1709 0543 08       		.uleb128 0x8
 1710 0544 73333100 		.ascii	"s31\000"
 1711 0548 09       		.byte	0x9
 1712 0549 0501     		.2byte	0x105
 1713 054b 4F040000 		.4byte	0x44f
 1714 054f 3C       		.byte	0x3c
 1715 0550 08       		.uleb128 0x8
 1716 0551 723400   		.ascii	"r4\000"
 1717 0554 09       		.byte	0x9
 1718 0555 0701     		.2byte	0x107
 1719 0557 4F040000 		.4byte	0x44f
 1720 055b 40       		.byte	0x40
 1721 055c 08       		.uleb128 0x8
 1722 055d 723500   		.ascii	"r5\000"
 1723 0560 09       		.byte	0x9
 1724 0561 0801     		.2byte	0x108
 1725 0563 4F040000 		.4byte	0x44f
 1726 0567 44       		.byte	0x44
 1727 0568 08       		.uleb128 0x8
 1728 0569 723600   		.ascii	"r6\000"
 1729 056c 09       		.byte	0x9
 1730 056d 0901     		.2byte	0x109
 1731 056f 4F040000 		.4byte	0x44f
 1732 0573 48       		.byte	0x48
 1733 0574 08       		.uleb128 0x8
 1734 0575 723700   		.ascii	"r7\000"
 1735 0578 09       		.byte	0x9
 1736 0579 0A01     		.2byte	0x10a
 1737 057b 4F040000 		.4byte	0x44f
 1738 057f 4C       		.byte	0x4c
 1739 0580 08       		.uleb128 0x8
 1740 0581 723800   		.ascii	"r8\000"
 1741 0584 09       		.byte	0x9
 1742 0585 0B01     		.2byte	0x10b
 1743 0587 4F040000 		.4byte	0x44f
 1744 058b 50       		.byte	0x50
 1745 058c 08       		.uleb128 0x8
 1746 058d 723900   		.ascii	"r9\000"
 1747 0590 09       		.byte	0x9
 1748 0591 0C01     		.2byte	0x10c
 1749 0593 4F040000 		.4byte	0x44f
 1750 0597 54       		.byte	0x54
 1751 0598 08       		.uleb128 0x8
 1752 0599 72313000 		.ascii	"r10\000"
 1753 059d 09       		.byte	0x9
 1754 059e 0D01     		.2byte	0x10d
 1755 05a0 4F040000 		.4byte	0x44f
 1756 05a4 58       		.byte	0x58
 1757 05a5 08       		.uleb128 0x8
ARM GAS  /tmp/ccvKUrVh.s 			page 32


 1758 05a6 72313100 		.ascii	"r11\000"
 1759 05aa 09       		.byte	0x9
 1760 05ab 0E01     		.2byte	0x10e
 1761 05ad 4F040000 		.4byte	0x44f
 1762 05b1 5C       		.byte	0x5c
 1763 05b2 08       		.uleb128 0x8
 1764 05b3 6C7200   		.ascii	"lr\000"
 1765 05b6 09       		.byte	0x9
 1766 05b7 0F01     		.2byte	0x10f
 1767 05b9 4F040000 		.4byte	0x44f
 1768 05bd 60       		.byte	0x60
 1769 05be 00       		.byte	0
 1770 05bf 0A       		.uleb128 0xa
 1771 05c0 04       		.byte	0x4
 1772 05c1 7E040000 		.4byte	0x47e
 1773 05c5 11       		.uleb128 0x11
 1774 05c6 04       		.byte	0x4
 1775 05c7 0A       		.byte	0xa
 1776 05c8 38       		.byte	0x38
 1777 05c9 DA050000 		.4byte	0x5da
 1778 05cd 07       		.uleb128 0x7
 1779 05ce 19060000 		.4byte	.LASF84
 1780 05d2 0A       		.byte	0xa
 1781 05d3 3C       		.byte	0x3c
 1782 05d4 CF000000 		.4byte	0xcf
 1783 05d8 00       		.byte	0
 1784 05d9 00       		.byte	0
 1785 05da 04       		.uleb128 0x4
 1786 05db 3F040000 		.4byte	.LASF85
 1787 05df 0A       		.byte	0xa
 1788 05e0 3D       		.byte	0x3d
 1789 05e1 C5050000 		.4byte	0x5c5
 1790 05e5 12       		.uleb128 0x12
 1791 05e6 04       		.byte	0x4
 1792 05e7 02       		.byte	0x2
 1793 05e8 FA       		.byte	0xfa
 1794 05e9 42060000 		.4byte	0x642
 1795 05ed 13       		.uleb128 0x13
 1796 05ee 62000000 		.4byte	.LASF86
 1797 05f2 02       		.byte	0x2
 1798 05f3 0101     		.2byte	0x101
 1799 05f5 06010000 		.4byte	0x106
 1800 05f9 13       		.uleb128 0x13
 1801 05fa CA000000 		.4byte	.LASF87
 1802 05fe 02       		.byte	0x2
 1803 05ff 0801     		.2byte	0x108
 1804 0601 06010000 		.4byte	0x106
 1805 0605 13       		.uleb128 0x13
 1806 0606 7E060000 		.4byte	.LASF88
 1807 060a 02       		.byte	0x2
 1808 060b 0F01     		.2byte	0x10f
 1809 060d 12030000 		.4byte	0x312
 1810 0611 13       		.uleb128 0x13
 1811 0612 5C000000 		.4byte	.LASF89
 1812 0616 02       		.byte	0x2
 1813 0617 1601     		.2byte	0x116
 1814 0619 42060000 		.4byte	0x642
ARM GAS  /tmp/ccvKUrVh.s 			page 33


 1815 061d 13       		.uleb128 0x13
 1816 061e 3F020000 		.4byte	.LASF90
 1817 0622 02       		.byte	0x2
 1818 0623 1E01     		.2byte	0x11e
 1819 0625 6D060000 		.4byte	0x66d
 1820 0629 13       		.uleb128 0x13
 1821 062a 5F050000 		.4byte	.LASF91
 1822 062e 02       		.byte	0x2
 1823 062f 2701     		.2byte	0x127
 1824 0631 A4060000 		.4byte	0x6a4
 1825 0635 13       		.uleb128 0x13
 1826 0636 E9040000 		.4byte	.LASF92
 1827 063a 02       		.byte	0x2
 1828 063b 2F01     		.2byte	0x12f
 1829 063d 11010000 		.4byte	0x111
 1830 0641 00       		.byte	0
 1831 0642 0A       		.uleb128 0xa
 1832 0643 04       		.byte	0x4
 1833 0644 2A020000 		.4byte	0x22a
 1834 0648 06       		.uleb128 0x6
 1835 0649 30050000 		.4byte	.LASF93
 1836 064d 0C       		.byte	0xc
 1837 064e 0B       		.byte	0xb
 1838 064f 34       		.byte	0x34
 1839 0650 6D060000 		.4byte	0x66d
 1840 0654 07       		.uleb128 0x7
 1841 0655 B4010000 		.4byte	.LASF94
 1842 0659 0B       		.byte	0xb
 1843 065a 35       		.byte	0x35
 1844 065b 5F020000 		.4byte	0x25f
 1845 065f 00       		.byte	0
 1846 0660 07       		.uleb128 0x7
 1847 0661 65020000 		.4byte	.LASF95
 1848 0665 0B       		.byte	0xb
 1849 0666 37       		.byte	0x37
 1850 0667 1C010000 		.4byte	0x11c
 1851 066b 08       		.byte	0x8
 1852 066c 00       		.byte	0
 1853 066d 0A       		.uleb128 0xa
 1854 066e 04       		.byte	0x4
 1855 066f 48060000 		.4byte	0x648
 1856 0673 06       		.uleb128 0x6
 1857 0674 47060000 		.4byte	.LASF96
 1858 0678 10       		.byte	0x10
 1859 0679 0C       		.byte	0xc
 1860 067a 39       		.byte	0x39
 1861 067b A4060000 		.4byte	0x6a4
 1862 067f 07       		.uleb128 0x7
 1863 0680 5D010000 		.4byte	.LASF97
 1864 0684 0C       		.byte	0xc
 1865 0685 3A       		.byte	0x3a
 1866 0686 5F020000 		.4byte	0x25f
 1867 068a 00       		.byte	0
 1868 068b 07       		.uleb128 0x7
 1869 068c C2060000 		.4byte	.LASF98
 1870 0690 0C       		.byte	0xc
 1871 0691 3C       		.byte	0x3c
ARM GAS  /tmp/ccvKUrVh.s 			page 34


 1872 0692 35020000 		.4byte	0x235
 1873 0696 08       		.byte	0x8
 1874 0697 07       		.uleb128 0x7
 1875 0698 50040000 		.4byte	.LASF99
 1876 069c 0C       		.byte	0xc
 1877 069d 3E       		.byte	0x3e
 1878 069e ED060000 		.4byte	0x6ed
 1879 06a2 0C       		.byte	0xc
 1880 06a3 00       		.byte	0
 1881 06a4 0A       		.uleb128 0xa
 1882 06a5 04       		.byte	0x4
 1883 06a6 73060000 		.4byte	0x673
 1884 06aa 0A       		.uleb128 0xa
 1885 06ab 04       		.byte	0x4
 1886 06ac B7060000 		.4byte	0x6b7
 1887 06b0 03       		.uleb128 0x3
 1888 06b1 01       		.byte	0x1
 1889 06b2 08       		.byte	0x8
 1890 06b3 9C050000 		.4byte	.LASF100
 1891 06b7 14       		.uleb128 0x14
 1892 06b8 B0060000 		.4byte	0x6b0
 1893 06bc 0A       		.uleb128 0xa
 1894 06bd 04       		.byte	0x4
 1895 06be 14030000 		.4byte	0x314
 1896 06c2 05       		.uleb128 0x5
 1897 06c3 AA060000 		.4byte	0x6aa
 1898 06c7 15       		.uleb128 0x15
 1899 06c8 5A040000 		.4byte	0x45a
 1900 06cc D7060000 		.4byte	0x6d7
 1901 06d0 16       		.uleb128 0x16
 1902 06d1 48040000 		.4byte	0x448
 1903 06d5 2B       		.byte	0x2b
 1904 06d6 00       		.byte	0
 1905 06d7 04       		.uleb128 0x4
 1906 06d8 13050000 		.4byte	.LASF101
 1907 06dc 0B       		.byte	0xb
 1908 06dd 38       		.byte	0x38
 1909 06de 48060000 		.4byte	0x648
 1910 06e2 04       		.uleb128 0x4
 1911 06e3 E6010000 		.4byte	.LASF102
 1912 06e7 0C       		.byte	0xc
 1913 06e8 34       		.byte	0x34
 1914 06e9 73060000 		.4byte	0x673
 1915 06ed 0A       		.uleb128 0xa
 1916 06ee 04       		.byte	0x4
 1917 06ef E2060000 		.4byte	0x6e2
 1918 06f3 17       		.uleb128 0x17
 1919 06f4 F7050000 		.4byte	.LASF105
 1920 06f8 03       		.byte	0x3
 1921 06f9 2002     		.2byte	0x220
 1922 06fb 03       		.byte	0x3
 1923 06fc 0D070000 		.4byte	0x70d
 1924 0700 18       		.uleb128 0x18
 1925 0701 EE010000 		.4byte	.LASF107
 1926 0705 03       		.byte	0x3
 1927 0706 2002     		.2byte	0x220
 1928 0708 B4000000 		.4byte	0xb4
ARM GAS  /tmp/ccvKUrVh.s 			page 35


 1929 070c 00       		.byte	0
 1930 070d 19       		.uleb128 0x19
 1931 070e A2000000 		.4byte	.LASF103
 1932 0712 09       		.byte	0x9
 1933 0713 BC01     		.2byte	0x1bc
 1934 0715 03       		.byte	0x3
 1935 0716 19       		.uleb128 0x19
 1936 0717 6C010000 		.4byte	.LASF104
 1937 071b 09       		.byte	0x9
 1938 071c CA01     		.2byte	0x1ca
 1939 071e 03       		.byte	0x3
 1940 071f 17       		.uleb128 0x17
 1941 0720 97000000 		.4byte	.LASF106
 1942 0724 02       		.byte	0x2
 1943 0725 5A02     		.2byte	0x25a
 1944 0727 03       		.byte	0x3
 1945 0728 39070000 		.4byte	0x739
 1946 072c 1A       		.uleb128 0x1a
 1947 072d 74717000 		.ascii	"tqp\000"
 1948 0731 02       		.byte	0x2
 1949 0732 5A02     		.2byte	0x25a
 1950 0734 39070000 		.4byte	0x739
 1951 0738 00       		.byte	0
 1952 0739 0A       		.uleb128 0xa
 1953 073a 04       		.byte	0x4
 1954 073b 5F020000 		.4byte	0x25f
 1955 073f 1B       		.uleb128 0x1b
 1956 0740 AC000000 		.4byte	.LASF115
 1957 0744 02       		.byte	0x2
 1958 0745 A802     		.2byte	0x2a8
 1959 0747 35020000 		.4byte	0x235
 1960 074b 03       		.byte	0x3
 1961 074c 68070000 		.4byte	0x768
 1962 0750 1A       		.uleb128 0x1a
 1963 0751 74717000 		.ascii	"tqp\000"
 1964 0755 02       		.byte	0x2
 1965 0756 A802     		.2byte	0x2a8
 1966 0758 39070000 		.4byte	0x739
 1967 075c 1C       		.uleb128 0x1c
 1968 075d 747000   		.ascii	"tp\000"
 1969 0760 02       		.byte	0x2
 1970 0761 A902     		.2byte	0x2a9
 1971 0763 35020000 		.4byte	0x235
 1972 0767 00       		.byte	0
 1973 0768 17       		.uleb128 0x17
 1974 0769 B0060000 		.4byte	.LASF108
 1975 076d 0D       		.byte	0xd
 1976 076e 6601     		.2byte	0x166
 1977 0770 03       		.byte	0x3
 1978 0771 83070000 		.4byte	0x783
 1979 0775 1D       		.uleb128 0x1d
 1980 0776 FF040000 		.4byte	.LASF109
 1981 077a 93070000 		.4byte	0x793
 1982 077e B0060000 		.4byte	.LASF108
 1983 0782 00       		.byte	0
 1984 0783 15       		.uleb128 0x15
 1985 0784 B0060000 		.4byte	0x6b0
ARM GAS  /tmp/ccvKUrVh.s 			page 36


 1986 0788 93070000 		.4byte	0x793
 1987 078c 16       		.uleb128 0x16
 1988 078d 48040000 		.4byte	0x448
 1989 0791 0B       		.byte	0xb
 1990 0792 00       		.byte	0
 1991 0793 14       		.uleb128 0x14
 1992 0794 83070000 		.4byte	0x783
 1993 0798 19       		.uleb128 0x19
 1994 0799 27040000 		.4byte	.LASF110
 1995 079d 0D       		.byte	0xd
 1996 079e 5A01     		.2byte	0x15a
 1997 07a0 03       		.byte	0x3
 1998 07a1 17       		.uleb128 0x17
 1999 07a2 0D000000 		.4byte	.LASF111
 2000 07a6 02       		.byte	0x2
 2001 07a7 9702     		.2byte	0x297
 2002 07a9 03       		.byte	0x3
 2003 07aa C6070000 		.4byte	0x7c6
 2004 07ae 1A       		.uleb128 0x1a
 2005 07af 747000   		.ascii	"tp\000"
 2006 07b2 02       		.byte	0x2
 2007 07b3 9702     		.2byte	0x297
 2008 07b5 35020000 		.4byte	0x235
 2009 07b9 1A       		.uleb128 0x1a
 2010 07ba 74717000 		.ascii	"tqp\000"
 2011 07be 02       		.byte	0x2
 2012 07bf 9702     		.2byte	0x297
 2013 07c1 39070000 		.4byte	0x739
 2014 07c5 00       		.byte	0
 2015 07c6 1E       		.uleb128 0x1e
 2016 07c7 08050000 		.4byte	.LASF112
 2017 07cb 01       		.byte	0x1
 2018 07cc C5       		.byte	0xc5
 2019 07cd 06010000 		.4byte	0x106
 2020 07d1 01       		.byte	0x1
 2021 07d2 EE070000 		.4byte	0x7ee
 2022 07d6 1F       		.uleb128 0x1f
 2023 07d7 737000   		.ascii	"sp\000"
 2024 07da 01       		.byte	0x1
 2025 07db C5       		.byte	0xc5
 2026 07dc EE070000 		.4byte	0x7ee
 2027 07e0 1D       		.uleb128 0x1d
 2028 07e1 FF040000 		.4byte	.LASF109
 2029 07e5 04080000 		.4byte	0x804
 2030 07e9 08050000 		.4byte	.LASF112
 2031 07ed 00       		.byte	0
 2032 07ee 0A       		.uleb128 0xa
 2033 07ef 04       		.byte	0x4
 2034 07f0 D7060000 		.4byte	0x6d7
 2035 07f4 15       		.uleb128 0x15
 2036 07f5 B0060000 		.4byte	0x6b0
 2037 07f9 04080000 		.4byte	0x804
 2038 07fd 16       		.uleb128 0x16
 2039 07fe 48040000 		.4byte	0x448
 2040 0802 0A       		.byte	0xa
 2041 0803 00       		.byte	0
 2042 0804 14       		.uleb128 0x14
ARM GAS  /tmp/ccvKUrVh.s 			page 37


 2043 0805 F4070000 		.4byte	0x7f4
 2044 0809 20       		.uleb128 0x20
 2045 080a A1050000 		.4byte	.LASF113
 2046 080e 01       		.byte	0x1
 2047 080f 0801     		.2byte	0x108
 2048 0811 06010000 		.4byte	0x106
 2049 0815 01       		.byte	0x1
 2050 0816 3F080000 		.4byte	0x83f
 2051 081a 1A       		.uleb128 0x1a
 2052 081b 737000   		.ascii	"sp\000"
 2053 081e 01       		.byte	0x1
 2054 081f 0801     		.2byte	0x108
 2055 0821 EE070000 		.4byte	0x7ee
 2056 0825 18       		.uleb128 0x18
 2057 0826 57040000 		.4byte	.LASF114
 2058 082a 01       		.byte	0x1
 2059 082b 0801     		.2byte	0x108
 2060 082d 27010000 		.4byte	0x127
 2061 0831 1D       		.uleb128 0x1d
 2062 0832 FF040000 		.4byte	.LASF109
 2063 0836 4F080000 		.4byte	0x84f
 2064 083a A1050000 		.4byte	.LASF113
 2065 083e 00       		.byte	0
 2066 083f 15       		.uleb128 0x15
 2067 0840 B0060000 		.4byte	0x6b0
 2068 0844 4F080000 		.4byte	0x84f
 2069 0848 16       		.uleb128 0x16
 2070 0849 48040000 		.4byte	0x448
 2071 084d 11       		.byte	0x11
 2072 084e 00       		.byte	0
 2073 084f 14       		.uleb128 0x14
 2074 0850 3F080000 		.4byte	0x83f
 2075 0854 1B       		.uleb128 0x1b
 2076 0855 BC050000 		.4byte	.LASF116
 2077 0859 02       		.byte	0x2
 2078 085a 9F02     		.2byte	0x29f
 2079 085c 35020000 		.4byte	0x235
 2080 0860 03       		.byte	0x3
 2081 0861 7D080000 		.4byte	0x87d
 2082 0865 1A       		.uleb128 0x1a
 2083 0866 74717000 		.ascii	"tqp\000"
 2084 086a 02       		.byte	0x2
 2085 086b 9F02     		.2byte	0x29f
 2086 086d 39070000 		.4byte	0x739
 2087 0871 1C       		.uleb128 0x1c
 2088 0872 747000   		.ascii	"tp\000"
 2089 0875 02       		.byte	0x2
 2090 0876 A002     		.2byte	0x2a0
 2091 0878 35020000 		.4byte	0x235
 2092 087c 00       		.byte	0
 2093 087d 21       		.uleb128 0x21
 2094 087e 03020000 		.4byte	.LASF117
 2095 0882 01       		.byte	0x1
 2096 0883 61       		.byte	0x61
 2097 0884 00000000 		.4byte	.LFB229
 2098 0888 08000000 		.4byte	.LFE229-.LFB229
 2099 088c 01       		.uleb128 0x1
ARM GAS  /tmp/ccvKUrVh.s 			page 38


 2100 088d 9C       		.byte	0x9c
 2101 088e CA080000 		.4byte	0x8ca
 2102 0892 22       		.uleb128 0x22
 2103 0893 737000   		.ascii	"sp\000"
 2104 0896 01       		.byte	0x1
 2105 0897 61       		.byte	0x61
 2106 0898 EE070000 		.4byte	0x7ee
 2107 089c 01       		.uleb128 0x1
 2108 089d 50       		.byte	0x50
 2109 089e 22       		.uleb128 0x22
 2110 089f 6E00     		.ascii	"n\000"
 2111 08a1 01       		.byte	0x1
 2112 08a2 61       		.byte	0x61
 2113 08a3 1C010000 		.4byte	0x11c
 2114 08a7 01       		.uleb128 0x1
 2115 08a8 51       		.byte	0x51
 2116 08a9 23       		.uleb128 0x23
 2117 08aa FF040000 		.4byte	.LASF109
 2118 08ae DA080000 		.4byte	0x8da
 2119 08b2 24       		.uleb128 0x24
 2120 08b3 1F070000 		.4byte	0x71f
 2121 08b7 00000000 		.4byte	.LBB92
 2122 08bb 04000000 		.4byte	.LBE92-.LBB92
 2123 08bf 01       		.byte	0x1
 2124 08c0 65       		.byte	0x65
 2125 08c1 25       		.uleb128 0x25
 2126 08c2 2C070000 		.4byte	0x72c
 2127 08c6 01       		.uleb128 0x1
 2128 08c7 50       		.byte	0x50
 2129 08c8 00       		.byte	0
 2130 08c9 00       		.byte	0
 2131 08ca 15       		.uleb128 0x15
 2132 08cb B0060000 		.4byte	0x6b0
 2133 08cf DA080000 		.4byte	0x8da
 2134 08d3 16       		.uleb128 0x16
 2135 08d4 48040000 		.4byte	0x448
 2136 08d8 0F       		.byte	0xf
 2137 08d9 00       		.byte	0
 2138 08da 14       		.uleb128 0x14
 2139 08db CA080000 		.4byte	0x8ca
 2140 08df 21       		.uleb128 0x21
 2141 08e0 64060000 		.4byte	.LASF118
 2142 08e4 01       		.byte	0x1
 2143 08e5 93       		.byte	0x93
 2144 08e6 00000000 		.4byte	.LFB231
 2145 08ea 28000000 		.4byte	.LFE231-.LFB231
 2146 08ee 01       		.uleb128 0x1
 2147 08ef 9C       		.byte	0x9c
 2148 08f0 61090000 		.4byte	0x961
 2149 08f4 26       		.uleb128 0x26
 2150 08f5 737000   		.ascii	"sp\000"
 2151 08f8 01       		.byte	0x1
 2152 08f9 93       		.byte	0x93
 2153 08fa EE070000 		.4byte	0x7ee
 2154 08fe 00000000 		.4byte	.LLST0
 2155 0902 26       		.uleb128 0x26
 2156 0903 6E00     		.ascii	"n\000"
ARM GAS  /tmp/ccvKUrVh.s 			page 39


 2157 0905 01       		.byte	0x1
 2158 0906 93       		.byte	0x93
 2159 0907 1C010000 		.4byte	0x11c
 2160 090b 2C000000 		.4byte	.LLST1
 2161 090f 27       		.uleb128 0x27
 2162 0910 636E7400 		.ascii	"cnt\000"
 2163 0914 01       		.byte	0x1
 2164 0915 94       		.byte	0x94
 2165 0916 1C010000 		.4byte	0x11c
 2166 091a 4D000000 		.4byte	.LLST2
 2167 091e 23       		.uleb128 0x23
 2168 091f FF040000 		.4byte	.LASF109
 2169 0923 61090000 		.4byte	0x961
 2170 0927 28       		.uleb128 0x28
 2171 0928 3F070000 		.4byte	0x73f
 2172 092c 12000000 		.4byte	.LBB94
 2173 0930 08000000 		.4byte	.LBE94-.LBB94
 2174 0934 01       		.byte	0x1
 2175 0935 9F       		.byte	0x9f
 2176 0936 57090000 		.4byte	0x957
 2177 093a 29       		.uleb128 0x29
 2178 093b 50070000 		.4byte	0x750
 2179 093f 78000000 		.4byte	.LLST3
 2180 0943 2A       		.uleb128 0x2a
 2181 0944 12000000 		.4byte	.LBB95
 2182 0948 08000000 		.4byte	.LBE95-.LBB95
 2183 094c 2B       		.uleb128 0x2b
 2184 094d 5C070000 		.4byte	0x75c
 2185 0951 8B000000 		.4byte	.LLST4
 2186 0955 00       		.byte	0
 2187 0956 00       		.byte	0
 2188 0957 2C       		.uleb128 0x2c
 2189 0958 1E000000 		.4byte	.LVL6
 2190 095c 62110000 		.4byte	0x1162
 2191 0960 00       		.byte	0
 2192 0961 14       		.uleb128 0x14
 2193 0962 83070000 		.4byte	0x783
 2194 0966 21       		.uleb128 0x21
 2195 0967 5A020000 		.4byte	.LASF119
 2196 096b 01       		.byte	0x1
 2197 096c 78       		.byte	0x78
 2198 096d 00000000 		.4byte	.LFB230
 2199 0971 18000000 		.4byte	.LFE230-.LFB230
 2200 0975 01       		.uleb128 0x1
 2201 0976 9C       		.byte	0x9c
 2202 0977 430A0000 		.4byte	0xa43
 2203 097b 26       		.uleb128 0x26
 2204 097c 737000   		.ascii	"sp\000"
 2205 097f 01       		.byte	0x1
 2206 0980 78       		.byte	0x78
 2207 0981 EE070000 		.4byte	0x7ee
 2208 0985 9E000000 		.4byte	.LLST5
 2209 0989 26       		.uleb128 0x26
 2210 098a 6E00     		.ascii	"n\000"
 2211 098c 01       		.byte	0x1
 2212 098d 78       		.byte	0x78
 2213 098e 1C010000 		.4byte	0x11c
ARM GAS  /tmp/ccvKUrVh.s 			page 40


 2214 0992 BF000000 		.4byte	.LLST6
 2215 0996 28       		.uleb128 0x28
 2216 0997 98070000 		.4byte	0x798
 2217 099b 02000000 		.4byte	.LBB96
 2218 099f 06000000 		.4byte	.LBE96-.LBB96
 2219 09a3 01       		.byte	0x1
 2220 09a4 7A       		.byte	0x7a
 2221 09a5 D2090000 		.4byte	0x9d2
 2222 09a9 2D       		.uleb128 0x2d
 2223 09aa 0D070000 		.4byte	0x70d
 2224 09ae 02000000 		.4byte	.LBB97
 2225 09b2 06000000 		.4byte	.LBE97-.LBB97
 2226 09b6 0D       		.byte	0xd
 2227 09b7 5C01     		.2byte	0x15c
 2228 09b9 2D       		.uleb128 0x2d
 2229 09ba F3060000 		.4byte	0x6f3
 2230 09be 02000000 		.4byte	.LBB98
 2231 09c2 06000000 		.4byte	.LBE98-.LBB98
 2232 09c6 09       		.byte	0x9
 2233 09c7 BF01     		.2byte	0x1bf
 2234 09c9 2E       		.uleb128 0x2e
 2235 09ca 00070000 		.4byte	0x700
 2236 09ce 20       		.byte	0x20
 2237 09cf 00       		.byte	0
 2238 09d0 00       		.byte	0
 2239 09d1 00       		.byte	0
 2240 09d2 28       		.uleb128 0x28
 2241 09d3 68070000 		.4byte	0x768
 2242 09d7 10000000 		.4byte	.LBB100
 2243 09db 08000000 		.4byte	.LBE100-.LBB100
 2244 09df 01       		.byte	0x1
 2245 09e0 7D       		.byte	0x7d
 2246 09e1 1D0A0000 		.4byte	0xa1d
 2247 09e5 2A       		.uleb128 0x2a
 2248 09e6 10000000 		.4byte	.LBB101
 2249 09ea 08000000 		.4byte	.LBE101-.LBB101
 2250 09ee 2F       		.uleb128 0x2f
 2251 09ef 75070000 		.4byte	0x775
 2252 09f3 2D       		.uleb128 0x2d
 2253 09f4 16070000 		.4byte	0x716
 2254 09f8 10000000 		.4byte	.LBB102
 2255 09fc 08000000 		.4byte	.LBE102-.LBB102
 2256 0a00 0D       		.byte	0xd
 2257 0a01 7301     		.2byte	0x173
 2258 0a03 2D       		.uleb128 0x2d
 2259 0a04 F3060000 		.4byte	0x6f3
 2260 0a08 10000000 		.4byte	.LBB103
 2261 0a0c 08000000 		.4byte	.LBE103-.LBB103
 2262 0a10 09       		.byte	0x9
 2263 0a11 CD01     		.2byte	0x1cd
 2264 0a13 2E       		.uleb128 0x2e
 2265 0a14 00070000 		.4byte	0x700
 2266 0a18 00       		.byte	0
 2267 0a19 00       		.byte	0
 2268 0a1a 00       		.byte	0
 2269 0a1b 00       		.byte	0
 2270 0a1c 00       		.byte	0
ARM GAS  /tmp/ccvKUrVh.s 			page 41


 2271 0a1d 30       		.uleb128 0x30
 2272 0a1e 0C000000 		.4byte	.LVL11
 2273 0a22 DF080000 		.4byte	0x8df
 2274 0a26 390A0000 		.4byte	0xa39
 2275 0a2a 31       		.uleb128 0x31
 2276 0a2b 01       		.uleb128 0x1
 2277 0a2c 50       		.byte	0x50
 2278 0a2d 03       		.uleb128 0x3
 2279 0a2e F3       		.byte	0xf3
 2280 0a2f 01       		.uleb128 0x1
 2281 0a30 50       		.byte	0x50
 2282 0a31 31       		.uleb128 0x31
 2283 0a32 01       		.uleb128 0x1
 2284 0a33 51       		.byte	0x51
 2285 0a34 03       		.uleb128 0x3
 2286 0a35 F3       		.byte	0xf3
 2287 0a36 01       		.uleb128 0x1
 2288 0a37 51       		.byte	0x51
 2289 0a38 00       		.byte	0
 2290 0a39 2C       		.uleb128 0x2c
 2291 0a3a 10000000 		.4byte	.LVL12
 2292 0a3e 6E110000 		.4byte	0x116e
 2293 0a42 00       		.byte	0
 2294 0a43 32       		.uleb128 0x32
 2295 0a44 05060000 		.4byte	.LASF120
 2296 0a48 01       		.byte	0x1
 2297 0a49 AF       		.byte	0xaf
 2298 0a4a 06010000 		.4byte	0x106
 2299 0a4e 00000000 		.4byte	.LFB232
 2300 0a52 44000000 		.4byte	.LFE232-.LFB232
 2301 0a56 01       		.uleb128 0x1
 2302 0a57 9C       		.byte	0x9c
 2303 0a58 770B0000 		.4byte	0xb77
 2304 0a5c 26       		.uleb128 0x26
 2305 0a5d 737000   		.ascii	"sp\000"
 2306 0a60 01       		.byte	0x1
 2307 0a61 AF       		.byte	0xaf
 2308 0a62 EE070000 		.4byte	0x7ee
 2309 0a66 E0000000 		.4byte	.LLST7
 2310 0a6a 33       		.uleb128 0x33
 2311 0a6b 6D736700 		.ascii	"msg\000"
 2312 0a6f 01       		.byte	0x1
 2313 0a70 B0       		.byte	0xb0
 2314 0a71 06010000 		.4byte	0x106
 2315 0a75 28       		.uleb128 0x28
 2316 0a76 98070000 		.4byte	0x798
 2317 0a7a 00000000 		.4byte	.LBB120
 2318 0a7e 06000000 		.4byte	.LBE120-.LBB120
 2319 0a82 01       		.byte	0x1
 2320 0a83 B2       		.byte	0xb2
 2321 0a84 B10A0000 		.4byte	0xab1
 2322 0a88 2D       		.uleb128 0x2d
 2323 0a89 0D070000 		.4byte	0x70d
 2324 0a8d 00000000 		.4byte	.LBB121
 2325 0a91 06000000 		.4byte	.LBE121-.LBB121
 2326 0a95 0D       		.byte	0xd
 2327 0a96 5C01     		.2byte	0x15c
ARM GAS  /tmp/ccvKUrVh.s 			page 42


 2328 0a98 2D       		.uleb128 0x2d
 2329 0a99 F3060000 		.4byte	0x6f3
 2330 0a9d 00000000 		.4byte	.LBB122
 2331 0aa1 06000000 		.4byte	.LBE122-.LBB122
 2332 0aa5 09       		.byte	0x9
 2333 0aa6 BF01     		.2byte	0x1bf
 2334 0aa8 2E       		.uleb128 0x2e
 2335 0aa9 00070000 		.4byte	0x700
 2336 0aad 20       		.byte	0x20
 2337 0aae 00       		.byte	0
 2338 0aaf 00       		.byte	0
 2339 0ab0 00       		.byte	0
 2340 0ab1 34       		.uleb128 0x34
 2341 0ab2 C6070000 		.4byte	0x7c6
 2342 0ab6 06000000 		.4byte	.LBB124
 2343 0aba 00000000 		.4byte	.Ldebug_ranges0+0
 2344 0abe 01       		.byte	0x1
 2345 0abf B3       		.byte	0xb3
 2346 0ac0 300B0000 		.4byte	0xb30
 2347 0ac4 29       		.uleb128 0x29
 2348 0ac5 D6070000 		.4byte	0x7d6
 2349 0ac9 25010000 		.4byte	.LLST8
 2350 0acd 35       		.uleb128 0x35
 2351 0ace 00000000 		.4byte	.Ldebug_ranges0+0
 2352 0ad2 2F       		.uleb128 0x2f
 2353 0ad3 E0070000 		.4byte	0x7e0
 2354 0ad7 2A       		.uleb128 0x2a
 2355 0ad8 1C000000 		.4byte	.LBB126
 2356 0adc 1C000000 		.4byte	.LBE126-.LBB126
 2357 0ae0 29       		.uleb128 0x29
 2358 0ae1 D6070000 		.4byte	0x7d6
 2359 0ae5 6A010000 		.4byte	.LLST9
 2360 0ae9 2A       		.uleb128 0x2a
 2361 0aea 1C000000 		.4byte	.LBB127
 2362 0aee 1C000000 		.4byte	.LBE127-.LBB127
 2363 0af2 2F       		.uleb128 0x2f
 2364 0af3 E0070000 		.4byte	0x7e0
 2365 0af7 34       		.uleb128 0x34
 2366 0af8 A1070000 		.4byte	0x7a1
 2367 0afc 22000000 		.4byte	.LBB128
 2368 0b00 18000000 		.4byte	.Ldebug_ranges0+0x18
 2369 0b04 01       		.byte	0x1
 2370 0b05 CF       		.byte	0xcf
 2371 0b06 1D0B0000 		.4byte	0xb1d
 2372 0b0a 29       		.uleb128 0x29
 2373 0b0b B9070000 		.4byte	0x7b9
 2374 0b0f 8B010000 		.4byte	.LLST10
 2375 0b13 29       		.uleb128 0x29
 2376 0b14 AE070000 		.4byte	0x7ae
 2377 0b18 AC010000 		.4byte	.LLST11
 2378 0b1c 00       		.byte	0
 2379 0b1d 36       		.uleb128 0x36
 2380 0b1e 34000000 		.4byte	.LVL19
 2381 0b22 7A110000 		.4byte	0x117a
 2382 0b26 31       		.uleb128 0x31
 2383 0b27 01       		.uleb128 0x1
 2384 0b28 50       		.byte	0x50
ARM GAS  /tmp/ccvKUrVh.s 			page 43


 2385 0b29 01       		.uleb128 0x1
 2386 0b2a 35       		.byte	0x35
 2387 0b2b 00       		.byte	0
 2388 0b2c 00       		.byte	0
 2389 0b2d 00       		.byte	0
 2390 0b2e 00       		.byte	0
 2391 0b2f 00       		.byte	0
 2392 0b30 37       		.uleb128 0x37
 2393 0b31 68070000 		.4byte	0x768
 2394 0b35 12000000 		.4byte	.LBB133
 2395 0b39 30000000 		.4byte	.Ldebug_ranges0+0x30
 2396 0b3d 01       		.byte	0x1
 2397 0b3e B4       		.byte	0xb4
 2398 0b3f 35       		.uleb128 0x35
 2399 0b40 30000000 		.4byte	.Ldebug_ranges0+0x30
 2400 0b44 2F       		.uleb128 0x2f
 2401 0b45 75070000 		.4byte	0x775
 2402 0b49 38       		.uleb128 0x38
 2403 0b4a 16070000 		.4byte	0x716
 2404 0b4e 12000000 		.4byte	.LBB135
 2405 0b52 30000000 		.4byte	.Ldebug_ranges0+0x30
 2406 0b56 0D       		.byte	0xd
 2407 0b57 7301     		.2byte	0x173
 2408 0b59 38       		.uleb128 0x38
 2409 0b5a F3060000 		.4byte	0x6f3
 2410 0b5e 12000000 		.4byte	.LBB136
 2411 0b62 30000000 		.4byte	.Ldebug_ranges0+0x30
 2412 0b66 09       		.byte	0x9
 2413 0b67 CD01     		.2byte	0x1cd
 2414 0b69 29       		.uleb128 0x29
 2415 0b6a 00070000 		.4byte	0x700
 2416 0b6e BF010000 		.4byte	.LLST12
 2417 0b72 00       		.byte	0
 2418 0b73 00       		.byte	0
 2419 0b74 00       		.byte	0
 2420 0b75 00       		.byte	0
 2421 0b76 00       		.byte	0
 2422 0b77 39       		.uleb128 0x39
 2423 0b78 C6070000 		.4byte	0x7c6
 2424 0b7c 00000000 		.4byte	.LFB233
 2425 0b80 34000000 		.4byte	.LFE233-.LFB233
 2426 0b84 01       		.uleb128 0x1
 2427 0b85 9C       		.byte	0x9c
 2428 0b86 F00B0000 		.4byte	0xbf0
 2429 0b8a 29       		.uleb128 0x29
 2430 0b8b D6070000 		.4byte	0x7d6
 2431 0b8f DF010000 		.4byte	.LLST13
 2432 0b93 2F       		.uleb128 0x2f
 2433 0b94 E0070000 		.4byte	0x7e0
 2434 0b98 2A       		.uleb128 0x2a
 2435 0b99 10000000 		.4byte	.LBB148
 2436 0b9d 24000000 		.4byte	.LBE148-.LBB148
 2437 0ba1 29       		.uleb128 0x29
 2438 0ba2 D6070000 		.4byte	0x7d6
 2439 0ba6 24020000 		.4byte	.LLST14
 2440 0baa 2A       		.uleb128 0x2a
 2441 0bab 10000000 		.4byte	.LBB149
ARM GAS  /tmp/ccvKUrVh.s 			page 44


 2442 0baf 24000000 		.4byte	.LBE149-.LBB149
 2443 0bb3 2F       		.uleb128 0x2f
 2444 0bb4 E0070000 		.4byte	0x7e0
 2445 0bb8 34       		.uleb128 0x34
 2446 0bb9 A1070000 		.4byte	0x7a1
 2447 0bbd 16000000 		.4byte	.LBB150
 2448 0bc1 48000000 		.4byte	.Ldebug_ranges0+0x48
 2449 0bc5 01       		.byte	0x1
 2450 0bc6 CF       		.byte	0xcf
 2451 0bc7 DE0B0000 		.4byte	0xbde
 2452 0bcb 29       		.uleb128 0x29
 2453 0bcc B9070000 		.4byte	0x7b9
 2454 0bd0 45020000 		.4byte	.LLST15
 2455 0bd4 29       		.uleb128 0x29
 2456 0bd5 AE070000 		.4byte	0x7ae
 2457 0bd9 66020000 		.4byte	.LLST16
 2458 0bdd 00       		.byte	0
 2459 0bde 36       		.uleb128 0x36
 2460 0bdf 28000000 		.4byte	.LVL26
 2461 0be3 7A110000 		.4byte	0x117a
 2462 0be7 31       		.uleb128 0x31
 2463 0be8 01       		.uleb128 0x1
 2464 0be9 50       		.byte	0x50
 2465 0bea 01       		.uleb128 0x1
 2466 0beb 35       		.byte	0x35
 2467 0bec 00       		.byte	0
 2468 0bed 00       		.byte	0
 2469 0bee 00       		.byte	0
 2470 0bef 00       		.byte	0
 2471 0bf0 32       		.uleb128 0x32
 2472 0bf1 26020000 		.4byte	.LASF121
 2473 0bf5 01       		.byte	0x1
 2474 0bf6 EB       		.byte	0xeb
 2475 0bf7 06010000 		.4byte	0x106
 2476 0bfb 00000000 		.4byte	.LFB234
 2477 0bff 4C000000 		.4byte	.LFE234-.LFB234
 2478 0c03 01       		.uleb128 0x1
 2479 0c04 9C       		.byte	0x9c
 2480 0c05 420D0000 		.4byte	0xd42
 2481 0c09 26       		.uleb128 0x26
 2482 0c0a 737000   		.ascii	"sp\000"
 2483 0c0d 01       		.byte	0x1
 2484 0c0e EB       		.byte	0xeb
 2485 0c0f EE070000 		.4byte	0x7ee
 2486 0c13 79020000 		.4byte	.LLST17
 2487 0c17 3A       		.uleb128 0x3a
 2488 0c18 57040000 		.4byte	.LASF114
 2489 0c1c 01       		.byte	0x1
 2490 0c1d EB       		.byte	0xeb
 2491 0c1e 27010000 		.4byte	0x127
 2492 0c22 D7020000 		.4byte	.LLST18
 2493 0c26 33       		.uleb128 0x33
 2494 0c27 6D736700 		.ascii	"msg\000"
 2495 0c2b 01       		.byte	0x1
 2496 0c2c EC       		.byte	0xec
 2497 0c2d 06010000 		.4byte	0x106
 2498 0c31 28       		.uleb128 0x28
ARM GAS  /tmp/ccvKUrVh.s 			page 45


 2499 0c32 98070000 		.4byte	0x798
 2500 0c36 00000000 		.4byte	.LBB169
 2501 0c3a 06000000 		.4byte	.LBE169-.LBB169
 2502 0c3e 01       		.byte	0x1
 2503 0c3f EE       		.byte	0xee
 2504 0c40 6D0C0000 		.4byte	0xc6d
 2505 0c44 2D       		.uleb128 0x2d
 2506 0c45 0D070000 		.4byte	0x70d
 2507 0c49 00000000 		.4byte	.LBB170
 2508 0c4d 06000000 		.4byte	.LBE170-.LBB170
 2509 0c51 0D       		.byte	0xd
 2510 0c52 5C01     		.2byte	0x15c
 2511 0c54 2D       		.uleb128 0x2d
 2512 0c55 F3060000 		.4byte	0x6f3
 2513 0c59 00000000 		.4byte	.LBB171
 2514 0c5d 06000000 		.4byte	.LBE171-.LBB171
 2515 0c61 09       		.byte	0x9
 2516 0c62 BF01     		.2byte	0x1bf
 2517 0c64 2E       		.uleb128 0x2e
 2518 0c65 00070000 		.4byte	0x700
 2519 0c69 20       		.byte	0x20
 2520 0c6a 00       		.byte	0
 2521 0c6b 00       		.byte	0
 2522 0c6c 00       		.byte	0
 2523 0c6d 34       		.uleb128 0x34
 2524 0c6e 09080000 		.4byte	0x809
 2525 0c72 06000000 		.4byte	.LBB173
 2526 0c76 60000000 		.4byte	.Ldebug_ranges0+0x60
 2527 0c7a 01       		.byte	0x1
 2528 0c7b EF       		.byte	0xef
 2529 0c7c FB0C0000 		.4byte	0xcfb
 2530 0c80 29       		.uleb128 0x29
 2531 0c81 25080000 		.4byte	0x825
 2532 0c85 03030000 		.4byte	.LLST19
 2533 0c89 29       		.uleb128 0x29
 2534 0c8a 1A080000 		.4byte	0x81a
 2535 0c8e 21030000 		.4byte	.LLST20
 2536 0c92 35       		.uleb128 0x35
 2537 0c93 60000000 		.4byte	.Ldebug_ranges0+0x60
 2538 0c97 2F       		.uleb128 0x2f
 2539 0c98 31080000 		.4byte	0x831
 2540 0c9c 2A       		.uleb128 0x2a
 2541 0c9d 1E000000 		.4byte	.LBB175
 2542 0ca1 18000000 		.4byte	.LBE175-.LBB175
 2543 0ca5 3B       		.uleb128 0x3b
 2544 0ca6 25080000 		.4byte	0x825
 2545 0caa 29       		.uleb128 0x29
 2546 0cab 1A080000 		.4byte	0x81a
 2547 0caf 7F030000 		.4byte	.LLST21
 2548 0cb3 2A       		.uleb128 0x2a
 2549 0cb4 1E000000 		.4byte	.LBB176
 2550 0cb8 18000000 		.4byte	.LBE176-.LBB176
 2551 0cbc 2F       		.uleb128 0x2f
 2552 0cbd 31080000 		.4byte	0x831
 2553 0cc1 3C       		.uleb128 0x3c
 2554 0cc2 A1070000 		.4byte	0x7a1
 2555 0cc6 24000000 		.4byte	.LBB177
ARM GAS  /tmp/ccvKUrVh.s 			page 46


 2556 0cca 80000000 		.4byte	.Ldebug_ranges0+0x80
 2557 0cce 01       		.byte	0x1
 2558 0ccf 1701     		.2byte	0x117
 2559 0cd1 E80C0000 		.4byte	0xce8
 2560 0cd5 29       		.uleb128 0x29
 2561 0cd6 B9070000 		.4byte	0x7b9
 2562 0cda A0030000 		.4byte	.LLST22
 2563 0cde 29       		.uleb128 0x29
 2564 0cdf AE070000 		.4byte	0x7ae
 2565 0ce3 C1030000 		.4byte	.LLST23
 2566 0ce7 00       		.byte	0
 2567 0ce8 36       		.uleb128 0x36
 2568 0ce9 36000000 		.4byte	.LVL34
 2569 0ced 86110000 		.4byte	0x1186
 2570 0cf1 31       		.uleb128 0x31
 2571 0cf2 01       		.uleb128 0x1
 2572 0cf3 50       		.byte	0x50
 2573 0cf4 01       		.uleb128 0x1
 2574 0cf5 35       		.byte	0x35
 2575 0cf6 00       		.byte	0
 2576 0cf7 00       		.byte	0
 2577 0cf8 00       		.byte	0
 2578 0cf9 00       		.byte	0
 2579 0cfa 00       		.byte	0
 2580 0cfb 37       		.uleb128 0x37
 2581 0cfc 68070000 		.4byte	0x768
 2582 0d00 12000000 		.4byte	.LBB183
 2583 0d04 98000000 		.4byte	.Ldebug_ranges0+0x98
 2584 0d08 01       		.byte	0x1
 2585 0d09 F0       		.byte	0xf0
 2586 0d0a 35       		.uleb128 0x35
 2587 0d0b 98000000 		.4byte	.Ldebug_ranges0+0x98
 2588 0d0f 2F       		.uleb128 0x2f
 2589 0d10 75070000 		.4byte	0x775
 2590 0d14 38       		.uleb128 0x38
 2591 0d15 16070000 		.4byte	0x716
 2592 0d19 12000000 		.4byte	.LBB185
 2593 0d1d 98000000 		.4byte	.Ldebug_ranges0+0x98
 2594 0d21 0D       		.byte	0xd
 2595 0d22 7301     		.2byte	0x173
 2596 0d24 38       		.uleb128 0x38
 2597 0d25 F3060000 		.4byte	0x6f3
 2598 0d29 12000000 		.4byte	.LBB186
 2599 0d2d 98000000 		.4byte	.Ldebug_ranges0+0x98
 2600 0d31 09       		.byte	0x9
 2601 0d32 CD01     		.2byte	0x1cd
 2602 0d34 29       		.uleb128 0x29
 2603 0d35 00070000 		.4byte	0x700
 2604 0d39 D4030000 		.4byte	.LLST24
 2605 0d3d 00       		.byte	0
 2606 0d3e 00       		.byte	0
 2607 0d3f 00       		.byte	0
 2608 0d40 00       		.byte	0
 2609 0d41 00       		.byte	0
 2610 0d42 39       		.uleb128 0x39
 2611 0d43 09080000 		.4byte	0x809
 2612 0d47 00000000 		.4byte	.LFB235
ARM GAS  /tmp/ccvKUrVh.s 			page 47


 2613 0d4b 40000000 		.4byte	.LFE235-.LFB235
 2614 0d4f 01       		.uleb128 0x1
 2615 0d50 9C       		.byte	0x9c
 2616 0d51 C20D0000 		.4byte	0xdc2
 2617 0d55 29       		.uleb128 0x29
 2618 0d56 1A080000 		.4byte	0x81a
 2619 0d5a F4030000 		.4byte	.LLST25
 2620 0d5e 29       		.uleb128 0x29
 2621 0d5f 25080000 		.4byte	0x825
 2622 0d63 2B040000 		.4byte	.LLST26
 2623 0d67 2F       		.uleb128 0x2f
 2624 0d68 31080000 		.4byte	0x831
 2625 0d6c 35       		.uleb128 0x35
 2626 0d6d B0000000 		.4byte	.Ldebug_ranges0+0xb0
 2627 0d71 3B       		.uleb128 0x3b
 2628 0d72 25080000 		.4byte	0x825
 2629 0d76 29       		.uleb128 0x29
 2630 0d77 1A080000 		.4byte	0x81a
 2631 0d7b 57040000 		.4byte	.LLST27
 2632 0d7f 35       		.uleb128 0x35
 2633 0d80 B0000000 		.4byte	.Ldebug_ranges0+0xb0
 2634 0d84 2F       		.uleb128 0x2f
 2635 0d85 31080000 		.4byte	0x831
 2636 0d89 3C       		.uleb128 0x3c
 2637 0d8a A1070000 		.4byte	0x7a1
 2638 0d8e 1A000000 		.4byte	.LBB201
 2639 0d92 C8000000 		.4byte	.Ldebug_ranges0+0xc8
 2640 0d96 01       		.byte	0x1
 2641 0d97 1701     		.2byte	0x117
 2642 0d99 B00D0000 		.4byte	0xdb0
 2643 0d9d 29       		.uleb128 0x29
 2644 0d9e B9070000 		.4byte	0x7b9
 2645 0da2 78040000 		.4byte	.LLST28
 2646 0da6 29       		.uleb128 0x29
 2647 0da7 AE070000 		.4byte	0x7ae
 2648 0dab 99040000 		.4byte	.LLST29
 2649 0daf 00       		.byte	0
 2650 0db0 3D       		.uleb128 0x3d
 2651 0db1 2E000000 		.4byte	.LVL41
 2652 0db5 86110000 		.4byte	0x1186
 2653 0db9 31       		.uleb128 0x31
 2654 0dba 01       		.uleb128 0x1
 2655 0dbb 50       		.byte	0x50
 2656 0dbc 01       		.uleb128 0x1
 2657 0dbd 35       		.byte	0x35
 2658 0dbe 00       		.byte	0
 2659 0dbf 00       		.byte	0
 2660 0dc0 00       		.byte	0
 2661 0dc1 00       		.byte	0
 2662 0dc2 3E       		.uleb128 0x3e
 2663 0dc3 BE000000 		.4byte	.LASF122
 2664 0dc7 01       		.byte	0x1
 2665 0dc8 2601     		.2byte	0x126
 2666 0dca 00000000 		.4byte	.LFB236
 2667 0dce 32000000 		.4byte	.LFE236-.LFB236
 2668 0dd2 01       		.uleb128 0x1
 2669 0dd3 9C       		.byte	0x9c
ARM GAS  /tmp/ccvKUrVh.s 			page 48


 2670 0dd4 B50E0000 		.4byte	0xeb5
 2671 0dd8 3F       		.uleb128 0x3f
 2672 0dd9 737000   		.ascii	"sp\000"
 2673 0ddc 01       		.byte	0x1
 2674 0ddd 2601     		.2byte	0x126
 2675 0ddf EE070000 		.4byte	0x7ee
 2676 0de3 AC040000 		.4byte	.LLST30
 2677 0de7 23       		.uleb128 0x23
 2678 0de8 FF040000 		.4byte	.LASF109
 2679 0dec B50E0000 		.4byte	0xeb5
 2680 0df0 40       		.uleb128 0x40
 2681 0df1 98070000 		.4byte	0x798
 2682 0df5 02000000 		.4byte	.LBB207
 2683 0df9 06000000 		.4byte	.LBE207-.LBB207
 2684 0dfd 01       		.byte	0x1
 2685 0dfe 2D01     		.2byte	0x12d
 2686 0e00 2D0E0000 		.4byte	0xe2d
 2687 0e04 2D       		.uleb128 0x2d
 2688 0e05 0D070000 		.4byte	0x70d
 2689 0e09 02000000 		.4byte	.LBB208
 2690 0e0d 06000000 		.4byte	.LBE208-.LBB208
 2691 0e11 0D       		.byte	0xd
 2692 0e12 5C01     		.2byte	0x15c
 2693 0e14 2D       		.uleb128 0x2d
 2694 0e15 F3060000 		.4byte	0x6f3
 2695 0e19 02000000 		.4byte	.LBB209
 2696 0e1d 06000000 		.4byte	.LBE209-.LBB209
 2697 0e21 09       		.byte	0x9
 2698 0e22 BF01     		.2byte	0x1bf
 2699 0e24 2E       		.uleb128 0x2e
 2700 0e25 00070000 		.4byte	0x700
 2701 0e29 20       		.byte	0x20
 2702 0e2a 00       		.byte	0
 2703 0e2b 00       		.byte	0
 2704 0e2c 00       		.byte	0
 2705 0e2d 3C       		.uleb128 0x3c
 2706 0e2e 68070000 		.4byte	0x768
 2707 0e32 12000000 		.4byte	.LBB211
 2708 0e36 E0000000 		.4byte	.Ldebug_ranges0+0xe0
 2709 0e3a 01       		.byte	0x1
 2710 0e3b 3101     		.2byte	0x131
 2711 0e3d 780E0000 		.4byte	0xe78
 2712 0e41 35       		.uleb128 0x35
 2713 0e42 E0000000 		.4byte	.Ldebug_ranges0+0xe0
 2714 0e46 2F       		.uleb128 0x2f
 2715 0e47 75070000 		.4byte	0x775
 2716 0e4b 38       		.uleb128 0x38
 2717 0e4c 16070000 		.4byte	0x716
 2718 0e50 12000000 		.4byte	.LBB213
 2719 0e54 E0000000 		.4byte	.Ldebug_ranges0+0xe0
 2720 0e58 0D       		.byte	0xd
 2721 0e59 7301     		.2byte	0x173
 2722 0e5b 38       		.uleb128 0x38
 2723 0e5c F3060000 		.4byte	0x6f3
 2724 0e60 12000000 		.4byte	.LBB214
 2725 0e64 E0000000 		.4byte	.Ldebug_ranges0+0xe0
 2726 0e68 09       		.byte	0x9
ARM GAS  /tmp/ccvKUrVh.s 			page 49


 2727 0e69 CD01     		.2byte	0x1cd
 2728 0e6b 29       		.uleb128 0x29
 2729 0e6c 00070000 		.4byte	0x700
 2730 0e70 D8040000 		.4byte	.LLST31
 2731 0e74 00       		.byte	0
 2732 0e75 00       		.byte	0
 2733 0e76 00       		.byte	0
 2734 0e77 00       		.byte	0
 2735 0e78 3C       		.uleb128 0x3c
 2736 0e79 54080000 		.4byte	0x854
 2737 0e7d 1C000000 		.4byte	.LBB220
 2738 0e81 F8000000 		.4byte	.Ldebug_ranges0+0xf8
 2739 0e85 01       		.byte	0x1
 2740 0e86 2F01     		.2byte	0x12f
 2741 0e88 A50E0000 		.4byte	0xea5
 2742 0e8c 29       		.uleb128 0x29
 2743 0e8d 65080000 		.4byte	0x865
 2744 0e91 F8040000 		.4byte	.LLST32
 2745 0e95 35       		.uleb128 0x35
 2746 0e96 F8000000 		.4byte	.Ldebug_ranges0+0xf8
 2747 0e9a 2B       		.uleb128 0x2b
 2748 0e9b 71080000 		.4byte	0x871
 2749 0e9f 19050000 		.4byte	.LLST33
 2750 0ea3 00       		.byte	0
 2751 0ea4 00       		.byte	0
 2752 0ea5 36       		.uleb128 0x36
 2753 0ea6 2A000000 		.4byte	.LVL47
 2754 0eaa 92110000 		.4byte	0x1192
 2755 0eae 31       		.uleb128 0x31
 2756 0eaf 01       		.uleb128 0x1
 2757 0eb0 51       		.byte	0x51
 2758 0eb1 01       		.uleb128 0x1
 2759 0eb2 30       		.byte	0x30
 2760 0eb3 00       		.byte	0
 2761 0eb4 00       		.byte	0
 2762 0eb5 14       		.uleb128 0x14
 2763 0eb6 83070000 		.4byte	0x783
 2764 0eba 3E       		.uleb128 0x3e
 2765 0ebb 57060000 		.4byte	.LASF123
 2766 0ebf 01       		.byte	0x1
 2767 0ec0 3F01     		.2byte	0x13f
 2768 0ec2 00000000 		.4byte	.LFB237
 2769 0ec6 1E000000 		.4byte	.LFE237-.LFB237
 2770 0eca 01       		.uleb128 0x1
 2771 0ecb 9C       		.byte	0x9c
 2772 0ecc 360F0000 		.4byte	0xf36
 2773 0ed0 3F       		.uleb128 0x3f
 2774 0ed1 737000   		.ascii	"sp\000"
 2775 0ed4 01       		.byte	0x1
 2776 0ed5 3F01     		.2byte	0x13f
 2777 0ed7 EE070000 		.4byte	0x7ee
 2778 0edb 2C050000 		.4byte	.LLST34
 2779 0edf 23       		.uleb128 0x23
 2780 0ee0 FF040000 		.4byte	.LASF109
 2781 0ee4 460F0000 		.4byte	0xf46
 2782 0ee8 2A       		.uleb128 0x2a
 2783 0ee9 0C000000 		.4byte	.LBB225
ARM GAS  /tmp/ccvKUrVh.s 			page 50


 2784 0eed 12000000 		.4byte	.LBE225-.LBB225
 2785 0ef1 41       		.uleb128 0x41
 2786 0ef2 747000   		.ascii	"tp\000"
 2787 0ef5 01       		.byte	0x1
 2788 0ef6 4A01     		.2byte	0x14a
 2789 0ef8 35020000 		.4byte	0x235
 2790 0efc 01       		.uleb128 0x1
 2791 0efd 53       		.byte	0x53
 2792 0efe 3C       		.uleb128 0x3c
 2793 0eff 54080000 		.4byte	0x854
 2794 0f03 0C000000 		.4byte	.LBB226
 2795 0f07 10010000 		.4byte	.Ldebug_ranges0+0x110
 2796 0f0b 01       		.byte	0x1
 2797 0f0c 4A01     		.2byte	0x14a
 2798 0f0e 2B0F0000 		.4byte	0xf2b
 2799 0f12 29       		.uleb128 0x29
 2800 0f13 65080000 		.4byte	0x865
 2801 0f17 59050000 		.4byte	.LLST35
 2802 0f1b 35       		.uleb128 0x35
 2803 0f1c 10010000 		.4byte	.Ldebug_ranges0+0x110
 2804 0f20 2B       		.uleb128 0x2b
 2805 0f21 71080000 		.4byte	0x871
 2806 0f25 86050000 		.4byte	.LLST36
 2807 0f29 00       		.byte	0
 2808 0f2a 00       		.byte	0
 2809 0f2b 42       		.uleb128 0x42
 2810 0f2c 1E000000 		.4byte	.LVL53
 2811 0f30 62110000 		.4byte	0x1162
 2812 0f34 00       		.byte	0
 2813 0f35 00       		.byte	0
 2814 0f36 15       		.uleb128 0x15
 2815 0f37 B0060000 		.4byte	0x6b0
 2816 0f3b 460F0000 		.4byte	0xf46
 2817 0f3f 16       		.uleb128 0x16
 2818 0f40 48040000 		.4byte	0x448
 2819 0f44 0C       		.byte	0xc
 2820 0f45 00       		.byte	0
 2821 0f46 14       		.uleb128 0x14
 2822 0f47 360F0000 		.4byte	0xf36
 2823 0f4b 3E       		.uleb128 0x3e
 2824 0f4c DE000000 		.4byte	.LASF124
 2825 0f50 01       		.byte	0x1
 2826 0f51 5D01     		.2byte	0x15d
 2827 0f53 00000000 		.4byte	.LFB238
 2828 0f57 2E000000 		.4byte	.LFE238-.LFB238
 2829 0f5b 01       		.uleb128 0x1
 2830 0f5c 9C       		.byte	0x9c
 2831 0f5d C20F0000 		.4byte	0xfc2
 2832 0f61 3F       		.uleb128 0x3f
 2833 0f62 737000   		.ascii	"sp\000"
 2834 0f65 01       		.byte	0x1
 2835 0f66 5D01     		.2byte	0x15d
 2836 0f68 EE070000 		.4byte	0x7ee
 2837 0f6c 99050000 		.4byte	.LLST37
 2838 0f70 3F       		.uleb128 0x3f
 2839 0f71 6E00     		.ascii	"n\000"
 2840 0f73 01       		.byte	0x1
ARM GAS  /tmp/ccvKUrVh.s 			page 51


 2841 0f74 5D01     		.2byte	0x15d
 2842 0f76 1C010000 		.4byte	0x11c
 2843 0f7a C5050000 		.4byte	.LLST38
 2844 0f7e 23       		.uleb128 0x23
 2845 0f7f FF040000 		.4byte	.LASF109
 2846 0f83 D20F0000 		.4byte	0xfd2
 2847 0f87 40       		.uleb128 0x40
 2848 0f88 54080000 		.4byte	0x854
 2849 0f8c 1A000000 		.4byte	.LBB230
 2850 0f90 08000000 		.4byte	.LBE230-.LBB230
 2851 0f94 01       		.byte	0x1
 2852 0f95 6701     		.2byte	0x167
 2853 0f97 B80F0000 		.4byte	0xfb8
 2854 0f9b 29       		.uleb128 0x29
 2855 0f9c 65080000 		.4byte	0x865
 2856 0fa0 FD050000 		.4byte	.LLST39
 2857 0fa4 2A       		.uleb128 0x2a
 2858 0fa5 1A000000 		.4byte	.LBB231
 2859 0fa9 08000000 		.4byte	.LBE231-.LBB231
 2860 0fad 2B       		.uleb128 0x2b
 2861 0fae 71080000 		.4byte	0x871
 2862 0fb2 10060000 		.4byte	.LLST40
 2863 0fb6 00       		.byte	0
 2864 0fb7 00       		.byte	0
 2865 0fb8 2C       		.uleb128 0x2c
 2866 0fb9 26000000 		.4byte	.LVL60
 2867 0fbd 62110000 		.4byte	0x1162
 2868 0fc1 00       		.byte	0
 2869 0fc2 15       		.uleb128 0x15
 2870 0fc3 B0060000 		.4byte	0x6b0
 2871 0fc7 D20F0000 		.4byte	0xfd2
 2872 0fcb 16       		.uleb128 0x16
 2873 0fcc 48040000 		.4byte	0x448
 2874 0fd0 10       		.byte	0x10
 2875 0fd1 00       		.byte	0
 2876 0fd2 14       		.uleb128 0x14
 2877 0fd3 C20F0000 		.4byte	0xfc2
 2878 0fd7 43       		.uleb128 0x43
 2879 0fd8 2E010000 		.4byte	.LASF125
 2880 0fdc 01       		.byte	0x1
 2881 0fdd 7A01     		.2byte	0x17a
 2882 0fdf 06010000 		.4byte	0x106
 2883 0fe3 00000000 		.4byte	.LFB239
 2884 0fe7 6C000000 		.4byte	.LFE239-.LFB239
 2885 0feb 01       		.uleb128 0x1
 2886 0fec 9C       		.byte	0x9c
 2887 0fed 46110000 		.4byte	0x1146
 2888 0ff1 3F       		.uleb128 0x3f
 2889 0ff2 73707300 		.ascii	"sps\000"
 2890 0ff6 01       		.byte	0x1
 2891 0ff7 7A01     		.2byte	0x17a
 2892 0ff9 EE070000 		.4byte	0x7ee
 2893 0ffd 23060000 		.4byte	.LLST41
 2894 1001 3F       		.uleb128 0x3f
 2895 1002 73707700 		.ascii	"spw\000"
 2896 1006 01       		.byte	0x1
 2897 1007 7A01     		.2byte	0x17a
ARM GAS  /tmp/ccvKUrVh.s 			page 52


 2898 1009 EE070000 		.4byte	0x7ee
 2899 100d 68060000 		.4byte	.LLST42
 2900 1011 44       		.uleb128 0x44
 2901 1012 6D736700 		.ascii	"msg\000"
 2902 1016 01       		.byte	0x1
 2903 1017 7B01     		.2byte	0x17b
 2904 1019 06010000 		.4byte	0x106
 2905 101d A0060000 		.4byte	.LLST43
 2906 1021 23       		.uleb128 0x23
 2907 1022 FF040000 		.4byte	.LASF109
 2908 1026 46110000 		.4byte	0x1146
 2909 102a 3C       		.uleb128 0x3c
 2910 102b 98070000 		.4byte	0x798
 2911 102f 02000000 		.4byte	.LBB232
 2912 1033 28010000 		.4byte	.Ldebug_ranges0+0x128
 2913 1037 01       		.byte	0x1
 2914 1038 8501     		.2byte	0x185
 2915 103a 67100000 		.4byte	0x1067
 2916 103e 38       		.uleb128 0x38
 2917 103f 0D070000 		.4byte	0x70d
 2918 1043 02000000 		.4byte	.LBB233
 2919 1047 28010000 		.4byte	.Ldebug_ranges0+0x128
 2920 104b 0D       		.byte	0xd
 2921 104c 5C01     		.2byte	0x15c
 2922 104e 38       		.uleb128 0x38
 2923 104f F3060000 		.4byte	0x6f3
 2924 1053 02000000 		.4byte	.LBB234
 2925 1057 28010000 		.4byte	.Ldebug_ranges0+0x128
 2926 105b 09       		.byte	0x9
 2927 105c BF01     		.2byte	0x1bf
 2928 105e 2E       		.uleb128 0x2e
 2929 105f 00070000 		.4byte	0x700
 2930 1063 20       		.byte	0x20
 2931 1064 00       		.byte	0
 2932 1065 00       		.byte	0
 2933 1066 00       		.byte	0
 2934 1067 3C       		.uleb128 0x3c
 2935 1068 68070000 		.4byte	0x768
 2936 106c 24000000 		.4byte	.LBB240
 2937 1070 40010000 		.4byte	.Ldebug_ranges0+0x140
 2938 1074 01       		.byte	0x1
 2939 1075 9401     		.2byte	0x194
 2940 1077 B2100000 		.4byte	0x10b2
 2941 107b 35       		.uleb128 0x35
 2942 107c 40010000 		.4byte	.Ldebug_ranges0+0x140
 2943 1080 2F       		.uleb128 0x2f
 2944 1081 75070000 		.4byte	0x775
 2945 1085 38       		.uleb128 0x38
 2946 1086 16070000 		.4byte	0x716
 2947 108a 24000000 		.4byte	.LBB242
 2948 108e 40010000 		.4byte	.Ldebug_ranges0+0x140
 2949 1092 0D       		.byte	0xd
 2950 1093 7301     		.2byte	0x173
 2951 1095 38       		.uleb128 0x38
 2952 1096 F3060000 		.4byte	0x6f3
 2953 109a 24000000 		.4byte	.LBB243
 2954 109e 40010000 		.4byte	.Ldebug_ranges0+0x140
ARM GAS  /tmp/ccvKUrVh.s 			page 53


 2955 10a2 09       		.byte	0x9
 2956 10a3 CD01     		.2byte	0x1cd
 2957 10a5 29       		.uleb128 0x29
 2958 10a6 00070000 		.4byte	0x700
 2959 10aa CA060000 		.4byte	.LLST44
 2960 10ae 00       		.byte	0
 2961 10af 00       		.byte	0
 2962 10b0 00       		.byte	0
 2963 10b1 00       		.byte	0
 2964 10b2 45       		.uleb128 0x45
 2965 10b3 2E000000 		.4byte	.LBB249
 2966 10b7 18000000 		.4byte	.LBE249-.LBB249
 2967 10bb 06110000 		.4byte	0x1106
 2968 10bf 44       		.uleb128 0x44
 2969 10c0 63747000 		.ascii	"ctp\000"
 2970 10c4 01       		.byte	0x1
 2971 10c5 8A01     		.2byte	0x18a
 2972 10c7 35020000 		.4byte	0x235
 2973 10cb EA060000 		.4byte	.LLST45
 2974 10cf 3C       		.uleb128 0x3c
 2975 10d0 A1070000 		.4byte	0x7a1
 2976 10d4 30000000 		.4byte	.LBB250
 2977 10d8 58010000 		.4byte	.Ldebug_ranges0+0x158
 2978 10dc 01       		.byte	0x1
 2979 10dd 8B01     		.2byte	0x18b
 2980 10df F6100000 		.4byte	0x10f6
 2981 10e3 29       		.uleb128 0x29
 2982 10e4 B9070000 		.4byte	0x7b9
 2983 10e8 FD060000 		.4byte	.LLST46
 2984 10ec 29       		.uleb128 0x29
 2985 10ed AE070000 		.4byte	0x7ae
 2986 10f1 EA060000 		.4byte	.LLST45
 2987 10f5 00       		.byte	0
 2988 10f6 36       		.uleb128 0x36
 2989 10f7 44000000 		.4byte	.LVL70
 2990 10fb 7A110000 		.4byte	0x117a
 2991 10ff 31       		.uleb128 0x31
 2992 1100 01       		.uleb128 0x1
 2993 1101 50       		.byte	0x50
 2994 1102 01       		.uleb128 0x1
 2995 1103 35       		.byte	0x35
 2996 1104 00       		.byte	0
 2997 1105 00       		.byte	0
 2998 1106 40       		.uleb128 0x40
 2999 1107 54080000 		.4byte	0x854
 3000 110b 52000000 		.4byte	.LBB255
 3001 110f 0A000000 		.4byte	.LBE255-.LBB255
 3002 1113 01       		.byte	0x1
 3003 1114 8701     		.2byte	0x187
 3004 1116 33110000 		.4byte	0x1133
 3005 111a 3B       		.uleb128 0x3b
 3006 111b 65080000 		.4byte	0x865
 3007 111f 2A       		.uleb128 0x2a
 3008 1120 52000000 		.4byte	.LBB256
 3009 1124 0A000000 		.4byte	.LBE256-.LBB256
 3010 1128 2B       		.uleb128 0x2b
 3011 1129 71080000 		.4byte	0x871
ARM GAS  /tmp/ccvKUrVh.s 			page 54


 3012 112d 10070000 		.4byte	.LLST48
 3013 1131 00       		.byte	0
 3014 1132 00       		.byte	0
 3015 1133 2C       		.uleb128 0x2c
 3016 1134 22000000 		.4byte	.LVL66
 3017 1138 6E110000 		.4byte	0x116e
 3018 113c 2C       		.uleb128 0x2c
 3019 113d 60000000 		.4byte	.LVL75
 3020 1141 62110000 		.4byte	0x1162
 3021 1145 00       		.byte	0
 3022 1146 14       		.uleb128 0x14
 3023 1147 CA080000 		.4byte	0x8ca
 3024 114b 46       		.uleb128 0x46
 3025 114c EF000000 		.4byte	.LASF126
 3026 1150 0E       		.byte	0xe
 3027 1151 A706     		.2byte	0x6a7
 3028 1153 CA000000 		.4byte	0xca
 3029 1157 47       		.uleb128 0x47
 3030 1158 636800   		.ascii	"ch\000"
 3031 115b 02       		.byte	0x2
 3032 115c 0902     		.2byte	0x209
 3033 115e E1030000 		.4byte	0x3e1
 3034 1162 48       		.uleb128 0x48
 3035 1163 6E050000 		.4byte	.LASF127
 3036 1167 6E050000 		.4byte	.LASF127
 3037 116b 02       		.byte	0x2
 3038 116c 1302     		.2byte	0x213
 3039 116e 48       		.uleb128 0x48
 3040 116f BC010000 		.4byte	.LASF128
 3041 1173 BC010000 		.4byte	.LASF128
 3042 1177 02       		.byte	0x2
 3043 1178 1702     		.2byte	0x217
 3044 117a 48       		.uleb128 0x48
 3045 117b 3D050000 		.4byte	.LASF129
 3046 117f 3D050000 		.4byte	.LASF129
 3047 1183 02       		.byte	0x2
 3048 1184 1402     		.2byte	0x214
 3049 1186 48       		.uleb128 0x48
 3050 1187 9B060000 		.4byte	.LASF130
 3051 118b 9B060000 		.4byte	.LASF130
 3052 118f 02       		.byte	0x2
 3053 1190 1502     		.2byte	0x215
 3054 1192 48       		.uleb128 0x48
 3055 1193 88020000 		.4byte	.LASF131
 3056 1197 88020000 		.4byte	.LASF131
 3057 119b 02       		.byte	0x2
 3058 119c 1602     		.2byte	0x216
 3059 119e 00       		.byte	0
 3060              		.section	.debug_abbrev,"",%progbits
 3061              	.Ldebug_abbrev0:
 3062 0000 01       		.uleb128 0x1
 3063 0001 11       		.uleb128 0x11
 3064 0002 01       		.byte	0x1
 3065 0003 25       		.uleb128 0x25
 3066 0004 0E       		.uleb128 0xe
 3067 0005 13       		.uleb128 0x13
 3068 0006 0B       		.uleb128 0xb
ARM GAS  /tmp/ccvKUrVh.s 			page 55


 3069 0007 03       		.uleb128 0x3
 3070 0008 0E       		.uleb128 0xe
 3071 0009 1B       		.uleb128 0x1b
 3072 000a 0E       		.uleb128 0xe
 3073 000b 55       		.uleb128 0x55
 3074 000c 17       		.uleb128 0x17
 3075 000d 11       		.uleb128 0x11
 3076 000e 01       		.uleb128 0x1
 3077 000f 10       		.uleb128 0x10
 3078 0010 17       		.uleb128 0x17
 3079 0011 00       		.byte	0
 3080 0012 00       		.byte	0
 3081 0013 02       		.uleb128 0x2
 3082 0014 24       		.uleb128 0x24
 3083 0015 00       		.byte	0
 3084 0016 0B       		.uleb128 0xb
 3085 0017 0B       		.uleb128 0xb
 3086 0018 3E       		.uleb128 0x3e
 3087 0019 0B       		.uleb128 0xb
 3088 001a 03       		.uleb128 0x3
 3089 001b 08       		.uleb128 0x8
 3090 001c 00       		.byte	0
 3091 001d 00       		.byte	0
 3092 001e 03       		.uleb128 0x3
 3093 001f 24       		.uleb128 0x24
 3094 0020 00       		.byte	0
 3095 0021 0B       		.uleb128 0xb
 3096 0022 0B       		.uleb128 0xb
 3097 0023 3E       		.uleb128 0x3e
 3098 0024 0B       		.uleb128 0xb
 3099 0025 03       		.uleb128 0x3
 3100 0026 0E       		.uleb128 0xe
 3101 0027 00       		.byte	0
 3102 0028 00       		.byte	0
 3103 0029 04       		.uleb128 0x4
 3104 002a 16       		.uleb128 0x16
 3105 002b 00       		.byte	0
 3106 002c 03       		.uleb128 0x3
 3107 002d 0E       		.uleb128 0xe
 3108 002e 3A       		.uleb128 0x3a
 3109 002f 0B       		.uleb128 0xb
 3110 0030 3B       		.uleb128 0x3b
 3111 0031 0B       		.uleb128 0xb
 3112 0032 49       		.uleb128 0x49
 3113 0033 13       		.uleb128 0x13
 3114 0034 00       		.byte	0
 3115 0035 00       		.byte	0
 3116 0036 05       		.uleb128 0x5
 3117 0037 35       		.uleb128 0x35
 3118 0038 00       		.byte	0
 3119 0039 49       		.uleb128 0x49
 3120 003a 13       		.uleb128 0x13
 3121 003b 00       		.byte	0
 3122 003c 00       		.byte	0
 3123 003d 06       		.uleb128 0x6
 3124 003e 13       		.uleb128 0x13
 3125 003f 01       		.byte	0x1
ARM GAS  /tmp/ccvKUrVh.s 			page 56


 3126 0040 03       		.uleb128 0x3
 3127 0041 0E       		.uleb128 0xe
 3128 0042 0B       		.uleb128 0xb
 3129 0043 0B       		.uleb128 0xb
 3130 0044 3A       		.uleb128 0x3a
 3131 0045 0B       		.uleb128 0xb
 3132 0046 3B       		.uleb128 0x3b
 3133 0047 0B       		.uleb128 0xb
 3134 0048 01       		.uleb128 0x1
 3135 0049 13       		.uleb128 0x13
 3136 004a 00       		.byte	0
 3137 004b 00       		.byte	0
 3138 004c 07       		.uleb128 0x7
 3139 004d 0D       		.uleb128 0xd
 3140 004e 00       		.byte	0
 3141 004f 03       		.uleb128 0x3
 3142 0050 0E       		.uleb128 0xe
 3143 0051 3A       		.uleb128 0x3a
 3144 0052 0B       		.uleb128 0xb
 3145 0053 3B       		.uleb128 0x3b
 3146 0054 0B       		.uleb128 0xb
 3147 0055 49       		.uleb128 0x49
 3148 0056 13       		.uleb128 0x13
 3149 0057 38       		.uleb128 0x38
 3150 0058 0B       		.uleb128 0xb
 3151 0059 00       		.byte	0
 3152 005a 00       		.byte	0
 3153 005b 08       		.uleb128 0x8
 3154 005c 0D       		.uleb128 0xd
 3155 005d 00       		.byte	0
 3156 005e 03       		.uleb128 0x3
 3157 005f 08       		.uleb128 0x8
 3158 0060 3A       		.uleb128 0x3a
 3159 0061 0B       		.uleb128 0xb
 3160 0062 3B       		.uleb128 0x3b
 3161 0063 05       		.uleb128 0x5
 3162 0064 49       		.uleb128 0x49
 3163 0065 13       		.uleb128 0x13
 3164 0066 38       		.uleb128 0x38
 3165 0067 0B       		.uleb128 0xb
 3166 0068 00       		.byte	0
 3167 0069 00       		.byte	0
 3168 006a 09       		.uleb128 0x9
 3169 006b 0D       		.uleb128 0xd
 3170 006c 00       		.byte	0
 3171 006d 03       		.uleb128 0x3
 3172 006e 0E       		.uleb128 0xe
 3173 006f 3A       		.uleb128 0x3a
 3174 0070 0B       		.uleb128 0xb
 3175 0071 3B       		.uleb128 0x3b
 3176 0072 05       		.uleb128 0x5
 3177 0073 49       		.uleb128 0x49
 3178 0074 13       		.uleb128 0x13
 3179 0075 38       		.uleb128 0x38
 3180 0076 0B       		.uleb128 0xb
 3181 0077 00       		.byte	0
 3182 0078 00       		.byte	0
ARM GAS  /tmp/ccvKUrVh.s 			page 57


 3183 0079 0A       		.uleb128 0xa
 3184 007a 0F       		.uleb128 0xf
 3185 007b 00       		.byte	0
 3186 007c 0B       		.uleb128 0xb
 3187 007d 0B       		.uleb128 0xb
 3188 007e 49       		.uleb128 0x49
 3189 007f 13       		.uleb128 0x13
 3190 0080 00       		.byte	0
 3191 0081 00       		.byte	0
 3192 0082 0B       		.uleb128 0xb
 3193 0083 13       		.uleb128 0x13
 3194 0084 01       		.byte	0x1
 3195 0085 03       		.uleb128 0x3
 3196 0086 0E       		.uleb128 0xe
 3197 0087 0B       		.uleb128 0xb
 3198 0088 0B       		.uleb128 0xb
 3199 0089 3A       		.uleb128 0x3a
 3200 008a 0B       		.uleb128 0xb
 3201 008b 3B       		.uleb128 0x3b
 3202 008c 05       		.uleb128 0x5
 3203 008d 01       		.uleb128 0x1
 3204 008e 13       		.uleb128 0x13
 3205 008f 00       		.byte	0
 3206 0090 00       		.byte	0
 3207 0091 0C       		.uleb128 0xc
 3208 0092 15       		.uleb128 0x15
 3209 0093 01       		.byte	0x1
 3210 0094 27       		.uleb128 0x27
 3211 0095 19       		.uleb128 0x19
 3212 0096 01       		.uleb128 0x1
 3213 0097 13       		.uleb128 0x13
 3214 0098 00       		.byte	0
 3215 0099 00       		.byte	0
 3216 009a 0D       		.uleb128 0xd
 3217 009b 05       		.uleb128 0x5
 3218 009c 00       		.byte	0
 3219 009d 49       		.uleb128 0x49
 3220 009e 13       		.uleb128 0x13
 3221 009f 00       		.byte	0
 3222 00a0 00       		.byte	0
 3223 00a1 0E       		.uleb128 0xe
 3224 00a2 0F       		.uleb128 0xf
 3225 00a3 00       		.byte	0
 3226 00a4 0B       		.uleb128 0xb
 3227 00a5 0B       		.uleb128 0xb
 3228 00a6 00       		.byte	0
 3229 00a7 00       		.byte	0
 3230 00a8 0F       		.uleb128 0xf
 3231 00a9 13       		.uleb128 0x13
 3232 00aa 01       		.byte	0x1
 3233 00ab 03       		.uleb128 0x3
 3234 00ac 0E       		.uleb128 0xe
 3235 00ad 0B       		.uleb128 0xb
 3236 00ae 05       		.uleb128 0x5
 3237 00af 3A       		.uleb128 0x3a
 3238 00b0 0B       		.uleb128 0xb
 3239 00b1 3B       		.uleb128 0x3b
ARM GAS  /tmp/ccvKUrVh.s 			page 58


 3240 00b2 05       		.uleb128 0x5
 3241 00b3 01       		.uleb128 0x1
 3242 00b4 13       		.uleb128 0x13
 3243 00b5 00       		.byte	0
 3244 00b6 00       		.byte	0
 3245 00b7 10       		.uleb128 0x10
 3246 00b8 0D       		.uleb128 0xd
 3247 00b9 00       		.byte	0
 3248 00ba 03       		.uleb128 0x3
 3249 00bb 08       		.uleb128 0x8
 3250 00bc 3A       		.uleb128 0x3a
 3251 00bd 0B       		.uleb128 0xb
 3252 00be 3B       		.uleb128 0x3b
 3253 00bf 0B       		.uleb128 0xb
 3254 00c0 49       		.uleb128 0x49
 3255 00c1 13       		.uleb128 0x13
 3256 00c2 38       		.uleb128 0x38
 3257 00c3 0B       		.uleb128 0xb
 3258 00c4 00       		.byte	0
 3259 00c5 00       		.byte	0
 3260 00c6 11       		.uleb128 0x11
 3261 00c7 13       		.uleb128 0x13
 3262 00c8 01       		.byte	0x1
 3263 00c9 0B       		.uleb128 0xb
 3264 00ca 0B       		.uleb128 0xb
 3265 00cb 3A       		.uleb128 0x3a
 3266 00cc 0B       		.uleb128 0xb
 3267 00cd 3B       		.uleb128 0x3b
 3268 00ce 0B       		.uleb128 0xb
 3269 00cf 01       		.uleb128 0x1
 3270 00d0 13       		.uleb128 0x13
 3271 00d1 00       		.byte	0
 3272 00d2 00       		.byte	0
 3273 00d3 12       		.uleb128 0x12
 3274 00d4 17       		.uleb128 0x17
 3275 00d5 01       		.byte	0x1
 3276 00d6 0B       		.uleb128 0xb
 3277 00d7 0B       		.uleb128 0xb
 3278 00d8 3A       		.uleb128 0x3a
 3279 00d9 0B       		.uleb128 0xb
 3280 00da 3B       		.uleb128 0x3b
 3281 00db 0B       		.uleb128 0xb
 3282 00dc 01       		.uleb128 0x1
 3283 00dd 13       		.uleb128 0x13
 3284 00de 00       		.byte	0
 3285 00df 00       		.byte	0
 3286 00e0 13       		.uleb128 0x13
 3287 00e1 0D       		.uleb128 0xd
 3288 00e2 00       		.byte	0
 3289 00e3 03       		.uleb128 0x3
 3290 00e4 0E       		.uleb128 0xe
 3291 00e5 3A       		.uleb128 0x3a
 3292 00e6 0B       		.uleb128 0xb
 3293 00e7 3B       		.uleb128 0x3b
 3294 00e8 05       		.uleb128 0x5
 3295 00e9 49       		.uleb128 0x49
 3296 00ea 13       		.uleb128 0x13
ARM GAS  /tmp/ccvKUrVh.s 			page 59


 3297 00eb 00       		.byte	0
 3298 00ec 00       		.byte	0
 3299 00ed 14       		.uleb128 0x14
 3300 00ee 26       		.uleb128 0x26
 3301 00ef 00       		.byte	0
 3302 00f0 49       		.uleb128 0x49
 3303 00f1 13       		.uleb128 0x13
 3304 00f2 00       		.byte	0
 3305 00f3 00       		.byte	0
 3306 00f4 15       		.uleb128 0x15
 3307 00f5 01       		.uleb128 0x1
 3308 00f6 01       		.byte	0x1
 3309 00f7 49       		.uleb128 0x49
 3310 00f8 13       		.uleb128 0x13
 3311 00f9 01       		.uleb128 0x1
 3312 00fa 13       		.uleb128 0x13
 3313 00fb 00       		.byte	0
 3314 00fc 00       		.byte	0
 3315 00fd 16       		.uleb128 0x16
 3316 00fe 21       		.uleb128 0x21
 3317 00ff 00       		.byte	0
 3318 0100 49       		.uleb128 0x49
 3319 0101 13       		.uleb128 0x13
 3320 0102 2F       		.uleb128 0x2f
 3321 0103 0B       		.uleb128 0xb
 3322 0104 00       		.byte	0
 3323 0105 00       		.byte	0
 3324 0106 17       		.uleb128 0x17
 3325 0107 2E       		.uleb128 0x2e
 3326 0108 01       		.byte	0x1
 3327 0109 03       		.uleb128 0x3
 3328 010a 0E       		.uleb128 0xe
 3329 010b 3A       		.uleb128 0x3a
 3330 010c 0B       		.uleb128 0xb
 3331 010d 3B       		.uleb128 0x3b
 3332 010e 05       		.uleb128 0x5
 3333 010f 27       		.uleb128 0x27
 3334 0110 19       		.uleb128 0x19
 3335 0111 20       		.uleb128 0x20
 3336 0112 0B       		.uleb128 0xb
 3337 0113 01       		.uleb128 0x1
 3338 0114 13       		.uleb128 0x13
 3339 0115 00       		.byte	0
 3340 0116 00       		.byte	0
 3341 0117 18       		.uleb128 0x18
 3342 0118 05       		.uleb128 0x5
 3343 0119 00       		.byte	0
 3344 011a 03       		.uleb128 0x3
 3345 011b 0E       		.uleb128 0xe
 3346 011c 3A       		.uleb128 0x3a
 3347 011d 0B       		.uleb128 0xb
 3348 011e 3B       		.uleb128 0x3b
 3349 011f 05       		.uleb128 0x5
 3350 0120 49       		.uleb128 0x49
 3351 0121 13       		.uleb128 0x13
 3352 0122 00       		.byte	0
 3353 0123 00       		.byte	0
ARM GAS  /tmp/ccvKUrVh.s 			page 60


 3354 0124 19       		.uleb128 0x19
 3355 0125 2E       		.uleb128 0x2e
 3356 0126 00       		.byte	0
 3357 0127 03       		.uleb128 0x3
 3358 0128 0E       		.uleb128 0xe
 3359 0129 3A       		.uleb128 0x3a
 3360 012a 0B       		.uleb128 0xb
 3361 012b 3B       		.uleb128 0x3b
 3362 012c 05       		.uleb128 0x5
 3363 012d 27       		.uleb128 0x27
 3364 012e 19       		.uleb128 0x19
 3365 012f 20       		.uleb128 0x20
 3366 0130 0B       		.uleb128 0xb
 3367 0131 00       		.byte	0
 3368 0132 00       		.byte	0
 3369 0133 1A       		.uleb128 0x1a
 3370 0134 05       		.uleb128 0x5
 3371 0135 00       		.byte	0
 3372 0136 03       		.uleb128 0x3
 3373 0137 08       		.uleb128 0x8
 3374 0138 3A       		.uleb128 0x3a
 3375 0139 0B       		.uleb128 0xb
 3376 013a 3B       		.uleb128 0x3b
 3377 013b 05       		.uleb128 0x5
 3378 013c 49       		.uleb128 0x49
 3379 013d 13       		.uleb128 0x13
 3380 013e 00       		.byte	0
 3381 013f 00       		.byte	0
 3382 0140 1B       		.uleb128 0x1b
 3383 0141 2E       		.uleb128 0x2e
 3384 0142 01       		.byte	0x1
 3385 0143 03       		.uleb128 0x3
 3386 0144 0E       		.uleb128 0xe
 3387 0145 3A       		.uleb128 0x3a
 3388 0146 0B       		.uleb128 0xb
 3389 0147 3B       		.uleb128 0x3b
 3390 0148 05       		.uleb128 0x5
 3391 0149 27       		.uleb128 0x27
 3392 014a 19       		.uleb128 0x19
 3393 014b 49       		.uleb128 0x49
 3394 014c 13       		.uleb128 0x13
 3395 014d 20       		.uleb128 0x20
 3396 014e 0B       		.uleb128 0xb
 3397 014f 01       		.uleb128 0x1
 3398 0150 13       		.uleb128 0x13
 3399 0151 00       		.byte	0
 3400 0152 00       		.byte	0
 3401 0153 1C       		.uleb128 0x1c
 3402 0154 34       		.uleb128 0x34
 3403 0155 00       		.byte	0
 3404 0156 03       		.uleb128 0x3
 3405 0157 08       		.uleb128 0x8
 3406 0158 3A       		.uleb128 0x3a
 3407 0159 0B       		.uleb128 0xb
 3408 015a 3B       		.uleb128 0x3b
 3409 015b 05       		.uleb128 0x5
 3410 015c 49       		.uleb128 0x49
ARM GAS  /tmp/ccvKUrVh.s 			page 61


 3411 015d 13       		.uleb128 0x13
 3412 015e 00       		.byte	0
 3413 015f 00       		.byte	0
 3414 0160 1D       		.uleb128 0x1d
 3415 0161 34       		.uleb128 0x34
 3416 0162 00       		.byte	0
 3417 0163 03       		.uleb128 0x3
 3418 0164 0E       		.uleb128 0xe
 3419 0165 49       		.uleb128 0x49
 3420 0166 13       		.uleb128 0x13
 3421 0167 34       		.uleb128 0x34
 3422 0168 19       		.uleb128 0x19
 3423 0169 1C       		.uleb128 0x1c
 3424 016a 0E       		.uleb128 0xe
 3425 016b 00       		.byte	0
 3426 016c 00       		.byte	0
 3427 016d 1E       		.uleb128 0x1e
 3428 016e 2E       		.uleb128 0x2e
 3429 016f 01       		.byte	0x1
 3430 0170 3F       		.uleb128 0x3f
 3431 0171 19       		.uleb128 0x19
 3432 0172 03       		.uleb128 0x3
 3433 0173 0E       		.uleb128 0xe
 3434 0174 3A       		.uleb128 0x3a
 3435 0175 0B       		.uleb128 0xb
 3436 0176 3B       		.uleb128 0x3b
 3437 0177 0B       		.uleb128 0xb
 3438 0178 27       		.uleb128 0x27
 3439 0179 19       		.uleb128 0x19
 3440 017a 49       		.uleb128 0x49
 3441 017b 13       		.uleb128 0x13
 3442 017c 20       		.uleb128 0x20
 3443 017d 0B       		.uleb128 0xb
 3444 017e 01       		.uleb128 0x1
 3445 017f 13       		.uleb128 0x13
 3446 0180 00       		.byte	0
 3447 0181 00       		.byte	0
 3448 0182 1F       		.uleb128 0x1f
 3449 0183 05       		.uleb128 0x5
 3450 0184 00       		.byte	0
 3451 0185 03       		.uleb128 0x3
 3452 0186 08       		.uleb128 0x8
 3453 0187 3A       		.uleb128 0x3a
 3454 0188 0B       		.uleb128 0xb
 3455 0189 3B       		.uleb128 0x3b
 3456 018a 0B       		.uleb128 0xb
 3457 018b 49       		.uleb128 0x49
 3458 018c 13       		.uleb128 0x13
 3459 018d 00       		.byte	0
 3460 018e 00       		.byte	0
 3461 018f 20       		.uleb128 0x20
 3462 0190 2E       		.uleb128 0x2e
 3463 0191 01       		.byte	0x1
 3464 0192 3F       		.uleb128 0x3f
 3465 0193 19       		.uleb128 0x19
 3466 0194 03       		.uleb128 0x3
 3467 0195 0E       		.uleb128 0xe
ARM GAS  /tmp/ccvKUrVh.s 			page 62


 3468 0196 3A       		.uleb128 0x3a
 3469 0197 0B       		.uleb128 0xb
 3470 0198 3B       		.uleb128 0x3b
 3471 0199 05       		.uleb128 0x5
 3472 019a 27       		.uleb128 0x27
 3473 019b 19       		.uleb128 0x19
 3474 019c 49       		.uleb128 0x49
 3475 019d 13       		.uleb128 0x13
 3476 019e 20       		.uleb128 0x20
 3477 019f 0B       		.uleb128 0xb
 3478 01a0 01       		.uleb128 0x1
 3479 01a1 13       		.uleb128 0x13
 3480 01a2 00       		.byte	0
 3481 01a3 00       		.byte	0
 3482 01a4 21       		.uleb128 0x21
 3483 01a5 2E       		.uleb128 0x2e
 3484 01a6 01       		.byte	0x1
 3485 01a7 3F       		.uleb128 0x3f
 3486 01a8 19       		.uleb128 0x19
 3487 01a9 03       		.uleb128 0x3
 3488 01aa 0E       		.uleb128 0xe
 3489 01ab 3A       		.uleb128 0x3a
 3490 01ac 0B       		.uleb128 0xb
 3491 01ad 3B       		.uleb128 0x3b
 3492 01ae 0B       		.uleb128 0xb
 3493 01af 27       		.uleb128 0x27
 3494 01b0 19       		.uleb128 0x19
 3495 01b1 11       		.uleb128 0x11
 3496 01b2 01       		.uleb128 0x1
 3497 01b3 12       		.uleb128 0x12
 3498 01b4 06       		.uleb128 0x6
 3499 01b5 40       		.uleb128 0x40
 3500 01b6 18       		.uleb128 0x18
 3501 01b7 9742     		.uleb128 0x2117
 3502 01b9 19       		.uleb128 0x19
 3503 01ba 01       		.uleb128 0x1
 3504 01bb 13       		.uleb128 0x13
 3505 01bc 00       		.byte	0
 3506 01bd 00       		.byte	0
 3507 01be 22       		.uleb128 0x22
 3508 01bf 05       		.uleb128 0x5
 3509 01c0 00       		.byte	0
 3510 01c1 03       		.uleb128 0x3
 3511 01c2 08       		.uleb128 0x8
 3512 01c3 3A       		.uleb128 0x3a
 3513 01c4 0B       		.uleb128 0xb
 3514 01c5 3B       		.uleb128 0x3b
 3515 01c6 0B       		.uleb128 0xb
 3516 01c7 49       		.uleb128 0x49
 3517 01c8 13       		.uleb128 0x13
 3518 01c9 02       		.uleb128 0x2
 3519 01ca 18       		.uleb128 0x18
 3520 01cb 00       		.byte	0
 3521 01cc 00       		.byte	0
 3522 01cd 23       		.uleb128 0x23
 3523 01ce 34       		.uleb128 0x34
 3524 01cf 00       		.byte	0
ARM GAS  /tmp/ccvKUrVh.s 			page 63


 3525 01d0 03       		.uleb128 0x3
 3526 01d1 0E       		.uleb128 0xe
 3527 01d2 49       		.uleb128 0x49
 3528 01d3 13       		.uleb128 0x13
 3529 01d4 34       		.uleb128 0x34
 3530 01d5 19       		.uleb128 0x19
 3531 01d6 00       		.byte	0
 3532 01d7 00       		.byte	0
 3533 01d8 24       		.uleb128 0x24
 3534 01d9 1D       		.uleb128 0x1d
 3535 01da 01       		.byte	0x1
 3536 01db 31       		.uleb128 0x31
 3537 01dc 13       		.uleb128 0x13
 3538 01dd 11       		.uleb128 0x11
 3539 01de 01       		.uleb128 0x1
 3540 01df 12       		.uleb128 0x12
 3541 01e0 06       		.uleb128 0x6
 3542 01e1 58       		.uleb128 0x58
 3543 01e2 0B       		.uleb128 0xb
 3544 01e3 59       		.uleb128 0x59
 3545 01e4 0B       		.uleb128 0xb
 3546 01e5 00       		.byte	0
 3547 01e6 00       		.byte	0
 3548 01e7 25       		.uleb128 0x25
 3549 01e8 05       		.uleb128 0x5
 3550 01e9 00       		.byte	0
 3551 01ea 31       		.uleb128 0x31
 3552 01eb 13       		.uleb128 0x13
 3553 01ec 02       		.uleb128 0x2
 3554 01ed 18       		.uleb128 0x18
 3555 01ee 00       		.byte	0
 3556 01ef 00       		.byte	0
 3557 01f0 26       		.uleb128 0x26
 3558 01f1 05       		.uleb128 0x5
 3559 01f2 00       		.byte	0
 3560 01f3 03       		.uleb128 0x3
 3561 01f4 08       		.uleb128 0x8
 3562 01f5 3A       		.uleb128 0x3a
 3563 01f6 0B       		.uleb128 0xb
 3564 01f7 3B       		.uleb128 0x3b
 3565 01f8 0B       		.uleb128 0xb
 3566 01f9 49       		.uleb128 0x49
 3567 01fa 13       		.uleb128 0x13
 3568 01fb 02       		.uleb128 0x2
 3569 01fc 17       		.uleb128 0x17
 3570 01fd 00       		.byte	0
 3571 01fe 00       		.byte	0
 3572 01ff 27       		.uleb128 0x27
 3573 0200 34       		.uleb128 0x34
 3574 0201 00       		.byte	0
 3575 0202 03       		.uleb128 0x3
 3576 0203 08       		.uleb128 0x8
 3577 0204 3A       		.uleb128 0x3a
 3578 0205 0B       		.uleb128 0xb
 3579 0206 3B       		.uleb128 0x3b
 3580 0207 0B       		.uleb128 0xb
 3581 0208 49       		.uleb128 0x49
ARM GAS  /tmp/ccvKUrVh.s 			page 64


 3582 0209 13       		.uleb128 0x13
 3583 020a 02       		.uleb128 0x2
 3584 020b 17       		.uleb128 0x17
 3585 020c 00       		.byte	0
 3586 020d 00       		.byte	0
 3587 020e 28       		.uleb128 0x28
 3588 020f 1D       		.uleb128 0x1d
 3589 0210 01       		.byte	0x1
 3590 0211 31       		.uleb128 0x31
 3591 0212 13       		.uleb128 0x13
 3592 0213 11       		.uleb128 0x11
 3593 0214 01       		.uleb128 0x1
 3594 0215 12       		.uleb128 0x12
 3595 0216 06       		.uleb128 0x6
 3596 0217 58       		.uleb128 0x58
 3597 0218 0B       		.uleb128 0xb
 3598 0219 59       		.uleb128 0x59
 3599 021a 0B       		.uleb128 0xb
 3600 021b 01       		.uleb128 0x1
 3601 021c 13       		.uleb128 0x13
 3602 021d 00       		.byte	0
 3603 021e 00       		.byte	0
 3604 021f 29       		.uleb128 0x29
 3605 0220 05       		.uleb128 0x5
 3606 0221 00       		.byte	0
 3607 0222 31       		.uleb128 0x31
 3608 0223 13       		.uleb128 0x13
 3609 0224 02       		.uleb128 0x2
 3610 0225 17       		.uleb128 0x17
 3611 0226 00       		.byte	0
 3612 0227 00       		.byte	0
 3613 0228 2A       		.uleb128 0x2a
 3614 0229 0B       		.uleb128 0xb
 3615 022a 01       		.byte	0x1
 3616 022b 11       		.uleb128 0x11
 3617 022c 01       		.uleb128 0x1
 3618 022d 12       		.uleb128 0x12
 3619 022e 06       		.uleb128 0x6
 3620 022f 00       		.byte	0
 3621 0230 00       		.byte	0
 3622 0231 2B       		.uleb128 0x2b
 3623 0232 34       		.uleb128 0x34
 3624 0233 00       		.byte	0
 3625 0234 31       		.uleb128 0x31
 3626 0235 13       		.uleb128 0x13
 3627 0236 02       		.uleb128 0x2
 3628 0237 17       		.uleb128 0x17
 3629 0238 00       		.byte	0
 3630 0239 00       		.byte	0
 3631 023a 2C       		.uleb128 0x2c
 3632 023b 898201   		.uleb128 0x4109
 3633 023e 00       		.byte	0
 3634 023f 11       		.uleb128 0x11
 3635 0240 01       		.uleb128 0x1
 3636 0241 31       		.uleb128 0x31
 3637 0242 13       		.uleb128 0x13
 3638 0243 00       		.byte	0
ARM GAS  /tmp/ccvKUrVh.s 			page 65


 3639 0244 00       		.byte	0
 3640 0245 2D       		.uleb128 0x2d
 3641 0246 1D       		.uleb128 0x1d
 3642 0247 01       		.byte	0x1
 3643 0248 31       		.uleb128 0x31
 3644 0249 13       		.uleb128 0x13
 3645 024a 11       		.uleb128 0x11
 3646 024b 01       		.uleb128 0x1
 3647 024c 12       		.uleb128 0x12
 3648 024d 06       		.uleb128 0x6
 3649 024e 58       		.uleb128 0x58
 3650 024f 0B       		.uleb128 0xb
 3651 0250 59       		.uleb128 0x59
 3652 0251 05       		.uleb128 0x5
 3653 0252 00       		.byte	0
 3654 0253 00       		.byte	0
 3655 0254 2E       		.uleb128 0x2e
 3656 0255 05       		.uleb128 0x5
 3657 0256 00       		.byte	0
 3658 0257 31       		.uleb128 0x31
 3659 0258 13       		.uleb128 0x13
 3660 0259 1C       		.uleb128 0x1c
 3661 025a 0B       		.uleb128 0xb
 3662 025b 00       		.byte	0
 3663 025c 00       		.byte	0
 3664 025d 2F       		.uleb128 0x2f
 3665 025e 34       		.uleb128 0x34
 3666 025f 00       		.byte	0
 3667 0260 31       		.uleb128 0x31
 3668 0261 13       		.uleb128 0x13
 3669 0262 00       		.byte	0
 3670 0263 00       		.byte	0
 3671 0264 30       		.uleb128 0x30
 3672 0265 898201   		.uleb128 0x4109
 3673 0268 01       		.byte	0x1
 3674 0269 11       		.uleb128 0x11
 3675 026a 01       		.uleb128 0x1
 3676 026b 31       		.uleb128 0x31
 3677 026c 13       		.uleb128 0x13
 3678 026d 01       		.uleb128 0x1
 3679 026e 13       		.uleb128 0x13
 3680 026f 00       		.byte	0
 3681 0270 00       		.byte	0
 3682 0271 31       		.uleb128 0x31
 3683 0272 8A8201   		.uleb128 0x410a
 3684 0275 00       		.byte	0
 3685 0276 02       		.uleb128 0x2
 3686 0277 18       		.uleb128 0x18
 3687 0278 9142     		.uleb128 0x2111
 3688 027a 18       		.uleb128 0x18
 3689 027b 00       		.byte	0
 3690 027c 00       		.byte	0
 3691 027d 32       		.uleb128 0x32
 3692 027e 2E       		.uleb128 0x2e
 3693 027f 01       		.byte	0x1
 3694 0280 3F       		.uleb128 0x3f
 3695 0281 19       		.uleb128 0x19
ARM GAS  /tmp/ccvKUrVh.s 			page 66


 3696 0282 03       		.uleb128 0x3
 3697 0283 0E       		.uleb128 0xe
 3698 0284 3A       		.uleb128 0x3a
 3699 0285 0B       		.uleb128 0xb
 3700 0286 3B       		.uleb128 0x3b
 3701 0287 0B       		.uleb128 0xb
 3702 0288 27       		.uleb128 0x27
 3703 0289 19       		.uleb128 0x19
 3704 028a 49       		.uleb128 0x49
 3705 028b 13       		.uleb128 0x13
 3706 028c 11       		.uleb128 0x11
 3707 028d 01       		.uleb128 0x1
 3708 028e 12       		.uleb128 0x12
 3709 028f 06       		.uleb128 0x6
 3710 0290 40       		.uleb128 0x40
 3711 0291 18       		.uleb128 0x18
 3712 0292 9742     		.uleb128 0x2117
 3713 0294 19       		.uleb128 0x19
 3714 0295 01       		.uleb128 0x1
 3715 0296 13       		.uleb128 0x13
 3716 0297 00       		.byte	0
 3717 0298 00       		.byte	0
 3718 0299 33       		.uleb128 0x33
 3719 029a 34       		.uleb128 0x34
 3720 029b 00       		.byte	0
 3721 029c 03       		.uleb128 0x3
 3722 029d 08       		.uleb128 0x8
 3723 029e 3A       		.uleb128 0x3a
 3724 029f 0B       		.uleb128 0xb
 3725 02a0 3B       		.uleb128 0x3b
 3726 02a1 0B       		.uleb128 0xb
 3727 02a2 49       		.uleb128 0x49
 3728 02a3 13       		.uleb128 0x13
 3729 02a4 00       		.byte	0
 3730 02a5 00       		.byte	0
 3731 02a6 34       		.uleb128 0x34
 3732 02a7 1D       		.uleb128 0x1d
 3733 02a8 01       		.byte	0x1
 3734 02a9 31       		.uleb128 0x31
 3735 02aa 13       		.uleb128 0x13
 3736 02ab 52       		.uleb128 0x52
 3737 02ac 01       		.uleb128 0x1
 3738 02ad 55       		.uleb128 0x55
 3739 02ae 17       		.uleb128 0x17
 3740 02af 58       		.uleb128 0x58
 3741 02b0 0B       		.uleb128 0xb
 3742 02b1 59       		.uleb128 0x59
 3743 02b2 0B       		.uleb128 0xb
 3744 02b3 01       		.uleb128 0x1
 3745 02b4 13       		.uleb128 0x13
 3746 02b5 00       		.byte	0
 3747 02b6 00       		.byte	0
 3748 02b7 35       		.uleb128 0x35
 3749 02b8 0B       		.uleb128 0xb
 3750 02b9 01       		.byte	0x1
 3751 02ba 55       		.uleb128 0x55
 3752 02bb 17       		.uleb128 0x17
ARM GAS  /tmp/ccvKUrVh.s 			page 67


 3753 02bc 00       		.byte	0
 3754 02bd 00       		.byte	0
 3755 02be 36       		.uleb128 0x36
 3756 02bf 898201   		.uleb128 0x4109
 3757 02c2 01       		.byte	0x1
 3758 02c3 11       		.uleb128 0x11
 3759 02c4 01       		.uleb128 0x1
 3760 02c5 31       		.uleb128 0x31
 3761 02c6 13       		.uleb128 0x13
 3762 02c7 00       		.byte	0
 3763 02c8 00       		.byte	0
 3764 02c9 37       		.uleb128 0x37
 3765 02ca 1D       		.uleb128 0x1d
 3766 02cb 01       		.byte	0x1
 3767 02cc 31       		.uleb128 0x31
 3768 02cd 13       		.uleb128 0x13
 3769 02ce 52       		.uleb128 0x52
 3770 02cf 01       		.uleb128 0x1
 3771 02d0 55       		.uleb128 0x55
 3772 02d1 17       		.uleb128 0x17
 3773 02d2 58       		.uleb128 0x58
 3774 02d3 0B       		.uleb128 0xb
 3775 02d4 59       		.uleb128 0x59
 3776 02d5 0B       		.uleb128 0xb
 3777 02d6 00       		.byte	0
 3778 02d7 00       		.byte	0
 3779 02d8 38       		.uleb128 0x38
 3780 02d9 1D       		.uleb128 0x1d
 3781 02da 01       		.byte	0x1
 3782 02db 31       		.uleb128 0x31
 3783 02dc 13       		.uleb128 0x13
 3784 02dd 52       		.uleb128 0x52
 3785 02de 01       		.uleb128 0x1
 3786 02df 55       		.uleb128 0x55
 3787 02e0 17       		.uleb128 0x17
 3788 02e1 58       		.uleb128 0x58
 3789 02e2 0B       		.uleb128 0xb
 3790 02e3 59       		.uleb128 0x59
 3791 02e4 05       		.uleb128 0x5
 3792 02e5 00       		.byte	0
 3793 02e6 00       		.byte	0
 3794 02e7 39       		.uleb128 0x39
 3795 02e8 2E       		.uleb128 0x2e
 3796 02e9 01       		.byte	0x1
 3797 02ea 31       		.uleb128 0x31
 3798 02eb 13       		.uleb128 0x13
 3799 02ec 11       		.uleb128 0x11
 3800 02ed 01       		.uleb128 0x1
 3801 02ee 12       		.uleb128 0x12
 3802 02ef 06       		.uleb128 0x6
 3803 02f0 40       		.uleb128 0x40
 3804 02f1 18       		.uleb128 0x18
 3805 02f2 9742     		.uleb128 0x2117
 3806 02f4 19       		.uleb128 0x19
 3807 02f5 01       		.uleb128 0x1
 3808 02f6 13       		.uleb128 0x13
 3809 02f7 00       		.byte	0
ARM GAS  /tmp/ccvKUrVh.s 			page 68


 3810 02f8 00       		.byte	0
 3811 02f9 3A       		.uleb128 0x3a
 3812 02fa 05       		.uleb128 0x5
 3813 02fb 00       		.byte	0
 3814 02fc 03       		.uleb128 0x3
 3815 02fd 0E       		.uleb128 0xe
 3816 02fe 3A       		.uleb128 0x3a
 3817 02ff 0B       		.uleb128 0xb
 3818 0300 3B       		.uleb128 0x3b
 3819 0301 0B       		.uleb128 0xb
 3820 0302 49       		.uleb128 0x49
 3821 0303 13       		.uleb128 0x13
 3822 0304 02       		.uleb128 0x2
 3823 0305 17       		.uleb128 0x17
 3824 0306 00       		.byte	0
 3825 0307 00       		.byte	0
 3826 0308 3B       		.uleb128 0x3b
 3827 0309 05       		.uleb128 0x5
 3828 030a 00       		.byte	0
 3829 030b 31       		.uleb128 0x31
 3830 030c 13       		.uleb128 0x13
 3831 030d 00       		.byte	0
 3832 030e 00       		.byte	0
 3833 030f 3C       		.uleb128 0x3c
 3834 0310 1D       		.uleb128 0x1d
 3835 0311 01       		.byte	0x1
 3836 0312 31       		.uleb128 0x31
 3837 0313 13       		.uleb128 0x13
 3838 0314 52       		.uleb128 0x52
 3839 0315 01       		.uleb128 0x1
 3840 0316 55       		.uleb128 0x55
 3841 0317 17       		.uleb128 0x17
 3842 0318 58       		.uleb128 0x58
 3843 0319 0B       		.uleb128 0xb
 3844 031a 59       		.uleb128 0x59
 3845 031b 05       		.uleb128 0x5
 3846 031c 01       		.uleb128 0x1
 3847 031d 13       		.uleb128 0x13
 3848 031e 00       		.byte	0
 3849 031f 00       		.byte	0
 3850 0320 3D       		.uleb128 0x3d
 3851 0321 898201   		.uleb128 0x4109
 3852 0324 01       		.byte	0x1
 3853 0325 11       		.uleb128 0x11
 3854 0326 01       		.uleb128 0x1
 3855 0327 9542     		.uleb128 0x2115
 3856 0329 19       		.uleb128 0x19
 3857 032a 31       		.uleb128 0x31
 3858 032b 13       		.uleb128 0x13
 3859 032c 00       		.byte	0
 3860 032d 00       		.byte	0
 3861 032e 3E       		.uleb128 0x3e
 3862 032f 2E       		.uleb128 0x2e
 3863 0330 01       		.byte	0x1
 3864 0331 3F       		.uleb128 0x3f
 3865 0332 19       		.uleb128 0x19
 3866 0333 03       		.uleb128 0x3
ARM GAS  /tmp/ccvKUrVh.s 			page 69


 3867 0334 0E       		.uleb128 0xe
 3868 0335 3A       		.uleb128 0x3a
 3869 0336 0B       		.uleb128 0xb
 3870 0337 3B       		.uleb128 0x3b
 3871 0338 05       		.uleb128 0x5
 3872 0339 27       		.uleb128 0x27
 3873 033a 19       		.uleb128 0x19
 3874 033b 11       		.uleb128 0x11
 3875 033c 01       		.uleb128 0x1
 3876 033d 12       		.uleb128 0x12
 3877 033e 06       		.uleb128 0x6
 3878 033f 40       		.uleb128 0x40
 3879 0340 18       		.uleb128 0x18
 3880 0341 9742     		.uleb128 0x2117
 3881 0343 19       		.uleb128 0x19
 3882 0344 01       		.uleb128 0x1
 3883 0345 13       		.uleb128 0x13
 3884 0346 00       		.byte	0
 3885 0347 00       		.byte	0
 3886 0348 3F       		.uleb128 0x3f
 3887 0349 05       		.uleb128 0x5
 3888 034a 00       		.byte	0
 3889 034b 03       		.uleb128 0x3
 3890 034c 08       		.uleb128 0x8
 3891 034d 3A       		.uleb128 0x3a
 3892 034e 0B       		.uleb128 0xb
 3893 034f 3B       		.uleb128 0x3b
 3894 0350 05       		.uleb128 0x5
 3895 0351 49       		.uleb128 0x49
 3896 0352 13       		.uleb128 0x13
 3897 0353 02       		.uleb128 0x2
 3898 0354 17       		.uleb128 0x17
 3899 0355 00       		.byte	0
 3900 0356 00       		.byte	0
 3901 0357 40       		.uleb128 0x40
 3902 0358 1D       		.uleb128 0x1d
 3903 0359 01       		.byte	0x1
 3904 035a 31       		.uleb128 0x31
 3905 035b 13       		.uleb128 0x13
 3906 035c 11       		.uleb128 0x11
 3907 035d 01       		.uleb128 0x1
 3908 035e 12       		.uleb128 0x12
 3909 035f 06       		.uleb128 0x6
 3910 0360 58       		.uleb128 0x58
 3911 0361 0B       		.uleb128 0xb
 3912 0362 59       		.uleb128 0x59
 3913 0363 05       		.uleb128 0x5
 3914 0364 01       		.uleb128 0x1
 3915 0365 13       		.uleb128 0x13
 3916 0366 00       		.byte	0
 3917 0367 00       		.byte	0
 3918 0368 41       		.uleb128 0x41
 3919 0369 34       		.uleb128 0x34
 3920 036a 00       		.byte	0
 3921 036b 03       		.uleb128 0x3
 3922 036c 08       		.uleb128 0x8
 3923 036d 3A       		.uleb128 0x3a
ARM GAS  /tmp/ccvKUrVh.s 			page 70


 3924 036e 0B       		.uleb128 0xb
 3925 036f 3B       		.uleb128 0x3b
 3926 0370 05       		.uleb128 0x5
 3927 0371 49       		.uleb128 0x49
 3928 0372 13       		.uleb128 0x13
 3929 0373 02       		.uleb128 0x2
 3930 0374 18       		.uleb128 0x18
 3931 0375 00       		.byte	0
 3932 0376 00       		.byte	0
 3933 0377 42       		.uleb128 0x42
 3934 0378 898201   		.uleb128 0x4109
 3935 037b 00       		.byte	0
 3936 037c 11       		.uleb128 0x11
 3937 037d 01       		.uleb128 0x1
 3938 037e 9542     		.uleb128 0x2115
 3939 0380 19       		.uleb128 0x19
 3940 0381 31       		.uleb128 0x31
 3941 0382 13       		.uleb128 0x13
 3942 0383 00       		.byte	0
 3943 0384 00       		.byte	0
 3944 0385 43       		.uleb128 0x43
 3945 0386 2E       		.uleb128 0x2e
 3946 0387 01       		.byte	0x1
 3947 0388 3F       		.uleb128 0x3f
 3948 0389 19       		.uleb128 0x19
 3949 038a 03       		.uleb128 0x3
 3950 038b 0E       		.uleb128 0xe
 3951 038c 3A       		.uleb128 0x3a
 3952 038d 0B       		.uleb128 0xb
 3953 038e 3B       		.uleb128 0x3b
 3954 038f 05       		.uleb128 0x5
 3955 0390 27       		.uleb128 0x27
 3956 0391 19       		.uleb128 0x19
 3957 0392 49       		.uleb128 0x49
 3958 0393 13       		.uleb128 0x13
 3959 0394 11       		.uleb128 0x11
 3960 0395 01       		.uleb128 0x1
 3961 0396 12       		.uleb128 0x12
 3962 0397 06       		.uleb128 0x6
 3963 0398 40       		.uleb128 0x40
 3964 0399 18       		.uleb128 0x18
 3965 039a 9742     		.uleb128 0x2117
 3966 039c 19       		.uleb128 0x19
 3967 039d 01       		.uleb128 0x1
 3968 039e 13       		.uleb128 0x13
 3969 039f 00       		.byte	0
 3970 03a0 00       		.byte	0
 3971 03a1 44       		.uleb128 0x44
 3972 03a2 34       		.uleb128 0x34
 3973 03a3 00       		.byte	0
 3974 03a4 03       		.uleb128 0x3
 3975 03a5 08       		.uleb128 0x8
 3976 03a6 3A       		.uleb128 0x3a
 3977 03a7 0B       		.uleb128 0xb
 3978 03a8 3B       		.uleb128 0x3b
 3979 03a9 05       		.uleb128 0x5
 3980 03aa 49       		.uleb128 0x49
ARM GAS  /tmp/ccvKUrVh.s 			page 71


 3981 03ab 13       		.uleb128 0x13
 3982 03ac 02       		.uleb128 0x2
 3983 03ad 17       		.uleb128 0x17
 3984 03ae 00       		.byte	0
 3985 03af 00       		.byte	0
 3986 03b0 45       		.uleb128 0x45
 3987 03b1 0B       		.uleb128 0xb
 3988 03b2 01       		.byte	0x1
 3989 03b3 11       		.uleb128 0x11
 3990 03b4 01       		.uleb128 0x1
 3991 03b5 12       		.uleb128 0x12
 3992 03b6 06       		.uleb128 0x6
 3993 03b7 01       		.uleb128 0x1
 3994 03b8 13       		.uleb128 0x13
 3995 03b9 00       		.byte	0
 3996 03ba 00       		.byte	0
 3997 03bb 46       		.uleb128 0x46
 3998 03bc 34       		.uleb128 0x34
 3999 03bd 00       		.byte	0
 4000 03be 03       		.uleb128 0x3
 4001 03bf 0E       		.uleb128 0xe
 4002 03c0 3A       		.uleb128 0x3a
 4003 03c1 0B       		.uleb128 0xb
 4004 03c2 3B       		.uleb128 0x3b
 4005 03c3 05       		.uleb128 0x5
 4006 03c4 49       		.uleb128 0x49
 4007 03c5 13       		.uleb128 0x13
 4008 03c6 3F       		.uleb128 0x3f
 4009 03c7 19       		.uleb128 0x19
 4010 03c8 3C       		.uleb128 0x3c
 4011 03c9 19       		.uleb128 0x19
 4012 03ca 00       		.byte	0
 4013 03cb 00       		.byte	0
 4014 03cc 47       		.uleb128 0x47
 4015 03cd 34       		.uleb128 0x34
 4016 03ce 00       		.byte	0
 4017 03cf 03       		.uleb128 0x3
 4018 03d0 08       		.uleb128 0x8
 4019 03d1 3A       		.uleb128 0x3a
 4020 03d2 0B       		.uleb128 0xb
 4021 03d3 3B       		.uleb128 0x3b
 4022 03d4 05       		.uleb128 0x5
 4023 03d5 49       		.uleb128 0x49
 4024 03d6 13       		.uleb128 0x13
 4025 03d7 3F       		.uleb128 0x3f
 4026 03d8 19       		.uleb128 0x19
 4027 03d9 3C       		.uleb128 0x3c
 4028 03da 19       		.uleb128 0x19
 4029 03db 00       		.byte	0
 4030 03dc 00       		.byte	0
 4031 03dd 48       		.uleb128 0x48
 4032 03de 2E       		.uleb128 0x2e
 4033 03df 00       		.byte	0
 4034 03e0 3F       		.uleb128 0x3f
 4035 03e1 19       		.uleb128 0x19
 4036 03e2 3C       		.uleb128 0x3c
 4037 03e3 19       		.uleb128 0x19
ARM GAS  /tmp/ccvKUrVh.s 			page 72


 4038 03e4 6E       		.uleb128 0x6e
 4039 03e5 0E       		.uleb128 0xe
 4040 03e6 03       		.uleb128 0x3
 4041 03e7 0E       		.uleb128 0xe
 4042 03e8 3A       		.uleb128 0x3a
 4043 03e9 0B       		.uleb128 0xb
 4044 03ea 3B       		.uleb128 0x3b
 4045 03eb 05       		.uleb128 0x5
 4046 03ec 00       		.byte	0
 4047 03ed 00       		.byte	0
 4048 03ee 00       		.byte	0
 4049              		.section	.debug_loc,"",%progbits
 4050              	.Ldebug_loc0:
 4051              	.LLST0:
 4052 0000 00000000 		.4byte	.LVL1
 4053 0004 12000000 		.4byte	.LVL4
 4054 0008 0100     		.2byte	0x1
 4055 000a 50       		.byte	0x50
 4056 000b 12000000 		.4byte	.LVL4
 4057 000f 26000000 		.4byte	.LVL9
 4058 0013 0100     		.2byte	0x1
 4059 0015 54       		.byte	0x54
 4060 0016 26000000 		.4byte	.LVL9
 4061 001a 28000000 		.4byte	.LFE231
 4062 001e 0400     		.2byte	0x4
 4063 0020 F3       		.byte	0xf3
 4064 0021 01       		.uleb128 0x1
 4065 0022 50       		.byte	0x50
 4066 0023 9F       		.byte	0x9f
 4067 0024 00000000 		.4byte	0
 4068 0028 00000000 		.4byte	0
 4069              	.LLST1:
 4070 002c 00000000 		.4byte	.LVL1
 4071 0030 12000000 		.4byte	.LVL4
 4072 0034 0100     		.2byte	0x1
 4073 0036 51       		.byte	0x51
 4074 0037 12000000 		.4byte	.LVL4
 4075 003b 28000000 		.4byte	.LFE231
 4076 003f 0400     		.2byte	0x4
 4077 0041 F3       		.byte	0xf3
 4078 0042 01       		.uleb128 0x1
 4079 0043 51       		.byte	0x51
 4080 0044 9F       		.byte	0x9f
 4081 0045 00000000 		.4byte	0
 4082 0049 00000000 		.4byte	0
 4083              	.LLST2:
 4084 004d 04000000 		.4byte	.LVL2
 4085 0051 20000000 		.4byte	.LVL7
 4086 0055 0100     		.2byte	0x1
 4087 0057 55       		.byte	0x55
 4088 0058 20000000 		.4byte	.LVL7
 4089 005c 24000000 		.4byte	.LVL8
 4090 0060 0300     		.2byte	0x3
 4091 0062 75       		.byte	0x75
 4092 0063 7F       		.sleb128 -1
 4093 0064 9F       		.byte	0x9f
 4094 0065 24000000 		.4byte	.LVL8
ARM GAS  /tmp/ccvKUrVh.s 			page 73


 4095 0069 28000000 		.4byte	.LFE231
 4096 006d 0100     		.2byte	0x1
 4097 006f 55       		.byte	0x55
 4098 0070 00000000 		.4byte	0
 4099 0074 00000000 		.4byte	0
 4100              	.LLST3:
 4101 0078 12000000 		.4byte	.LVL4
 4102 007c 26000000 		.4byte	.LVL9
 4103 0080 0100     		.2byte	0x1
 4104 0082 54       		.byte	0x54
 4105 0083 00000000 		.4byte	0
 4106 0087 00000000 		.4byte	0
 4107              	.LLST4:
 4108 008b 14000000 		.4byte	.LVL5
 4109 008f 1D000000 		.4byte	.LVL6-1
 4110 0093 0100     		.2byte	0x1
 4111 0095 50       		.byte	0x50
 4112 0096 00000000 		.4byte	0
 4113 009a 00000000 		.4byte	0
 4114              	.LLST5:
 4115 009e 00000000 		.4byte	.LVL10
 4116 00a2 0B000000 		.4byte	.LVL11-1
 4117 00a6 0100     		.2byte	0x1
 4118 00a8 50       		.byte	0x50
 4119 00a9 0B000000 		.4byte	.LVL11-1
 4120 00ad 18000000 		.4byte	.LFE230
 4121 00b1 0400     		.2byte	0x4
 4122 00b3 F3       		.byte	0xf3
 4123 00b4 01       		.uleb128 0x1
 4124 00b5 50       		.byte	0x50
 4125 00b6 9F       		.byte	0x9f
 4126 00b7 00000000 		.4byte	0
 4127 00bb 00000000 		.4byte	0
 4128              	.LLST6:
 4129 00bf 00000000 		.4byte	.LVL10
 4130 00c3 0B000000 		.4byte	.LVL11-1
 4131 00c7 0100     		.2byte	0x1
 4132 00c9 51       		.byte	0x51
 4133 00ca 0B000000 		.4byte	.LVL11-1
 4134 00ce 18000000 		.4byte	.LFE230
 4135 00d2 0400     		.2byte	0x4
 4136 00d4 F3       		.byte	0xf3
 4137 00d5 01       		.uleb128 0x1
 4138 00d6 51       		.byte	0x51
 4139 00d7 9F       		.byte	0x9f
 4140 00d8 00000000 		.4byte	0
 4141 00dc 00000000 		.4byte	0
 4142              	.LLST7:
 4143 00e0 00000000 		.4byte	.LVL13
 4144 00e4 12000000 		.4byte	.LVL15
 4145 00e8 0100     		.2byte	0x1
 4146 00ea 50       		.byte	0x50
 4147 00eb 12000000 		.4byte	.LVL15
 4148 00ef 1A000000 		.4byte	.LVL16
 4149 00f3 0400     		.2byte	0x4
 4150 00f5 F3       		.byte	0xf3
 4151 00f6 01       		.uleb128 0x1
ARM GAS  /tmp/ccvKUrVh.s 			page 74


 4152 00f7 50       		.byte	0x50
 4153 00f8 9F       		.byte	0x9f
 4154 00f9 1A000000 		.4byte	.LVL16
 4155 00fd 2E000000 		.4byte	.LVL18
 4156 0101 0100     		.2byte	0x1
 4157 0103 50       		.byte	0x50
 4158 0104 2E000000 		.4byte	.LVL18
 4159 0108 33000000 		.4byte	.LVL19-1
 4160 010c 0100     		.2byte	0x1
 4161 010e 53       		.byte	0x53
 4162 010f 33000000 		.4byte	.LVL19-1
 4163 0113 44000000 		.4byte	.LFE232
 4164 0117 0400     		.2byte	0x4
 4165 0119 F3       		.byte	0xf3
 4166 011a 01       		.uleb128 0x1
 4167 011b 50       		.byte	0x50
 4168 011c 9F       		.byte	0x9f
 4169 011d 00000000 		.4byte	0
 4170 0121 00000000 		.4byte	0
 4171              	.LLST8:
 4172 0125 06000000 		.4byte	.LVL14
 4173 0129 12000000 		.4byte	.LVL15
 4174 012d 0100     		.2byte	0x1
 4175 012f 50       		.byte	0x50
 4176 0130 12000000 		.4byte	.LVL15
 4177 0134 1A000000 		.4byte	.LVL16
 4178 0138 0400     		.2byte	0x4
 4179 013a F3       		.byte	0xf3
 4180 013b 01       		.uleb128 0x1
 4181 013c 50       		.byte	0x50
 4182 013d 9F       		.byte	0x9f
 4183 013e 1A000000 		.4byte	.LVL16
 4184 0142 2E000000 		.4byte	.LVL18
 4185 0146 0100     		.2byte	0x1
 4186 0148 50       		.byte	0x50
 4187 0149 2E000000 		.4byte	.LVL18
 4188 014d 33000000 		.4byte	.LVL19-1
 4189 0151 0100     		.2byte	0x1
 4190 0153 53       		.byte	0x53
 4191 0154 33000000 		.4byte	.LVL19-1
 4192 0158 44000000 		.4byte	.LFE232
 4193 015c 0400     		.2byte	0x4
 4194 015e F3       		.byte	0xf3
 4195 015f 01       		.uleb128 0x1
 4196 0160 50       		.byte	0x50
 4197 0161 9F       		.byte	0x9f
 4198 0162 00000000 		.4byte	0
 4199 0166 00000000 		.4byte	0
 4200              	.LLST9:
 4201 016a 28000000 		.4byte	.LVL17
 4202 016e 33000000 		.4byte	.LVL19-1
 4203 0172 0100     		.2byte	0x1
 4204 0174 53       		.byte	0x53
 4205 0175 33000000 		.4byte	.LVL19-1
 4206 0179 44000000 		.4byte	.LFE232
 4207 017d 0400     		.2byte	0x4
 4208 017f F3       		.byte	0xf3
ARM GAS  /tmp/ccvKUrVh.s 			page 75


 4209 0180 01       		.uleb128 0x1
 4210 0181 50       		.byte	0x50
 4211 0182 9F       		.byte	0x9f
 4212 0183 00000000 		.4byte	0
 4213 0187 00000000 		.4byte	0
 4214              	.LLST10:
 4215 018b 28000000 		.4byte	.LVL17
 4216 018f 33000000 		.4byte	.LVL19-1
 4217 0193 0100     		.2byte	0x1
 4218 0195 53       		.byte	0x53
 4219 0196 33000000 		.4byte	.LVL19-1
 4220 019a 44000000 		.4byte	.LFE232
 4221 019e 0400     		.2byte	0x4
 4222 01a0 F3       		.byte	0xf3
 4223 01a1 01       		.uleb128 0x1
 4224 01a2 50       		.byte	0x50
 4225 01a3 9F       		.byte	0x9f
 4226 01a4 00000000 		.4byte	0
 4227 01a8 00000000 		.4byte	0
 4228              	.LLST11:
 4229 01ac 28000000 		.4byte	.LVL17
 4230 01b0 33000000 		.4byte	.LVL19-1
 4231 01b4 0100     		.2byte	0x1
 4232 01b6 52       		.byte	0x52
 4233 01b7 00000000 		.4byte	0
 4234 01bb 00000000 		.4byte	0
 4235              	.LLST12:
 4236 01bf 12000000 		.4byte	.LVL15
 4237 01c3 1A000000 		.4byte	.LVL16
 4238 01c7 0200     		.2byte	0x2
 4239 01c9 30       		.byte	0x30
 4240 01ca 9F       		.byte	0x9f
 4241 01cb 38000000 		.4byte	.LVL20
 4242 01cf 44000000 		.4byte	.LFE232
 4243 01d3 0200     		.2byte	0x2
 4244 01d5 30       		.byte	0x30
 4245 01d6 9F       		.byte	0x9f
 4246 01d7 00000000 		.4byte	0
 4247 01db 00000000 		.4byte	0
 4248              	.LLST13:
 4249 01df 00000000 		.4byte	.LVL21
 4250 01e3 0C000000 		.4byte	.LVL22
 4251 01e7 0100     		.2byte	0x1
 4252 01e9 50       		.byte	0x50
 4253 01ea 0C000000 		.4byte	.LVL22
 4254 01ee 0E000000 		.4byte	.LVL23
 4255 01f2 0400     		.2byte	0x4
 4256 01f4 F3       		.byte	0xf3
 4257 01f5 01       		.uleb128 0x1
 4258 01f6 50       		.byte	0x50
 4259 01f7 9F       		.byte	0x9f
 4260 01f8 0E000000 		.4byte	.LVL23
 4261 01fc 22000000 		.4byte	.LVL25
 4262 0200 0100     		.2byte	0x1
 4263 0202 50       		.byte	0x50
 4264 0203 22000000 		.4byte	.LVL25
 4265 0207 27000000 		.4byte	.LVL26-1
ARM GAS  /tmp/ccvKUrVh.s 			page 76


 4266 020b 0100     		.2byte	0x1
 4267 020d 53       		.byte	0x53
 4268 020e 27000000 		.4byte	.LVL26-1
 4269 0212 34000000 		.4byte	.LFE233
 4270 0216 0400     		.2byte	0x4
 4271 0218 F3       		.byte	0xf3
 4272 0219 01       		.uleb128 0x1
 4273 021a 50       		.byte	0x50
 4274 021b 9F       		.byte	0x9f
 4275 021c 00000000 		.4byte	0
 4276 0220 00000000 		.4byte	0
 4277              	.LLST14:
 4278 0224 1C000000 		.4byte	.LVL24
 4279 0228 27000000 		.4byte	.LVL26-1
 4280 022c 0100     		.2byte	0x1
 4281 022e 53       		.byte	0x53
 4282 022f 27000000 		.4byte	.LVL26-1
 4283 0233 34000000 		.4byte	.LFE233
 4284 0237 0400     		.2byte	0x4
 4285 0239 F3       		.byte	0xf3
 4286 023a 01       		.uleb128 0x1
 4287 023b 50       		.byte	0x50
 4288 023c 9F       		.byte	0x9f
 4289 023d 00000000 		.4byte	0
 4290 0241 00000000 		.4byte	0
 4291              	.LLST15:
 4292 0245 1C000000 		.4byte	.LVL24
 4293 0249 27000000 		.4byte	.LVL26-1
 4294 024d 0100     		.2byte	0x1
 4295 024f 53       		.byte	0x53
 4296 0250 27000000 		.4byte	.LVL26-1
 4297 0254 34000000 		.4byte	.LFE233
 4298 0258 0400     		.2byte	0x4
 4299 025a F3       		.byte	0xf3
 4300 025b 01       		.uleb128 0x1
 4301 025c 50       		.byte	0x50
 4302 025d 9F       		.byte	0x9f
 4303 025e 00000000 		.4byte	0
 4304 0262 00000000 		.4byte	0
 4305              	.LLST16:
 4306 0266 1C000000 		.4byte	.LVL24
 4307 026a 27000000 		.4byte	.LVL26-1
 4308 026e 0100     		.2byte	0x1
 4309 0270 52       		.byte	0x52
 4310 0271 00000000 		.4byte	0
 4311 0275 00000000 		.4byte	0
 4312              	.LLST17:
 4313 0279 00000000 		.4byte	.LVL27
 4314 027d 12000000 		.4byte	.LVL29
 4315 0281 0100     		.2byte	0x1
 4316 0283 50       		.byte	0x50
 4317 0284 12000000 		.4byte	.LVL29
 4318 0288 1A000000 		.4byte	.LVL30
 4319 028c 0400     		.2byte	0x4
 4320 028e F3       		.byte	0xf3
 4321 028f 01       		.uleb128 0x1
 4322 0290 50       		.byte	0x50
ARM GAS  /tmp/ccvKUrVh.s 			page 77


 4323 0291 9F       		.byte	0x9f
 4324 0292 1A000000 		.4byte	.LVL30
 4325 0296 2E000000 		.4byte	.LVL33
 4326 029a 0100     		.2byte	0x1
 4327 029c 50       		.byte	0x50
 4328 029d 2E000000 		.4byte	.LVL33
 4329 02a1 35000000 		.4byte	.LVL34-1
 4330 02a5 0100     		.2byte	0x1
 4331 02a7 53       		.byte	0x53
 4332 02a8 35000000 		.4byte	.LVL34-1
 4333 02ac 3E000000 		.4byte	.LVL35
 4334 02b0 0400     		.2byte	0x4
 4335 02b2 F3       		.byte	0xf3
 4336 02b3 01       		.uleb128 0x1
 4337 02b4 50       		.byte	0x50
 4338 02b5 9F       		.byte	0x9f
 4339 02b6 3E000000 		.4byte	.LVL35
 4340 02ba 44000000 		.4byte	.LVL36
 4341 02be 0100     		.2byte	0x1
 4342 02c0 50       		.byte	0x50
 4343 02c1 44000000 		.4byte	.LVL36
 4344 02c5 4C000000 		.4byte	.LFE234
 4345 02c9 0400     		.2byte	0x4
 4346 02cb F3       		.byte	0xf3
 4347 02cc 01       		.uleb128 0x1
 4348 02cd 50       		.byte	0x50
 4349 02ce 9F       		.byte	0x9f
 4350 02cf 00000000 		.4byte	0
 4351 02d3 00000000 		.4byte	0
 4352              	.LLST18:
 4353 02d7 00000000 		.4byte	.LVL27
 4354 02db 35000000 		.4byte	.LVL34-1
 4355 02df 0100     		.2byte	0x1
 4356 02e1 51       		.byte	0x51
 4357 02e2 35000000 		.4byte	.LVL34-1
 4358 02e6 3E000000 		.4byte	.LVL35
 4359 02ea 0400     		.2byte	0x4
 4360 02ec F3       		.byte	0xf3
 4361 02ed 01       		.uleb128 0x1
 4362 02ee 51       		.byte	0x51
 4363 02ef 9F       		.byte	0x9f
 4364 02f0 3E000000 		.4byte	.LVL35
 4365 02f4 4C000000 		.4byte	.LFE234
 4366 02f8 0100     		.2byte	0x1
 4367 02fa 51       		.byte	0x51
 4368 02fb 00000000 		.4byte	0
 4369 02ff 00000000 		.4byte	0
 4370              	.LLST19:
 4371 0303 06000000 		.4byte	.LVL28
 4372 0307 26000000 		.4byte	.LVL31
 4373 030b 0100     		.2byte	0x1
 4374 030d 54       		.byte	0x54
 4375 030e 3E000000 		.4byte	.LVL35
 4376 0312 4C000000 		.4byte	.LFE234
 4377 0316 0100     		.2byte	0x1
 4378 0318 54       		.byte	0x54
 4379 0319 00000000 		.4byte	0
ARM GAS  /tmp/ccvKUrVh.s 			page 78


 4380 031d 00000000 		.4byte	0
 4381              	.LLST20:
 4382 0321 06000000 		.4byte	.LVL28
 4383 0325 12000000 		.4byte	.LVL29
 4384 0329 0100     		.2byte	0x1
 4385 032b 50       		.byte	0x50
 4386 032c 12000000 		.4byte	.LVL29
 4387 0330 1A000000 		.4byte	.LVL30
 4388 0334 0400     		.2byte	0x4
 4389 0336 F3       		.byte	0xf3
 4390 0337 01       		.uleb128 0x1
 4391 0338 50       		.byte	0x50
 4392 0339 9F       		.byte	0x9f
 4393 033a 1A000000 		.4byte	.LVL30
 4394 033e 2E000000 		.4byte	.LVL33
 4395 0342 0100     		.2byte	0x1
 4396 0344 50       		.byte	0x50
 4397 0345 2E000000 		.4byte	.LVL33
 4398 0349 35000000 		.4byte	.LVL34-1
 4399 034d 0100     		.2byte	0x1
 4400 034f 53       		.byte	0x53
 4401 0350 35000000 		.4byte	.LVL34-1
 4402 0354 3E000000 		.4byte	.LVL35
 4403 0358 0400     		.2byte	0x4
 4404 035a F3       		.byte	0xf3
 4405 035b 01       		.uleb128 0x1
 4406 035c 50       		.byte	0x50
 4407 035d 9F       		.byte	0x9f
 4408 035e 3E000000 		.4byte	.LVL35
 4409 0362 44000000 		.4byte	.LVL36
 4410 0366 0100     		.2byte	0x1
 4411 0368 50       		.byte	0x50
 4412 0369 44000000 		.4byte	.LVL36
 4413 036d 4C000000 		.4byte	.LFE234
 4414 0371 0400     		.2byte	0x4
 4415 0373 F3       		.byte	0xf3
 4416 0374 01       		.uleb128 0x1
 4417 0375 50       		.byte	0x50
 4418 0376 9F       		.byte	0x9f
 4419 0377 00000000 		.4byte	0
 4420 037b 00000000 		.4byte	0
 4421              	.LLST21:
 4422 037f 28000000 		.4byte	.LVL32
 4423 0383 35000000 		.4byte	.LVL34-1
 4424 0387 0100     		.2byte	0x1
 4425 0389 53       		.byte	0x53
 4426 038a 35000000 		.4byte	.LVL34-1
 4427 038e 36000000 		.4byte	.LVL34
 4428 0392 0400     		.2byte	0x4
 4429 0394 F3       		.byte	0xf3
 4430 0395 01       		.uleb128 0x1
 4431 0396 50       		.byte	0x50
 4432 0397 9F       		.byte	0x9f
 4433 0398 00000000 		.4byte	0
 4434 039c 00000000 		.4byte	0
 4435              	.LLST22:
 4436 03a0 28000000 		.4byte	.LVL32
ARM GAS  /tmp/ccvKUrVh.s 			page 79


 4437 03a4 35000000 		.4byte	.LVL34-1
 4438 03a8 0100     		.2byte	0x1
 4439 03aa 53       		.byte	0x53
 4440 03ab 35000000 		.4byte	.LVL34-1
 4441 03af 36000000 		.4byte	.LVL34
 4442 03b3 0400     		.2byte	0x4
 4443 03b5 F3       		.byte	0xf3
 4444 03b6 01       		.uleb128 0x1
 4445 03b7 50       		.byte	0x50
 4446 03b8 9F       		.byte	0x9f
 4447 03b9 00000000 		.4byte	0
 4448 03bd 00000000 		.4byte	0
 4449              	.LLST23:
 4450 03c1 28000000 		.4byte	.LVL32
 4451 03c5 35000000 		.4byte	.LVL34-1
 4452 03c9 0100     		.2byte	0x1
 4453 03cb 52       		.byte	0x52
 4454 03cc 00000000 		.4byte	0
 4455 03d0 00000000 		.4byte	0
 4456              	.LLST24:
 4457 03d4 12000000 		.4byte	.LVL29
 4458 03d8 1A000000 		.4byte	.LVL30
 4459 03dc 0200     		.2byte	0x2
 4460 03de 30       		.byte	0x30
 4461 03df 9F       		.byte	0x9f
 4462 03e0 36000000 		.4byte	.LVL34
 4463 03e4 3E000000 		.4byte	.LVL35
 4464 03e8 0200     		.2byte	0x2
 4465 03ea 30       		.byte	0x30
 4466 03eb 9F       		.byte	0x9f
 4467 03ec 00000000 		.4byte	0
 4468 03f0 00000000 		.4byte	0
 4469              	.LLST25:
 4470 03f4 00000000 		.4byte	.LVL37
 4471 03f8 04000000 		.4byte	.LVL38
 4472 03fc 0100     		.2byte	0x1
 4473 03fe 50       		.byte	0x50
 4474 03ff 04000000 		.4byte	.LVL38
 4475 0403 2D000000 		.4byte	.LVL41-1
 4476 0407 0100     		.2byte	0x1
 4477 0409 53       		.byte	0x53
 4478 040a 2D000000 		.4byte	.LVL41-1
 4479 040e 2E000000 		.4byte	.LVL41
 4480 0412 0400     		.2byte	0x4
 4481 0414 F3       		.byte	0xf3
 4482 0415 01       		.uleb128 0x1
 4483 0416 50       		.byte	0x50
 4484 0417 9F       		.byte	0x9f
 4485 0418 2E000000 		.4byte	.LVL41
 4486 041c 40000000 		.4byte	.LFE235
 4487 0420 0100     		.2byte	0x1
 4488 0422 53       		.byte	0x53
 4489 0423 00000000 		.4byte	0
 4490 0427 00000000 		.4byte	0
 4491              	.LLST26:
 4492 042b 00000000 		.4byte	.LVL37
 4493 042f 2D000000 		.4byte	.LVL41-1
ARM GAS  /tmp/ccvKUrVh.s 			page 80


 4494 0433 0100     		.2byte	0x1
 4495 0435 51       		.byte	0x51
 4496 0436 2D000000 		.4byte	.LVL41-1
 4497 043a 2E000000 		.4byte	.LVL41
 4498 043e 0400     		.2byte	0x4
 4499 0440 F3       		.byte	0xf3
 4500 0441 01       		.uleb128 0x1
 4501 0442 51       		.byte	0x51
 4502 0443 9F       		.byte	0x9f
 4503 0444 2E000000 		.4byte	.LVL41
 4504 0448 40000000 		.4byte	.LFE235
 4505 044c 0100     		.2byte	0x1
 4506 044e 51       		.byte	0x51
 4507 044f 00000000 		.4byte	0
 4508 0453 00000000 		.4byte	0
 4509              	.LLST27:
 4510 0457 14000000 		.4byte	.LVL39
 4511 045b 2D000000 		.4byte	.LVL41-1
 4512 045f 0100     		.2byte	0x1
 4513 0461 53       		.byte	0x53
 4514 0462 2D000000 		.4byte	.LVL41-1
 4515 0466 2E000000 		.4byte	.LVL41
 4516 046a 0400     		.2byte	0x4
 4517 046c F3       		.byte	0xf3
 4518 046d 01       		.uleb128 0x1
 4519 046e 50       		.byte	0x50
 4520 046f 9F       		.byte	0x9f
 4521 0470 00000000 		.4byte	0
 4522 0474 00000000 		.4byte	0
 4523              	.LLST28:
 4524 0478 1A000000 		.4byte	.LVL40
 4525 047c 2D000000 		.4byte	.LVL41-1
 4526 0480 0100     		.2byte	0x1
 4527 0482 53       		.byte	0x53
 4528 0483 2D000000 		.4byte	.LVL41-1
 4529 0487 2E000000 		.4byte	.LVL41
 4530 048b 0400     		.2byte	0x4
 4531 048d F3       		.byte	0xf3
 4532 048e 01       		.uleb128 0x1
 4533 048f 50       		.byte	0x50
 4534 0490 9F       		.byte	0x9f
 4535 0491 00000000 		.4byte	0
 4536 0495 00000000 		.4byte	0
 4537              	.LLST29:
 4538 0499 1A000000 		.4byte	.LVL40
 4539 049d 2D000000 		.4byte	.LVL41-1
 4540 04a1 0100     		.2byte	0x1
 4541 04a3 52       		.byte	0x52
 4542 04a4 00000000 		.4byte	0
 4543 04a8 00000000 		.4byte	0
 4544              	.LLST30:
 4545 04ac 00000000 		.4byte	.LVL42
 4546 04b0 1E000000 		.4byte	.LVL46
 4547 04b4 0100     		.2byte	0x1
 4548 04b6 50       		.byte	0x50
 4549 04b7 1E000000 		.4byte	.LVL46
 4550 04bb 29000000 		.4byte	.LVL47-1
ARM GAS  /tmp/ccvKUrVh.s 			page 81


 4551 04bf 0100     		.2byte	0x1
 4552 04c1 53       		.byte	0x53
 4553 04c2 29000000 		.4byte	.LVL47-1
 4554 04c6 32000000 		.4byte	.LFE236
 4555 04ca 0400     		.2byte	0x4
 4556 04cc F3       		.byte	0xf3
 4557 04cd 01       		.uleb128 0x1
 4558 04ce 50       		.byte	0x50
 4559 04cf 9F       		.byte	0x9f
 4560 04d0 00000000 		.4byte	0
 4561 04d4 00000000 		.4byte	0
 4562              	.LLST31:
 4563 04d8 12000000 		.4byte	.LVL43
 4564 04dc 1A000000 		.4byte	.LVL44
 4565 04e0 0200     		.2byte	0x2
 4566 04e2 30       		.byte	0x30
 4567 04e3 9F       		.byte	0x9f
 4568 04e4 2A000000 		.4byte	.LVL47
 4569 04e8 32000000 		.4byte	.LFE236
 4570 04ec 0200     		.2byte	0x2
 4571 04ee 30       		.byte	0x30
 4572 04ef 9F       		.byte	0x9f
 4573 04f0 00000000 		.4byte	0
 4574 04f4 00000000 		.4byte	0
 4575              	.LLST32:
 4576 04f8 1C000000 		.4byte	.LVL45
 4577 04fc 29000000 		.4byte	.LVL47-1
 4578 0500 0100     		.2byte	0x1
 4579 0502 53       		.byte	0x53
 4580 0503 29000000 		.4byte	.LVL47-1
 4581 0507 32000000 		.4byte	.LFE236
 4582 050b 0400     		.2byte	0x4
 4583 050d F3       		.byte	0xf3
 4584 050e 01       		.uleb128 0x1
 4585 050f 50       		.byte	0x50
 4586 0510 9F       		.byte	0x9f
 4587 0511 00000000 		.4byte	0
 4588 0515 00000000 		.4byte	0
 4589              	.LLST33:
 4590 0519 1E000000 		.4byte	.LVL46
 4591 051d 29000000 		.4byte	.LVL47-1
 4592 0521 0100     		.2byte	0x1
 4593 0523 50       		.byte	0x50
 4594 0524 00000000 		.4byte	0
 4595 0528 00000000 		.4byte	0
 4596              	.LLST34:
 4597 052c 00000000 		.4byte	.LVL48
 4598 0530 18000000 		.4byte	.LVL51
 4599 0534 0100     		.2byte	0x1
 4600 0536 50       		.byte	0x50
 4601 0537 18000000 		.4byte	.LVL51
 4602 053b 1A000000 		.4byte	.LVL52
 4603 053f 0200     		.2byte	0x2
 4604 0541 72       		.byte	0x72
 4605 0542 04       		.sleb128 4
 4606 0543 1A000000 		.4byte	.LVL52
 4607 0547 1E000000 		.4byte	.LFE237
ARM GAS  /tmp/ccvKUrVh.s 			page 82


 4608 054b 0400     		.2byte	0x4
 4609 054d F3       		.byte	0xf3
 4610 054e 01       		.uleb128 0x1
 4611 054f 50       		.byte	0x50
 4612 0550 9F       		.byte	0x9f
 4613 0551 00000000 		.4byte	0
 4614 0555 00000000 		.4byte	0
 4615              	.LLST35:
 4616 0559 0C000000 		.4byte	.LVL49
 4617 055d 18000000 		.4byte	.LVL51
 4618 0561 0100     		.2byte	0x1
 4619 0563 50       		.byte	0x50
 4620 0564 18000000 		.4byte	.LVL51
 4621 0568 1A000000 		.4byte	.LVL52
 4622 056c 0200     		.2byte	0x2
 4623 056e 72       		.byte	0x72
 4624 056f 04       		.sleb128 4
 4625 0570 1A000000 		.4byte	.LVL52
 4626 0574 1E000000 		.4byte	.LFE237
 4627 0578 0400     		.2byte	0x4
 4628 057a F3       		.byte	0xf3
 4629 057b 01       		.uleb128 0x1
 4630 057c 50       		.byte	0x50
 4631 057d 9F       		.byte	0x9f
 4632 057e 00000000 		.4byte	0
 4633 0582 00000000 		.4byte	0
 4634              	.LLST36:
 4635 0586 0E000000 		.4byte	.LVL50
 4636 058a 1D000000 		.4byte	.LVL53-1
 4637 058e 0100     		.2byte	0x1
 4638 0590 53       		.byte	0x53
 4639 0591 00000000 		.4byte	0
 4640 0595 00000000 		.4byte	0
 4641              	.LLST37:
 4642 0599 00000000 		.4byte	.LVL54
 4643 059d 0C000000 		.4byte	.LVL55
 4644 05a1 0100     		.2byte	0x1
 4645 05a3 50       		.byte	0x50
 4646 05a4 0C000000 		.4byte	.LVL55
 4647 05a8 2C000000 		.4byte	.LVL63
 4648 05ac 0100     		.2byte	0x1
 4649 05ae 55       		.byte	0x55
 4650 05af 2C000000 		.4byte	.LVL63
 4651 05b3 2E000000 		.4byte	.LFE238
 4652 05b7 0400     		.2byte	0x4
 4653 05b9 F3       		.byte	0xf3
 4654 05ba 01       		.uleb128 0x1
 4655 05bb 50       		.byte	0x50
 4656 05bc 9F       		.byte	0x9f
 4657 05bd 00000000 		.4byte	0
 4658 05c1 00000000 		.4byte	0
 4659              	.LLST38:
 4660 05c5 00000000 		.4byte	.LVL54
 4661 05c9 0C000000 		.4byte	.LVL55
 4662 05cd 0100     		.2byte	0x1
 4663 05cf 51       		.byte	0x51
 4664 05d0 0C000000 		.4byte	.LVL55
ARM GAS  /tmp/ccvKUrVh.s 			page 83


 4665 05d4 0E000000 		.4byte	.LVL56
 4666 05d8 0300     		.2byte	0x3
 4667 05da 74       		.byte	0x74
 4668 05db 7F       		.sleb128 -1
 4669 05dc 9F       		.byte	0x9f
 4670 05dd 0E000000 		.4byte	.LVL56
 4671 05e1 28000000 		.4byte	.LVL61
 4672 05e5 0100     		.2byte	0x1
 4673 05e7 54       		.byte	0x54
 4674 05e8 28000000 		.4byte	.LVL61
 4675 05ec 2A000000 		.4byte	.LVL62
 4676 05f0 0300     		.2byte	0x3
 4677 05f2 74       		.byte	0x74
 4678 05f3 01       		.sleb128 1
 4679 05f4 9F       		.byte	0x9f
 4680 05f5 00000000 		.4byte	0
 4681 05f9 00000000 		.4byte	0
 4682              	.LLST39:
 4683 05fd 1A000000 		.4byte	.LVL58
 4684 0601 2C000000 		.4byte	.LVL63
 4685 0605 0100     		.2byte	0x1
 4686 0607 55       		.byte	0x55
 4687 0608 00000000 		.4byte	0
 4688 060c 00000000 		.4byte	0
 4689              	.LLST40:
 4690 0610 1C000000 		.4byte	.LVL59
 4691 0614 25000000 		.4byte	.LVL60-1
 4692 0618 0100     		.2byte	0x1
 4693 061a 50       		.byte	0x50
 4694 061b 00000000 		.4byte	0
 4695 061f 00000000 		.4byte	0
 4696              	.LLST41:
 4697 0623 00000000 		.4byte	.LVL64
 4698 0627 14000000 		.4byte	.LVL65
 4699 062b 0100     		.2byte	0x1
 4700 062d 50       		.byte	0x50
 4701 062e 14000000 		.4byte	.LVL65
 4702 0632 50000000 		.4byte	.LVL72
 4703 0636 0400     		.2byte	0x4
 4704 0638 F3       		.byte	0xf3
 4705 0639 01       		.uleb128 0x1
 4706 063a 50       		.byte	0x50
 4707 063b 9F       		.byte	0x9f
 4708 063c 50000000 		.4byte	.LVL72
 4709 0640 54000000 		.4byte	.LVL73
 4710 0644 0100     		.2byte	0x1
 4711 0646 50       		.byte	0x50
 4712 0647 54000000 		.4byte	.LVL73
 4713 064b 5F000000 		.4byte	.LVL75-1
 4714 064f 0100     		.2byte	0x1
 4715 0651 52       		.byte	0x52
 4716 0652 5F000000 		.4byte	.LVL75-1
 4717 0656 6C000000 		.4byte	.LFE239
 4718 065a 0400     		.2byte	0x4
 4719 065c F3       		.byte	0xf3
 4720 065d 01       		.uleb128 0x1
 4721 065e 50       		.byte	0x50
ARM GAS  /tmp/ccvKUrVh.s 			page 84


 4722 065f 9F       		.byte	0x9f
 4723 0660 00000000 		.4byte	0
 4724 0664 00000000 		.4byte	0
 4725              	.LLST42:
 4726 0668 00000000 		.4byte	.LVL64
 4727 066c 14000000 		.4byte	.LVL65
 4728 0670 0100     		.2byte	0x1
 4729 0672 51       		.byte	0x51
 4730 0673 14000000 		.4byte	.LVL65
 4731 0677 50000000 		.4byte	.LVL72
 4732 067b 0400     		.2byte	0x4
 4733 067d F3       		.byte	0xf3
 4734 067e 01       		.uleb128 0x1
 4735 067f 51       		.byte	0x51
 4736 0680 9F       		.byte	0x9f
 4737 0681 50000000 		.4byte	.LVL72
 4738 0685 5F000000 		.4byte	.LVL75-1
 4739 0689 0100     		.2byte	0x1
 4740 068b 51       		.byte	0x51
 4741 068c 5F000000 		.4byte	.LVL75-1
 4742 0690 6C000000 		.4byte	.LFE239
 4743 0694 0200     		.2byte	0x2
 4744 0696 91       		.byte	0x91
 4745 0697 74       		.sleb128 -12
 4746 0698 00000000 		.4byte	0
 4747 069c 00000000 		.4byte	0
 4748              	.LLST43:
 4749 06a0 22000000 		.4byte	.LVL66
 4750 06a4 24000000 		.4byte	.LVL67
 4751 06a8 0200     		.2byte	0x2
 4752 06aa 30       		.byte	0x30
 4753 06ab 9F       		.byte	0x9f
 4754 06ac 24000000 		.4byte	.LVL67
 4755 06b0 2E000000 		.4byte	.LVL68
 4756 06b4 0100     		.2byte	0x1
 4757 06b6 50       		.byte	0x50
 4758 06b7 46000000 		.4byte	.LVL71
 4759 06bb 50000000 		.4byte	.LVL72
 4760 06bf 0100     		.2byte	0x1
 4761 06c1 50       		.byte	0x50
 4762 06c2 00000000 		.4byte	0
 4763 06c6 00000000 		.4byte	0
 4764              	.LLST44:
 4765 06ca 24000000 		.4byte	.LVL67
 4766 06ce 2E000000 		.4byte	.LVL68
 4767 06d2 0200     		.2byte	0x2
 4768 06d4 30       		.byte	0x30
 4769 06d5 9F       		.byte	0x9f
 4770 06d6 46000000 		.4byte	.LVL71
 4771 06da 50000000 		.4byte	.LVL72
 4772 06de 0200     		.2byte	0x2
 4773 06e0 30       		.byte	0x30
 4774 06e1 9F       		.byte	0x9f
 4775 06e2 00000000 		.4byte	0
 4776 06e6 00000000 		.4byte	0
 4777              	.LLST45:
 4778 06ea 34000000 		.4byte	.LVL69
ARM GAS  /tmp/ccvKUrVh.s 			page 85


 4779 06ee 50000000 		.4byte	.LVL72
 4780 06f2 0100     		.2byte	0x1
 4781 06f4 54       		.byte	0x54
 4782 06f5 00000000 		.4byte	0
 4783 06f9 00000000 		.4byte	0
 4784              	.LLST46:
 4785 06fd 34000000 		.4byte	.LVL69
 4786 0701 43000000 		.4byte	.LVL70-1
 4787 0705 0100     		.2byte	0x1
 4788 0707 51       		.byte	0x51
 4789 0708 00000000 		.4byte	0
 4790 070c 00000000 		.4byte	0
 4791              	.LLST48:
 4792 0710 56000000 		.4byte	.LVL74
 4793 0714 5F000000 		.4byte	.LVL75-1
 4794 0718 0100     		.2byte	0x1
 4795 071a 50       		.byte	0x50
 4796 071b 00000000 		.4byte	0
 4797 071f 00000000 		.4byte	0
 4798              		.section	.debug_aranges,"",%progbits
 4799 0000 6C000000 		.4byte	0x6c
 4800 0004 0200     		.2byte	0x2
 4801 0006 00000000 		.4byte	.Ldebug_info0
 4802 000a 04       		.byte	0x4
 4803 000b 00       		.byte	0
 4804 000c 0000     		.2byte	0
 4805 000e 0000     		.2byte	0
 4806 0010 00000000 		.4byte	.LFB229
 4807 0014 08000000 		.4byte	.LFE229-.LFB229
 4808 0018 00000000 		.4byte	.LFB231
 4809 001c 28000000 		.4byte	.LFE231-.LFB231
 4810 0020 00000000 		.4byte	.LFB230
 4811 0024 18000000 		.4byte	.LFE230-.LFB230
 4812 0028 00000000 		.4byte	.LFB232
 4813 002c 44000000 		.4byte	.LFE232-.LFB232
 4814 0030 00000000 		.4byte	.LFB233
 4815 0034 34000000 		.4byte	.LFE233-.LFB233
 4816 0038 00000000 		.4byte	.LFB234
 4817 003c 4C000000 		.4byte	.LFE234-.LFB234
 4818 0040 00000000 		.4byte	.LFB235
 4819 0044 40000000 		.4byte	.LFE235-.LFB235
 4820 0048 00000000 		.4byte	.LFB236
 4821 004c 32000000 		.4byte	.LFE236-.LFB236
 4822 0050 00000000 		.4byte	.LFB237
 4823 0054 1E000000 		.4byte	.LFE237-.LFB237
 4824 0058 00000000 		.4byte	.LFB238
 4825 005c 2E000000 		.4byte	.LFE238-.LFB238
 4826 0060 00000000 		.4byte	.LFB239
 4827 0064 6C000000 		.4byte	.LFE239-.LFB239
 4828 0068 00000000 		.4byte	0
 4829 006c 00000000 		.4byte	0
 4830              		.section	.debug_ranges,"",%progbits
 4831              	.Ldebug_ranges0:
 4832 0000 06000000 		.4byte	.LBB124
 4833 0004 12000000 		.4byte	.LBE124
 4834 0008 1C000000 		.4byte	.LBB142
 4835 000c 38000000 		.4byte	.LBE142
ARM GAS  /tmp/ccvKUrVh.s 			page 86


 4836 0010 00000000 		.4byte	0
 4837 0014 00000000 		.4byte	0
 4838 0018 22000000 		.4byte	.LBB128
 4839 001c 2C000000 		.4byte	.LBE128
 4840 0020 2E000000 		.4byte	.LBB131
 4841 0024 30000000 		.4byte	.LBE131
 4842 0028 00000000 		.4byte	0
 4843 002c 00000000 		.4byte	0
 4844 0030 12000000 		.4byte	.LBB133
 4845 0034 18000000 		.4byte	.LBE133
 4846 0038 38000000 		.4byte	.LBB143
 4847 003c 3E000000 		.4byte	.LBE143
 4848 0040 00000000 		.4byte	0
 4849 0044 00000000 		.4byte	0
 4850 0048 16000000 		.4byte	.LBB150
 4851 004c 20000000 		.4byte	.LBE150
 4852 0050 22000000 		.4byte	.LBB153
 4853 0054 24000000 		.4byte	.LBE153
 4854 0058 00000000 		.4byte	0
 4855 005c 00000000 		.4byte	0
 4856 0060 06000000 		.4byte	.LBB173
 4857 0064 12000000 		.4byte	.LBE173
 4858 0068 1C000000 		.4byte	.LBB192
 4859 006c 36000000 		.4byte	.LBE192
 4860 0070 3E000000 		.4byte	.LBB194
 4861 0074 4C000000 		.4byte	.LBE194
 4862 0078 00000000 		.4byte	0
 4863 007c 00000000 		.4byte	0
 4864 0080 24000000 		.4byte	.LBB177
 4865 0084 2C000000 		.4byte	.LBE177
 4866 0088 2E000000 		.4byte	.LBB180
 4867 008c 32000000 		.4byte	.LBE180
 4868 0090 00000000 		.4byte	0
 4869 0094 00000000 		.4byte	0
 4870 0098 12000000 		.4byte	.LBB183
 4871 009c 18000000 		.4byte	.LBE183
 4872 00a0 36000000 		.4byte	.LBB193
 4873 00a4 3C000000 		.4byte	.LBE193
 4874 00a8 00000000 		.4byte	0
 4875 00ac 00000000 		.4byte	0
 4876 00b0 14000000 		.4byte	.LBB199
 4877 00b4 26000000 		.4byte	.LBE199
 4878 00b8 2A000000 		.4byte	.LBB206
 4879 00bc 2E000000 		.4byte	.LBE206
 4880 00c0 00000000 		.4byte	0
 4881 00c4 00000000 		.4byte	0
 4882 00c8 1A000000 		.4byte	.LBB201
 4883 00cc 1C000000 		.4byte	.LBE201
 4884 00d0 1E000000 		.4byte	.LBB204
 4885 00d4 26000000 		.4byte	.LBE204
 4886 00d8 00000000 		.4byte	0
 4887 00dc 00000000 		.4byte	0
 4888 00e0 12000000 		.4byte	.LBB211
 4889 00e4 1C000000 		.4byte	.LBE211
 4890 00e8 2A000000 		.4byte	.LBB224
 4891 00ec 32000000 		.4byte	.LBE224
 4892 00f0 00000000 		.4byte	0
ARM GAS  /tmp/ccvKUrVh.s 			page 87


 4893 00f4 00000000 		.4byte	0
 4894 00f8 1C000000 		.4byte	.LBB220
 4895 00fc 22000000 		.4byte	.LBE220
 4896 0100 24000000 		.4byte	.LBB223
 4897 0104 26000000 		.4byte	.LBE223
 4898 0108 00000000 		.4byte	0
 4899 010c 00000000 		.4byte	0
 4900 0110 0C000000 		.4byte	.LBB226
 4901 0114 12000000 		.4byte	.LBE226
 4902 0118 14000000 		.4byte	.LBB229
 4903 011c 16000000 		.4byte	.LBE229
 4904 0120 00000000 		.4byte	0
 4905 0124 00000000 		.4byte	0
 4906 0128 02000000 		.4byte	.LBB232
 4907 012c 04000000 		.4byte	.LBE232
 4908 0130 06000000 		.4byte	.LBB239
 4909 0134 0A000000 		.4byte	.LBE239
 4910 0138 00000000 		.4byte	0
 4911 013c 00000000 		.4byte	0
 4912 0140 24000000 		.4byte	.LBB240
 4913 0144 2A000000 		.4byte	.LBE240
 4914 0148 46000000 		.4byte	.LBB254
 4915 014c 4C000000 		.4byte	.LBE254
 4916 0150 00000000 		.4byte	0
 4917 0154 00000000 		.4byte	0
 4918 0158 30000000 		.4byte	.LBB250
 4919 015c 32000000 		.4byte	.LBE250
 4920 0160 36000000 		.4byte	.LBB253
 4921 0164 3E000000 		.4byte	.LBE253
 4922 0168 00000000 		.4byte	0
 4923 016c 00000000 		.4byte	0
 4924 0170 00000000 		.4byte	.LFB229
 4925 0174 08000000 		.4byte	.LFE229
 4926 0178 00000000 		.4byte	.LFB231
 4927 017c 28000000 		.4byte	.LFE231
 4928 0180 00000000 		.4byte	.LFB230
 4929 0184 18000000 		.4byte	.LFE230
 4930 0188 00000000 		.4byte	.LFB232
 4931 018c 44000000 		.4byte	.LFE232
 4932 0190 00000000 		.4byte	.LFB233
 4933 0194 34000000 		.4byte	.LFE233
 4934 0198 00000000 		.4byte	.LFB234
 4935 019c 4C000000 		.4byte	.LFE234
 4936 01a0 00000000 		.4byte	.LFB235
 4937 01a4 40000000 		.4byte	.LFE235
 4938 01a8 00000000 		.4byte	.LFB236
 4939 01ac 32000000 		.4byte	.LFE236
 4940 01b0 00000000 		.4byte	.LFB237
 4941 01b4 1E000000 		.4byte	.LFE237
 4942 01b8 00000000 		.4byte	.LFB238
 4943 01bc 2E000000 		.4byte	.LFE238
 4944 01c0 00000000 		.4byte	.LFB239
 4945 01c4 6C000000 		.4byte	.LFE239
 4946 01c8 00000000 		.4byte	0
 4947 01cc 00000000 		.4byte	0
 4948              		.section	.debug_line,"",%progbits
 4949              	.Ldebug_line0:
ARM GAS  /tmp/ccvKUrVh.s 			page 88


 4950 0000 20040000 		.section	.debug_str,"MS",%progbits,1
 4950      02008A01 
 4950      00000201 
 4950      FB0E0D00 
 4950      01010101 
 4951              	.LASF51:
 4952 0000 72656164 		.ascii	"ready_list_t\000"
 4952      795F6C69 
 4952      73745F74 
 4952      00
 4953              	.LASF111:
 4954 000d 71756575 		.ascii	"queue_insert\000"
 4954      655F696E 
 4954      73657274 
 4954      00
 4955              	.LASF134:
 4956 001a 2F686F6D 		.ascii	"/home/sssilvar/Documents/embebidos/ChibiOS/iflab/pr"
 4956      652F7373 
 4956      73696C76 
 4956      61722F44 
 4956      6F63756D 
 4957 004d 6F6A6563 		.ascii	"ojects/ADC_LCD\000"
 4957      74732F41 
 4957      44435F4C 
 4957      434400
 4958              	.LASF89:
 4959 005c 77747472 		.ascii	"wttrp\000"
 4959      7000
 4960              	.LASF86:
 4961 0062 7264796D 		.ascii	"rdymsg\000"
 4961      736700
 4962              	.LASF17:
 4963 0069 75696E74 		.ascii	"uint64_t\000"
 4963      36345F74 
 4963      00
 4964              	.LASF7:
 4965 0072 5F5F7569 		.ascii	"__uint8_t\000"
 4965      6E74385F 
 4965      7400
 4966              	.LASF83:
 4967 007c 706F7274 		.ascii	"port_intctx\000"
 4967      5F696E74 
 4967      63747800 
 4968              	.LASF70:
 4969 0088 73797374 		.ascii	"system_debug_t\000"
 4969      656D5F64 
 4969      65627567 
 4969      5F7400
 4970              	.LASF106:
 4971 0097 71756575 		.ascii	"queue_init\000"
 4971      655F696E 
 4971      697400
 4972              	.LASF103:
 4973 00a2 706F7274 		.ascii	"port_lock\000"
 4973      5F6C6F63 
 4973      6B00
 4974              	.LASF115:
ARM GAS  /tmp/ccvKUrVh.s 			page 89


 4975 00ac 71756575 		.ascii	"queue_lifo_remove\000"
 4975      655F6C69 
 4975      666F5F72 
 4975      656D6F76 
 4975      6500
 4976              	.LASF122:
 4977 00be 63685365 		.ascii	"chSemSignal\000"
 4977      6D536967 
 4977      6E616C00 
 4978              	.LASF87:
 4979 00ca 65786974 		.ascii	"exitcode\000"
 4979      636F6465 
 4979      00
 4980              	.LASF77:
 4981 00d3 6D61696E 		.ascii	"mainthread\000"
 4981      74687265 
 4981      616400
 4982              	.LASF124:
 4983 00de 63685365 		.ascii	"chSemAddCounterI\000"
 4983      6D416464 
 4983      436F756E 
 4983      74657249 
 4983      00
 4984              	.LASF126:
 4985 00ef 49544D5F 		.ascii	"ITM_RxBuffer\000"
 4985      52784275 
 4985      66666572 
 4985      00
 4986              	.LASF50:
 4987 00fc 63685F74 		.ascii	"ch_threads_queue\000"
 4987      68726561 
 4987      64735F71 
 4987      75657565 
 4987      00
 4988              	.LASF30:
 4989 010d 705F7072 		.ascii	"p_prio\000"
 4989      696F00
 4990              	.LASF1:
 4991 0114 6C6F6E67 		.ascii	"long long int\000"
 4991      206C6F6E 
 4991      6720696E 
 4991      7400
 4992              	.LASF3:
 4993 0122 7369676E 		.ascii	"signed char\000"
 4993      65642063 
 4993      68617200 
 4994              	.LASF125:
 4995 012e 63685365 		.ascii	"chSemSignalWait\000"
 4995      6D536967 
 4995      6E616C57 
 4995      61697400 
 4996              	.LASF44:
 4997 013e 705F6D70 		.ascii	"p_mpool\000"
 4997      6F6F6C00 
 4998              	.LASF13:
 4999 0146 6C6F6E67 		.ascii	"long long unsigned int\000"
 4999      206C6F6E 
ARM GAS  /tmp/ccvKUrVh.s 			page 90


 4999      6720756E 
 4999      7369676E 
 4999      65642069 
 5000              	.LASF97:
 5001 015d 6D5F7175 		.ascii	"m_queue\000"
 5001      65756500 
 5002              	.LASF76:
 5003 0165 76746C69 		.ascii	"vtlist\000"
 5003      737400
 5004              	.LASF104:
 5005 016c 706F7274 		.ascii	"port_unlock\000"
 5005      5F756E6C 
 5005      6F636B00 
 5006              	.LASF74:
 5007 0178 63685F73 		.ascii	"ch_system\000"
 5007      79737465 
 5007      6D00
 5008              	.LASF9:
 5009 0182 6C6F6E67 		.ascii	"long int\000"
 5009      20696E74 
 5009      00
 5010              	.LASF20:
 5011 018b 74737461 		.ascii	"tstate_t\000"
 5011      74655F74 
 5011      00
 5012              	.LASF133:
 5013 0194 2E2E2F2E 		.ascii	"../../os/rt/src/chsem.c\000"
 5013      2E2F6F73 
 5013      2F72742F 
 5013      7372632F 
 5013      63687365 
 5014              	.LASF32:
 5015 01ac 705F6E65 		.ascii	"p_newer\000"
 5015      77657200 
 5016              	.LASF94:
 5017 01b4 735F7175 		.ascii	"s_queue\000"
 5017      65756500 
 5018              	.LASF128:
 5019 01bc 63685363 		.ascii	"chSchRescheduleS\000"
 5019      68526573 
 5019      63686564 
 5019      756C6553 
 5019      00
 5020              	.LASF56:
 5021 01cd 725F6E65 		.ascii	"r_newer\000"
 5021      77657200 
 5022              	.LASF80:
 5023 01d5 72656761 		.ascii	"regarm_t\000"
 5023      726D5F74 
 5023      00
 5024              	.LASF63:
 5025 01de 76745F70 		.ascii	"vt_prev\000"
 5025      72657600 
 5026              	.LASF102:
 5027 01e6 6D757465 		.ascii	"mutex_t\000"
 5027      785F7400 
 5028              	.LASF107:
ARM GAS  /tmp/ccvKUrVh.s 			page 91


 5029 01ee 76616C75 		.ascii	"value\000"
 5029      6500
 5030              	.LASF78:
 5031 01f4 69646C65 		.ascii	"idle_thread_wa\000"
 5031      5F746872 
 5031      6561645F 
 5031      776100
 5032              	.LASF117:
 5033 0203 63685365 		.ascii	"chSemObjectInit\000"
 5033      6D4F626A 
 5033      65637449 
 5033      6E697400 
 5034              	.LASF25:
 5035 0213 636E745F 		.ascii	"cnt_t\000"
 5035      7400
 5036              	.LASF0:
 5037 0219 756E7369 		.ascii	"unsigned int\000"
 5037      676E6564 
 5037      20696E74 
 5037      00
 5038              	.LASF121:
 5039 0226 63685365 		.ascii	"chSemWaitTimeout\000"
 5039      6D576169 
 5039      7454696D 
 5039      656F7574 
 5039      00
 5040              	.LASF62:
 5041 0237 76745F6E 		.ascii	"vt_next\000"
 5041      65787400 
 5042              	.LASF90:
 5043 023f 77747365 		.ascii	"wtsemp\000"
 5043      6D7000
 5044              	.LASF64:
 5045 0246 76745F64 		.ascii	"vt_delta\000"
 5045      656C7461 
 5045      00
 5046              	.LASF39:
 5047 024f 705F6D73 		.ascii	"p_msgqueue\000"
 5047      67717565 
 5047      756500
 5048              	.LASF119:
 5049 025a 63685365 		.ascii	"chSemReset\000"
 5049      6D526573 
 5049      657400
 5050              	.LASF95:
 5051 0265 735F636E 		.ascii	"s_cnt\000"
 5051      7400
 5052              	.LASF6:
 5053 026b 73686F72 		.ascii	"short unsigned int\000"
 5053      7420756E 
 5053      7369676E 
 5053      65642069 
 5053      6E7400
 5054              	.LASF47:
 5055 027e 63685F74 		.ascii	"ch_thread\000"
 5055      68726561 
 5055      6400
ARM GAS  /tmp/ccvKUrVh.s 			page 92


 5056              	.LASF131:
 5057 0288 63685363 		.ascii	"chSchWakeupS\000"
 5057      6857616B 
 5057      65757053 
 5057      00
 5058              	.LASF23:
 5059 0295 6D73675F 		.ascii	"msg_t\000"
 5059      7400
 5060              	.LASF73:
 5061 029b 63685F73 		.ascii	"ch_system_t\000"
 5061      79737465 
 5061      6D5F7400 
 5062              	.LASF19:
 5063 02a7 746D6F64 		.ascii	"tmode_t\000"
 5063      655F7400 
 5064              	.LASF52:
 5065 02af 63685F72 		.ascii	"ch_ready_list\000"
 5065      65616479 
 5065      5F6C6973 
 5065      7400
 5066              	.LASF24:
 5067 02bd 6576656E 		.ascii	"eventmask_t\000"
 5067      746D6173 
 5067      6B5F7400 
 5068              	.LASF8:
 5069 02c9 5F5F696E 		.ascii	"__int32_t\000"
 5069      7433325F 
 5069      7400
 5070              	.LASF67:
 5071 02d3 76697274 		.ascii	"virtual_timers_list_t\000"
 5071      75616C5F 
 5071      74696D65 
 5071      72735F6C 
 5071      6973745F 
 5072              	.LASF81:
 5073 02e9 73746B61 		.ascii	"stkalign_t\000"
 5073      6C69676E 
 5073      5F7400
 5074              	.LASF132:
 5075 02f4 474E5520 		.ascii	"GNU C11 5.2.0 -mcpu=cortex-m4 -mfloat-abi=hard -mfp"
 5075      43313120 
 5075      352E322E 
 5075      30202D6D 
 5075      6370753D 
 5076 0327 753D6670 		.ascii	"u=fpv4-sp-d16 -mno-thumb-interwork -mthumb -ggdb -O"
 5076      76342D73 
 5076      702D6431 
 5076      36202D6D 
 5076      6E6F2D74 
 5077 035a 32202D66 		.ascii	"2 -fomit-frame-pointer -falign-functions=16 -ffunct"
 5077      6F6D6974 
 5077      2D667261 
 5077      6D652D70 
 5077      6F696E74 
 5078 038d 696F6E2D 		.ascii	"ion-sections -fdata-sections -fno-common -fsingle-p"
 5078      73656374 
 5078      696F6E73 
ARM GAS  /tmp/ccvKUrVh.s 			page 93


 5078      202D6664 
 5078      6174612D 
 5079 03c0 72656369 		.ascii	"recision-constant\000"
 5079      73696F6E 
 5079      2D636F6E 
 5079      7374616E 
 5079      7400
 5080              	.LASF38:
 5081 03d2 705F7761 		.ascii	"p_waiting\000"
 5081      6974696E 
 5081      6700
 5082              	.LASF79:
 5083 03dc 73697A65 		.ascii	"sizetype\000"
 5083      74797065 
 5083      00
 5084              	.LASF45:
 5085 03e5 74687265 		.ascii	"thread_reference_t\000"
 5085      61645F72 
 5085      65666572 
 5085      656E6365 
 5085      5F7400
 5086              	.LASF68:
 5087 03f8 63685F76 		.ascii	"ch_virtual_timers_list\000"
 5087      69727475 
 5087      616C5F74 
 5087      696D6572 
 5087      735F6C69 
 5088              	.LASF2:
 5089 040f 6C6F6E67 		.ascii	"long double\000"
 5089      20646F75 
 5089      626C6500 
 5090              	.LASF69:
 5091 041b 76745F6C 		.ascii	"vt_lasttime\000"
 5091      61737474 
 5091      696D6500 
 5092              	.LASF110:
 5093 0427 63685379 		.ascii	"chSysLock\000"
 5093      734C6F63 
 5093      6B00
 5094              	.LASF33:
 5095 0431 705F6F6C 		.ascii	"p_older\000"
 5095      64657200 
 5096              	.LASF55:
 5097 0439 725F6374 		.ascii	"r_ctx\000"
 5097      7800
 5098              	.LASF85:
 5099 043f 746D5F63 		.ascii	"tm_calibration_t\000"
 5099      616C6962 
 5099      72617469 
 5099      6F6E5F74 
 5099      00
 5100              	.LASF99:
 5101 0450 6D5F6E65 		.ascii	"m_next\000"
 5101      787400
 5102              	.LASF114:
 5103 0457 74696D65 		.ascii	"time\000"
 5103      00
ARM GAS  /tmp/ccvKUrVh.s 			page 94


 5104              	.LASF58:
 5105 045c 725F6375 		.ascii	"r_current\000"
 5105      7272656E 
 5105      7400
 5106              	.LASF57:
 5107 0466 725F6F6C 		.ascii	"r_older\000"
 5107      64657200 
 5108              	.LASF12:
 5109 046e 5F5F7569 		.ascii	"__uint64_t\000"
 5109      6E743634 
 5109      5F7400
 5110              	.LASF21:
 5111 0479 74726566 		.ascii	"trefs_t\000"
 5111      735F7400 
 5112              	.LASF60:
 5113 0481 76697274 		.ascii	"virtual_timer_t\000"
 5113      75616C5F 
 5113      74696D65 
 5113      725F7400 
 5114              	.LASF29:
 5115 0491 705F7072 		.ascii	"p_prev\000"
 5115      657600
 5116              	.LASF22:
 5117 0498 74707269 		.ascii	"tprio_t\000"
 5117      6F5F7400 
 5118              	.LASF71:
 5119 04a0 63685F73 		.ascii	"ch_system_debug\000"
 5119      79737465 
 5119      6D5F6465 
 5119      62756700 
 5120              	.LASF15:
 5121 04b0 696E7433 		.ascii	"int32_t\000"
 5121      325F7400 
 5122              	.LASF4:
 5123 04b8 756E7369 		.ascii	"unsigned char\000"
 5123      676E6564 
 5123      20636861 
 5123      7200
 5124              	.LASF42:
 5125 04c6 705F6D74 		.ascii	"p_mtxlist\000"
 5125      786C6973 
 5125      7400
 5126              	.LASF5:
 5127 04d0 73686F72 		.ascii	"short int\000"
 5127      7420696E 
 5127      7400
 5128              	.LASF35:
 5129 04da 705F7374 		.ascii	"p_state\000"
 5129      61746500 
 5130              	.LASF54:
 5131 04e2 725F7072 		.ascii	"r_prio\000"
 5131      696F00
 5132              	.LASF92:
 5133 04e9 65776D61 		.ascii	"ewmask\000"
 5133      736B00
 5134              	.LASF28:
 5135 04f0 705F6E65 		.ascii	"p_next\000"
ARM GAS  /tmp/ccvKUrVh.s 			page 95


 5135      787400
 5136              	.LASF36:
 5137 04f7 705F666C 		.ascii	"p_flags\000"
 5137      61677300 
 5138              	.LASF109:
 5139 04ff 5F5F6675 		.ascii	"__func__\000"
 5139      6E635F5F 
 5139      00
 5140              	.LASF112:
 5141 0508 63685365 		.ascii	"chSemWaitS\000"
 5141      6D576169 
 5141      745300
 5142              	.LASF101:
 5143 0513 73656D61 		.ascii	"semaphore_t\000"
 5143      70686F72 
 5143      655F7400 
 5144              	.LASF61:
 5145 051f 63685F76 		.ascii	"ch_virtual_timer\000"
 5145      69727475 
 5145      616C5F74 
 5145      696D6572 
 5145      00
 5146              	.LASF93:
 5147 0530 63685F73 		.ascii	"ch_semaphore\000"
 5147      656D6170 
 5147      686F7265 
 5147      00
 5148              	.LASF129:
 5149 053d 63685363 		.ascii	"chSchGoSleepS\000"
 5149      68476F53 
 5149      6C656570 
 5149      5300
 5150              	.LASF41:
 5151 054b 705F6570 		.ascii	"p_epending\000"
 5151      656E6469 
 5151      6E6700
 5152              	.LASF16:
 5153 0556 75696E74 		.ascii	"uint32_t\000"
 5153      33325F74 
 5153      00
 5154              	.LASF91:
 5155 055f 77746D74 		.ascii	"wtmtxp\000"
 5155      787000
 5156              	.LASF53:
 5157 0566 725F7175 		.ascii	"r_queue\000"
 5157      65756500 
 5158              	.LASF127:
 5159 056e 63685363 		.ascii	"chSchReadyI\000"
 5159      68526561 
 5159      64794900 
 5160              	.LASF48:
 5161 057a 63685F74 		.ascii	"ch_threads_list\000"
 5161      68726561 
 5161      64735F6C 
 5161      69737400 
 5162              	.LASF11:
 5163 058a 6C6F6E67 		.ascii	"long unsigned int\000"
ARM GAS  /tmp/ccvKUrVh.s 			page 96


 5163      20756E73 
 5163      69676E65 
 5163      6420696E 
 5163      7400
 5164              	.LASF100:
 5165 059c 63686172 		.ascii	"char\000"
 5165      00
 5166              	.LASF113:
 5167 05a1 63685365 		.ascii	"chSemWaitTimeoutS\000"
 5167      6D576169 
 5167      7454696D 
 5167      656F7574 
 5167      5300
 5168              	.LASF27:
 5169 05b3 74687265 		.ascii	"thread_t\000"
 5169      61645F74 
 5169      00
 5170              	.LASF116:
 5171 05bc 71756575 		.ascii	"queue_fifo_remove\000"
 5171      655F6669 
 5171      666F5F72 
 5171      656D6F76 
 5171      6500
 5172              	.LASF26:
 5173 05ce 73797374 		.ascii	"systime_t\000"
 5173      696D655F 
 5173      7400
 5174              	.LASF43:
 5175 05d8 705F7265 		.ascii	"p_realprio\000"
 5175      616C7072 
 5175      696F00
 5176              	.LASF59:
 5177 05e3 76746675 		.ascii	"vtfunc_t\000"
 5177      6E635F74 
 5177      00
 5178              	.LASF10:
 5179 05ec 5F5F7569 		.ascii	"__uint32_t\000"
 5179      6E743332 
 5179      5F7400
 5180              	.LASF105:
 5181 05f7 5F5F7365 		.ascii	"__set_BASEPRI\000"
 5181      745F4241 
 5181      53455052 
 5181      4900
 5182              	.LASF120:
 5183 0605 63685365 		.ascii	"chSemWait\000"
 5183      6D576169 
 5183      7400
 5184              	.LASF72:
 5185 060f 70616E69 		.ascii	"panic_msg\000"
 5185      635F6D73 
 5185      6700
 5186              	.LASF84:
 5187 0619 6F666673 		.ascii	"offset\000"
 5187      657400
 5188              	.LASF82:
 5189 0620 636F6E74 		.ascii	"context\000"
ARM GAS  /tmp/ccvKUrVh.s 			page 97


 5189      65787400 
 5190              	.LASF18:
 5191 0628 7274636E 		.ascii	"rtcnt_t\000"
 5191      745F7400 
 5192              	.LASF66:
 5193 0630 76745F70 		.ascii	"vt_par\000"
 5193      617200
 5194              	.LASF49:
 5195 0637 74687265 		.ascii	"threads_queue_t\000"
 5195      6164735F 
 5195      71756575 
 5195      655F7400 
 5196              	.LASF96:
 5197 0647 63685F6D 		.ascii	"ch_mutex\000"
 5197      75746578 
 5197      00
 5198              	.LASF37:
 5199 0650 705F7265 		.ascii	"p_refs\000"
 5199      667300
 5200              	.LASF123:
 5201 0657 63685365 		.ascii	"chSemSignalI\000"
 5201      6D536967 
 5201      6E616C49 
 5201      00
 5202              	.LASF118:
 5203 0664 63685365 		.ascii	"chSemResetI\000"
 5203      6D526573 
 5203      65744900 
 5204              	.LASF75:
 5205 0670 726C6973 		.ascii	"rlist\000"
 5205      7400
 5206              	.LASF14:
 5207 0676 75696E74 		.ascii	"uint8_t\000"
 5207      385F7400 
 5208              	.LASF88:
 5209 067e 77746F62 		.ascii	"wtobjp\000"
 5209      6A7000
 5210              	.LASF34:
 5211 0685 705F6E61 		.ascii	"p_name\000"
 5211      6D6500
 5212              	.LASF46:
 5213 068c 74687265 		.ascii	"threads_list_t\000"
 5213      6164735F 
 5213      6C697374 
 5213      5F7400
 5214              	.LASF130:
 5215 069b 63685363 		.ascii	"chSchGoSleepTimeoutS\000"
 5215      68476F53 
 5215      6C656570 
 5215      54696D65 
 5215      6F757453 
 5216              	.LASF108:
 5217 06b0 63685379 		.ascii	"chSysUnlock\000"
 5217      73556E6C 
 5217      6F636B00 
 5218              	.LASF40:
 5219 06bc 705F6D73 		.ascii	"p_msg\000"
ARM GAS  /tmp/ccvKUrVh.s 			page 98


 5219      6700
 5220              	.LASF98:
 5221 06c2 6D5F6F77 		.ascii	"m_owner\000"
 5221      6E657200 
 5222              	.LASF31:
 5223 06ca 705F6374 		.ascii	"p_ctx\000"
 5223      7800
 5224              	.LASF65:
 5225 06d0 76745F66 		.ascii	"vt_func\000"
 5225      756E6300 
 5226              		.ident	"GCC: (Fedora 5.2.0-2.fc22) 5.2.0"
ARM GAS  /tmp/ccvKUrVh.s 			page 99


DEFINED SYMBOLS
                            *ABS*:0000000000000000 chsem.c
     /tmp/ccvKUrVh.s:22     .text.chSemObjectInit:0000000000000000 $t
     /tmp/ccvKUrVh.s:28     .text.chSemObjectInit:0000000000000000 chSemObjectInit
     /tmp/ccvKUrVh.s:53     .text.chSemResetI:0000000000000000 $t
     /tmp/ccvKUrVh.s:59     .text.chSemResetI:0000000000000000 chSemResetI
     /tmp/ccvKUrVh.s:118    .text.chSemReset:0000000000000000 $t
     /tmp/ccvKUrVh.s:124    .text.chSemReset:0000000000000000 chSemReset
     /tmp/ccvKUrVh.s:181    .text.chSemWait:0000000000000000 $t
     /tmp/ccvKUrVh.s:187    .text.chSemWait:0000000000000000 chSemWait
     /tmp/ccvKUrVh.s:315    .text.chSemWait:0000000000000040 $d
     /tmp/ccvKUrVh.s:320    .text.chSemWaitS:0000000000000000 $t
     /tmp/ccvKUrVh.s:326    .text.chSemWaitS:0000000000000000 chSemWaitS
     /tmp/ccvKUrVh.s:388    .text.chSemWaitS:0000000000000030 $d
     /tmp/ccvKUrVh.s:395    .text.chSemWaitTimeout:0000000000000000 $t
     /tmp/ccvKUrVh.s:401    .text.chSemWaitTimeout:0000000000000000 chSemWaitTimeout
     /tmp/ccvKUrVh.s:537    .text.chSemWaitTimeout:0000000000000048 $d
     /tmp/ccvKUrVh.s:544    .text.chSemWaitTimeoutS:0000000000000000 $t
     /tmp/ccvKUrVh.s:550    .text.chSemWaitTimeoutS:0000000000000000 chSemWaitTimeoutS
     /tmp/ccvKUrVh.s:631    .text.chSemWaitTimeoutS:000000000000003c $d
     /tmp/ccvKUrVh.s:636    .text.chSemSignal:0000000000000000 $t
     /tmp/ccvKUrVh.s:642    .text.chSemSignal:0000000000000000 chSemSignal
     /tmp/ccvKUrVh.s:743    .text.chSemSignalI:0000000000000000 $t
     /tmp/ccvKUrVh.s:749    .text.chSemSignalI:0000000000000000 chSemSignalI
     /tmp/ccvKUrVh.s:799    .text.chSemAddCounterI:0000000000000000 $t
     /tmp/ccvKUrVh.s:805    .text.chSemAddCounterI:0000000000000000 chSemAddCounterI
     /tmp/ccvKUrVh.s:870    .text.chSemSignalWait:0000000000000000 $t
     /tmp/ccvKUrVh.s:876    .text.chSemSignalWait:0000000000000000 chSemSignalWait
     /tmp/ccvKUrVh.s:1047   .text.chSemSignalWait:0000000000000068 $d
                     .debug_frame:0000000000000010 $d
     /tmp/ccvKUrVh.s:319    .text.chSemWait:0000000000000044 $t
     /tmp/ccvKUrVh.s:394    .text.chSemWaitS:0000000000000034 $t
     /tmp/ccvKUrVh.s:543    .text.chSemWaitTimeout:000000000000004c $t
     /tmp/ccvKUrVh.s:1051   .text.chSemSignalWait:000000000000006c $t

UNDEFINED SYMBOLS
chSchReadyI
chSchRescheduleS
chSchGoSleepS
ch
chSchGoSleepTimeoutS
chSchWakeupS
