ARM GAS  /tmp/ccF8fFqU.s 			page 1


   1              		.syntax unified
   2              		.cpu cortex-m4
   3              		.eabi_attribute 27, 1
   4              		.eabi_attribute 28, 1
   5              		.fpu fpv4-sp-d16
   6              		.eabi_attribute 20, 1
   7              		.eabi_attribute 21, 1
   8              		.eabi_attribute 23, 3
   9              		.eabi_attribute 24, 1
  10              		.eabi_attribute 25, 1
  11              		.eabi_attribute 26, 1
  12              		.eabi_attribute 30, 2
  13              		.eabi_attribute 34, 1
  14              		.eabi_attribute 18, 4
  15              		.thumb
  16              		.syntax unified
  17              		.file	"chvt.c"
  18              		.text
  19              	.Ltext0:
  20              		.cfi_sections	.debug_frame
  21              		.section	.text._vt_init,"ax",%progbits
  22              		.align	2
  23              		.p2align 4,,15
  24              		.global	_vt_init
  25              		.thumb
  26              		.thumb_func
  27              		.type	_vt_init, %function
  28              	_vt_init:
  29              	.LFB229:
  30              		.file 1 "../../os/rt/src/chvt.c"
  31              		.loc 1 61 0
  32              		.cfi_startproc
  33              		@ args = 0, pretend = 0, frame = 0
  34              		@ frame_needed = 0, uses_anonymous_args = 0
  35              		@ link register save eliminated.
  36              		.loc 1 63 0
  37 0000 054B     		ldr	r3, .L2
  38              		.loc 1 65 0
  39 0002 4FF0FF30 		mov	r0, #-1
  40              		.loc 1 63 0
  41 0006 03F11C02 		add	r2, r3, #28
  42              		.loc 1 69 0
  43 000a 0021     		movs	r1, #0
  44              		.loc 1 65 0
  45 000c 5862     		str	r0, [r3, #36]
  46              		.loc 1 69 0
  47 000e 9962     		str	r1, [r3, #40]
  48              		.loc 1 63 0
  49 0010 DA61     		str	r2, [r3, #28]
  50              		.loc 1 64 0
  51 0012 1A62     		str	r2, [r3, #32]
  52 0014 7047     		bx	lr
  53              	.L3:
  54 0016 00BF     		.align	2
  55              	.L2:
  56 0018 00000000 		.word	ch
  57              		.cfi_endproc
ARM GAS  /tmp/ccF8fFqU.s 			page 2


  58              	.LFE229:
  59              		.size	_vt_init, .-_vt_init
  60 001c AFF30080 		.section	.text.chVTDoSetI,"ax",%progbits
  61              		.align	2
  62              		.p2align 4,,15
  63              		.global	chVTDoSetI
  64              		.thumb
  65              		.thumb_func
  66              		.type	chVTDoSetI, %function
  67              	chVTDoSetI:
  68              	.LFB230:
  69              		.loc 1 96 0
  70              		.cfi_startproc
  71              		@ args = 0, pretend = 0, frame = 0
  72              		@ frame_needed = 0, uses_anonymous_args = 0
  73              	.LVL0:
  74 0000 F8B5     		push	{r3, r4, r5, r6, r7, lr}
  75              		.cfi_def_cfa_offset 24
  76              		.cfi_offset 3, -24
  77              		.cfi_offset 4, -20
  78              		.cfi_offset 5, -16
  79              		.cfi_offset 6, -12
  80              		.cfi_offset 7, -8
  81              		.cfi_offset 14, -4
  82              	.LBB27:
  83              		.loc 1 117 0
  84 0002 1C4E     		ldr	r6, .L15
  85 0004 3446     		mov	r4, r6
  86              		.loc 1 113 0
  87 0006 0129     		cmp	r1, #1
  88 0008 98BF     		it	ls
  89 000a 0221     		movls	r1, #2
  90              	.LVL1:
  91              		.loc 1 117 0
  92 000c 54F81C7F 		ldr	r7, [r4, #28]!
  93              	.LBE27:
  94              		.loc 1 103 0
  95 0010 0361     		str	r3, [r0, #16]
  96              	.LBB42:
  97              	.LBB28:
  98              	.LBB29:
  99              	.LBB30:
 100              	.LBB31:
 101              		.file 2 "../../os/hal/ports/STM32/LLD/TIMv1/st_lld.h"
 102              		.loc 2 129 0
 103 0012 4FF08043 		mov	r3, #1073741824
 104              	.LVL2:
 105              	.LBE31:
 106              	.LBE30:
 107              	.LBE29:
 108              	.LBE28:
 109              		.loc 1 117 0
 110 0016 A742     		cmp	r7, r4
 111              	.LBE42:
 112              		.loc 1 96 0
 113 0018 0546     		mov	r5, r0
 114              		.loc 1 104 0
ARM GAS  /tmp/ccF8fFqU.s 			page 3


 115 001a C260     		str	r2, [r0, #12]
 116              	.LBB43:
 117              	.LBB35:
 118              	.LBB34:
 119              	.LBB33:
 120              	.LBB32:
 121              		.loc 2 129 0
 122 001c 586A     		ldr	r0, [r3, #36]
 123              	.LVL3:
 124              	.LBE32:
 125              	.LBE33:
 126              	.LBE34:
 127              	.LBE35:
 128              		.loc 1 117 0
 129 001e 1ED0     		beq	.L13
 130              		.loc 1 136 0
 131 0020 B46A     		ldr	r4, [r6, #40]
 132              		.loc 1 137 0
 133 0022 BB68     		ldr	r3, [r7, #8]
 134              		.loc 1 136 0
 135 0024 0844     		add	r0, r0, r1
 136 0026 041B     		subs	r4, r0, r4
 137              	.LVL4:
 138              		.loc 1 137 0
 139 0028 9C42     		cmp	r4, r3
 140 002a 15D3     		bcc	.L14
 141              	.LVL5:
 142              	.L7:
 143              	.LBE43:
 144              		.loc 1 150 0
 145 002c F369     		ldr	r3, [r6, #28]
 146              	.LVL6:
 147              		.loc 1 151 0
 148 002e 9A68     		ldr	r2, [r3, #8]
 149 0030 9442     		cmp	r4, r2
 150 0032 04D9     		bls	.L8
 151              	.L9:
 152              		.loc 1 153 0
 153 0034 1B68     		ldr	r3, [r3]
 154              	.LVL7:
 155              		.loc 1 152 0
 156 0036 A41A     		subs	r4, r4, r2
 157              	.LVL8:
 158              		.loc 1 151 0
 159 0038 9A68     		ldr	r2, [r3, #8]
 160 003a A242     		cmp	r2, r4
 161 003c FAD3     		bcc	.L9
 162              	.L8:
 163              		.loc 1 158 0
 164 003e 5A68     		ldr	r2, [r3, #4]
 165 0040 6A60     		str	r2, [r5, #4]
 166              		.loc 1 157 0
 167 0042 2B60     		str	r3, [r5]
 168              		.loc 1 159 0
 169 0044 1560     		str	r5, [r2]
 170              		.loc 1 160 0
 171 0046 5D60     		str	r5, [r3, #4]
ARM GAS  /tmp/ccF8fFqU.s 			page 4


 172              		.loc 1 161 0
 173 0048 AC60     		str	r4, [r5, #8]
 174              		.loc 1 165 0
 175 004a 9A68     		ldr	r2, [r3, #8]
 176              		.loc 1 166 0
 177 004c 4FF0FF31 		mov	r1, #-1
 178              		.loc 1 165 0
 179 0050 141B     		subs	r4, r2, r4
 180              	.LVL9:
 181 0052 9C60     		str	r4, [r3, #8]
 182              	.LVL10:
 183              		.loc 1 166 0
 184 0054 7162     		str	r1, [r6, #36]
 185 0056 F8BD     		pop	{r3, r4, r5, r6, r7, pc}
 186              	.LVL11:
 187              	.L14:
 188              	.LBB44:
 189              	.LBB36:
 190              	.LBB37:
 191              		.file 3 "../../os/rt/ports/ARMCMx/chcore_timer.h"
 192              		.loc 3 95 0
 193 0058 FFF7FEFF 		bl	stSetAlarm
 194              	.LVL12:
 195 005c E6E7     		b	.L7
 196              	.LVL13:
 197              	.L13:
 198              	.LBE37:
 199              	.LBE36:
 200              		.loc 1 121 0
 201 005e B062     		str	r0, [r6, #40]
 202              		.loc 1 122 0
 203 0060 F561     		str	r5, [r6, #28]
 204              		.loc 1 123 0
 205 0062 3562     		str	r5, [r6, #32]
 206              	.LBB38:
 207              	.LBB39:
 208              		.loc 3 73 0
 209 0064 0844     		add	r0, r0, r1
 210              	.LBE39:
 211              	.LBE38:
 212              		.loc 1 124 0
 213 0066 2F60     		str	r7, [r5]
 214              		.loc 1 125 0
 215 0068 6F60     		str	r7, [r5, #4]
 216              		.loc 1 126 0
 217 006a A960     		str	r1, [r5, #8]
 218              	.LVL14:
 219              	.LBE44:
 220              		.loc 1 167 0
 221 006c BDE8F840 		pop	{r3, r4, r5, r6, r7, lr}
 222              		.cfi_restore 14
 223              		.cfi_restore 7
 224              		.cfi_restore 6
 225              		.cfi_restore 5
 226              		.cfi_restore 4
 227              		.cfi_restore 3
 228              		.cfi_def_cfa_offset 0
ARM GAS  /tmp/ccF8fFqU.s 			page 5


 229              	.LVL15:
 230              	.LBB45:
 231              	.LBB41:
 232              	.LBB40:
 233              		.loc 3 73 0
 234 0070 FFF7FEBF 		b	stStartAlarm
 235              	.LVL16:
 236              	.L16:
 237              		.align	2
 238              	.L15:
 239 0074 00000000 		.word	ch
 240              	.LBE40:
 241              	.LBE41:
 242              	.LBE45:
 243              		.cfi_endproc
 244              	.LFE230:
 245              		.size	chVTDoSetI, .-chVTDoSetI
 246 0078 AFF30080 		.section	.text.chVTDoResetI,"ax",%progbits
 246      AFF30080 
 247              		.align	2
 248              		.p2align 4,,15
 249              		.global	chVTDoResetI
 250              		.thumb
 251              		.thumb_func
 252              		.type	chVTDoResetI, %function
 253              	chVTDoResetI:
 254              	.LFB231:
 255              		.loc 1 177 0
 256              		.cfi_startproc
 257              		@ args = 0, pretend = 0, frame = 0
 258              		@ frame_needed = 0, uses_anonymous_args = 0
 259              		@ link register save eliminated.
 260              	.LVL17:
 261              		.loc 1 201 0
 262 0000 1B4B     		ldr	r3, .L26
 263 0002 DA69     		ldr	r2, [r3, #28]
 264 0004 8242     		cmp	r2, r0
 265              		.loc 1 177 0
 266 0006 10B4     		push	{r4}
 267              		.cfi_def_cfa_offset 4
 268              		.cfi_offset 4, -4
 269              		.loc 1 201 0
 270 0008 10D0     		beq	.L18
 271              		.loc 1 203 0
 272 000a 4168     		ldr	r1, [r0, #4]
 273 000c 0268     		ldr	r2, [r0]
 274 000e 0A60     		str	r2, [r1]
 275              		.loc 1 204 0
 276 0010 0268     		ldr	r2, [r0]
 277              		.loc 1 208 0
 278 0012 1C33     		adds	r3, r3, #28
 279              		.loc 1 205 0
 280 0014 0024     		movs	r4, #0
 281              		.loc 1 208 0
 282 0016 9A42     		cmp	r2, r3
 283              		.loc 1 204 0
 284 0018 5160     		str	r1, [r2, #4]
ARM GAS  /tmp/ccF8fFqU.s 			page 6


 285              		.loc 1 205 0
 286 001a C460     		str	r4, [r0, #12]
 287              		.loc 1 208 0
 288 001c 03D0     		beq	.L17
 289              		.loc 1 209 0
 290 001e 8368     		ldr	r3, [r0, #8]
 291 0020 9168     		ldr	r1, [r2, #8]
 292 0022 0B44     		add	r3, r3, r1
 293 0024 9360     		str	r3, [r2, #8]
 294              	.LVL18:
 295              	.L17:
 296              		.loc 1 255 0
 297 0026 5DF8044B 		ldr	r4, [sp], #4
 298              		.cfi_remember_state
 299              		.cfi_restore 4
 300              		.cfi_def_cfa_offset 0
 301 002a 7047     		bx	lr
 302              	.LVL19:
 303              	.L18:
 304              		.cfi_restore_state
 305              		.loc 1 215 0
 306 002c 1846     		mov	r0, r3
 307              	.LVL20:
 308 002e 1168     		ldr	r1, [r2]
 309 0030 40F81C1F 		str	r1, [r0, #28]!
 310              		.loc 1 217 0
 311 0034 0024     		movs	r4, #0
 312              		.loc 1 220 0
 313 0036 8142     		cmp	r1, r0
 314              		.loc 1 216 0
 315 0038 4860     		str	r0, [r1, #4]
 316              		.loc 1 217 0
 317 003a D460     		str	r4, [r2, #12]
 318              		.loc 1 220 0
 319 003c 13D0     		beq	.L25
 320              		.loc 1 227 0
 321 003e 9268     		ldr	r2, [r2, #8]
 322 0040 8868     		ldr	r0, [r1, #8]
 323              		.loc 1 236 0
 324 0042 9C6A     		ldr	r4, [r3, #40]
 325              		.loc 1 227 0
 326 0044 8318     		adds	r3, r0, r2
 327              	.LBB46:
 328              	.LBB47:
 329              	.LBB48:
 330              	.LBB49:
 331              		.loc 2 129 0
 332 0046 4FF08042 		mov	r2, #1073741824
 333              	.LBE49:
 334              	.LBE48:
 335              	.LBE47:
 336              	.LBE46:
 337              		.loc 1 227 0
 338 004a 8B60     		str	r3, [r1, #8]
 339              	.LBB53:
 340              	.LBB52:
 341              	.LBB51:
ARM GAS  /tmp/ccF8fFqU.s 			page 7


 342              	.LBB50:
 343              		.loc 2 129 0
 344 004c 506A     		ldr	r0, [r2, #36]
 345              	.LBE50:
 346              	.LBE51:
 347              	.LBE52:
 348              	.LBE53:
 349              		.loc 1 236 0
 350 004e 021B     		subs	r2, r0, r4
 351              	.LVL21:
 352              		.loc 1 240 0
 353 0050 9342     		cmp	r3, r2
 354 0052 E8D9     		bls	.L17
 355              		.loc 1 245 0
 356 0054 9B1A     		subs	r3, r3, r2
 357              	.LVL22:
 358              		.loc 1 249 0
 359 0056 012B     		cmp	r3, #1
 360              		.loc 1 250 0
 361 0058 98BF     		it	ls
 362 005a 0223     		movls	r3, #2
 363              	.LVL23:
 364              	.LBB54:
 365              	.LBB55:
 366              		.loc 3 95 0
 367 005c 1844     		add	r0, r0, r3
 368              	.LVL24:
 369              	.LBE55:
 370              	.LBE54:
 371              		.loc 1 255 0
 372 005e 5DF8044B 		ldr	r4, [sp], #4
 373              		.cfi_remember_state
 374              		.cfi_restore 4
 375              		.cfi_def_cfa_offset 0
 376              	.LBB57:
 377              	.LBB56:
 378              		.loc 3 95 0
 379 0062 FFF7FEBF 		b	stSetAlarm
 380              	.LVL25:
 381              	.L25:
 382              		.cfi_restore_state
 383              	.LBE56:
 384              	.LBE57:
 385              		.loc 1 255 0
 386 0066 5DF8044B 		ldr	r4, [sp], #4
 387              		.cfi_restore 4
 388              		.cfi_def_cfa_offset 0
 389              	.LBB58:
 390              	.LBB59:
 391              		.loc 3 83 0
 392 006a FFF7FEBF 		b	stStopAlarm
 393              	.LVL26:
 394              	.L27:
 395 006e 00BF     		.align	2
 396              	.L26:
 397 0070 00000000 		.word	ch
 398              	.LBE59:
ARM GAS  /tmp/ccF8fFqU.s 			page 8


 399              	.LBE58:
 400              		.cfi_endproc
 401              	.LFE231:
 402              		.size	chVTDoResetI, .-chVTDoResetI
 403 0074 AFF30080 		.text
 403      AFF30080 
 403      AFF30080 
 404              	.Letext0:
 405              		.file 4 "/usr/arm-none-eabi/include/machine/_default_types.h"
 406              		.file 5 "/usr/arm-none-eabi/include/stdint.h"
 407              		.file 6 "../../os/rt/ports/ARMCMx/compilers/GCC/chtypes.h"
 408              		.file 7 "../../os/rt/include/chsystypes.h"
 409              		.file 8 "../../os/rt/include/chschd.h"
 410              		.file 9 "../../os/rt/ports/ARMCMx/chcore.h"
 411              		.file 10 "../../os/rt/ports/ARMCMx/chcore_v7m.h"
 412              		.file 11 "../../os/hal/ports/STM32/LLD/TIMv1/stm32_tim.h"
 413              		.file 12 "../../os/rt/include/chtm.h"
 414              		.file 13 "../../os/rt/include/chsem.h"
 415              		.file 14 "../../os/rt/include/chmtx.h"
 416              		.file 15 "../../os/rt/include/chvt.h"
 417              		.file 16 "../../os/hal/include/st.h"
 418              		.file 17 "../../os/ext/CMSIS/include/core_cm4.h"