ARM GAS  /tmp/ccNKSpOC.s 			page 1


   1              		.syntax unified
   2              		.cpu cortex-m4
   3              		.eabi_attribute 27, 1
   4              		.eabi_attribute 28, 1
   5              		.fpu fpv4-sp-d16
   6              		.eabi_attribute 20, 1
   7              		.eabi_attribute 21, 1
   8              		.eabi_attribute 23, 3
   9              		.eabi_attribute 24, 1
  10              		.eabi_attribute 25, 1
  11              		.eabi_attribute 26, 1
  12              		.eabi_attribute 30, 2
  13              		.eabi_attribute 34, 1
  14              		.eabi_attribute 18, 4
  15              		.thumb
  16              		.syntax unified
  17              		.file	"main.c"
  18              		.text
  19              	.Ltext0:
  20              		.cfi_sections	.debug_frame
  21              		.section	.text.Thread1,"ax",%progbits
  22              		.align	2
  23              		.p2align 4,,15
  24              		.thumb
  25              		.thumb_func
  26              		.type	Thread1, %function
  27              	Thread1:
  28              	.LFB268:
  29              		.file 1 "main.c"
  30              		.loc 1 60 0
  31              		.cfi_startproc
  32              		@ Volatile: function does not return.
  33              		@ args = 0, pretend = 0, frame = 0
  34              		@ frame_needed = 0, uses_anonymous_args = 0
  35              	.LVL0:
  36 0000 08B5     		push	{r3, lr}
  37              		.cfi_def_cfa_offset 8
  38              		.cfi_offset 3, -8
  39              		.cfi_offset 14, -4
  40              	.LBB58:
  41              	.LBB59:
  42              		.file 2 "../../os/rt/include/chregistry.h"
  43              		.loc 2 135 0
  44 0002 094B     		ldr	r3, .L5
  45 0004 094A     		ldr	r2, .L5+4
  46 0006 9B69     		ldr	r3, [r3, #24]
  47              	.LBE59:
  48              	.LBE58:
  49              		.loc 1 65 0
  50 0008 094C     		ldr	r4, .L5+8
  51              	.LBB61:
  52              	.LBB60:
  53              		.loc 2 135 0
  54 000a 9A61     		str	r2, [r3, #24]
  55              	.LBE60:
  56              	.LBE61:
  57              		.loc 1 65 0
ARM GAS  /tmp/ccNKSpOC.s 			page 2


  58 000c 4FF40055 		mov	r5, #8192
  59 0010 2E46     		mov	r6, r5	@ movhi
  60              	.LVL1:
  61              	.L2:
  62              		.loc 1 65 0 is_stmt 0 discriminator 1
  63 0012 2683     		strh	r6, [r4, #24]	@ movhi
  64              		.loc 1 66 0 is_stmt 1 discriminator 1
  65 0014 42F21070 		movw	r0, #10000
  66 0018 FFF7FEFF 		bl	chThdSleep
  67              	.LVL2:
  68              		.loc 1 67 0 discriminator 1
  69 001c 6583     		strh	r5, [r4, #26]	@ movhi
  70              		.loc 1 68 0 discriminator 1
  71 001e 42F21070 		movw	r0, #10000
  72 0022 FFF7FEFF 		bl	chThdSleep
  73              	.LVL3:
  74 0026 F4E7     		b	.L2
  75              	.L6:
  76              		.align	2
  77              	.L5:
  78 0028 00000000 		.word	ch
  79 002c 00000000 		.word	.LC0
  80 0030 00080240 		.word	1073874944
  81              		.cfi_endproc
  82              	.LFE268:
  83              		.size	Thread1, .-Thread1
  84 0034 AFF30080 		.section	.text.lcd_setio,"ax",%progbits
  84      AFF30080 
  84      AFF30080 
  85              		.align	2
  86              		.p2align 4,,15
  87              		.global	lcd_setio
  88              		.thumb
  89              		.thumb_func
  90              		.type	lcd_setio, %function
  91              	lcd_setio:
  92              	.LFB260:
  93              		.file 3 "lcd.c"
  94              		.loc 3 23 0
  95              		.cfi_startproc
  96              		@ args = 0, pretend = 0, frame = 0
  97              		@ frame_needed = 0, uses_anonymous_args = 0
  98 0000 10B5     		push	{r4, lr}
  99              		.cfi_def_cfa_offset 8
 100              		.cfi_offset 4, -8
 101              		.cfi_offset 14, -4
 102              		.loc 3 25 0
 103 0002 114C     		ldr	r4, .L9
 104 0004 0122     		movs	r2, #1
 105 0006 1146     		mov	r1, r2
 106 0008 2046     		mov	r0, r4
 107 000a FFF7FEFF 		bl	_pal_lld_setgroupmode
 108              	.LVL4:
 109              		.loc 3 26 0
 110 000e 0122     		movs	r2, #1
 111 0010 2021     		movs	r1, #32
 112 0012 0E48     		ldr	r0, .L9+4
ARM GAS  /tmp/ccNKSpOC.s 			page 3


 113 0014 FFF7FEFF 		bl	_pal_lld_setgroupmode
 114              	.LVL5:
 115              		.loc 3 28 0
 116 0018 2046     		mov	r0, r4
 117 001a 0122     		movs	r2, #1
 118 001c 0221     		movs	r1, #2
 119 001e FFF7FEFF 		bl	_pal_lld_setgroupmode
 120              	.LVL6:
 121              		.loc 3 29 0
 122 0022 2046     		mov	r0, r4
 123 0024 0122     		movs	r2, #1
 124 0026 0421     		movs	r1, #4
 125 0028 FFF7FEFF 		bl	_pal_lld_setgroupmode
 126              	.LVL7:
 127              		.loc 3 30 0
 128 002c 2046     		mov	r0, r4
 129 002e 0122     		movs	r2, #1
 130 0030 0821     		movs	r1, #8
 131 0032 FFF7FEFF 		bl	_pal_lld_setgroupmode
 132              	.LVL8:
 133              		.loc 3 31 0
 134 0036 2046     		mov	r0, r4
 135 0038 0122     		movs	r2, #1
 136 003a 1021     		movs	r1, #16
 137 003c FFF7FEFF 		bl	_pal_lld_setgroupmode
 138              	.LVL9:
 139              		.loc 3 33 0
 140 0040 0023     		movs	r3, #0
 141 0042 6361     		str	r3, [r4, #20]
 142 0044 10BD     		pop	{r4, pc}
 143              	.L10:
 144 0046 00BF     		.align	2
 145              	.L9:
 146 0048 00100240 		.word	1073876992
 147 004c 00040240 		.word	1073873920
 148              		.cfi_endproc
 149              	.LFE260:
 150              		.size	lcd_setio, .-lcd_setio
 151              		.section	.text.lcd_send_nibble,"ax",%progbits
 152              		.align	2
 153              		.p2align 4,,15
 154              		.global	lcd_send_nibble
 155              		.thumb
 156              		.thumb_func
 157              		.type	lcd_send_nibble, %function
 158              	lcd_send_nibble:
 159              	.LFB261:
 160              		.loc 3 39 0
 161              		.cfi_startproc
 162              		@ args = 0, pretend = 0, frame = 0
 163              		@ frame_needed = 0, uses_anonymous_args = 0
 164              		@ link register save eliminated.
 165              	.LVL10:
 166              		.loc 3 40 0
 167 0000 014B     		ldr	r3, .L12
 168 0002 4000     		lsls	r0, r0, #1
 169              	.LVL11:
ARM GAS  /tmp/ccNKSpOC.s 			page 4


 170 0004 5861     		str	r0, [r3, #20]
 171 0006 7047     		bx	lr
 172              	.L13:
 173              		.align	2
 174              	.L12:
 175 0008 00100240 		.word	1073876992
 176              		.cfi_endproc
 177              	.LFE261:
 178              		.size	lcd_send_nibble, .-lcd_send_nibble
 179 000c AFF30080 		.section	.text.lcd_pulsen,"ax",%progbits
 180              		.align	2
 181              		.p2align 4,,15
 182              		.global	lcd_pulsen
 183              		.thumb
 184              		.thumb_func
 185              		.type	lcd_pulsen, %function
 186              	lcd_pulsen:
 187              	.LFB262:
 188              		.loc 3 45 0
 189              		.cfi_startproc
 190              		@ args = 0, pretend = 0, frame = 0
 191              		@ frame_needed = 0, uses_anonymous_args = 0
 192 0000 38B5     		push	{r3, r4, r5, lr}
 193              		.cfi_def_cfa_offset 16
 194              		.cfi_offset 3, -16
 195              		.cfi_offset 4, -12
 196              		.cfi_offset 5, -8
 197              		.cfi_offset 14, -4
 198              		.loc 3 48 0
 199 0002 064D     		ldr	r5, .L16
 200 0004 0124     		movs	r4, #1
 201              		.loc 3 49 0
 202 0006 2046     		mov	r0, r4
 203              		.loc 3 48 0
 204 0008 2C83     		strh	r4, [r5, #24]	@ movhi
 205              		.loc 3 49 0
 206 000a FFF7FEFF 		bl	chThdSleep
 207              	.LVL12:
 208              		.loc 3 50 0
 209 000e 6C83     		strh	r4, [r5, #26]	@ movhi
 210              		.loc 3 51 0
 211 0010 2046     		mov	r0, r4
 212              		.loc 3 53 0
 213 0012 BDE83840 		pop	{r3, r4, r5, lr}
 214              		.cfi_restore 14
 215              		.cfi_restore 5
 216              		.cfi_restore 4
 217              		.cfi_restore 3
 218              		.cfi_def_cfa_offset 0
 219              		.loc 3 51 0
 220 0016 FFF7FEBF 		b	chThdSleep
 221              	.LVL13:
 222              	.L17:
 223 001a 00BF     		.align	2
 224              	.L16:
 225 001c 00100240 		.word	1073876992
 226              		.cfi_endproc
ARM GAS  /tmp/ccNKSpOC.s 			page 5


 227              	.LFE262:
 228              		.size	lcd_pulsen, .-lcd_pulsen
 229              		.section	.text.lcd_sendByte,"ax",%progbits
 230              		.align	2
 231              		.p2align 4,,15
 232              		.global	lcd_sendByte
 233              		.thumb
 234              		.thumb_func
 235              		.type	lcd_sendByte, %function
 236              	lcd_sendByte:
 237              	.LFB263:
 238              		.loc 3 54 0
 239              		.cfi_startproc
 240              		@ args = 0, pretend = 0, frame = 0
 241              		@ frame_needed = 0, uses_anonymous_args = 0
 242              	.LVL14:
 243 0000 38B5     		push	{r3, r4, r5, lr}
 244              		.cfi_def_cfa_offset 16
 245              		.cfi_offset 3, -16
 246              		.cfi_offset 4, -12
 247              		.cfi_offset 5, -8
 248              		.cfi_offset 14, -4
 249              	.LBB62:
 250              	.LBB63:
 251              		.loc 3 40 0
 252 0002 074D     		ldr	r5, .L20
 253              	.LBE63:
 254              	.LBE62:
 255              		.loc 3 54 0
 256 0004 0446     		mov	r4, r0
 257              	.LVL15:
 258              	.LBB66:
 259              	.LBB64:
 260              		.loc 3 40 0
 261 0006 0309     		lsrs	r3, r0, #4
 262 0008 5B00     		lsls	r3, r3, #1
 263              	.LBE64:
 264              	.LBE66:
 265              	.LBB67:
 266              	.LBB68:
 267 000a 04F00F04 		and	r4, r4, #15
 268              	.LBE68:
 269              	.LBE67:
 270              	.LBB71:
 271              	.LBB65:
 272 000e 6B61     		str	r3, [r5, #20]
 273              	.LBE65:
 274              	.LBE71:
 275              	.LBB72:
 276              	.LBB69:
 277 0010 6400     		lsls	r4, r4, #1
 278              	.LBE69:
 279              	.LBE72:
 280              		.loc 3 60 0
 281 0012 FFF7FEFF 		bl	lcd_pulsen
 282              	.LVL16:
 283              	.LBB73:
ARM GAS  /tmp/ccNKSpOC.s 			page 6


 284              	.LBB70:
 285              		.loc 3 40 0
 286 0016 6C61     		str	r4, [r5, #20]
 287              	.LBE70:
 288              	.LBE73:
 289              		.loc 3 67 0
 290 0018 BDE83840 		pop	{r3, r4, r5, lr}
 291              		.cfi_restore 14
 292              		.cfi_restore 5
 293              		.cfi_restore 4
 294              		.cfi_restore 3
 295              		.cfi_def_cfa_offset 0
 296              		.loc 3 65 0
 297 001c FFF7FEBF 		b	lcd_pulsen
 298              	.LVL17:
 299              	.L21:
 300              		.align	2
 301              	.L20:
 302 0020 00100240 		.word	1073876992
 303              		.cfi_endproc
 304              	.LFE263:
 305              		.size	lcd_sendByte, .-lcd_sendByte
 306 0024 AFF30080 		.section	.text.lcd_sendChar,"ax",%progbits
 306      AFF30080 
 306      AFF30080 
 307              		.align	2
 308              		.p2align 4,,15
 309              		.global	lcd_sendChar
 310              		.thumb
 311              		.thumb_func
 312              		.type	lcd_sendChar, %function
 313              	lcd_sendChar:
 314              	.LFB264:
 315              		.loc 3 69 0
 316              		.cfi_startproc
 317              		@ args = 0, pretend = 0, frame = 0
 318              		@ frame_needed = 0, uses_anonymous_args = 0
 319              	.LVL18:
 320 0000 38B5     		push	{r3, r4, r5, lr}
 321              		.cfi_def_cfa_offset 16
 322              		.cfi_offset 3, -16
 323              		.cfi_offset 4, -12
 324              		.cfi_offset 5, -8
 325              		.cfi_offset 14, -4
 326              		.loc 3 71 0
 327 0002 054C     		ldr	r4, .L24
 328 0004 2025     		movs	r5, #32
 329 0006 2583     		strh	r5, [r4, #24]	@ movhi
 330              		.loc 3 72 0
 331 0008 FFF7FEFF 		bl	lcd_sendByte
 332              	.LVL19:
 333              		.loc 3 73 0
 334 000c 0120     		movs	r0, #1
 335 000e FFF7FEFF 		bl	chThdSleep
 336              	.LVL20:
 337              		.loc 3 74 0
 338 0012 6583     		strh	r5, [r4, #26]	@ movhi
ARM GAS  /tmp/ccNKSpOC.s 			page 7


 339 0014 38BD     		pop	{r3, r4, r5, pc}
 340              	.L25:
 341 0016 00BF     		.align	2
 342              	.L24:
 343 0018 00040240 		.word	1073873920
 344              		.cfi_endproc
 345              	.LFE264:
 346              		.size	lcd_sendChar, .-lcd_sendChar
 347 001c AFF30080 		.section	.text.lcd_cmd,"ax",%progbits
 348              		.align	2
 349              		.p2align 4,,15
 350              		.global	lcd_cmd
 351              		.thumb
 352              		.thumb_func
 353              		.type	lcd_cmd, %function
 354              	lcd_cmd:
 355              	.LFB265:
 356              		.loc 3 77 0
 357              		.cfi_startproc
 358              		@ args = 0, pretend = 0, frame = 0
 359              		@ frame_needed = 0, uses_anonymous_args = 0
 360              	.LVL21:
 361 0000 08B5     		push	{r3, lr}
 362              		.cfi_def_cfa_offset 8
 363              		.cfi_offset 3, -8
 364              		.cfi_offset 14, -4
 365              		.loc 3 79 0
 366 0002 054B     		ldr	r3, .L28
 367 0004 2022     		movs	r2, #32
 368 0006 5A83     		strh	r2, [r3, #26]	@ movhi
 369              		.loc 3 80 0
 370 0008 FFF7FEFF 		bl	lcd_sendByte
 371              	.LVL22:
 372              		.loc 3 81 0
 373 000c 0120     		movs	r0, #1
 374              		.loc 3 82 0
 375 000e BDE80840 		pop	{r3, lr}
 376              		.cfi_restore 14
 377              		.cfi_restore 3
 378              		.cfi_def_cfa_offset 0
 379              		.loc 3 81 0
 380 0012 FFF7FEBF 		b	chThdSleep
 381              	.LVL23:
 382              	.L29:
 383 0016 00BF     		.align	2
 384              	.L28:
 385 0018 00040240 		.word	1073873920
 386              		.cfi_endproc
 387              	.LFE265:
 388              		.size	lcd_cmd, .-lcd_cmd
 389 001c AFF30080 		.section	.text.lcd_init,"ax",%progbits
 390              		.align	2
 391              		.p2align 4,,15
 392              		.global	lcd_init
 393              		.thumb
 394              		.thumb_func
 395              		.type	lcd_init, %function
ARM GAS  /tmp/ccNKSpOC.s 			page 8


 396              	lcd_init:
 397              	.LFB266:
 398              		.loc 3 86 0
 399              		.cfi_startproc
 400              		@ args = 0, pretend = 0, frame = 0
 401              		@ frame_needed = 0, uses_anonymous_args = 0
 402 0000 38B5     		push	{r3, r4, r5, lr}
 403              		.cfi_def_cfa_offset 16
 404              		.cfi_offset 3, -16
 405              		.cfi_offset 4, -12
 406              		.cfi_offset 5, -8
 407              		.cfi_offset 14, -4
 408              	.LBB74:
 409              	.LBB75:
 410              		.loc 3 79 0
 411 0002 224C     		ldr	r4, .L32
 412 0004 2025     		movs	r5, #32
 413              	.LBE75:
 414              	.LBE74:
 415              		.loc 3 87 0
 416 0006 4FF47A70 		mov	r0, #1000
 417 000a FFF7FEFF 		bl	chThdSleep
 418              	.LVL24:
 419              	.LBB77:
 420              	.LBB76:
 421              		.loc 3 79 0
 422 000e 6583     		strh	r5, [r4, #26]	@ movhi
 423              		.loc 3 80 0
 424 0010 3320     		movs	r0, #51
 425 0012 FFF7FEFF 		bl	lcd_sendByte
 426              	.LVL25:
 427              		.loc 3 81 0
 428 0016 0120     		movs	r0, #1
 429 0018 FFF7FEFF 		bl	chThdSleep
 430              	.LVL26:
 431              	.LBE76:
 432              	.LBE77:
 433              		.loc 3 89 0
 434 001c 3220     		movs	r0, #50
 435 001e FFF7FEFF 		bl	chThdSleep
 436              	.LVL27:
 437              	.LBB78:
 438              	.LBB79:
 439              		.loc 3 79 0
 440 0022 6583     		strh	r5, [r4, #26]	@ movhi
 441              		.loc 3 80 0
 442 0024 3220     		movs	r0, #50
 443 0026 FFF7FEFF 		bl	lcd_sendByte
 444              	.LVL28:
 445              		.loc 3 81 0
 446 002a 0120     		movs	r0, #1
 447 002c FFF7FEFF 		bl	chThdSleep
 448              	.LVL29:
 449              	.LBE79:
 450              	.LBE78:
 451              		.loc 3 91 0
 452 0030 3220     		movs	r0, #50
ARM GAS  /tmp/ccNKSpOC.s 			page 9


 453 0032 FFF7FEFF 		bl	chThdSleep
 454              	.LVL30:
 455              	.LBB80:
 456              	.LBB81:
 457              		.loc 3 79 0
 458 0036 6583     		strh	r5, [r4, #26]	@ movhi
 459              		.loc 3 80 0
 460 0038 2820     		movs	r0, #40
 461 003a FFF7FEFF 		bl	lcd_sendByte
 462              	.LVL31:
 463              		.loc 3 81 0
 464 003e 0120     		movs	r0, #1
 465 0040 FFF7FEFF 		bl	chThdSleep
 466              	.LVL32:
 467              	.LBE81:
 468              	.LBE80:
 469              	.LBB82:
 470              	.LBB83:
 471              		.loc 3 79 0
 472 0044 6583     		strh	r5, [r4, #26]	@ movhi
 473              		.loc 3 80 0
 474 0046 0820     		movs	r0, #8
 475 0048 FFF7FEFF 		bl	lcd_sendByte
 476              	.LVL33:
 477              		.loc 3 81 0
 478 004c 0120     		movs	r0, #1
 479 004e FFF7FEFF 		bl	chThdSleep
 480              	.LVL34:
 481              	.LBE83:
 482              	.LBE82:
 483              	.LBB84:
 484              	.LBB85:
 485              		.loc 3 79 0
 486 0052 6583     		strh	r5, [r4, #26]	@ movhi
 487              		.loc 3 80 0
 488 0054 0120     		movs	r0, #1
 489 0056 FFF7FEFF 		bl	lcd_sendByte
 490              	.LVL35:
 491              		.loc 3 81 0
 492 005a 0120     		movs	r0, #1
 493 005c FFF7FEFF 		bl	chThdSleep
 494              	.LVL36:
 495              	.LBE85:
 496              	.LBE84:
 497              		.loc 3 95 0
 498 0060 1E20     		movs	r0, #30
 499 0062 FFF7FEFF 		bl	chThdSleep
 500              	.LVL37:
 501              	.LBB86:
 502              	.LBB87:
 503              		.loc 3 79 0
 504 0066 6583     		strh	r5, [r4, #26]	@ movhi
 505              		.loc 3 80 0
 506 0068 0620     		movs	r0, #6
 507 006a FFF7FEFF 		bl	lcd_sendByte
 508              	.LVL38:
 509              		.loc 3 81 0
ARM GAS  /tmp/ccNKSpOC.s 			page 10


 510 006e 0120     		movs	r0, #1
 511 0070 FFF7FEFF 		bl	chThdSleep
 512              	.LVL39:
 513              	.LBE87:
 514              	.LBE86:
 515              	.LBB88:
 516              	.LBB89:
 517              		.loc 3 79 0
 518 0074 6583     		strh	r5, [r4, #26]	@ movhi
 519              		.loc 3 80 0
 520 0076 0F20     		movs	r0, #15
 521 0078 FFF7FEFF 		bl	lcd_sendByte
 522              	.LVL40:
 523              		.loc 3 81 0
 524 007c 0120     		movs	r0, #1
 525 007e FFF7FEFF 		bl	chThdSleep
 526              	.LVL41:
 527              	.LBE89:
 528              	.LBE88:
 529              		.loc 3 100 0
 530 0082 3220     		movs	r0, #50
 531              		.loc 3 101 0
 532 0084 BDE83840 		pop	{r3, r4, r5, lr}
 533              		.cfi_restore 14
 534              		.cfi_restore 5
 535              		.cfi_restore 4
 536              		.cfi_restore 3
 537              		.cfi_def_cfa_offset 0
 538              		.loc 3 100 0
 539 0088 FFF7FEBF 		b	chThdSleep
 540              	.LVL42:
 541              	.L33:
 542              		.align	2
 543              	.L32:
 544 008c 00040240 		.word	1073873920
 545              		.cfi_endproc
 546              	.LFE266:
 547              		.size	lcd_init, .-lcd_init
 548              		.section	.text.lcd_printf,"ax",%progbits
 549              		.align	2
 550              		.p2align 4,,15
 551              		.global	lcd_printf
 552              		.thumb
 553              		.thumb_func
 554              		.type	lcd_printf, %function
 555              	lcd_printf:
 556              	.LFB267:
 557              		.loc 3 105 0
 558              		.cfi_startproc
 559              		@ args = 0, pretend = 0, frame = 0
 560              		@ frame_needed = 0, uses_anonymous_args = 0
 561              	.LVL43:
 562 0000 F8B5     		push	{r3, r4, r5, r6, r7, lr}
 563              		.cfi_def_cfa_offset 24
 564              		.cfi_offset 3, -24
 565              		.cfi_offset 4, -20
 566              		.cfi_offset 5, -16
ARM GAS  /tmp/ccNKSpOC.s 			page 11


 567              		.cfi_offset 6, -12
 568              		.cfi_offset 7, -8
 569              		.cfi_offset 14, -4
 570              		.loc 3 105 0
 571 0002 0446     		mov	r4, r0
 572              		.loc 3 106 0
 573 0004 0078     		ldrb	r0, [r0]	@ zero_extendqisi2
 574              	.LVL44:
 575 0006 68B1     		cbz	r0, .L34
 576              	.LBB90:
 577              	.LBB91:
 578              		.loc 3 71 0
 579 0008 2026     		movs	r6, #32
 580 000a 074D     		ldr	r5, .L40
 581 000c 3746     		mov	r7, r6	@ movhi
 582              	.LVL45:
 583              	.L36:
 584 000e 2F83     		strh	r7, [r5, #24]	@ movhi
 585              		.loc 3 72 0
 586 0010 FFF7FEFF 		bl	lcd_sendByte
 587              	.LVL46:
 588              		.loc 3 73 0
 589 0014 0120     		movs	r0, #1
 590 0016 FFF7FEFF 		bl	chThdSleep
 591              	.LVL47:
 592              		.loc 3 74 0
 593 001a 6E83     		strh	r6, [r5, #26]	@ movhi
 594              	.LBE91:
 595              	.LBE90:
 596              		.loc 3 106 0
 597 001c 14F8010F 		ldrb	r0, [r4, #1]!	@ zero_extendqisi2
 598              	.LVL48:
 599 0020 0028     		cmp	r0, #0
 600 0022 F4D1     		bne	.L36
 601              	.LVL49:
 602              	.L34:
 603 0024 F8BD     		pop	{r3, r4, r5, r6, r7, pc}
 604              	.L41:
 605 0026 00BF     		.align	2
 606              	.L40:
 607 0028 00040240 		.word	1073873920
 608              		.cfi_endproc
 609              	.LFE267:
 610              		.size	lcd_printf, .-lcd_printf
 611 002c AFF30080 		.section	.text.startup.main,"ax",%progbits
 612              		.align	2
 613              		.p2align 4,,15
 614              		.global	main
 615              		.thumb
 616              		.thumb_func
 617              		.type	main, %function
 618              	main:
 619              	.LFB269:
 620              		.loc 1 76 0
 621              		.cfi_startproc
 622              		@ args = 0, pretend = 0, frame = 0
 623              		@ frame_needed = 0, uses_anonymous_args = 0
ARM GAS  /tmp/ccNKSpOC.s 			page 12


 624 0000 2DE9F047 		push	{r4, r5, r6, r7, r8, r9, r10, lr}
 625              		.cfi_def_cfa_offset 32
 626              		.cfi_offset 4, -32
 627              		.cfi_offset 5, -28
 628              		.cfi_offset 6, -24
 629              		.cfi_offset 7, -20
 630              		.cfi_offset 8, -16
 631              		.cfi_offset 9, -12
 632              		.cfi_offset 10, -8
 633              		.cfi_offset 14, -4
 634 0004 82B0     		sub	sp, sp, #8
 635              		.cfi_def_cfa_offset 40
 636              		.loc 1 85 0
 637 0006 FFF7FEFF 		bl	halInit
 638              	.LVL50:
 639              	.LBB92:
 640              	.LBB93:
 641              	.LBB94:
 642              	.LBB95:
 643              	.LBB96:
 644              		.file 4 "../../os/ext/CMSIS/include/core_cmFunc.h"
 645              		.loc 4 546 0
 646 000a 0024     		movs	r4, #0
 647              	.LBE96:
 648              	.LBE95:
 649              	.LBE94:
 650              	.LBE93:
 651              	.LBE92:
 652              		.loc 1 86 0
 653 000c FFF7FEFF 		bl	chSysInit
 654              	.LVL51:
 655              	.LBB103:
 656              	.LBB102:
 657              	.LBB101:
 658              	.LBB98:
 659              	.LBB97:
 660              		.loc 4 546 0
 661              		.syntax unified
 662              	@ 546 "../../os/ext/CMSIS/include/core_cmFunc.h" 1
 663 0010 84F31188 		MSR basepri, r4
 664              	@ 0 "" 2
 665              		.thumb
 666              		.syntax unified
 667              	.LBE97:
 668              	.LBE98:
 669              	.LBB99:
 670              	.LBB100:
 671              		.loc 4 331 0
 672              		.syntax unified
 673              	@ 331 "../../os/ext/CMSIS/include/core_cmFunc.h" 1
 674 0014 62B6     		cpsie i
 675              	@ 0 "" 2
 676              		.thumb
 677              		.syntax unified
 678              	.LBE100:
 679              	.LBE99:
 680              	.LBE101:
ARM GAS  /tmp/ccNKSpOC.s 			page 13


 681              	.LBE102:
 682              	.LBE103:
 683              		.loc 1 89 0
 684 0016 0122     		movs	r2, #1
 685 0018 4FF40051 		mov	r1, #8192
 686 001c 3148     		ldr	r0, .L47
 687              	.LBB104:
 688              	.LBB105:
 689              	.LBB106:
 690              		.loc 3 79 0
 691 001e 324F     		ldr	r7, .L47+4
 692 0020 DFF8D4A0 		ldr	r10, .L47+20
 693              	.LBE106:
 694              	.LBE105:
 695              	.LBE104:
 696              		.loc 1 89 0
 697 0024 FFF7FEFF 		bl	_pal_lld_setgroupmode
 698              	.LVL52:
 699              		.loc 1 91 0
 700 0028 FFF7FEFF 		bl	lcd_setio
 701              	.LVL53:
 702              		.loc 1 92 0
 703 002c FFF7FEFF 		bl	lcd_init
 704              	.LVL54:
 705              		.loc 1 99 0
 706 0030 2146     		mov	r1, r4
 707 0032 2E48     		ldr	r0, .L47+8
 708 0034 FFF7FEFF 		bl	adcStart
 709              	.LVL55:
 710              		.loc 1 100 0
 711 0038 FFF7FEFF 		bl	adcSTM32EnableTSVREFE
 712              	.LVL56:
 713              		.loc 1 101 0
 714 003c 0322     		movs	r2, #3
 715 003e 0121     		movs	r1, #1
 716 0040 2848     		ldr	r0, .L47
 717 0042 FFF7FEFF 		bl	_pal_lld_setgroupmode
 718              	.LVL57:
 719              		.loc 1 108 0
 720 0046 0094     		str	r4, [sp]
 721 0048 294B     		ldr	r3, .L47+12
 722 004a 2A48     		ldr	r0, .L47+16
 723 004c 4022     		movs	r2, #64
 724 004e 4FF4E871 		mov	r1, #464
 725 0052 FFF7FEFF 		bl	chThdCreateStatic
 726              	.LVL58:
 727              	.LBB113:
 728              	.LBB110:
 729              	.LBB107:
 730              		.loc 3 79 0
 731 0056 B946     		mov	r9, r7
 732              	.L44:
 733              	.LBE107:
 734              	.LBE110:
 735              	.LBE113:
 736              		.loc 1 118 0
 737 0058 0423     		movs	r3, #4
ARM GAS  /tmp/ccNKSpOC.s 			page 14


 738 005a 274A     		ldr	r2, .L47+20
 739 005c 2749     		ldr	r1, .L47+24
 740 005e 2348     		ldr	r0, .L47+8
 741 0060 FFF7FEFF 		bl	adcConvert
 742              	.LVL59:
 743              		.loc 1 121 0
 744 0064 BAF80080 		ldrh	r8, [r10]
 745 0068 BAF80210 		ldrh	r1, [r10, #2]
 746 006c BAF80420 		ldrh	r2, [r10, #4]
 747 0070 BAF80630 		ldrh	r3, [r10, #6]
 748              		.loc 1 129 0
 749 0074 2248     		ldr	r0, .L47+28
 750              		.loc 1 121 0
 751 0076 8844     		add	r8, r8, r1
 752 0078 9044     		add	r8, r8, r2
 753 007a 9844     		add	r8, r8, r3
 754              		.loc 1 129 0
 755 007c FFF7FEFF 		bl	lcd_printf
 756              	.LVL60:
 757              		.loc 1 121 0
 758 0080 4FEAA808 		asr	r8, r8, #2
 759              	.LVL61:
 760              		.loc 1 129 0
 761 0084 1A24     		movs	r4, #26
 762              	.LBB114:
 763              	.LBB111:
 764              	.LBB108:
 765              		.loc 3 79 0
 766 0086 4FF02006 		mov	r6, #32	@ movhi
 767              	.LVL62:
 768              	.L43:
 769              		.loc 3 80 0
 770 008a 1420     		movs	r0, #20
 771              		.loc 3 79 0
 772 008c 7E83     		strh	r6, [r7, #26]	@ movhi
 773              		.loc 3 80 0
 774 008e FFF7FEFF 		bl	lcd_sendByte
 775              	.LVL63:
 776              		.loc 3 81 0
 777 0092 0120     		movs	r0, #1
 778 0094 FFF7FEFF 		bl	chThdSleep
 779              	.LVL64:
 780 0098 631E     		subs	r3, r4, #1
 781              	.LBE108:
 782              	.LBE111:
 783              		.loc 1 131 0
 784 009a 13F0FF04 		ands	r4, r3, #255
 785              	.LVL65:
 786              	.LBB112:
 787              	.LBB109:
 788              		.loc 3 79 0
 789 009e 4FF02005 		mov	r5, #32
 790              	.LBE109:
 791              	.LBE112:
 792              		.loc 1 131 0
 793 00a2 F2D1     		bne	.L43
 794              	.LVL66:
ARM GAS  /tmp/ccNKSpOC.s 			page 15


 795              	.LBE114:
 796              	.LBB115:
 797              	.LBB116:
 798              		.loc 3 72 0
 799 00a4 5FFA88F0 		uxtb	r0, r8
 800              		.loc 3 71 0
 801 00a8 A9F81850 		strh	r5, [r9, #24]	@ movhi
 802              		.loc 3 72 0
 803 00ac FFF7FEFF 		bl	lcd_sendByte
 804              	.LVL67:
 805              		.loc 3 73 0
 806 00b0 0120     		movs	r0, #1
 807 00b2 FFF7FEFF 		bl	chThdSleep
 808              	.LVL68:
 809              		.loc 3 74 0
 810 00b6 A9F81A50 		strh	r5, [r9, #26]	@ movhi
 811              	.LBE116:
 812              	.LBE115:
 813              		.loc 1 137 0
 814 00ba 42F21070 		movw	r0, #10000
 815 00be FFF7FEFF 		bl	chThdSleep
 816              	.LVL69:
 817              	.LBB117:
 818              	.LBB118:
 819              		.loc 3 79 0
 820 00c2 A9F81A50 		strh	r5, [r9, #26]	@ movhi
 821              		.loc 3 80 0
 822 00c6 0120     		movs	r0, #1
 823 00c8 FFF7FEFF 		bl	lcd_sendByte
 824              	.LVL70:
 825              		.loc 3 81 0
 826 00cc 0120     		movs	r0, #1
 827 00ce FFF7FEFF 		bl	chThdSleep
 828              	.LVL71:
 829              	.LBE118:
 830              	.LBE117:
 831              	.LBB119:
 832              	.LBB120:
 833              		.loc 3 79 0
 834 00d2 A9F81A50 		strh	r5, [r9, #26]	@ movhi
 835              		.loc 3 80 0
 836 00d6 0220     		movs	r0, #2
 837 00d8 FFF7FEFF 		bl	lcd_sendByte
 838              	.LVL72:
 839              		.loc 3 81 0
 840 00dc 0120     		movs	r0, #1
 841 00de FFF7FEFF 		bl	chThdSleep
 842              	.LVL73:
 843 00e2 B9E7     		b	.L44
 844              	.L48:
 845              		.align	2
 846              	.L47:
 847 00e4 00080240 		.word	1073874944
 848 00e8 00040240 		.word	1073873920
 849 00ec 00000000 		.word	ADCD1
 850 00f0 00000000 		.word	Thread1
 851 00f4 00000000 		.word	.LANCHOR0
ARM GAS  /tmp/ccNKSpOC.s 			page 16


 852 00f8 00000000 		.word	.LANCHOR1
 853 00fc 00000000 		.word	.LANCHOR2
 854 0100 08000000 		.word	.LC1
 855              	.LBE120:
 856              	.LBE119:
 857              		.cfi_endproc
 858              	.LFE269:
 859              		.size	main, .-main
 860              		.section	.bss.waThread1,"aw",%nobits
 861              		.align	3
 862              		.set	.LANCHOR0,. + 0
 863              		.type	waThread1, %object
 864              		.size	waThread1, 464
 865              	waThread1:
 866 0000 00000000 		.space	464
 866      00000000 
 866      00000000 
 866      00000000 
 866      00000000 
 867              		.section	.rodata.str1.4,"aMS",%progbits,1
 868              		.align	2
 869              	.LC0:
 870 0000 626C696E 		.ascii	"blinker\000"
 870      6B657200 
 871              	.LC1:
 872 0008 456C2074 		.ascii	"El taller de RF\000"
 872      616C6C65 
 872      72206465 
 872      20524600 
 873              		.section	.rodata.adcgrpcfg1,"a",%progbits
 874              		.align	2
 875              		.set	.LANCHOR2,. + 0
 876              		.type	adcgrpcfg1, %object
 877              		.size	adcgrpcfg1, 40
 878              	adcgrpcfg1:
 879 0000 00       		.byte	0
 880 0001 00       		.space	1
 881 0002 0100     		.short	1
 882 0004 00000000 		.word	0
 883 0008 00000000 		.word	0
 884 000c 00000000 		.word	0
 885 0010 00000040 		.word	1073741824
 886 0014 00000000 		.word	0
 887 0018 00000000 		.word	0
 888 001c 00000000 		.word	0
 889 0020 00000000 		.word	0
 890 0024 00000000 		.word	0
 891              		.section	.bss.samples1,"aw",%nobits
 892              		.align	2
 893              		.set	.LANCHOR1,. + 0
 894              		.type	samples1, %object
 895              		.size	samples1, 8
 896              	samples1:
 897 0000 00000000 		.space	8
 897      00000000 
 898              		.text
 899              	.Letext0:
ARM GAS  /tmp/ccNKSpOC.s 			page 17


 900              		.file 5 "/usr/lib/gcc/arm-none-eabi/5.2.0/include/stddef.h"
 901              		.file 6 "/usr/arm-none-eabi/include/machine/_default_types.h"
 902              		.file 7 "/usr/arm-none-eabi/include/stdint.h"
 903              		.file 8 "../../os/rt/ports/ARMCMx/compilers/GCC/chtypes.h"
 904              		.file 9 "../../os/rt/include/chsystypes.h"
 905              		.file 10 "../../os/rt/include/chschd.h"
 906              		.file 11 "../../os/ext/CMSIS/ST/stm32f401xc.h"
 907              		.file 12 "../../os/rt/ports/ARMCMx/chcore.h"
 908              		.file 13 "../../os/rt/ports/ARMCMx/chcore_v7m.h"
 909              		.file 14 "../../os/rt/include/chtm.h"
 910              		.file 15 "../../os/rt/include/chsem.h"
 911              		.file 16 "../../os/rt/include/chmtx.h"
 912              		.file 17 "../../os/hal/ports/STM32/STM32F4xx/stm32_dma.h"
 913              		.file 18 "../../os/hal/ports/STM32/LLD/GPIOv2/pal_lld.h"
 914              		.file 19 "../../os/hal/include/adc.h"
 915              		.file 20 "../../os/hal/ports/STM32/STM32F4xx/adc_lld.h"
 916              		.file 21 "../../os/rt/include/chsys.h"
 917              		.file 22 "../../os/hal/osal/rt/osal.h"
 918              		.file 23 "../../os/ext/CMSIS/include/core_cm4.h"
 919              		.file 24 "../../os/rt/include/chthreads.h"
 920              		.file 25 "../../os/hal/include/hal.h"
 921              		.section	.debug_info,"",%progbits
 922              	.Ldebug_info0:
 923 0000 E6140000 		.4byte	0x14e6
 924 0004 0400     		.2byte	0x4
 925 0006 00000000 		.4byte	.Ldebug_abbrev0
 926 000a 04       		.byte	0x4
 927 000b 01       		.uleb128 0x1
 928 000c 3A010000 		.4byte	.LASF210
 929 0010 0C       		.byte	0xc
 930 0011 99050000 		.4byte	.LASF211
 931 0015 D5030000 		.4byte	.LASF212
 932 0019 E8000000 		.4byte	.Ldebug_ranges0+0xe8
 933 001d 00000000 		.4byte	0
 934 0021 00000000 		.4byte	.Ldebug_line0
 935 0025 02       		.uleb128 0x2
 936 0026 04       		.byte	0x4
 937 0027 05       		.byte	0x5
 938 0028 696E7400 		.ascii	"int\000"
 939 002c 03       		.uleb128 0x3
 940 002d 18000000 		.4byte	.LASF4
 941 0031 05       		.byte	0x5
 942 0032 D8       		.byte	0xd8
 943 0033 37000000 		.4byte	0x37
 944 0037 04       		.uleb128 0x4
 945 0038 04       		.byte	0x4
 946 0039 07       		.byte	0x7
 947 003a E8050000 		.4byte	.LASF0
 948 003e 04       		.uleb128 0x4
 949 003f 08       		.byte	0x8
 950 0040 05       		.byte	0x5
 951 0041 4E050000 		.4byte	.LASF1
 952 0045 04       		.uleb128 0x4
 953 0046 08       		.byte	0x8
 954 0047 04       		.byte	0x4
 955 0048 4A060000 		.4byte	.LASF2
 956 004c 04       		.uleb128 0x4
ARM GAS  /tmp/ccNKSpOC.s 			page 18


 957 004d 01       		.byte	0x1
 958 004e 06       		.byte	0x6
 959 004f 6B020000 		.4byte	.LASF3
 960 0053 03       		.uleb128 0x3
 961 0054 12010000 		.4byte	.LASF5
 962 0058 06       		.byte	0x6
 963 0059 1D       		.byte	0x1d
 964 005a 5E000000 		.4byte	0x5e
 965 005e 04       		.uleb128 0x4
 966 005f 01       		.byte	0x1
 967 0060 08       		.byte	0x8
 968 0061 A0020000 		.4byte	.LASF6
 969 0065 04       		.uleb128 0x4
 970 0066 02       		.byte	0x2
 971 0067 05       		.byte	0x5
 972 0068 B4070000 		.4byte	.LASF7
 973 006c 03       		.uleb128 0x3
 974 006d 1C030000 		.4byte	.LASF8
 975 0071 06       		.byte	0x6
 976 0072 2B       		.byte	0x2b
 977 0073 77000000 		.4byte	0x77
 978 0077 04       		.uleb128 0x4
 979 0078 02       		.byte	0x2
 980 0079 07       		.byte	0x7
 981 007a 89080000 		.4byte	.LASF9
 982 007e 03       		.uleb128 0x3
 983 007f BC080000 		.4byte	.LASF10
 984 0083 06       		.byte	0x6
 985 0084 3F       		.byte	0x3f
 986 0085 89000000 		.4byte	0x89
 987 0089 04       		.uleb128 0x4
 988 008a 04       		.byte	0x4
 989 008b 05       		.byte	0x5
 990 008c 2A010000 		.4byte	.LASF11
 991 0090 03       		.uleb128 0x3
 992 0091 3B050000 		.4byte	.LASF12
 993 0095 06       		.byte	0x6
 994 0096 41       		.byte	0x41
 995 0097 9B000000 		.4byte	0x9b
 996 009b 04       		.uleb128 0x4
 997 009c 04       		.byte	0x4
 998 009d 07       		.byte	0x7
 999 009e 53040000 		.4byte	.LASF13
 1000 00a2 03       		.uleb128 0x3
 1001 00a3 48040000 		.4byte	.LASF14
 1002 00a7 06       		.byte	0x6
 1003 00a8 5B       		.byte	0x5b
 1004 00a9 AD000000 		.4byte	0xad
 1005 00ad 04       		.uleb128 0x4
 1006 00ae 08       		.byte	0x8
 1007 00af 07       		.byte	0x7
 1008 00b0 B5060000 		.4byte	.LASF15
 1009 00b4 03       		.uleb128 0x3
 1010 00b5 7E020000 		.4byte	.LASF16
 1011 00b9 07       		.byte	0x7
 1012 00ba 15       		.byte	0x15
 1013 00bb 53000000 		.4byte	0x53
ARM GAS  /tmp/ccNKSpOC.s 			page 19


 1014 00bf 03       		.uleb128 0x3
 1015 00c0 D4060000 		.4byte	.LASF17
 1016 00c4 07       		.byte	0x7
 1017 00c5 21       		.byte	0x21
 1018 00c6 6C000000 		.4byte	0x6c
 1019 00ca 03       		.uleb128 0x3
 1020 00cb 7F000000 		.4byte	.LASF18
 1021 00cf 07       		.byte	0x7
 1022 00d0 2C       		.byte	0x2c
 1023 00d1 7E000000 		.4byte	0x7e
 1024 00d5 03       		.uleb128 0x3
 1025 00d6 62080000 		.4byte	.LASF19
 1026 00da 07       		.byte	0x7
 1027 00db 2D       		.byte	0x2d
 1028 00dc 90000000 		.4byte	0x90
 1029 00e0 03       		.uleb128 0x3
 1030 00e1 BE070000 		.4byte	.LASF20
 1031 00e5 07       		.byte	0x7
 1032 00e6 39       		.byte	0x39
 1033 00e7 A2000000 		.4byte	0xa2
 1034 00eb 05       		.uleb128 0x5
 1035 00ec CA000000 		.4byte	0xca
 1036 00f0 05       		.uleb128 0x5
 1037 00f1 D5000000 		.4byte	0xd5
 1038 00f5 03       		.uleb128 0x3
 1039 00f6 F5050000 		.4byte	.LASF21
 1040 00fa 08       		.byte	0x8
 1041 00fb 45       		.byte	0x45
 1042 00fc D5000000 		.4byte	0xd5
 1043 0100 03       		.uleb128 0x3
 1044 0101 66070000 		.4byte	.LASF22
 1045 0105 08       		.byte	0x8
 1046 0106 48       		.byte	0x48
 1047 0107 B4000000 		.4byte	0xb4
 1048 010b 03       		.uleb128 0x3
 1049 010c 1F020000 		.4byte	.LASF23
 1050 0110 08       		.byte	0x8
 1051 0111 49       		.byte	0x49
 1052 0112 B4000000 		.4byte	0xb4
 1053 0116 03       		.uleb128 0x3
 1054 0117 2C080000 		.4byte	.LASF24
 1055 011b 08       		.byte	0x8
 1056 011c 4A       		.byte	0x4a
 1057 011d B4000000 		.4byte	0xb4
 1058 0121 03       		.uleb128 0x3
 1059 0122 49000000 		.4byte	.LASF25
 1060 0126 08       		.byte	0x8
 1061 0127 4C       		.byte	0x4c
 1062 0128 D5000000 		.4byte	0xd5
 1063 012c 03       		.uleb128 0x3
 1064 012d DD060000 		.4byte	.LASF26
 1065 0131 08       		.byte	0x8
 1066 0132 4D       		.byte	0x4d
 1067 0133 CA000000 		.4byte	0xca
 1068 0137 03       		.uleb128 0x3
 1069 0138 86020000 		.4byte	.LASF27
 1070 013c 08       		.byte	0x8
ARM GAS  /tmp/ccNKSpOC.s 			page 20


 1071 013d 4F       		.byte	0x4f
 1072 013e D5000000 		.4byte	0xd5
 1073 0142 03       		.uleb128 0x3
 1074 0143 B0030000 		.4byte	.LASF28
 1075 0147 08       		.byte	0x8
 1076 0148 51       		.byte	0x51
 1077 0149 CA000000 		.4byte	0xca
 1078 014d 03       		.uleb128 0x3
 1079 014e 39000000 		.4byte	.LASF29
 1080 0152 09       		.byte	0x9
 1081 0153 33       		.byte	0x33
 1082 0154 D5000000 		.4byte	0xd5
 1083 0158 03       		.uleb128 0x3
 1084 0159 41060000 		.4byte	.LASF30
 1085 015d 09       		.byte	0x9
 1086 015e 3F       		.byte	0x3f
 1087 015f 63010000 		.4byte	0x163
 1088 0163 06       		.uleb128 0x6
 1089 0164 79040000 		.4byte	.LASF50
 1090 0168 44       		.byte	0x44
 1091 0169 0A       		.byte	0xa
 1092 016a C2       		.byte	0xc2
 1093 016b 50020000 		.4byte	0x250
 1094 016f 07       		.uleb128 0x7
 1095 0170 33010000 		.4byte	.LASF31
 1096 0174 0A       		.byte	0xa
 1097 0175 C3       		.byte	0xc3
 1098 0176 5B020000 		.4byte	0x25b
 1099 017a 00       		.byte	0
 1100 017b 07       		.uleb128 0x7
 1101 017c 18020000 		.4byte	.LASF32
 1102 0180 0A       		.byte	0xa
 1103 0181 C5       		.byte	0xc5
 1104 0182 5B020000 		.4byte	0x25b
 1105 0186 04       		.byte	0x4
 1106 0187 07       		.uleb128 0x7
 1107 0188 15030000 		.4byte	.LASF33
 1108 018c 0A       		.byte	0xa
 1109 018d C7       		.byte	0xc7
 1110 018e 21010000 		.4byte	0x121
 1111 0192 08       		.byte	0x8
 1112 0193 07       		.uleb128 0x7
 1113 0194 43000000 		.4byte	.LASF34
 1114 0198 0A       		.byte	0xa
 1115 0199 C8       		.byte	0xc8
 1116 019a E8050000 		.4byte	0x5e8
 1117 019e 0C       		.byte	0xc
 1118 019f 07       		.uleb128 0x7
 1119 01a0 22010000 		.4byte	.LASF35
 1120 01a4 0A       		.byte	0xa
 1121 01a5 CA       		.byte	0xca
 1122 01a6 5B020000 		.4byte	0x25b
 1123 01aa 10       		.byte	0x10
 1124 01ab 07       		.uleb128 0x7
 1125 01ac CC060000 		.4byte	.LASF36
 1126 01b0 0A       		.byte	0xa
 1127 01b1 CB       		.byte	0xcb
ARM GAS  /tmp/ccNKSpOC.s 			page 21


 1128 01b2 5B020000 		.4byte	0x25b
 1129 01b6 14       		.byte	0x14
 1130 01b7 07       		.uleb128 0x7
 1131 01b8 E3080000 		.4byte	.LASF37
 1132 01bc 0A       		.byte	0xa
 1133 01bd D2       		.byte	0xd2
 1134 01be 2D080000 		.4byte	0x82d
 1135 01c2 18       		.byte	0x18
 1136 01c3 07       		.uleb128 0x7
 1137 01c4 34090000 		.4byte	.LASF38
 1138 01c8 0A       		.byte	0xa
 1139 01c9 DD       		.byte	0xdd
 1140 01ca 0B010000 		.4byte	0x10b
 1141 01ce 1C       		.byte	0x1c
 1142 01cf 07       		.uleb128 0x7
 1143 01d0 D1050000 		.4byte	.LASF39
 1144 01d4 0A       		.byte	0xa
 1145 01d5 E1       		.byte	0xe1
 1146 01d6 00010000 		.4byte	0x100
 1147 01da 1D       		.byte	0x1d
 1148 01db 07       		.uleb128 0x7
 1149 01dc 05060000 		.4byte	.LASF40
 1150 01e0 0A       		.byte	0xa
 1151 01e1 E6       		.byte	0xe6
 1152 01e2 16010000 		.4byte	0x116
 1153 01e6 1E       		.byte	0x1e
 1154 01e7 08       		.uleb128 0x8
 1155 01e8 705F7500 		.ascii	"p_u\000"
 1156 01ec 0A       		.byte	0xa
 1157 01ed 3101     		.2byte	0x131
 1158 01ef 68070000 		.4byte	0x768
 1159 01f3 20       		.byte	0x20
 1160 01f4 09       		.uleb128 0x9
 1161 01f5 C1050000 		.4byte	.LASF41
 1162 01f9 0A       		.byte	0xa
 1163 01fa 3601     		.2byte	0x136
 1164 01fc 61020000 		.4byte	0x261
 1165 0200 24       		.byte	0x24
 1166 0201 09       		.uleb128 0x9
 1167 0202 6E000000 		.4byte	.LASF42
 1168 0206 0A       		.byte	0xa
 1169 0207 3C01     		.2byte	0x13c
 1170 0209 85020000 		.4byte	0x285
 1171 020d 28       		.byte	0x28
 1172 020e 09       		.uleb128 0x9
 1173 020f 17090000 		.4byte	.LASF43
 1174 0213 0A       		.byte	0xa
 1175 0214 4001     		.2byte	0x140
 1176 0216 2C010000 		.4byte	0x12c
 1177 021a 30       		.byte	0x30
 1178 021b 09       		.uleb128 0x9
 1179 021c 17040000 		.4byte	.LASF44
 1180 0220 0A       		.byte	0xa
 1181 0221 4601     		.2byte	0x146
 1182 0223 37010000 		.4byte	0x137
 1183 0227 34       		.byte	0x34
 1184 0228 09       		.uleb128 0x9
ARM GAS  /tmp/ccNKSpOC.s 			page 22


 1185 0229 3D020000 		.4byte	.LASF45
 1186 022d 0A       		.byte	0xa
 1187 022e 4D01     		.2byte	0x14d
 1188 0230 27080000 		.4byte	0x827
 1189 0234 38       		.byte	0x38
 1190 0235 09       		.uleb128 0x9
 1191 0236 69060000 		.4byte	.LASF46
 1192 023a 0A       		.byte	0xa
 1193 023b 5101     		.2byte	0x151
 1194 023d 21010000 		.4byte	0x121
 1195 0241 3C       		.byte	0x3c
 1196 0242 09       		.uleb128 0x9
 1197 0243 FD050000 		.4byte	.LASF47
 1198 0247 0A       		.byte	0xa
 1199 0248 5801     		.2byte	0x158
 1200 024a 38030000 		.4byte	0x338
 1201 024e 40       		.byte	0x40
 1202 024f 00       		.byte	0
 1203 0250 03       		.uleb128 0x3
 1204 0251 56060000 		.4byte	.LASF48
 1205 0255 09       		.byte	0x9
 1206 0256 44       		.byte	0x44
 1207 0257 5B020000 		.4byte	0x25b
 1208 025b 0A       		.uleb128 0xa
 1209 025c 04       		.byte	0x4
 1210 025d 58010000 		.4byte	0x158
 1211 0261 03       		.uleb128 0x3
 1212 0262 3F080000 		.4byte	.LASF49
 1213 0266 09       		.byte	0x9
 1214 0267 49       		.byte	0x49
 1215 0268 6C020000 		.4byte	0x26c
 1216 026c 06       		.uleb128 0x6
 1217 026d FC040000 		.4byte	.LASF51
 1218 0271 04       		.byte	0x4
 1219 0272 0A       		.byte	0xa
 1220 0273 B0       		.byte	0xb0
 1221 0274 85020000 		.4byte	0x285
 1222 0278 07       		.uleb128 0x7
 1223 0279 33010000 		.4byte	.LASF31
 1224 027d 0A       		.byte	0xa
 1225 027e B1       		.byte	0xb1
 1226 027f 5B020000 		.4byte	0x25b
 1227 0283 00       		.byte	0
 1228 0284 00       		.byte	0
 1229 0285 03       		.uleb128 0x3
 1230 0286 2D020000 		.4byte	.LASF52
 1231 028a 09       		.byte	0x9
 1232 028b 50       		.byte	0x50
 1233 028c 90020000 		.4byte	0x290
 1234 0290 06       		.uleb128 0x6
 1235 0291 E3060000 		.4byte	.LASF53
 1236 0295 08       		.byte	0x8
 1237 0296 0A       		.byte	0xa
 1238 0297 B7       		.byte	0xb7
 1239 0298 B5020000 		.4byte	0x2b5
 1240 029c 07       		.uleb128 0x7
 1241 029d 33010000 		.4byte	.LASF31
ARM GAS  /tmp/ccNKSpOC.s 			page 23


 1242 02a1 0A       		.byte	0xa
 1243 02a2 B8       		.byte	0xb8
 1244 02a3 5B020000 		.4byte	0x25b
 1245 02a7 00       		.byte	0
 1246 02a8 07       		.uleb128 0x7
 1247 02a9 18020000 		.4byte	.LASF32
 1248 02ad 0A       		.byte	0xa
 1249 02ae B9       		.byte	0xb9
 1250 02af 5B020000 		.4byte	0x25b
 1251 02b3 04       		.byte	0x4
 1252 02b4 00       		.byte	0
 1253 02b5 03       		.uleb128 0x3
 1254 02b6 B5040000 		.4byte	.LASF54
 1255 02ba 09       		.byte	0x9
 1256 02bb 57       		.byte	0x57
 1257 02bc C0020000 		.4byte	0x2c0
 1258 02c0 0B       		.uleb128 0xb
 1259 02c1 29040000 		.4byte	.LASF55
 1260 02c5 1C       		.byte	0x1c
 1261 02c6 0A       		.byte	0xa
 1262 02c7 9001     		.2byte	0x190
 1263 02c9 1C030000 		.4byte	0x31c
 1264 02cd 09       		.uleb128 0x9
 1265 02ce 43070000 		.4byte	.LASF56
 1266 02d2 0A       		.byte	0xa
 1267 02d3 9101     		.2byte	0x191
 1268 02d5 85020000 		.4byte	0x285
 1269 02d9 00       		.byte	0
 1270 02da 09       		.uleb128 0x9
 1271 02db E8070000 		.4byte	.LASF57
 1272 02df 0A       		.byte	0xa
 1273 02e0 9201     		.2byte	0x192
 1274 02e2 21010000 		.4byte	0x121
 1275 02e6 08       		.byte	0x8
 1276 02e7 09       		.uleb128 0x9
 1277 02e8 79000000 		.4byte	.LASF58
 1278 02ec 0A       		.byte	0xa
 1279 02ed 9401     		.2byte	0x194
 1280 02ef E8050000 		.4byte	0x5e8
 1281 02f3 0C       		.byte	0xc
 1282 02f4 09       		.uleb128 0x9
 1283 02f5 D0020000 		.4byte	.LASF59
 1284 02f9 0A       		.byte	0xa
 1285 02fa 9701     		.2byte	0x197
 1286 02fc 5B020000 		.4byte	0x25b
 1287 0300 10       		.byte	0x10
 1288 0301 09       		.uleb128 0x9
 1289 0302 82070000 		.4byte	.LASF60
 1290 0306 0A       		.byte	0xa
 1291 0307 9801     		.2byte	0x198
 1292 0309 5B020000 		.4byte	0x25b
 1293 030d 14       		.byte	0x14
 1294 030e 09       		.uleb128 0x9
 1295 030f F4060000 		.4byte	.LASF61
 1296 0313 0A       		.byte	0xa
 1297 0314 9B01     		.2byte	0x19b
 1298 0316 5B020000 		.4byte	0x25b
ARM GAS  /tmp/ccNKSpOC.s 			page 24


 1299 031a 18       		.byte	0x18
 1300 031b 00       		.byte	0
 1301 031c 03       		.uleb128 0x3
 1302 031d 92000000 		.4byte	.LASF62
 1303 0321 09       		.byte	0x9
 1304 0322 5C       		.byte	0x5c
 1305 0323 27030000 		.4byte	0x327
 1306 0327 0A       		.uleb128 0xa
 1307 0328 04       		.byte	0x4
 1308 0329 2D030000 		.4byte	0x32d
 1309 032d 0C       		.uleb128 0xc
 1310 032e 38030000 		.4byte	0x338
 1311 0332 0D       		.uleb128 0xd
 1312 0333 38030000 		.4byte	0x338
 1313 0337 00       		.byte	0
 1314 0338 0E       		.uleb128 0xe
 1315 0339 04       		.byte	0x4
 1316 033a 03       		.uleb128 0x3
 1317 033b A5040000 		.4byte	.LASF63
 1318 033f 09       		.byte	0x9
 1319 0340 61       		.byte	0x61
 1320 0341 45030000 		.4byte	0x345
 1321 0345 0B       		.uleb128 0xb
 1322 0346 94060000 		.4byte	.LASF64
 1323 034a 14       		.byte	0x14
 1324 034b 0A       		.byte	0xa
 1325 034c 6B01     		.2byte	0x16b
 1326 034e 94030000 		.4byte	0x394
 1327 0352 09       		.uleb128 0x9
 1328 0353 64050000 		.4byte	.LASF65
 1329 0357 0A       		.byte	0xa
 1330 0358 6C01     		.2byte	0x16c
 1331 035a 3F080000 		.4byte	0x83f
 1332 035e 00       		.byte	0
 1333 035f 09       		.uleb128 0x9
 1334 0360 7E050000 		.4byte	.LASF66
 1335 0364 0A       		.byte	0xa
 1336 0365 6D01     		.2byte	0x16d
 1337 0367 3F080000 		.4byte	0x83f
 1338 036b 04       		.byte	0x4
 1339 036c 09       		.uleb128 0x9
 1340 036d 8B060000 		.4byte	.LASF67
 1341 0371 0A       		.byte	0xa
 1342 0372 6E01     		.2byte	0x16e
 1343 0374 4D010000 		.4byte	0x14d
 1344 0378 08       		.byte	0x8
 1345 0379 09       		.uleb128 0x9
 1346 037a C1030000 		.4byte	.LASF68
 1347 037e 0A       		.byte	0xa
 1348 037f 6F01     		.2byte	0x16f
 1349 0381 1C030000 		.4byte	0x31c
 1350 0385 0C       		.byte	0xc
 1351 0386 09       		.uleb128 0x9
 1352 0387 FB000000 		.4byte	.LASF69
 1353 038b 0A       		.byte	0xa
 1354 038c 7101     		.2byte	0x171
 1355 038e 38030000 		.4byte	0x338
ARM GAS  /tmp/ccNKSpOC.s 			page 25


 1356 0392 10       		.byte	0x10
 1357 0393 00       		.byte	0
 1358 0394 03       		.uleb128 0x3
 1359 0395 83040000 		.4byte	.LASF70
 1360 0399 09       		.byte	0x9
 1361 039a 66       		.byte	0x66
 1362 039b 9F030000 		.4byte	0x39f
 1363 039f 0B       		.uleb128 0xb
 1364 03a0 9B000000 		.4byte	.LASF71
 1365 03a4 10       		.byte	0x10
 1366 03a5 0A       		.byte	0xa
 1367 03a6 7B01     		.2byte	0x17b
 1368 03a8 E1030000 		.4byte	0x3e1
 1369 03ac 09       		.uleb128 0x9
 1370 03ad 64050000 		.4byte	.LASF65
 1371 03b1 0A       		.byte	0xa
 1372 03b2 7C01     		.2byte	0x17c
 1373 03b4 3F080000 		.4byte	0x83f
 1374 03b8 00       		.byte	0
 1375 03b9 09       		.uleb128 0x9
 1376 03ba 7E050000 		.4byte	.LASF66
 1377 03be 0A       		.byte	0xa
 1378 03bf 7E01     		.2byte	0x17e
 1379 03c1 3F080000 		.4byte	0x83f
 1380 03c5 04       		.byte	0x4
 1381 03c6 09       		.uleb128 0x9
 1382 03c7 8B060000 		.4byte	.LASF67
 1383 03cb 0A       		.byte	0xa
 1384 03cc 8001     		.2byte	0x180
 1385 03ce 4D010000 		.4byte	0x14d
 1386 03d2 08       		.byte	0x8
 1387 03d3 09       		.uleb128 0x9
 1388 03d4 7D080000 		.4byte	.LASF72
 1389 03d8 0A       		.byte	0xa
 1390 03d9 8801     		.2byte	0x188
 1391 03db 4D010000 		.4byte	0x14d
 1392 03df 0C       		.byte	0xc
 1393 03e0 00       		.byte	0
 1394 03e1 03       		.uleb128 0x3
 1395 03e2 D8020000 		.4byte	.LASF73
 1396 03e6 09       		.byte	0x9
 1397 03e7 6B       		.byte	0x6b
 1398 03e8 EC030000 		.4byte	0x3ec
 1399 03ec 0B       		.uleb128 0xb
 1400 03ed EF070000 		.4byte	.LASF74
 1401 03f1 04       		.byte	0x4
 1402 03f2 0A       		.byte	0xa
 1403 03f3 A201     		.2byte	0x1a2
 1404 03f5 07040000 		.4byte	0x407
 1405 03f9 09       		.uleb128 0x9
 1406 03fa BB020000 		.4byte	.LASF75
 1407 03fe 0A       		.byte	0xa
 1408 03ff AA01     		.2byte	0x1aa
 1409 0401 45080000 		.4byte	0x845
 1410 0405 00       		.byte	0
 1411 0406 00       		.byte	0
 1412 0407 03       		.uleb128 0x3
ARM GAS  /tmp/ccNKSpOC.s 			page 26


 1413 0408 A7080000 		.4byte	.LASF76
 1414 040c 09       		.byte	0x9
 1415 040d 70       		.byte	0x70
 1416 040e 12040000 		.4byte	0x412
 1417 0412 0F       		.uleb128 0xf
 1418 0413 4E080000 		.4byte	.LASF77
 1419 0417 D801     		.2byte	0x1d8
 1420 0419 0A       		.byte	0xa
 1421 041a C201     		.2byte	0x1c2
 1422 041c 6E040000 		.4byte	0x46e
 1423 0420 09       		.uleb128 0x9
 1424 0421 60070000 		.4byte	.LASF78
 1425 0425 0A       		.byte	0xa
 1426 0426 C601     		.2byte	0x1c6
 1427 0428 B5020000 		.4byte	0x2b5
 1428 042c 00       		.byte	0
 1429 042d 09       		.uleb128 0x9
 1430 042e 1D080000 		.4byte	.LASF79
 1431 0432 0A       		.byte	0xa
 1432 0433 CA01     		.2byte	0x1ca
 1433 0435 94030000 		.4byte	0x394
 1434 0439 1C       		.byte	0x1c
 1435 043a 08       		.uleb128 0x8
 1436 043b 64626700 		.ascii	"dbg\000"
 1437 043f 0A       		.byte	0xa
 1438 0440 CE01     		.2byte	0x1ce
 1439 0442 E1030000 		.4byte	0x3e1
 1440 0446 2C       		.byte	0x2c
 1441 0447 09       		.uleb128 0x9
 1442 0448 2A070000 		.4byte	.LASF80
 1443 044c 0A       		.byte	0xa
 1444 044d D201     		.2byte	0x1d2
 1445 044f 58010000 		.4byte	0x158
 1446 0453 30       		.byte	0x30
 1447 0454 08       		.uleb128 0x8
 1448 0455 746D00   		.ascii	"tm\000"
 1449 0458 0A       		.byte	0xa
 1450 0459 D701     		.2byte	0x1d7
 1451 045b 5D070000 		.4byte	0x75d
 1452 045f 74       		.byte	0x74
 1453 0460 09       		.uleb128 0x9
 1454 0461 D9050000 		.4byte	.LASF81
 1455 0465 0A       		.byte	0xa
 1456 0466 E301     		.2byte	0x1e3
 1457 0468 4A080000 		.4byte	0x84a
 1458 046c 78       		.byte	0x78
 1459 046d 00       		.byte	0
 1460 046e 04       		.uleb128 0x4
 1461 046f 04       		.byte	0x4
 1462 0470 07       		.byte	0x7
 1463 0471 29000000 		.4byte	.LASF82
 1464 0475 10       		.uleb128 0x10
 1465 0476 50       		.byte	0x50
 1466 0477 0B       		.byte	0xb
 1467 0478 AB       		.byte	0xab
 1468 0479 6C050000 		.4byte	0x56c
 1469 047d 11       		.uleb128 0x11
ARM GAS  /tmp/ccNKSpOC.s 			page 27


 1470 047e 535200   		.ascii	"SR\000"
 1471 0481 0B       		.byte	0xb
 1472 0482 AD       		.byte	0xad
 1473 0483 F0000000 		.4byte	0xf0
 1474 0487 00       		.byte	0
 1475 0488 11       		.uleb128 0x11
 1476 0489 43523100 		.ascii	"CR1\000"
 1477 048d 0B       		.byte	0xb
 1478 048e AE       		.byte	0xae
 1479 048f F0000000 		.4byte	0xf0
 1480 0493 04       		.byte	0x4
 1481 0494 11       		.uleb128 0x11
 1482 0495 43523200 		.ascii	"CR2\000"
 1483 0499 0B       		.byte	0xb
 1484 049a AF       		.byte	0xaf
 1485 049b F0000000 		.4byte	0xf0
 1486 049f 08       		.byte	0x8
 1487 04a0 07       		.uleb128 0x7
 1488 04a1 99040000 		.4byte	.LASF83
 1489 04a5 0B       		.byte	0xb
 1490 04a6 B0       		.byte	0xb0
 1491 04a7 F0000000 		.4byte	0xf0
 1492 04ab 0C       		.byte	0xc
 1493 04ac 07       		.uleb128 0x7
 1494 04ad 9F040000 		.4byte	.LASF84
 1495 04b1 0B       		.byte	0xb
 1496 04b2 B1       		.byte	0xb1
 1497 04b3 F0000000 		.4byte	0xf0
 1498 04b7 10       		.byte	0x10
 1499 04b8 07       		.uleb128 0x7
 1500 04b9 D0070000 		.4byte	.LASF85
 1501 04bd 0B       		.byte	0xb
 1502 04be B2       		.byte	0xb2
 1503 04bf F0000000 		.4byte	0xf0
 1504 04c3 14       		.byte	0x14
 1505 04c4 07       		.uleb128 0x7
 1506 04c5 D6070000 		.4byte	.LASF86
 1507 04c9 0B       		.byte	0xb
 1508 04ca B3       		.byte	0xb3
 1509 04cb F0000000 		.4byte	0xf0
 1510 04cf 18       		.byte	0x18
 1511 04d0 07       		.uleb128 0x7
 1512 04d1 DC070000 		.4byte	.LASF87
 1513 04d5 0B       		.byte	0xb
 1514 04d6 B4       		.byte	0xb4
 1515 04d7 F0000000 		.4byte	0xf0
 1516 04db 1C       		.byte	0x1c
 1517 04dc 07       		.uleb128 0x7
 1518 04dd E2070000 		.4byte	.LASF88
 1519 04e1 0B       		.byte	0xb
 1520 04e2 B5       		.byte	0xb5
 1521 04e3 F0000000 		.4byte	0xf0
 1522 04e7 20       		.byte	0x20
 1523 04e8 11       		.uleb128 0x11
 1524 04e9 48545200 		.ascii	"HTR\000"
 1525 04ed 0B       		.byte	0xb
 1526 04ee B6       		.byte	0xb6
ARM GAS  /tmp/ccNKSpOC.s 			page 28


 1527 04ef F0000000 		.4byte	0xf0
 1528 04f3 24       		.byte	0x24
 1529 04f4 11       		.uleb128 0x11
 1530 04f5 4C545200 		.ascii	"LTR\000"
 1531 04f9 0B       		.byte	0xb
 1532 04fa B7       		.byte	0xb7
 1533 04fb F0000000 		.4byte	0xf0
 1534 04ff 28       		.byte	0x28
 1535 0500 07       		.uleb128 0x7
 1536 0501 5F000000 		.4byte	.LASF89
 1537 0505 0B       		.byte	0xb
 1538 0506 B8       		.byte	0xb8
 1539 0507 F0000000 		.4byte	0xf0
 1540 050b 2C       		.byte	0x2c
 1541 050c 07       		.uleb128 0x7
 1542 050d 64000000 		.4byte	.LASF90
 1543 0511 0B       		.byte	0xb
 1544 0512 B9       		.byte	0xb9
 1545 0513 F0000000 		.4byte	0xf0
 1546 0517 30       		.byte	0x30
 1547 0518 07       		.uleb128 0x7
 1548 0519 69000000 		.4byte	.LASF91
 1549 051d 0B       		.byte	0xb
 1550 051e BA       		.byte	0xba
 1551 051f F0000000 		.4byte	0xf0
 1552 0523 34       		.byte	0x34
 1553 0524 07       		.uleb128 0x7
 1554 0525 18080000 		.4byte	.LASF92
 1555 0529 0B       		.byte	0xb
 1556 052a BB       		.byte	0xbb
 1557 052b F0000000 		.4byte	0xf0
 1558 052f 38       		.byte	0x38
 1559 0530 07       		.uleb128 0x7
 1560 0531 04080000 		.4byte	.LASF93
 1561 0535 0B       		.byte	0xb
 1562 0536 BC       		.byte	0xbc
 1563 0537 F0000000 		.4byte	0xf0
 1564 053b 3C       		.byte	0x3c
 1565 053c 07       		.uleb128 0x7
 1566 053d 09080000 		.4byte	.LASF94
 1567 0541 0B       		.byte	0xb
 1568 0542 BD       		.byte	0xbd
 1569 0543 F0000000 		.4byte	0xf0
 1570 0547 40       		.byte	0x40
 1571 0548 07       		.uleb128 0x7
 1572 0549 0E080000 		.4byte	.LASF95
 1573 054d 0B       		.byte	0xb
 1574 054e BE       		.byte	0xbe
 1575 054f F0000000 		.4byte	0xf0
 1576 0553 44       		.byte	0x44
 1577 0554 07       		.uleb128 0x7
 1578 0555 13080000 		.4byte	.LASF96
 1579 0559 0B       		.byte	0xb
 1580 055a BF       		.byte	0xbf
 1581 055b F0000000 		.4byte	0xf0
 1582 055f 48       		.byte	0x48
 1583 0560 11       		.uleb128 0x11
ARM GAS  /tmp/ccNKSpOC.s 			page 29


 1584 0561 445200   		.ascii	"DR\000"
 1585 0564 0B       		.byte	0xb
 1586 0565 C0       		.byte	0xc0
 1587 0566 F0000000 		.4byte	0xf0
 1588 056a 4C       		.byte	0x4c
 1589 056b 00       		.byte	0
 1590 056c 03       		.uleb128 0x3
 1591 056d C9030000 		.4byte	.LASF97
 1592 0571 0B       		.byte	0xb
 1593 0572 C1       		.byte	0xc1
 1594 0573 75040000 		.4byte	0x475
 1595 0577 10       		.uleb128 0x10
 1596 0578 18       		.byte	0x18
 1597 0579 0B       		.byte	0xb
 1598 057a E9       		.byte	0xe9
 1599 057b C7050000 		.4byte	0x5c7
 1600 057f 11       		.uleb128 0x11
 1601 0580 435200   		.ascii	"CR\000"
 1602 0583 0B       		.byte	0xb
 1603 0584 EB       		.byte	0xeb
 1604 0585 F0000000 		.4byte	0xf0
 1605 0589 00       		.byte	0
 1606 058a 07       		.uleb128 0x7
 1607 058b C6080000 		.4byte	.LASF98
 1608 058f 0B       		.byte	0xb
 1609 0590 EC       		.byte	0xec
 1610 0591 F0000000 		.4byte	0xf0
 1611 0595 04       		.byte	0x4
 1612 0596 11       		.uleb128 0x11
 1613 0597 50415200 		.ascii	"PAR\000"
 1614 059b 0B       		.byte	0xb
 1615 059c ED       		.byte	0xed
 1616 059d F0000000 		.4byte	0xf0
 1617 05a1 08       		.byte	0x8
 1618 05a2 07       		.uleb128 0x7
 1619 05a3 A2070000 		.4byte	.LASF99
 1620 05a7 0B       		.byte	0xb
 1621 05a8 EE       		.byte	0xee
 1622 05a9 F0000000 		.4byte	0xf0
 1623 05ad 0C       		.byte	0xc
 1624 05ae 07       		.uleb128 0x7
 1625 05af 00000000 		.4byte	.LASF100
 1626 05b3 0B       		.byte	0xb
 1627 05b4 EF       		.byte	0xef
 1628 05b5 F0000000 		.4byte	0xf0
 1629 05b9 10       		.byte	0x10
 1630 05ba 11       		.uleb128 0x11
 1631 05bb 46435200 		.ascii	"FCR\000"
 1632 05bf 0B       		.byte	0xb
 1633 05c0 F0       		.byte	0xf0
 1634 05c1 F0000000 		.4byte	0xf0
 1635 05c5 14       		.byte	0x14
 1636 05c6 00       		.byte	0
 1637 05c7 03       		.uleb128 0x3
 1638 05c8 2E060000 		.4byte	.LASF101
 1639 05cc 0B       		.byte	0xb
 1640 05cd F1       		.byte	0xf1
ARM GAS  /tmp/ccNKSpOC.s 			page 30


 1641 05ce 77050000 		.4byte	0x577
 1642 05d2 03       		.uleb128 0x3
 1643 05d3 47020000 		.4byte	.LASF102
 1644 05d7 0C       		.byte	0xc
 1645 05d8 65       		.byte	0x65
 1646 05d9 38030000 		.4byte	0x338
 1647 05dd 03       		.uleb128 0x3
 1648 05de 41030000 		.4byte	.LASF103
 1649 05e2 0C       		.byte	0xc
 1650 05e3 6D       		.byte	0x6d
 1651 05e4 E0000000 		.4byte	0xe0
 1652 05e8 06       		.uleb128 0x6
 1653 05e9 92020000 		.4byte	.LASF104
 1654 05ed 04       		.byte	0x4
 1655 05ee 0C       		.byte	0xc
 1656 05ef 89       		.byte	0x89
 1657 05f0 01060000 		.4byte	0x601
 1658 05f4 11       		.uleb128 0x11
 1659 05f5 72313300 		.ascii	"r13\000"
 1660 05f9 0C       		.byte	0xc
 1661 05fa 8A       		.byte	0x8a
 1662 05fb 42070000 		.4byte	0x742
 1663 05ff 00       		.byte	0
 1664 0600 00       		.byte	0
 1665 0601 06       		.uleb128 0x6
 1666 0602 74060000 		.4byte	.LASF105
 1667 0606 64       		.byte	0x64
 1668 0607 0D       		.byte	0xd
 1669 0608 F4       		.byte	0xf4
 1670 0609 42070000 		.4byte	0x742
 1671 060d 11       		.uleb128 0x11
 1672 060e 73313600 		.ascii	"s16\000"
 1673 0612 0D       		.byte	0xd
 1674 0613 F6       		.byte	0xf6
 1675 0614 D2050000 		.4byte	0x5d2
 1676 0618 00       		.byte	0
 1677 0619 11       		.uleb128 0x11
 1678 061a 73313700 		.ascii	"s17\000"
 1679 061e 0D       		.byte	0xd
 1680 061f F7       		.byte	0xf7
 1681 0620 D2050000 		.4byte	0x5d2
 1682 0624 04       		.byte	0x4
 1683 0625 11       		.uleb128 0x11
 1684 0626 73313800 		.ascii	"s18\000"
 1685 062a 0D       		.byte	0xd
 1686 062b F8       		.byte	0xf8
 1687 062c D2050000 		.4byte	0x5d2
 1688 0630 08       		.byte	0x8
 1689 0631 11       		.uleb128 0x11
 1690 0632 73313900 		.ascii	"s19\000"
 1691 0636 0D       		.byte	0xd
 1692 0637 F9       		.byte	0xf9
 1693 0638 D2050000 		.4byte	0x5d2
 1694 063c 0C       		.byte	0xc
 1695 063d 11       		.uleb128 0x11
 1696 063e 73323000 		.ascii	"s20\000"
 1697 0642 0D       		.byte	0xd
ARM GAS  /tmp/ccNKSpOC.s 			page 31


 1698 0643 FA       		.byte	0xfa
 1699 0644 D2050000 		.4byte	0x5d2
 1700 0648 10       		.byte	0x10
 1701 0649 11       		.uleb128 0x11
 1702 064a 73323100 		.ascii	"s21\000"
 1703 064e 0D       		.byte	0xd
 1704 064f FB       		.byte	0xfb
 1705 0650 D2050000 		.4byte	0x5d2
 1706 0654 14       		.byte	0x14
 1707 0655 11       		.uleb128 0x11
 1708 0656 73323200 		.ascii	"s22\000"
 1709 065a 0D       		.byte	0xd
 1710 065b FC       		.byte	0xfc
 1711 065c D2050000 		.4byte	0x5d2
 1712 0660 18       		.byte	0x18
 1713 0661 11       		.uleb128 0x11
 1714 0662 73323300 		.ascii	"s23\000"
 1715 0666 0D       		.byte	0xd
 1716 0667 FD       		.byte	0xfd
 1717 0668 D2050000 		.4byte	0x5d2
 1718 066c 1C       		.byte	0x1c
 1719 066d 11       		.uleb128 0x11
 1720 066e 73323400 		.ascii	"s24\000"
 1721 0672 0D       		.byte	0xd
 1722 0673 FE       		.byte	0xfe
 1723 0674 D2050000 		.4byte	0x5d2
 1724 0678 20       		.byte	0x20
 1725 0679 11       		.uleb128 0x11
 1726 067a 73323500 		.ascii	"s25\000"
 1727 067e 0D       		.byte	0xd
 1728 067f FF       		.byte	0xff
 1729 0680 D2050000 		.4byte	0x5d2
 1730 0684 24       		.byte	0x24
 1731 0685 08       		.uleb128 0x8
 1732 0686 73323600 		.ascii	"s26\000"
 1733 068a 0D       		.byte	0xd
 1734 068b 0001     		.2byte	0x100
 1735 068d D2050000 		.4byte	0x5d2
 1736 0691 28       		.byte	0x28
 1737 0692 08       		.uleb128 0x8
 1738 0693 73323700 		.ascii	"s27\000"
 1739 0697 0D       		.byte	0xd
 1740 0698 0101     		.2byte	0x101
 1741 069a D2050000 		.4byte	0x5d2
 1742 069e 2C       		.byte	0x2c
 1743 069f 08       		.uleb128 0x8
 1744 06a0 73323800 		.ascii	"s28\000"
 1745 06a4 0D       		.byte	0xd
 1746 06a5 0201     		.2byte	0x102
 1747 06a7 D2050000 		.4byte	0x5d2
 1748 06ab 30       		.byte	0x30
 1749 06ac 08       		.uleb128 0x8
 1750 06ad 73323900 		.ascii	"s29\000"
 1751 06b1 0D       		.byte	0xd
 1752 06b2 0301     		.2byte	0x103
 1753 06b4 D2050000 		.4byte	0x5d2
 1754 06b8 34       		.byte	0x34
ARM GAS  /tmp/ccNKSpOC.s 			page 32


 1755 06b9 08       		.uleb128 0x8
 1756 06ba 73333000 		.ascii	"s30\000"
 1757 06be 0D       		.byte	0xd
 1758 06bf 0401     		.2byte	0x104
 1759 06c1 D2050000 		.4byte	0x5d2
 1760 06c5 38       		.byte	0x38
 1761 06c6 08       		.uleb128 0x8
 1762 06c7 73333100 		.ascii	"s31\000"
 1763 06cb 0D       		.byte	0xd
 1764 06cc 0501     		.2byte	0x105
 1765 06ce D2050000 		.4byte	0x5d2
 1766 06d2 3C       		.byte	0x3c
 1767 06d3 08       		.uleb128 0x8
 1768 06d4 723400   		.ascii	"r4\000"
 1769 06d7 0D       		.byte	0xd
 1770 06d8 0701     		.2byte	0x107
 1771 06da D2050000 		.4byte	0x5d2
 1772 06de 40       		.byte	0x40
 1773 06df 08       		.uleb128 0x8
 1774 06e0 723500   		.ascii	"r5\000"
 1775 06e3 0D       		.byte	0xd
 1776 06e4 0801     		.2byte	0x108
 1777 06e6 D2050000 		.4byte	0x5d2
 1778 06ea 44       		.byte	0x44
 1779 06eb 08       		.uleb128 0x8
 1780 06ec 723600   		.ascii	"r6\000"
 1781 06ef 0D       		.byte	0xd
 1782 06f0 0901     		.2byte	0x109
 1783 06f2 D2050000 		.4byte	0x5d2
 1784 06f6 48       		.byte	0x48
 1785 06f7 08       		.uleb128 0x8
 1786 06f8 723700   		.ascii	"r7\000"
 1787 06fb 0D       		.byte	0xd
 1788 06fc 0A01     		.2byte	0x10a
 1789 06fe D2050000 		.4byte	0x5d2
 1790 0702 4C       		.byte	0x4c
 1791 0703 08       		.uleb128 0x8
 1792 0704 723800   		.ascii	"r8\000"
 1793 0707 0D       		.byte	0xd
 1794 0708 0B01     		.2byte	0x10b
 1795 070a D2050000 		.4byte	0x5d2
 1796 070e 50       		.byte	0x50
 1797 070f 08       		.uleb128 0x8
 1798 0710 723900   		.ascii	"r9\000"
 1799 0713 0D       		.byte	0xd
 1800 0714 0C01     		.2byte	0x10c
 1801 0716 D2050000 		.4byte	0x5d2
 1802 071a 54       		.byte	0x54
 1803 071b 08       		.uleb128 0x8
 1804 071c 72313000 		.ascii	"r10\000"
 1805 0720 0D       		.byte	0xd
 1806 0721 0D01     		.2byte	0x10d
 1807 0723 D2050000 		.4byte	0x5d2
 1808 0727 58       		.byte	0x58
 1809 0728 08       		.uleb128 0x8
 1810 0729 72313100 		.ascii	"r11\000"
 1811 072d 0D       		.byte	0xd
ARM GAS  /tmp/ccNKSpOC.s 			page 33


 1812 072e 0E01     		.2byte	0x10e
 1813 0730 D2050000 		.4byte	0x5d2
 1814 0734 5C       		.byte	0x5c
 1815 0735 08       		.uleb128 0x8
 1816 0736 6C7200   		.ascii	"lr\000"
 1817 0739 0D       		.byte	0xd
 1818 073a 0F01     		.2byte	0x10f
 1819 073c D2050000 		.4byte	0x5d2
 1820 0740 60       		.byte	0x60
 1821 0741 00       		.byte	0
 1822 0742 0A       		.uleb128 0xa
 1823 0743 04       		.byte	0x4
 1824 0744 01060000 		.4byte	0x601
 1825 0748 10       		.uleb128 0x10
 1826 0749 04       		.byte	0x4
 1827 074a 0E       		.byte	0xe
 1828 074b 38       		.byte	0x38
 1829 074c 5D070000 		.4byte	0x75d
 1830 0750 07       		.uleb128 0x7
 1831 0751 27060000 		.4byte	.LASF106
 1832 0755 0E       		.byte	0xe
 1833 0756 3C       		.byte	0x3c
 1834 0757 F5000000 		.4byte	0xf5
 1835 075b 00       		.byte	0
 1836 075c 00       		.byte	0
 1837 075d 03       		.uleb128 0x3
 1838 075e 8A070000 		.4byte	.LASF107
 1839 0762 0E       		.byte	0xe
 1840 0763 3D       		.byte	0x3d
 1841 0764 48070000 		.4byte	0x748
 1842 0768 12       		.uleb128 0x12
 1843 0769 04       		.byte	0x4
 1844 076a 0A       		.byte	0xa
 1845 076b FA       		.byte	0xfa
 1846 076c C5070000 		.4byte	0x7c5
 1847 0770 13       		.uleb128 0x13
 1848 0771 76080000 		.4byte	.LASF108
 1849 0775 0A       		.byte	0xa
 1850 0776 0101     		.2byte	0x101
 1851 0778 2C010000 		.4byte	0x12c
 1852 077c 13       		.uleb128 0x13
 1853 077d 09010000 		.4byte	.LASF109
 1854 0781 0A       		.byte	0xa
 1855 0782 0801     		.2byte	0x108
 1856 0784 2C010000 		.4byte	0x12c
 1857 0788 13       		.uleb128 0x13
 1858 0789 30030000 		.4byte	.LASF110
 1859 078d 0A       		.byte	0xa
 1860 078e 0F01     		.2byte	0x10f
 1861 0790 38030000 		.4byte	0x338
 1862 0794 13       		.uleb128 0x13
 1863 0795 9A020000 		.4byte	.LASF111
 1864 0799 0A       		.byte	0xa
 1865 079a 1601     		.2byte	0x116
 1866 079c C5070000 		.4byte	0x7c5
 1867 07a0 13       		.uleb128 0x13
 1868 07a1 32000000 		.4byte	.LASF112
ARM GAS  /tmp/ccNKSpOC.s 			page 34


 1869 07a5 0A       		.byte	0xa
 1870 07a6 1E01     		.2byte	0x11e
 1871 07a8 F0070000 		.4byte	0x7f0
 1872 07ac 13       		.uleb128 0x13
 1873 07ad 22040000 		.4byte	.LASF113
 1874 07b1 0A       		.byte	0xa
 1875 07b2 2701     		.2byte	0x127
 1876 07b4 27080000 		.4byte	0x827
 1877 07b8 13       		.uleb128 0x13
 1878 07b9 77020000 		.4byte	.LASF114
 1879 07bd 0A       		.byte	0xa
 1880 07be 2F01     		.2byte	0x12f
 1881 07c0 37010000 		.4byte	0x137
 1882 07c4 00       		.byte	0
 1883 07c5 0A       		.uleb128 0xa
 1884 07c6 04       		.byte	0x4
 1885 07c7 50020000 		.4byte	0x250
 1886 07cb 06       		.uleb128 0x6
 1887 07cc 6C040000 		.4byte	.LASF115
 1888 07d0 0C       		.byte	0xc
 1889 07d1 0F       		.byte	0xf
 1890 07d2 34       		.byte	0x34
 1891 07d3 F0070000 		.4byte	0x7f0
 1892 07d7 07       		.uleb128 0x7
 1893 07d8 AC070000 		.4byte	.LASF116
 1894 07dc 0F       		.byte	0xf
 1895 07dd 35       		.byte	0x35
 1896 07de 85020000 		.4byte	0x285
 1897 07e2 00       		.byte	0
 1898 07e3 07       		.uleb128 0x7
 1899 07e4 A5060000 		.4byte	.LASF117
 1900 07e8 0F       		.byte	0xf
 1901 07e9 37       		.byte	0x37
 1902 07ea 42010000 		.4byte	0x142
 1903 07ee 08       		.byte	0x8
 1904 07ef 00       		.byte	0
 1905 07f0 0A       		.uleb128 0xa
 1906 07f1 04       		.byte	0x4
 1907 07f2 CB070000 		.4byte	0x7cb
 1908 07f6 06       		.uleb128 0x6
 1909 07f7 C7070000 		.4byte	.LASF118
 1910 07fb 10       		.byte	0x10
 1911 07fc 10       		.byte	0x10
 1912 07fd 39       		.byte	0x39
 1913 07fe 27080000 		.4byte	0x827
 1914 0802 07       		.uleb128 0x7
 1915 0803 5C050000 		.4byte	.LASF119
 1916 0807 10       		.byte	0x10
 1917 0808 3A       		.byte	0x3a
 1918 0809 85020000 		.4byte	0x285
 1919 080d 00       		.byte	0
 1920 080e 07       		.uleb128 0x7
 1921 080f F3000000 		.4byte	.LASF120
 1922 0813 10       		.byte	0x10
 1923 0814 3C       		.byte	0x3c
 1924 0815 5B020000 		.4byte	0x25b
 1925 0819 08       		.byte	0x8
ARM GAS  /tmp/ccNKSpOC.s 			page 35


 1926 081a 07       		.uleb128 0x7
 1927 081b 06090000 		.4byte	.LASF121
 1928 081f 10       		.byte	0x10
 1929 0820 3E       		.byte	0x3e
 1930 0821 65080000 		.4byte	0x865
 1931 0825 0C       		.byte	0xc
 1932 0826 00       		.byte	0
 1933 0827 0A       		.uleb128 0xa
 1934 0828 04       		.byte	0x4
 1935 0829 F6070000 		.4byte	0x7f6
 1936 082d 0A       		.uleb128 0xa
 1937 082e 04       		.byte	0x4
 1938 082f 3A080000 		.4byte	0x83a
 1939 0833 04       		.uleb128 0x4
 1940 0834 01       		.byte	0x1
 1941 0835 08       		.byte	0x8
 1942 0836 09030000 		.4byte	.LASF122
 1943 083a 14       		.uleb128 0x14
 1944 083b 33080000 		.4byte	0x833
 1945 083f 0A       		.uleb128 0xa
 1946 0840 04       		.byte	0x4
 1947 0841 3A030000 		.4byte	0x33a
 1948 0845 05       		.uleb128 0x5
 1949 0846 2D080000 		.4byte	0x82d
 1950 084a 15       		.uleb128 0x15
 1951 084b DD050000 		.4byte	0x5dd
 1952 084f 5A080000 		.4byte	0x85a
 1953 0853 16       		.uleb128 0x16
 1954 0854 6E040000 		.4byte	0x46e
 1955 0858 2B       		.byte	0x2b
 1956 0859 00       		.byte	0
 1957 085a 03       		.uleb128 0x3
 1958 085b 24080000 		.4byte	.LASF123
 1959 085f 10       		.byte	0x10
 1960 0860 34       		.byte	0x34
 1961 0861 F6070000 		.4byte	0x7f6
 1962 0865 0A       		.uleb128 0xa
 1963 0866 04       		.byte	0x4
 1964 0867 5A080000 		.4byte	0x85a
 1965 086b 10       		.uleb128 0x10
 1966 086c 0C       		.byte	0xc
 1967 086d 11       		.byte	0x11
 1968 086e DA       		.byte	0xda
 1969 086f B0080000 		.4byte	0x8b0
 1970 0873 07       		.uleb128 0x7
 1971 0874 77030000 		.4byte	.LASF124
 1972 0878 11       		.byte	0x11
 1973 0879 DB       		.byte	0xdb
 1974 087a B0080000 		.4byte	0x8b0
 1975 087e 00       		.byte	0
 1976 087f 07       		.uleb128 0x7
 1977 0880 CB080000 		.4byte	.LASF125
 1978 0884 11       		.byte	0x11
 1979 0885 DC       		.byte	0xdc
 1980 0886 B6080000 		.4byte	0x8b6
 1981 088a 04       		.byte	0x4
 1982 088b 07       		.uleb128 0x7
ARM GAS  /tmp/ccNKSpOC.s 			page 36


 1983 088c 0E030000 		.4byte	.LASF126
 1984 0890 11       		.byte	0x11
 1985 0891 DD       		.byte	0xdd
 1986 0892 B4000000 		.4byte	0xb4
 1987 0896 08       		.byte	0x8
 1988 0897 07       		.uleb128 0x7
 1989 0898 AB060000 		.4byte	.LASF127
 1990 089c 11       		.byte	0x11
 1991 089d DF       		.byte	0xdf
 1992 089e B4000000 		.4byte	0xb4
 1993 08a2 09       		.byte	0x9
 1994 08a3 07       		.uleb128 0x7
 1995 08a4 12070000 		.4byte	.LASF128
 1996 08a8 11       		.byte	0x11
 1997 08a9 E0       		.byte	0xe0
 1998 08aa B4000000 		.4byte	0xb4
 1999 08ae 0A       		.byte	0xa
 2000 08af 00       		.byte	0
 2001 08b0 0A       		.uleb128 0xa
 2002 08b1 04       		.byte	0x4
 2003 08b2 C7050000 		.4byte	0x5c7
 2004 08b6 0A       		.uleb128 0xa
 2005 08b7 04       		.byte	0x4
 2006 08b8 F0000000 		.4byte	0xf0
 2007 08bc 03       		.uleb128 0x3
 2008 08bd 05000000 		.4byte	.LASF129
 2009 08c1 11       		.byte	0x11
 2010 08c2 E1       		.byte	0xe1
 2011 08c3 6B080000 		.4byte	0x86b
 2012 08c7 04       		.uleb128 0x4
 2013 08c8 01       		.byte	0x1
 2014 08c9 02       		.byte	0x2
 2015 08ca F1020000 		.4byte	.LASF130
 2016 08ce 10       		.uleb128 0x10
 2017 08cf 04       		.byte	0x4
 2018 08d0 12       		.byte	0x12
 2019 08d1 B3       		.byte	0xb3
 2020 08d2 EF080000 		.4byte	0x8ef
 2021 08d6 11       		.uleb128 0x11
 2022 08d7 73657400 		.ascii	"set\000"
 2023 08db 12       		.byte	0x12
 2024 08dc B4       		.byte	0xb4
 2025 08dd BF000000 		.4byte	0xbf
 2026 08e1 00       		.byte	0
 2027 08e2 07       		.uleb128 0x7
 2028 08e3 37040000 		.4byte	.LASF131
 2029 08e7 12       		.byte	0x12
 2030 08e8 B5       		.byte	0xb5
 2031 08e9 BF000000 		.4byte	0xbf
 2032 08ed 02       		.byte	0x2
 2033 08ee 00       		.byte	0
 2034 08ef 12       		.uleb128 0x12
 2035 08f0 04       		.byte	0x4
 2036 08f1 12       		.byte	0x12
 2037 08f2 B1       		.byte	0xb1
 2038 08f3 0A090000 		.4byte	0x90a
 2039 08f7 17       		.uleb128 0x17
ARM GAS  /tmp/ccNKSpOC.s 			page 37


 2040 08f8 5700     		.ascii	"W\000"
 2041 08fa 12       		.byte	0x12
 2042 08fb B2       		.byte	0xb2
 2043 08fc D5000000 		.4byte	0xd5
 2044 0900 17       		.uleb128 0x17
 2045 0901 4800     		.ascii	"H\000"
 2046 0903 12       		.byte	0x12
 2047 0904 B6       		.byte	0xb6
 2048 0905 CE080000 		.4byte	0x8ce
 2049 0909 00       		.byte	0
 2050 090a 10       		.uleb128 0x10
 2051 090b 2C       		.byte	0x2c
 2052 090c 12       		.byte	0x12
 2053 090d A9       		.byte	0xa9
 2054 090e 97090000 		.4byte	0x997
 2055 0912 07       		.uleb128 0x7
 2056 0913 CB050000 		.4byte	.LASF132
 2057 0917 12       		.byte	0x12
 2058 0918 AB       		.byte	0xab
 2059 0919 F0000000 		.4byte	0xf0
 2060 091d 00       		.byte	0
 2061 091e 07       		.uleb128 0x7
 2062 091f 59070000 		.4byte	.LASF133
 2063 0923 12       		.byte	0x12
 2064 0924 AC       		.byte	0xac
 2065 0925 F0000000 		.4byte	0xf0
 2066 0929 04       		.byte	0x4
 2067 092a 07       		.uleb128 0x7
 2068 092b 18050000 		.4byte	.LASF134
 2069 092f 12       		.byte	0x12
 2070 0930 AD       		.byte	0xad
 2071 0931 F0000000 		.4byte	0xf0
 2072 0935 08       		.byte	0x8
 2073 0936 07       		.uleb128 0x7
 2074 0937 1C010000 		.4byte	.LASF135
 2075 093b 12       		.byte	0x12
 2076 093c AE       		.byte	0xae
 2077 093d F0000000 		.4byte	0xf0
 2078 0941 0C       		.byte	0xc
 2079 0942 11       		.uleb128 0x11
 2080 0943 49445200 		.ascii	"IDR\000"
 2081 0947 12       		.byte	0x12
 2082 0948 AF       		.byte	0xaf
 2083 0949 F0000000 		.4byte	0xf0
 2084 094d 10       		.byte	0x10
 2085 094e 11       		.uleb128 0x11
 2086 094f 4F445200 		.ascii	"ODR\000"
 2087 0953 12       		.byte	0x12
 2088 0954 B0       		.byte	0xb0
 2089 0955 F0000000 		.4byte	0xf0
 2090 0959 14       		.byte	0x14
 2091 095a 07       		.uleb128 0x7
 2092 095b FF070000 		.4byte	.LASF136
 2093 095f 12       		.byte	0x12
 2094 0960 B7       		.byte	0xb7
 2095 0961 97090000 		.4byte	0x997
 2096 0965 18       		.byte	0x18
ARM GAS  /tmp/ccNKSpOC.s 			page 38


 2097 0966 07       		.uleb128 0x7
 2098 0967 C2040000 		.4byte	.LASF137
 2099 096b 12       		.byte	0x12
 2100 096c B8       		.byte	0xb8
 2101 096d F0000000 		.4byte	0xf0
 2102 0971 1C       		.byte	0x1c
 2103 0972 07       		.uleb128 0x7
 2104 0973 0D070000 		.4byte	.LASF138
 2105 0977 12       		.byte	0x12
 2106 0978 B9       		.byte	0xb9
 2107 0979 F0000000 		.4byte	0xf0
 2108 097d 20       		.byte	0x20
 2109 097e 07       		.uleb128 0x7
 2110 097f 08070000 		.4byte	.LASF139
 2111 0983 12       		.byte	0x12
 2112 0984 BA       		.byte	0xba
 2113 0985 F0000000 		.4byte	0xf0
 2114 0989 24       		.byte	0x24
 2115 098a 11       		.uleb128 0x11
 2116 098b 42525200 		.ascii	"BRR\000"
 2117 098f 12       		.byte	0x12
 2118 0990 BB       		.byte	0xbb
 2119 0991 F0000000 		.4byte	0xf0
 2120 0995 28       		.byte	0x28
 2121 0996 00       		.byte	0
 2122 0997 05       		.uleb128 0x5
 2123 0998 EF080000 		.4byte	0x8ef
 2124 099c 03       		.uleb128 0x3
 2125 099d AE020000 		.4byte	.LASF140
 2126 09a1 12       		.byte	0x12
 2127 09a2 BC       		.byte	0xbc
 2128 09a3 0A090000 		.4byte	0x90a
 2129 09a7 18       		.uleb128 0x18
 2130 09a8 90030000 		.4byte	.LASF141
 2131 09ac 12       		.byte	0x12
 2132 09ad 0E01     		.2byte	0x10e
 2133 09af D5000000 		.4byte	0xd5
 2134 09b3 19       		.uleb128 0x19
 2135 09b4 01       		.byte	0x1
 2136 09b5 5E000000 		.4byte	0x5e
 2137 09b9 13       		.byte	0x13
 2138 09ba 46       		.byte	0x46
 2139 09bb E4090000 		.4byte	0x9e4
 2140 09bf 1A       		.uleb128 0x1a
 2141 09c0 9C080000 		.4byte	.LASF142
 2142 09c4 00       		.byte	0
 2143 09c5 1A       		.uleb128 0x1a
 2144 09c6 74070000 		.4byte	.LASF143
 2145 09ca 01       		.byte	0x1
 2146 09cb 1A       		.uleb128 0x1a
 2147 09cc E7020000 		.4byte	.LASF144
 2148 09d0 02       		.byte	0x2
 2149 09d1 1A       		.uleb128 0x1a
 2150 09d2 80060000 		.4byte	.LASF145
 2151 09d6 03       		.byte	0x3
 2152 09d7 1A       		.uleb128 0x1a
 2153 09d8 EF040000 		.4byte	.LASF146
ARM GAS  /tmp/ccNKSpOC.s 			page 39


 2154 09dc 04       		.byte	0x4
 2155 09dd 1A       		.uleb128 0x1a
 2156 09de 37030000 		.4byte	.LASF147
 2157 09e2 05       		.byte	0x5
 2158 09e3 00       		.byte	0
 2159 09e4 03       		.uleb128 0x3
 2160 09e5 87000000 		.4byte	.LASF148
 2161 09e9 13       		.byte	0x13
 2162 09ea 4D       		.byte	0x4d
 2163 09eb B3090000 		.4byte	0x9b3
 2164 09ef 18       		.uleb128 0x18
 2165 09f0 FD020000 		.4byte	.LASF149
 2166 09f4 14       		.byte	0x14
 2167 09f5 2701     		.2byte	0x127
 2168 09f7 BF000000 		.4byte	0xbf
 2169 09fb 18       		.uleb128 0x18
 2170 09fc 28050000 		.4byte	.LASF150
 2171 0a00 14       		.byte	0x14
 2172 0a01 2C01     		.2byte	0x12c
 2173 0a03 BF000000 		.4byte	0xbf
 2174 0a07 1B       		.uleb128 0x1b
 2175 0a08 01       		.byte	0x1
 2176 0a09 5E000000 		.4byte	0x5e
 2177 0a0d 14       		.byte	0x14
 2178 0a0e 3301     		.2byte	0x133
 2179 0a10 210A0000 		.4byte	0xa21
 2180 0a14 1A       		.uleb128 0x1a
 2181 0a15 64030000 		.4byte	.LASF151
 2182 0a19 00       		.byte	0
 2183 0a1a 1A       		.uleb128 0x1a
 2184 0a1b 19070000 		.4byte	.LASF152
 2185 0a1f 01       		.byte	0x1
 2186 0a20 00       		.byte	0
 2187 0a21 18       		.uleb128 0x18
 2188 0a22 C5020000 		.4byte	.LASF153
 2189 0a26 14       		.byte	0x14
 2190 0a27 3601     		.2byte	0x136
 2191 0a29 070A0000 		.4byte	0xa07
 2192 0a2d 18       		.uleb128 0x18
 2193 0a2e FE060000 		.4byte	.LASF154
 2194 0a32 14       		.byte	0x14
 2195 0a33 3B01     		.2byte	0x13b
 2196 0a35 390A0000 		.4byte	0xa39
 2197 0a39 0B       		.uleb128 0xb
 2198 0a3a FE060000 		.4byte	.LASF154
 2199 0a3e 34       		.byte	0x34
 2200 0a3f 14       		.byte	0x14
 2201 0a40 9F01     		.2byte	0x19f
 2202 0a42 C90A0000 		.4byte	0xac9
 2203 0a46 09       		.uleb128 0x9
 2204 0a47 CE000000 		.4byte	.LASF155
 2205 0a4b 14       		.byte	0x14
 2206 0a4c A301     		.2byte	0x1a3
 2207 0a4e E4090000 		.4byte	0x9e4
 2208 0a52 00       		.byte	0
 2209 0a53 09       		.uleb128 0x9
 2210 0a54 C7000000 		.4byte	.LASF156
ARM GAS  /tmp/ccNKSpOC.s 			page 40


 2211 0a58 14       		.byte	0x14
 2212 0a59 A701     		.2byte	0x1a7
 2213 0a5b E60B0000 		.4byte	0xbe6
 2214 0a5f 04       		.byte	0x4
 2215 0a60 09       		.uleb128 0x9
 2216 0a61 A8030000 		.4byte	.LASF157
 2217 0a65 14       		.byte	0x14
 2218 0a66 AB01     		.2byte	0x1ab
 2219 0a68 F60A0000 		.4byte	0xaf6
 2220 0a6c 08       		.byte	0x8
 2221 0a6d 09       		.uleb128 0x9
 2222 0a6e A0050000 		.4byte	.LASF158
 2223 0a72 14       		.byte	0x14
 2224 0a73 AF01     		.2byte	0x1af
 2225 0a75 2C000000 		.4byte	0x2c
 2226 0a79 0C       		.byte	0xc
 2227 0a7a 09       		.uleb128 0x9
 2228 0a7b 7D070000 		.4byte	.LASF159
 2229 0a7f 14       		.byte	0x14
 2230 0a80 B301     		.2byte	0x1b3
 2231 0a82 F10B0000 		.4byte	0xbf1
 2232 0a86 10       		.byte	0x10
 2233 0a87 09       		.uleb128 0x9
 2234 0a88 9B070000 		.4byte	.LASF160
 2235 0a8c 14       		.byte	0x14
 2236 0a8d B801     		.2byte	0x1b8
 2237 0a8f 50020000 		.4byte	0x250
 2238 0a93 14       		.byte	0x14
 2239 0a94 09       		.uleb128 0x9
 2240 0a95 A6050000 		.4byte	.LASF161
 2241 0a99 14       		.byte	0x14
 2242 0a9a BE01     		.2byte	0x1be
 2243 0a9c 5A080000 		.4byte	0x85a
 2244 0aa0 18       		.byte	0x18
 2245 0aa1 08       		.uleb128 0x8
 2246 0aa2 61646300 		.ascii	"adc\000"
 2247 0aa6 14       		.byte	0x14
 2248 0aa7 C701     		.2byte	0x1c7
 2249 0aa9 FC0B0000 		.4byte	0xbfc
 2250 0aad 28       		.byte	0x28
 2251 0aae 09       		.uleb128 0x9
 2252 0aaf 65040000 		.4byte	.LASF162
 2253 0ab3 14       		.byte	0x14
 2254 0ab4 CB01     		.2byte	0x1cb
 2255 0ab6 020C0000 		.4byte	0xc02
 2256 0aba 2C       		.byte	0x2c
 2257 0abb 09       		.uleb128 0x9
 2258 0abc B9050000 		.4byte	.LASF163
 2259 0ac0 14       		.byte	0x14
 2260 0ac1 CF01     		.2byte	0x1cf
 2261 0ac3 D5000000 		.4byte	0xd5
 2262 0ac7 30       		.byte	0x30
 2263 0ac8 00       		.byte	0
 2264 0ac9 18       		.uleb128 0x18
 2265 0aca 51000000 		.4byte	.LASF164
 2266 0ace 14       		.byte	0x14
 2267 0acf 4501     		.2byte	0x145
ARM GAS  /tmp/ccNKSpOC.s 			page 41


 2268 0ad1 D50A0000 		.4byte	0xad5
 2269 0ad5 0A       		.uleb128 0xa
 2270 0ad6 04       		.byte	0x4
 2271 0ad7 DB0A0000 		.4byte	0xadb
 2272 0adb 0C       		.uleb128 0xc
 2273 0adc F00A0000 		.4byte	0xaf0
 2274 0ae0 0D       		.uleb128 0xd
 2275 0ae1 F00A0000 		.4byte	0xaf0
 2276 0ae5 0D       		.uleb128 0xd
 2277 0ae6 F60A0000 		.4byte	0xaf6
 2278 0aea 0D       		.uleb128 0xd
 2279 0aeb 2C000000 		.4byte	0x2c
 2280 0aef 00       		.byte	0
 2281 0af0 0A       		.uleb128 0xa
 2282 0af1 04       		.byte	0x4
 2283 0af2 2D0A0000 		.4byte	0xa2d
 2284 0af6 0A       		.uleb128 0xa
 2285 0af7 04       		.byte	0x4
 2286 0af8 EF090000 		.4byte	0x9ef
 2287 0afc 18       		.uleb128 0x18
 2288 0afd 86050000 		.4byte	.LASF165
 2289 0b01 14       		.byte	0x14
 2290 0b02 4E01     		.2byte	0x14e
 2291 0b04 080B0000 		.4byte	0xb08
 2292 0b08 0A       		.uleb128 0xa
 2293 0b09 04       		.byte	0x4
 2294 0b0a 0E0B0000 		.4byte	0xb0e
 2295 0b0e 0C       		.uleb128 0xc
 2296 0b0f 1E0B0000 		.4byte	0xb1e
 2297 0b13 0D       		.uleb128 0xd
 2298 0b14 F00A0000 		.4byte	0xaf0
 2299 0b18 0D       		.uleb128 0xd
 2300 0b19 210A0000 		.4byte	0xa21
 2301 0b1d 00       		.byte	0
 2302 0b1e 1C       		.uleb128 0x1c
 2303 0b1f 28       		.byte	0x28
 2304 0b20 14       		.byte	0x14
 2305 0b21 5801     		.2byte	0x158
 2306 0b23 B70B0000 		.4byte	0xbb7
 2307 0b27 09       		.uleb128 0x9
 2308 0b28 5B030000 		.4byte	.LASF166
 2309 0b2c 14       		.byte	0x14
 2310 0b2d 5C01     		.2byte	0x15c
 2311 0b2f C7080000 		.4byte	0x8c7
 2312 0b33 00       		.byte	0
 2313 0b34 09       		.uleb128 0x9
 2314 0b35 0C060000 		.4byte	.LASF167
 2315 0b39 14       		.byte	0x14
 2316 0b3a 6001     		.2byte	0x160
 2317 0b3c FB090000 		.4byte	0x9fb
 2318 0b40 02       		.byte	0x2
 2319 0b41 09       		.uleb128 0x9
 2320 0b42 02010000 		.4byte	.LASF168
 2321 0b46 14       		.byte	0x14
 2322 0b47 6401     		.2byte	0x164
 2323 0b49 C90A0000 		.4byte	0xac9
 2324 0b4d 04       		.byte	0x4
ARM GAS  /tmp/ccNKSpOC.s 			page 42


 2325 0b4e 09       		.uleb128 0x9
 2326 0b4f D4000000 		.4byte	.LASF169
 2327 0b53 14       		.byte	0x14
 2328 0b54 6801     		.2byte	0x168
 2329 0b56 FC0A0000 		.4byte	0xafc
 2330 0b5a 08       		.byte	0x8
 2331 0b5b 08       		.uleb128 0x8
 2332 0b5c 63723100 		.ascii	"cr1\000"
 2333 0b60 14       		.byte	0x14
 2334 0b61 6F01     		.2byte	0x16f
 2335 0b63 D5000000 		.4byte	0xd5
 2336 0b67 0C       		.byte	0xc
 2337 0b68 08       		.uleb128 0x8
 2338 0b69 63723200 		.ascii	"cr2\000"
 2339 0b6d 14       		.byte	0x14
 2340 0b6e 7601     		.2byte	0x176
 2341 0b70 D5000000 		.4byte	0xd5
 2342 0b74 10       		.byte	0x10
 2343 0b75 09       		.uleb128 0x9
 2344 0b76 0C050000 		.4byte	.LASF170
 2345 0b7a 14       		.byte	0x14
 2346 0b7b 7C01     		.2byte	0x17c
 2347 0b7d D5000000 		.4byte	0xd5
 2348 0b81 14       		.byte	0x14
 2349 0b82 09       		.uleb128 0x9
 2350 0b83 12050000 		.4byte	.LASF171
 2351 0b87 14       		.byte	0x14
 2352 0b88 8201     		.2byte	0x182
 2353 0b8a D5000000 		.4byte	0xd5
 2354 0b8e 18       		.byte	0x18
 2355 0b8f 09       		.uleb128 0x9
 2356 0b90 1F000000 		.4byte	.LASF172
 2357 0b94 14       		.byte	0x14
 2358 0b95 8701     		.2byte	0x187
 2359 0b97 D5000000 		.4byte	0xd5
 2360 0b9b 1C       		.byte	0x1c
 2361 0b9c 09       		.uleb128 0x9
 2362 0b9d 24000000 		.4byte	.LASF173
 2363 0ba1 14       		.byte	0x14
 2364 0ba2 8C01     		.2byte	0x18c
 2365 0ba4 D5000000 		.4byte	0xd5
 2366 0ba8 20       		.byte	0x20
 2367 0ba9 09       		.uleb128 0x9
 2368 0baa 56030000 		.4byte	.LASF174
 2369 0bae 14       		.byte	0x14
 2370 0baf 9101     		.2byte	0x191
 2371 0bb1 D5000000 		.4byte	0xd5
 2372 0bb5 24       		.byte	0x24
 2373 0bb6 00       		.byte	0
 2374 0bb7 18       		.uleb128 0x18
 2375 0bb8 DC040000 		.4byte	.LASF175
 2376 0bbc 14       		.byte	0x14
 2377 0bbd 9201     		.2byte	0x192
 2378 0bbf 1E0B0000 		.4byte	0xb1e
 2379 0bc3 1C       		.uleb128 0x1c
 2380 0bc4 04       		.byte	0x4
 2381 0bc5 14       		.byte	0x14
ARM GAS  /tmp/ccNKSpOC.s 			page 43


 2382 0bc6 9801     		.2byte	0x198
 2383 0bc8 DA0B0000 		.4byte	0xbda
 2384 0bcc 09       		.uleb128 0x9
 2385 0bcd 6E070000 		.4byte	.LASF176
 2386 0bd1 14       		.byte	0x14
 2387 0bd2 9901     		.2byte	0x199
 2388 0bd4 D5000000 		.4byte	0xd5
 2389 0bd8 00       		.byte	0
 2390 0bd9 00       		.byte	0
 2391 0bda 18       		.uleb128 0x18
 2392 0bdb 2A090000 		.4byte	.LASF177
 2393 0bdf 14       		.byte	0x14
 2394 0be0 9A01     		.2byte	0x19a
 2395 0be2 C30B0000 		.4byte	0xbc3
 2396 0be6 0A       		.uleb128 0xa
 2397 0be7 04       		.byte	0x4
 2398 0be8 EC0B0000 		.4byte	0xbec
 2399 0bec 14       		.uleb128 0x14
 2400 0bed DA0B0000 		.4byte	0xbda
 2401 0bf1 0A       		.uleb128 0xa
 2402 0bf2 04       		.byte	0x4
 2403 0bf3 F70B0000 		.4byte	0xbf7
 2404 0bf7 14       		.uleb128 0x14
 2405 0bf8 B70B0000 		.4byte	0xbb7
 2406 0bfc 0A       		.uleb128 0xa
 2407 0bfd 04       		.byte	0x4
 2408 0bfe 6C050000 		.4byte	0x56c
 2409 0c02 0A       		.uleb128 0xa
 2410 0c03 04       		.byte	0x4
 2411 0c04 080C0000 		.4byte	0xc08
 2412 0c08 14       		.uleb128 0x14
 2413 0c09 BC080000 		.4byte	0x8bc
 2414 0c0d 1D       		.uleb128 0x1d
 2415 0c0e 83030000 		.4byte	.LASF178
 2416 0c12 04       		.byte	0x4
 2417 0c13 4901     		.2byte	0x149
 2418 0c15 03       		.byte	0x3
 2419 0c16 1E       		.uleb128 0x1e
 2420 0c17 35070000 		.4byte	.LASF181
 2421 0c1b 04       		.byte	0x4
 2422 0c1c 2002     		.2byte	0x220
 2423 0c1e 03       		.byte	0x3
 2424 0c1f 300C0000 		.4byte	0xc30
 2425 0c23 1F       		.uleb128 0x1f
 2426 0c24 F7020000 		.4byte	.LASF183
 2427 0c28 04       		.byte	0x4
 2428 0c29 2002     		.2byte	0x220
 2429 0c2b D5000000 		.4byte	0xd5
 2430 0c2f 00       		.byte	0
 2431 0c30 1D       		.uleb128 0x1d
 2432 0c31 EA080000 		.4byte	.LASF179
 2433 0c35 0D       		.byte	0xd
 2434 0c36 0602     		.2byte	0x206
 2435 0c38 03       		.byte	0x3
 2436 0c39 1D       		.uleb128 0x1d
 2437 0c3a BB000000 		.4byte	.LASF180
 2438 0c3e 15       		.byte	0x15
ARM GAS  /tmp/ccNKSpOC.s 			page 44


 2439 0c3f 4F01     		.2byte	0x14f
 2440 0c41 03       		.byte	0x3
 2441 0c42 20       		.uleb128 0x20
 2442 0c43 D0080000 		.4byte	.LASF182
 2443 0c47 02       		.byte	0x2
 2444 0c48 84       		.byte	0x84
 2445 0c49 03       		.byte	0x3
 2446 0c4a 5A0C0000 		.4byte	0xc5a
 2447 0c4e 21       		.uleb128 0x21
 2448 0c4f A7070000 		.4byte	.LASF184
 2449 0c53 02       		.byte	0x2
 2450 0c54 84       		.byte	0x84
 2451 0c55 2D080000 		.4byte	0x82d
 2452 0c59 00       		.byte	0
 2453 0c5a 22       		.uleb128 0x22
 2454 0c5b F6080000 		.4byte	.LASF186
 2455 0c5f 03       		.byte	0x3
 2456 0c60 27       		.byte	0x27
 2457 0c61 01       		.byte	0x1
 2458 0c62 720C0000 		.4byte	0xc72
 2459 0c66 21       		.uleb128 0x21
 2460 0c67 50020000 		.4byte	.LASF185
 2461 0c6b 03       		.byte	0x3
 2462 0c6c 27       		.byte	0x27
 2463 0c6d B4000000 		.4byte	0xb4
 2464 0c71 00       		.byte	0
 2465 0c72 22       		.uleb128 0x22
 2466 0c73 20050000 		.4byte	.LASF187
 2467 0c77 03       		.byte	0x3
 2468 0c78 4D       		.byte	0x4d
 2469 0c79 01       		.byte	0x1
 2470 0c7a 880C0000 		.4byte	0xc88
 2471 0c7e 23       		.uleb128 0x23
 2472 0c7f 6300     		.ascii	"c\000"
 2473 0c81 03       		.byte	0x3
 2474 0c82 4D       		.byte	0x4d
 2475 0c83 B4000000 		.4byte	0xb4
 2476 0c87 00       		.byte	0
 2477 0c88 22       		.uleb128 0x22
 2478 0c89 C7040000 		.4byte	.LASF188
 2479 0c8d 03       		.byte	0x3
 2480 0c8e 45       		.byte	0x45
 2481 0c8f 01       		.byte	0x1
 2482 0c90 9E0C0000 		.4byte	0xc9e
 2483 0c94 23       		.uleb128 0x23
 2484 0c95 6300     		.ascii	"c\000"
 2485 0c97 03       		.byte	0x3
 2486 0c98 45       		.byte	0x45
 2487 0c99 B4000000 		.4byte	0xb4
 2488 0c9d 00       		.byte	0
 2489 0c9e 1D       		.uleb128 0x1d
 2490 0c9f 4B070000 		.4byte	.LASF189
 2491 0ca3 16       		.byte	0x16
 2492 0ca4 B201     		.2byte	0x1b2
 2493 0ca6 03       		.byte	0x3
 2494 0ca7 24       		.uleb128 0x24
 2495 0ca8 46050000 		.4byte	.LASF213
ARM GAS  /tmp/ccNKSpOC.s 			page 45


 2496 0cac 01       		.byte	0x1
 2497 0cad 3C       		.byte	0x3c
 2498 0cae 00000000 		.4byte	.LFB268
 2499 0cb2 34000000 		.4byte	.LFE268-.LFB268
 2500 0cb6 01       		.uleb128 0x1
 2501 0cb7 9C       		.byte	0x9c
 2502 0cb8 120D0000 		.4byte	0xd12
 2503 0cbc 25       		.uleb128 0x25
 2504 0cbd 61726700 		.ascii	"arg\000"
 2505 0cc1 01       		.byte	0x1
 2506 0cc2 3C       		.byte	0x3c
 2507 0cc3 38030000 		.4byte	0x338
 2508 0cc7 00000000 		.4byte	.LLST0
 2509 0ccb 26       		.uleb128 0x26
 2510 0ccc 420C0000 		.4byte	0xc42
 2511 0cd0 02000000 		.4byte	.LBB58
 2512 0cd4 00000000 		.4byte	.Ldebug_ranges0+0
 2513 0cd8 01       		.byte	0x1
 2514 0cd9 3F       		.byte	0x3f
 2515 0cda EB0C0000 		.4byte	0xceb
 2516 0cde 27       		.uleb128 0x27
 2517 0cdf 4E0C0000 		.4byte	0xc4e
 2518 0ce3 06       		.uleb128 0x6
 2519 0ce4 03       		.byte	0x3
 2520 0ce5 00000000 		.4byte	.LC0
 2521 0ce9 9F       		.byte	0x9f
 2522 0cea 00       		.byte	0
 2523 0ceb 28       		.uleb128 0x28
 2524 0cec 1C000000 		.4byte	.LVL2
 2525 0cf0 8D140000 		.4byte	0x148d
 2526 0cf4 000D0000 		.4byte	0xd00
 2527 0cf8 29       		.uleb128 0x29
 2528 0cf9 01       		.uleb128 0x1
 2529 0cfa 50       		.byte	0x50
 2530 0cfb 03       		.uleb128 0x3
 2531 0cfc 0A       		.byte	0xa
 2532 0cfd 1027     		.2byte	0x2710
 2533 0cff 00       		.byte	0
 2534 0d00 2A       		.uleb128 0x2a
 2535 0d01 26000000 		.4byte	.LVL3
 2536 0d05 8D140000 		.4byte	0x148d
 2537 0d09 29       		.uleb128 0x29
 2538 0d0a 01       		.uleb128 0x1
 2539 0d0b 50       		.byte	0x50
 2540 0d0c 03       		.uleb128 0x3
 2541 0d0d 0A       		.byte	0xa
 2542 0d0e 1027     		.2byte	0x2710
 2543 0d10 00       		.byte	0
 2544 0d11 00       		.byte	0
 2545 0d12 2B       		.uleb128 0x2b
 2546 0d13 4C030000 		.4byte	.LASF190
 2547 0d17 03       		.byte	0x3
 2548 0d18 17       		.byte	0x17
 2549 0d19 00000000 		.4byte	.LFB260
 2550 0d1d 50000000 		.4byte	.LFE260-.LFB260
 2551 0d21 01       		.uleb128 0x1
 2552 0d22 9C       		.byte	0x9c
ARM GAS  /tmp/ccNKSpOC.s 			page 46


 2553 0d23 DC0D0000 		.4byte	0xddc
 2554 0d27 28       		.uleb128 0x28
 2555 0d28 0E000000 		.4byte	.LVL4
 2556 0d2c 98140000 		.4byte	0x1498
 2557 0d30 450D0000 		.4byte	0xd45
 2558 0d34 29       		.uleb128 0x29
 2559 0d35 01       		.uleb128 0x1
 2560 0d36 50       		.byte	0x50
 2561 0d37 02       		.uleb128 0x2
 2562 0d38 74       		.byte	0x74
 2563 0d39 00       		.sleb128 0
 2564 0d3a 29       		.uleb128 0x29
 2565 0d3b 01       		.uleb128 0x1
 2566 0d3c 51       		.byte	0x51
 2567 0d3d 01       		.uleb128 0x1
 2568 0d3e 31       		.byte	0x31
 2569 0d3f 29       		.uleb128 0x29
 2570 0d40 01       		.uleb128 0x1
 2571 0d41 52       		.byte	0x52
 2572 0d42 01       		.uleb128 0x1
 2573 0d43 31       		.byte	0x31
 2574 0d44 00       		.byte	0
 2575 0d45 28       		.uleb128 0x28
 2576 0d46 18000000 		.4byte	.LVL5
 2577 0d4a 98140000 		.4byte	0x1498
 2578 0d4e 670D0000 		.4byte	0xd67
 2579 0d52 29       		.uleb128 0x29
 2580 0d53 01       		.uleb128 0x1
 2581 0d54 50       		.byte	0x50
 2582 0d55 05       		.uleb128 0x5
 2583 0d56 0C       		.byte	0xc
 2584 0d57 00040240 		.4byte	0x40020400
 2585 0d5b 29       		.uleb128 0x29
 2586 0d5c 01       		.uleb128 0x1
 2587 0d5d 51       		.byte	0x51
 2588 0d5e 02       		.uleb128 0x2
 2589 0d5f 08       		.byte	0x8
 2590 0d60 20       		.byte	0x20
 2591 0d61 29       		.uleb128 0x29
 2592 0d62 01       		.uleb128 0x1
 2593 0d63 52       		.byte	0x52
 2594 0d64 01       		.uleb128 0x1
 2595 0d65 31       		.byte	0x31
 2596 0d66 00       		.byte	0
 2597 0d67 28       		.uleb128 0x28
 2598 0d68 22000000 		.4byte	.LVL6
 2599 0d6c 98140000 		.4byte	0x1498
 2600 0d70 850D0000 		.4byte	0xd85
 2601 0d74 29       		.uleb128 0x29
 2602 0d75 01       		.uleb128 0x1
 2603 0d76 50       		.byte	0x50
 2604 0d77 02       		.uleb128 0x2
 2605 0d78 74       		.byte	0x74
 2606 0d79 00       		.sleb128 0
 2607 0d7a 29       		.uleb128 0x29
 2608 0d7b 01       		.uleb128 0x1
 2609 0d7c 51       		.byte	0x51
ARM GAS  /tmp/ccNKSpOC.s 			page 47


 2610 0d7d 01       		.uleb128 0x1
 2611 0d7e 32       		.byte	0x32
 2612 0d7f 29       		.uleb128 0x29
 2613 0d80 01       		.uleb128 0x1
 2614 0d81 52       		.byte	0x52
 2615 0d82 01       		.uleb128 0x1
 2616 0d83 31       		.byte	0x31
 2617 0d84 00       		.byte	0
 2618 0d85 28       		.uleb128 0x28
 2619 0d86 2C000000 		.4byte	.LVL7
 2620 0d8a 98140000 		.4byte	0x1498
 2621 0d8e A30D0000 		.4byte	0xda3
 2622 0d92 29       		.uleb128 0x29
 2623 0d93 01       		.uleb128 0x1
 2624 0d94 50       		.byte	0x50
 2625 0d95 02       		.uleb128 0x2
 2626 0d96 74       		.byte	0x74
 2627 0d97 00       		.sleb128 0
 2628 0d98 29       		.uleb128 0x29
 2629 0d99 01       		.uleb128 0x1
 2630 0d9a 51       		.byte	0x51
 2631 0d9b 01       		.uleb128 0x1
 2632 0d9c 34       		.byte	0x34
 2633 0d9d 29       		.uleb128 0x29
 2634 0d9e 01       		.uleb128 0x1
 2635 0d9f 52       		.byte	0x52
 2636 0da0 01       		.uleb128 0x1
 2637 0da1 31       		.byte	0x31
 2638 0da2 00       		.byte	0
 2639 0da3 28       		.uleb128 0x28
 2640 0da4 36000000 		.4byte	.LVL8
 2641 0da8 98140000 		.4byte	0x1498
 2642 0dac C10D0000 		.4byte	0xdc1
 2643 0db0 29       		.uleb128 0x29
 2644 0db1 01       		.uleb128 0x1
 2645 0db2 50       		.byte	0x50
 2646 0db3 02       		.uleb128 0x2
 2647 0db4 74       		.byte	0x74
 2648 0db5 00       		.sleb128 0
 2649 0db6 29       		.uleb128 0x29
 2650 0db7 01       		.uleb128 0x1
 2651 0db8 51       		.byte	0x51
 2652 0db9 01       		.uleb128 0x1
 2653 0dba 38       		.byte	0x38
 2654 0dbb 29       		.uleb128 0x29
 2655 0dbc 01       		.uleb128 0x1
 2656 0dbd 52       		.byte	0x52
 2657 0dbe 01       		.uleb128 0x1
 2658 0dbf 31       		.byte	0x31
 2659 0dc0 00       		.byte	0
 2660 0dc1 2A       		.uleb128 0x2a
 2661 0dc2 40000000 		.4byte	.LVL9
 2662 0dc6 98140000 		.4byte	0x1498
 2663 0dca 29       		.uleb128 0x29
 2664 0dcb 01       		.uleb128 0x1
 2665 0dcc 50       		.byte	0x50
 2666 0dcd 02       		.uleb128 0x2
ARM GAS  /tmp/ccNKSpOC.s 			page 48


 2667 0dce 74       		.byte	0x74
 2668 0dcf 00       		.sleb128 0
 2669 0dd0 29       		.uleb128 0x29
 2670 0dd1 01       		.uleb128 0x1
 2671 0dd2 51       		.byte	0x51
 2672 0dd3 01       		.uleb128 0x1
 2673 0dd4 40       		.byte	0x40
 2674 0dd5 29       		.uleb128 0x29
 2675 0dd6 01       		.uleb128 0x1
 2676 0dd7 52       		.byte	0x52
 2677 0dd8 01       		.uleb128 0x1
 2678 0dd9 31       		.byte	0x31
 2679 0dda 00       		.byte	0
 2680 0ddb 00       		.byte	0
 2681 0ddc 2C       		.uleb128 0x2c
 2682 0ddd 5A0C0000 		.4byte	0xc5a
 2683 0de1 00000000 		.4byte	.LFB261
 2684 0de5 0C000000 		.4byte	.LFE261-.LFB261
 2685 0de9 01       		.uleb128 0x1
 2686 0dea 9C       		.byte	0x9c
 2687 0deb F90D0000 		.4byte	0xdf9
 2688 0def 2D       		.uleb128 0x2d
 2689 0df0 660C0000 		.4byte	0xc66
 2690 0df4 21000000 		.4byte	.LLST1
 2691 0df8 00       		.byte	0
 2692 0df9 2B       		.uleb128 0x2b
 2693 0dfa 6B080000 		.4byte	.LASF191
 2694 0dfe 03       		.byte	0x3
 2695 0dff 2D       		.byte	0x2d
 2696 0e00 00000000 		.4byte	.LFB262
 2697 0e04 20000000 		.4byte	.LFE262-.LFB262
 2698 0e08 01       		.uleb128 0x1
 2699 0e09 9C       		.byte	0x9c
 2700 0e0a 320E0000 		.4byte	0xe32
 2701 0e0e 28       		.uleb128 0x28
 2702 0e0f 0E000000 		.4byte	.LVL12
 2703 0e13 8D140000 		.4byte	0x148d
 2704 0e17 220E0000 		.4byte	0xe22
 2705 0e1b 29       		.uleb128 0x29
 2706 0e1c 01       		.uleb128 0x1
 2707 0e1d 50       		.byte	0x50
 2708 0e1e 02       		.uleb128 0x2
 2709 0e1f 74       		.byte	0x74
 2710 0e20 00       		.sleb128 0
 2711 0e21 00       		.byte	0
 2712 0e22 2E       		.uleb128 0x2e
 2713 0e23 1A000000 		.4byte	.LVL13
 2714 0e27 8D140000 		.4byte	0x148d
 2715 0e2b 29       		.uleb128 0x29
 2716 0e2c 01       		.uleb128 0x1
 2717 0e2d 50       		.byte	0x50
 2718 0e2e 01       		.uleb128 0x1
 2719 0e2f 31       		.byte	0x31
 2720 0e30 00       		.byte	0
 2721 0e31 00       		.byte	0
 2722 0e32 2F       		.uleb128 0x2f
 2723 0e33 1D090000 		.4byte	.LASF193
ARM GAS  /tmp/ccNKSpOC.s 			page 49


 2724 0e37 03       		.byte	0x3
 2725 0e38 36       		.byte	0x36
 2726 0e39 00000000 		.4byte	.LFB263
 2727 0e3d 24000000 		.4byte	.LFE263-.LFB263
 2728 0e41 01       		.uleb128 0x1
 2729 0e42 9C       		.byte	0x9c
 2730 0e43 AA0E0000 		.4byte	0xeaa
 2731 0e47 25       		.uleb128 0x25
 2732 0e48 6300     		.ascii	"c\000"
 2733 0e4a 03       		.byte	0x3
 2734 0e4b 36       		.byte	0x36
 2735 0e4c B4000000 		.4byte	0xb4
 2736 0e50 42000000 		.4byte	.LLST2
 2737 0e54 30       		.uleb128 0x30
 2738 0e55 7800     		.ascii	"x\000"
 2739 0e57 03       		.byte	0x3
 2740 0e58 38       		.byte	0x38
 2741 0e59 B4000000 		.4byte	0xb4
 2742 0e5d 63000000 		.4byte	.LLST3
 2743 0e61 26       		.uleb128 0x26
 2744 0e62 5A0C0000 		.4byte	0xc5a
 2745 0e66 02000000 		.4byte	.LBB62
 2746 0e6a 18000000 		.4byte	.Ldebug_ranges0+0x18
 2747 0e6e 03       		.byte	0x3
 2748 0e6f 3A       		.byte	0x3a
 2749 0e70 7E0E0000 		.4byte	0xe7e
 2750 0e74 2D       		.uleb128 0x2d
 2751 0e75 660C0000 		.4byte	0xc66
 2752 0e79 8A000000 		.4byte	.LLST4
 2753 0e7d 00       		.byte	0
 2754 0e7e 26       		.uleb128 0x26
 2755 0e7f 5A0C0000 		.4byte	0xc5a
 2756 0e83 0A000000 		.4byte	.LBB67
 2757 0e87 38000000 		.4byte	.Ldebug_ranges0+0x38
 2758 0e8b 03       		.byte	0x3
 2759 0e8c 3F       		.byte	0x3f
 2760 0e8d 970E0000 		.4byte	0xe97
 2761 0e91 31       		.uleb128 0x31
 2762 0e92 660C0000 		.4byte	0xc66
 2763 0e96 00       		.byte	0
 2764 0e97 32       		.uleb128 0x32
 2765 0e98 16000000 		.4byte	.LVL16
 2766 0e9c F90D0000 		.4byte	0xdf9
 2767 0ea0 33       		.uleb128 0x33
 2768 0ea1 20000000 		.4byte	.LVL17
 2769 0ea5 F90D0000 		.4byte	0xdf9
 2770 0ea9 00       		.byte	0
 2771 0eaa 2C       		.uleb128 0x2c
 2772 0eab 880C0000 		.4byte	0xc88
 2773 0eaf 00000000 		.4byte	.LFB264
 2774 0eb3 1C000000 		.4byte	.LFE264-.LFB264
 2775 0eb7 01       		.uleb128 0x1
 2776 0eb8 9C       		.byte	0x9c
 2777 0eb9 DF0E0000 		.4byte	0xedf
 2778 0ebd 2D       		.uleb128 0x2d
 2779 0ebe 940C0000 		.4byte	0xc94
 2780 0ec2 B1000000 		.4byte	.LLST5
ARM GAS  /tmp/ccNKSpOC.s 			page 50


 2781 0ec6 32       		.uleb128 0x32
 2782 0ec7 0C000000 		.4byte	.LVL19
 2783 0ecb 320E0000 		.4byte	0xe32
 2784 0ecf 2A       		.uleb128 0x2a
 2785 0ed0 12000000 		.4byte	.LVL20
 2786 0ed4 8D140000 		.4byte	0x148d
 2787 0ed8 29       		.uleb128 0x29
 2788 0ed9 01       		.uleb128 0x1
 2789 0eda 50       		.byte	0x50
 2790 0edb 01       		.uleb128 0x1
 2791 0edc 31       		.byte	0x31
 2792 0edd 00       		.byte	0
 2793 0ede 00       		.byte	0
 2794 0edf 2C       		.uleb128 0x2c
 2795 0ee0 720C0000 		.4byte	0xc72
 2796 0ee4 00000000 		.4byte	.LFB265
 2797 0ee8 1C000000 		.4byte	.LFE265-.LFB265
 2798 0eec 01       		.uleb128 0x1
 2799 0eed 9C       		.byte	0x9c
 2800 0eee 140F0000 		.4byte	0xf14
 2801 0ef2 2D       		.uleb128 0x2d
 2802 0ef3 7E0C0000 		.4byte	0xc7e
 2803 0ef7 D2000000 		.4byte	.LLST6
 2804 0efb 32       		.uleb128 0x32
 2805 0efc 0C000000 		.4byte	.LVL22
 2806 0f00 320E0000 		.4byte	0xe32
 2807 0f04 2E       		.uleb128 0x2e
 2808 0f05 16000000 		.4byte	.LVL23
 2809 0f09 8D140000 		.4byte	0x148d
 2810 0f0d 29       		.uleb128 0x29
 2811 0f0e 01       		.uleb128 0x1
 2812 0f0f 50       		.byte	0x50
 2813 0f10 01       		.uleb128 0x1
 2814 0f11 31       		.byte	0x31
 2815 0f12 00       		.byte	0
 2816 0f13 00       		.byte	0
 2817 0f14 2B       		.uleb128 0x2b
 2818 0f15 B2000000 		.4byte	.LASF192
 2819 0f19 03       		.byte	0x3
 2820 0f1a 56       		.byte	0x56
 2821 0f1b 00000000 		.4byte	.LFB266
 2822 0f1f 90000000 		.4byte	.LFE266-.LFB266
 2823 0f23 01       		.uleb128 0x1
 2824 0f24 9C       		.byte	0x9c
 2825 0f25 31110000 		.4byte	0x1131
 2826 0f29 26       		.uleb128 0x26
 2827 0f2a 720C0000 		.4byte	0xc72
 2828 0f2e 02000000 		.4byte	.LBB74
 2829 0f32 58000000 		.4byte	.Ldebug_ranges0+0x58
 2830 0f36 03       		.byte	0x3
 2831 0f37 58       		.byte	0x58
 2832 0f38 660F0000 		.4byte	0xf66
 2833 0f3c 34       		.uleb128 0x34
 2834 0f3d 7E0C0000 		.4byte	0xc7e
 2835 0f41 33       		.byte	0x33
 2836 0f42 28       		.uleb128 0x28
 2837 0f43 16000000 		.4byte	.LVL25
ARM GAS  /tmp/ccNKSpOC.s 			page 51


 2838 0f47 320E0000 		.4byte	0xe32
 2839 0f4b 560F0000 		.4byte	0xf56
 2840 0f4f 29       		.uleb128 0x29
 2841 0f50 01       		.uleb128 0x1
 2842 0f51 50       		.byte	0x50
 2843 0f52 02       		.uleb128 0x2
 2844 0f53 08       		.byte	0x8
 2845 0f54 33       		.byte	0x33
 2846 0f55 00       		.byte	0
 2847 0f56 2A       		.uleb128 0x2a
 2848 0f57 1C000000 		.4byte	.LVL26
 2849 0f5b 8D140000 		.4byte	0x148d
 2850 0f5f 29       		.uleb128 0x29
 2851 0f60 01       		.uleb128 0x1
 2852 0f61 50       		.byte	0x50
 2853 0f62 01       		.uleb128 0x1
 2854 0f63 31       		.byte	0x31
 2855 0f64 00       		.byte	0
 2856 0f65 00       		.byte	0
 2857 0f66 35       		.uleb128 0x35
 2858 0f67 720C0000 		.4byte	0xc72
 2859 0f6b 22000000 		.4byte	.LBB78
 2860 0f6f 0E000000 		.4byte	.LBE78-.LBB78
 2861 0f73 03       		.byte	0x3
 2862 0f74 5A       		.byte	0x5a
 2863 0f75 A30F0000 		.4byte	0xfa3
 2864 0f79 34       		.uleb128 0x34
 2865 0f7a 7E0C0000 		.4byte	0xc7e
 2866 0f7e 32       		.byte	0x32
 2867 0f7f 28       		.uleb128 0x28
 2868 0f80 2A000000 		.4byte	.LVL28
 2869 0f84 320E0000 		.4byte	0xe32
 2870 0f88 930F0000 		.4byte	0xf93
 2871 0f8c 29       		.uleb128 0x29
 2872 0f8d 01       		.uleb128 0x1
 2873 0f8e 50       		.byte	0x50
 2874 0f8f 02       		.uleb128 0x2
 2875 0f90 08       		.byte	0x8
 2876 0f91 32       		.byte	0x32
 2877 0f92 00       		.byte	0
 2878 0f93 2A       		.uleb128 0x2a
 2879 0f94 30000000 		.4byte	.LVL29
 2880 0f98 8D140000 		.4byte	0x148d
 2881 0f9c 29       		.uleb128 0x29
 2882 0f9d 01       		.uleb128 0x1
 2883 0f9e 50       		.byte	0x50
 2884 0f9f 01       		.uleb128 0x1
 2885 0fa0 31       		.byte	0x31
 2886 0fa1 00       		.byte	0
 2887 0fa2 00       		.byte	0
 2888 0fa3 35       		.uleb128 0x35
 2889 0fa4 720C0000 		.4byte	0xc72
 2890 0fa8 36000000 		.4byte	.LBB80
 2891 0fac 0E000000 		.4byte	.LBE80-.LBB80
 2892 0fb0 03       		.byte	0x3
 2893 0fb1 5C       		.byte	0x5c
 2894 0fb2 E00F0000 		.4byte	0xfe0
ARM GAS  /tmp/ccNKSpOC.s 			page 52


 2895 0fb6 34       		.uleb128 0x34
 2896 0fb7 7E0C0000 		.4byte	0xc7e
 2897 0fbb 28       		.byte	0x28
 2898 0fbc 28       		.uleb128 0x28
 2899 0fbd 3E000000 		.4byte	.LVL31
 2900 0fc1 320E0000 		.4byte	0xe32
 2901 0fc5 D00F0000 		.4byte	0xfd0
 2902 0fc9 29       		.uleb128 0x29
 2903 0fca 01       		.uleb128 0x1
 2904 0fcb 50       		.byte	0x50
 2905 0fcc 02       		.uleb128 0x2
 2906 0fcd 08       		.byte	0x8
 2907 0fce 28       		.byte	0x28
 2908 0fcf 00       		.byte	0
 2909 0fd0 2A       		.uleb128 0x2a
 2910 0fd1 44000000 		.4byte	.LVL32
 2911 0fd5 8D140000 		.4byte	0x148d
 2912 0fd9 29       		.uleb128 0x29
 2913 0fda 01       		.uleb128 0x1
 2914 0fdb 50       		.byte	0x50
 2915 0fdc 01       		.uleb128 0x1
 2916 0fdd 31       		.byte	0x31
 2917 0fde 00       		.byte	0
 2918 0fdf 00       		.byte	0
 2919 0fe0 35       		.uleb128 0x35
 2920 0fe1 720C0000 		.4byte	0xc72
 2921 0fe5 44000000 		.4byte	.LBB82
 2922 0fe9 0E000000 		.4byte	.LBE82-.LBB82
 2923 0fed 03       		.byte	0x3
 2924 0fee 5D       		.byte	0x5d
 2925 0fef 1C100000 		.4byte	0x101c
 2926 0ff3 34       		.uleb128 0x34
 2927 0ff4 7E0C0000 		.4byte	0xc7e
 2928 0ff8 08       		.byte	0x8
 2929 0ff9 28       		.uleb128 0x28
 2930 0ffa 4C000000 		.4byte	.LVL33
 2931 0ffe 320E0000 		.4byte	0xe32
 2932 1002 0C100000 		.4byte	0x100c
 2933 1006 29       		.uleb128 0x29
 2934 1007 01       		.uleb128 0x1
 2935 1008 50       		.byte	0x50
 2936 1009 01       		.uleb128 0x1
 2937 100a 38       		.byte	0x38
 2938 100b 00       		.byte	0
 2939 100c 2A       		.uleb128 0x2a
 2940 100d 52000000 		.4byte	.LVL34
 2941 1011 8D140000 		.4byte	0x148d
 2942 1015 29       		.uleb128 0x29
 2943 1016 01       		.uleb128 0x1
 2944 1017 50       		.byte	0x50
 2945 1018 01       		.uleb128 0x1
 2946 1019 31       		.byte	0x31
 2947 101a 00       		.byte	0
 2948 101b 00       		.byte	0
 2949 101c 35       		.uleb128 0x35
 2950 101d 720C0000 		.4byte	0xc72
 2951 1021 52000000 		.4byte	.LBB84
ARM GAS  /tmp/ccNKSpOC.s 			page 53


 2952 1025 0E000000 		.4byte	.LBE84-.LBB84
 2953 1029 03       		.byte	0x3
 2954 102a 5E       		.byte	0x5e
 2955 102b 58100000 		.4byte	0x1058
 2956 102f 34       		.uleb128 0x34
 2957 1030 7E0C0000 		.4byte	0xc7e
 2958 1034 01       		.byte	0x1
 2959 1035 28       		.uleb128 0x28
 2960 1036 5A000000 		.4byte	.LVL35
 2961 103a 320E0000 		.4byte	0xe32
 2962 103e 48100000 		.4byte	0x1048
 2963 1042 29       		.uleb128 0x29
 2964 1043 01       		.uleb128 0x1
 2965 1044 50       		.byte	0x50
 2966 1045 01       		.uleb128 0x1
 2967 1046 31       		.byte	0x31
 2968 1047 00       		.byte	0
 2969 1048 2A       		.uleb128 0x2a
 2970 1049 60000000 		.4byte	.LVL36
 2971 104d 8D140000 		.4byte	0x148d
 2972 1051 29       		.uleb128 0x29
 2973 1052 01       		.uleb128 0x1
 2974 1053 50       		.byte	0x50
 2975 1054 01       		.uleb128 0x1
 2976 1055 31       		.byte	0x31
 2977 1056 00       		.byte	0
 2978 1057 00       		.byte	0
 2979 1058 35       		.uleb128 0x35
 2980 1059 720C0000 		.4byte	0xc72
 2981 105d 66000000 		.4byte	.LBB86
 2982 1061 0E000000 		.4byte	.LBE86-.LBB86
 2983 1065 03       		.byte	0x3
 2984 1066 61       		.byte	0x61
 2985 1067 94100000 		.4byte	0x1094
 2986 106b 34       		.uleb128 0x34
 2987 106c 7E0C0000 		.4byte	0xc7e
 2988 1070 06       		.byte	0x6
 2989 1071 28       		.uleb128 0x28
 2990 1072 6E000000 		.4byte	.LVL38
 2991 1076 320E0000 		.4byte	0xe32
 2992 107a 84100000 		.4byte	0x1084
 2993 107e 29       		.uleb128 0x29
 2994 107f 01       		.uleb128 0x1
 2995 1080 50       		.byte	0x50
 2996 1081 01       		.uleb128 0x1
 2997 1082 36       		.byte	0x36
 2998 1083 00       		.byte	0
 2999 1084 2A       		.uleb128 0x2a
 3000 1085 74000000 		.4byte	.LVL39
 3001 1089 8D140000 		.4byte	0x148d
 3002 108d 29       		.uleb128 0x29
 3003 108e 01       		.uleb128 0x1
 3004 108f 50       		.byte	0x50
 3005 1090 01       		.uleb128 0x1
 3006 1091 31       		.byte	0x31
 3007 1092 00       		.byte	0
 3008 1093 00       		.byte	0
ARM GAS  /tmp/ccNKSpOC.s 			page 54


 3009 1094 35       		.uleb128 0x35
 3010 1095 720C0000 		.4byte	0xc72
 3011 1099 74000000 		.4byte	.LBB88
 3012 109d 0E000000 		.4byte	.LBE88-.LBB88
 3013 10a1 03       		.byte	0x3
 3014 10a2 63       		.byte	0x63
 3015 10a3 D0100000 		.4byte	0x10d0
 3016 10a7 34       		.uleb128 0x34
 3017 10a8 7E0C0000 		.4byte	0xc7e
 3018 10ac 0F       		.byte	0xf
 3019 10ad 28       		.uleb128 0x28
 3020 10ae 7C000000 		.4byte	.LVL40
 3021 10b2 320E0000 		.4byte	0xe32
 3022 10b6 C0100000 		.4byte	0x10c0
 3023 10ba 29       		.uleb128 0x29
 3024 10bb 01       		.uleb128 0x1
 3025 10bc 50       		.byte	0x50
 3026 10bd 01       		.uleb128 0x1
 3027 10be 3F       		.byte	0x3f
 3028 10bf 00       		.byte	0
 3029 10c0 2A       		.uleb128 0x2a
 3030 10c1 82000000 		.4byte	.LVL41
 3031 10c5 8D140000 		.4byte	0x148d
 3032 10c9 29       		.uleb128 0x29
 3033 10ca 01       		.uleb128 0x1
 3034 10cb 50       		.byte	0x50
 3035 10cc 01       		.uleb128 0x1
 3036 10cd 31       		.byte	0x31
 3037 10ce 00       		.byte	0
 3038 10cf 00       		.byte	0
 3039 10d0 28       		.uleb128 0x28
 3040 10d1 0E000000 		.4byte	.LVL24
 3041 10d5 8D140000 		.4byte	0x148d
 3042 10d9 E5100000 		.4byte	0x10e5
 3043 10dd 29       		.uleb128 0x29
 3044 10de 01       		.uleb128 0x1
 3045 10df 50       		.byte	0x50
 3046 10e0 03       		.uleb128 0x3
 3047 10e1 0A       		.byte	0xa
 3048 10e2 E803     		.2byte	0x3e8
 3049 10e4 00       		.byte	0
 3050 10e5 28       		.uleb128 0x28
 3051 10e6 22000000 		.4byte	.LVL27
 3052 10ea 8D140000 		.4byte	0x148d
 3053 10ee F9100000 		.4byte	0x10f9
 3054 10f2 29       		.uleb128 0x29
 3055 10f3 01       		.uleb128 0x1
 3056 10f4 50       		.byte	0x50
 3057 10f5 02       		.uleb128 0x2
 3058 10f6 08       		.byte	0x8
 3059 10f7 32       		.byte	0x32
 3060 10f8 00       		.byte	0
 3061 10f9 28       		.uleb128 0x28
 3062 10fa 36000000 		.4byte	.LVL30
 3063 10fe 8D140000 		.4byte	0x148d
 3064 1102 0D110000 		.4byte	0x110d
 3065 1106 29       		.uleb128 0x29
ARM GAS  /tmp/ccNKSpOC.s 			page 55


 3066 1107 01       		.uleb128 0x1
 3067 1108 50       		.byte	0x50
 3068 1109 02       		.uleb128 0x2
 3069 110a 08       		.byte	0x8
 3070 110b 32       		.byte	0x32
 3071 110c 00       		.byte	0
 3072 110d 28       		.uleb128 0x28
 3073 110e 66000000 		.4byte	.LVL37
 3074 1112 8D140000 		.4byte	0x148d
 3075 1116 20110000 		.4byte	0x1120
 3076 111a 29       		.uleb128 0x29
 3077 111b 01       		.uleb128 0x1
 3078 111c 50       		.byte	0x50
 3079 111d 01       		.uleb128 0x1
 3080 111e 4E       		.byte	0x4e
 3081 111f 00       		.byte	0
 3082 1120 2E       		.uleb128 0x2e
 3083 1121 8C000000 		.4byte	.LVL42
 3084 1125 8D140000 		.4byte	0x148d
 3085 1129 29       		.uleb128 0x29
 3086 112a 01       		.uleb128 0x1
 3087 112b 50       		.byte	0x50
 3088 112c 02       		.uleb128 0x2
 3089 112d 08       		.byte	0x8
 3090 112e 32       		.byte	0x32
 3091 112f 00       		.byte	0
 3092 1130 00       		.byte	0
 3093 1131 2F       		.uleb128 0x2f
 3094 1132 9D030000 		.4byte	.LASF194
 3095 1136 03       		.byte	0x3
 3096 1137 68       		.byte	0x68
 3097 1138 00000000 		.4byte	.LFB267
 3098 113c 2C000000 		.4byte	.LFE267-.LFB267
 3099 1140 01       		.uleb128 0x1
 3100 1141 9C       		.byte	0x9c
 3101 1142 87110000 		.4byte	0x1187
 3102 1146 36       		.uleb128 0x36
 3103 1147 7E030000 		.4byte	.LASF195
 3104 114b 03       		.byte	0x3
 3105 114c 68       		.byte	0x68
 3106 114d 2D080000 		.4byte	0x82d
 3107 1151 F3000000 		.4byte	.LLST7
 3108 1155 37       		.uleb128 0x37
 3109 1156 880C0000 		.4byte	0xc88
 3110 115a 08000000 		.4byte	.LBB90
 3111 115e 14000000 		.4byte	.LBE90-.LBB90
 3112 1162 03       		.byte	0x3
 3113 1163 6C       		.byte	0x6c
 3114 1164 2D       		.uleb128 0x2d
 3115 1165 940C0000 		.4byte	0xc94
 3116 1169 1E010000 		.4byte	.LLST8
 3117 116d 32       		.uleb128 0x32
 3118 116e 14000000 		.4byte	.LVL46
 3119 1172 320E0000 		.4byte	0xe32
 3120 1176 2A       		.uleb128 0x2a
 3121 1177 1A000000 		.4byte	.LVL47
 3122 117b 8D140000 		.4byte	0x148d
ARM GAS  /tmp/ccNKSpOC.s 			page 56


 3123 117f 29       		.uleb128 0x29
 3124 1180 01       		.uleb128 0x1
 3125 1181 50       		.byte	0x50
 3126 1182 01       		.uleb128 0x1
 3127 1183 31       		.byte	0x31
 3128 1184 00       		.byte	0
 3129 1185 00       		.byte	0
 3130 1186 00       		.byte	0
 3131 1187 38       		.uleb128 0x38
 3132 1188 28020000 		.4byte	.LASF214
 3133 118c 01       		.byte	0x1
 3134 118d 4C       		.byte	0x4c
 3135 118e 25000000 		.4byte	0x25
 3136 1192 00000000 		.4byte	.LFB269
 3137 1196 04010000 		.4byte	.LFE269-.LFB269
 3138 119a 01       		.uleb128 0x1
 3139 119b 9C       		.byte	0x9c
 3140 119c 17140000 		.4byte	0x1417
 3141 11a0 39       		.uleb128 0x39
 3142 11a1 19060000 		.4byte	.LASF196
 3143 11a5 01       		.byte	0x1
 3144 11a6 6F       		.byte	0x6f
 3145 11a7 EF090000 		.4byte	0x9ef
 3146 11ab 01       		.uleb128 0x1
 3147 11ac 58       		.byte	0x58
 3148 11ad 26       		.uleb128 0x26
 3149 11ae 9E0C0000 		.4byte	0xc9e
 3150 11b2 0A000000 		.4byte	.LBB92
 3151 11b6 70000000 		.4byte	.Ldebug_ranges0+0x70
 3152 11ba 01       		.byte	0x1
 3153 11bb 57       		.byte	0x57
 3154 11bc 0E120000 		.4byte	0x120e
 3155 11c0 3A       		.uleb128 0x3a
 3156 11c1 390C0000 		.4byte	0xc39
 3157 11c5 0A000000 		.4byte	.LBB93
 3158 11c9 70000000 		.4byte	.Ldebug_ranges0+0x70
 3159 11cd 16       		.byte	0x16
 3160 11ce B401     		.2byte	0x1b4
 3161 11d0 3A       		.uleb128 0x3a
 3162 11d1 300C0000 		.4byte	0xc30
 3163 11d5 0A000000 		.4byte	.LBB94
 3164 11d9 70000000 		.4byte	.Ldebug_ranges0+0x70
 3165 11dd 15       		.byte	0x15
 3166 11de 5201     		.2byte	0x152
 3167 11e0 3B       		.uleb128 0x3b
 3168 11e1 160C0000 		.4byte	0xc16
 3169 11e5 0A000000 		.4byte	.LBB95
 3170 11e9 88000000 		.4byte	.Ldebug_ranges0+0x88
 3171 11ed 0D       		.byte	0xd
 3172 11ee 0902     		.2byte	0x209
 3173 11f0 FB110000 		.4byte	0x11fb
 3174 11f4 34       		.uleb128 0x34
 3175 11f5 230C0000 		.4byte	0xc23
 3176 11f9 00       		.byte	0
 3177 11fa 00       		.byte	0
 3178 11fb 3C       		.uleb128 0x3c
 3179 11fc 0D0C0000 		.4byte	0xc0d
ARM GAS  /tmp/ccNKSpOC.s 			page 57


 3180 1200 14000000 		.4byte	.LBB99
 3181 1204 02000000 		.4byte	.LBE99-.LBB99
 3182 1208 0D       		.byte	0xd
 3183 1209 0B02     		.2byte	0x20b
 3184 120b 00       		.byte	0
 3185 120c 00       		.byte	0
 3186 120d 00       		.byte	0
 3187 120e 3D       		.uleb128 0x3d
 3188 120f A0000000 		.4byte	.Ldebug_ranges0+0xa0
 3189 1213 5D120000 		.4byte	0x125d
 3190 1217 30       		.uleb128 0x30
 3191 1218 6900     		.ascii	"i\000"
 3192 121a 01       		.byte	0x1
 3193 121b 83       		.byte	0x83
 3194 121c B4000000 		.4byte	0xb4
 3195 1220 31010000 		.4byte	.LLST9
 3196 1224 3E       		.uleb128 0x3e
 3197 1225 720C0000 		.4byte	0xc72
 3198 1229 1E000000 		.4byte	.LBB105
 3199 122d C0000000 		.4byte	.Ldebug_ranges0+0xc0
 3200 1231 01       		.byte	0x1
 3201 1232 84       		.byte	0x84
 3202 1233 34       		.uleb128 0x34
 3203 1234 7E0C0000 		.4byte	0xc7e
 3204 1238 14       		.byte	0x14
 3205 1239 28       		.uleb128 0x28
 3206 123a 92000000 		.4byte	.LVL63
 3207 123e 320E0000 		.4byte	0xe32
 3208 1242 4C120000 		.4byte	0x124c
 3209 1246 29       		.uleb128 0x29
 3210 1247 01       		.uleb128 0x1
 3211 1248 50       		.byte	0x50
 3212 1249 01       		.uleb128 0x1
 3213 124a 44       		.byte	0x44
 3214 124b 00       		.byte	0
 3215 124c 2A       		.uleb128 0x2a
 3216 124d 98000000 		.4byte	.LVL64
 3217 1251 8D140000 		.4byte	0x148d
 3218 1255 29       		.uleb128 0x29
 3219 1256 01       		.uleb128 0x1
 3220 1257 50       		.byte	0x50
 3221 1258 01       		.uleb128 0x1
 3222 1259 31       		.byte	0x31
 3223 125a 00       		.byte	0
 3224 125b 00       		.byte	0
 3225 125c 00       		.byte	0
 3226 125d 35       		.uleb128 0x35
 3227 125e 880C0000 		.4byte	0xc88
 3228 1262 A4000000 		.4byte	.LBB115
 3229 1266 16000000 		.4byte	.LBE115-.LBB115
 3230 126a 01       		.byte	0x1
 3231 126b 87       		.byte	0x87
 3232 126c 9B120000 		.4byte	0x129b
 3233 1270 27       		.uleb128 0x27
 3234 1271 940C0000 		.4byte	0xc94
 3235 1275 01       		.uleb128 0x1
 3236 1276 58       		.byte	0x58
ARM GAS  /tmp/ccNKSpOC.s 			page 58


 3237 1277 28       		.uleb128 0x28
 3238 1278 B0000000 		.4byte	.LVL67
 3239 127c 320E0000 		.4byte	0xe32
 3240 1280 8B120000 		.4byte	0x128b
 3241 1284 29       		.uleb128 0x29
 3242 1285 01       		.uleb128 0x1
 3243 1286 50       		.byte	0x50
 3244 1287 02       		.uleb128 0x2
 3245 1288 78       		.byte	0x78
 3246 1289 00       		.sleb128 0
 3247 128a 00       		.byte	0
 3248 128b 2A       		.uleb128 0x2a
 3249 128c B6000000 		.4byte	.LVL68
 3250 1290 8D140000 		.4byte	0x148d
 3251 1294 29       		.uleb128 0x29
 3252 1295 01       		.uleb128 0x1
 3253 1296 50       		.byte	0x50
 3254 1297 01       		.uleb128 0x1
 3255 1298 31       		.byte	0x31
 3256 1299 00       		.byte	0
 3257 129a 00       		.byte	0
 3258 129b 35       		.uleb128 0x35
 3259 129c 720C0000 		.4byte	0xc72
 3260 12a0 C2000000 		.4byte	.LBB117
 3261 12a4 10000000 		.4byte	.LBE117-.LBB117
 3262 12a8 01       		.byte	0x1
 3263 12a9 8A       		.byte	0x8a
 3264 12aa D7120000 		.4byte	0x12d7
 3265 12ae 34       		.uleb128 0x34
 3266 12af 7E0C0000 		.4byte	0xc7e
 3267 12b3 01       		.byte	0x1
 3268 12b4 28       		.uleb128 0x28
 3269 12b5 CC000000 		.4byte	.LVL70
 3270 12b9 320E0000 		.4byte	0xe32
 3271 12bd C7120000 		.4byte	0x12c7
 3272 12c1 29       		.uleb128 0x29
 3273 12c2 01       		.uleb128 0x1
 3274 12c3 50       		.byte	0x50
 3275 12c4 01       		.uleb128 0x1
 3276 12c5 31       		.byte	0x31
 3277 12c6 00       		.byte	0
 3278 12c7 2A       		.uleb128 0x2a
 3279 12c8 D2000000 		.4byte	.LVL71
 3280 12cc 8D140000 		.4byte	0x148d
 3281 12d0 29       		.uleb128 0x29
 3282 12d1 01       		.uleb128 0x1
 3283 12d2 50       		.byte	0x50
 3284 12d3 01       		.uleb128 0x1
 3285 12d4 31       		.byte	0x31
 3286 12d5 00       		.byte	0
 3287 12d6 00       		.byte	0
 3288 12d7 35       		.uleb128 0x35
 3289 12d8 720C0000 		.4byte	0xc72
 3290 12dc D2000000 		.4byte	.LBB119
 3291 12e0 32000000 		.4byte	.LBE119-.LBB119
 3292 12e4 01       		.byte	0x1
 3293 12e5 8B       		.byte	0x8b
ARM GAS  /tmp/ccNKSpOC.s 			page 59


 3294 12e6 13130000 		.4byte	0x1313
 3295 12ea 34       		.uleb128 0x34
 3296 12eb 7E0C0000 		.4byte	0xc7e
 3297 12ef 02       		.byte	0x2
 3298 12f0 28       		.uleb128 0x28
 3299 12f1 DC000000 		.4byte	.LVL72
 3300 12f5 320E0000 		.4byte	0xe32
 3301 12f9 03130000 		.4byte	0x1303
 3302 12fd 29       		.uleb128 0x29
 3303 12fe 01       		.uleb128 0x1
 3304 12ff 50       		.byte	0x50
 3305 1300 01       		.uleb128 0x1
 3306 1301 32       		.byte	0x32
 3307 1302 00       		.byte	0
 3308 1303 2A       		.uleb128 0x2a
 3309 1304 E2000000 		.4byte	.LVL73
 3310 1308 8D140000 		.4byte	0x148d
 3311 130c 29       		.uleb128 0x29
 3312 130d 01       		.uleb128 0x1
 3313 130e 50       		.byte	0x50
 3314 130f 01       		.uleb128 0x1
 3315 1310 31       		.byte	0x31
 3316 1311 00       		.byte	0
 3317 1312 00       		.byte	0
 3318 1313 32       		.uleb128 0x32
 3319 1314 0A000000 		.4byte	.LVL50
 3320 1318 A4140000 		.4byte	0x14a4
 3321 131c 32       		.uleb128 0x32
 3322 131d 10000000 		.4byte	.LVL51
 3323 1321 AF140000 		.4byte	0x14af
 3324 1325 28       		.uleb128 0x28
 3325 1326 28000000 		.4byte	.LVL52
 3326 132a 98140000 		.4byte	0x1498
 3327 132e 48130000 		.4byte	0x1348
 3328 1332 29       		.uleb128 0x29
 3329 1333 01       		.uleb128 0x1
 3330 1334 50       		.byte	0x50
 3331 1335 05       		.uleb128 0x5
 3332 1336 0C       		.byte	0xc
 3333 1337 00080240 		.4byte	0x40020800
 3334 133b 29       		.uleb128 0x29
 3335 133c 01       		.uleb128 0x1
 3336 133d 51       		.byte	0x51
 3337 133e 03       		.uleb128 0x3
 3338 133f 0A       		.byte	0xa
 3339 1340 0020     		.2byte	0x2000
 3340 1342 29       		.uleb128 0x29
 3341 1343 01       		.uleb128 0x1
 3342 1344 52       		.byte	0x52
 3343 1345 01       		.uleb128 0x1
 3344 1346 31       		.byte	0x31
 3345 1347 00       		.byte	0
 3346 1348 32       		.uleb128 0x32
 3347 1349 2C000000 		.4byte	.LVL53
 3348 134d 120D0000 		.4byte	0xd12
 3349 1351 32       		.uleb128 0x32
 3350 1352 30000000 		.4byte	.LVL54
ARM GAS  /tmp/ccNKSpOC.s 			page 60


 3351 1356 140F0000 		.4byte	0xf14
 3352 135a 28       		.uleb128 0x28
 3353 135b 38000000 		.4byte	.LVL55
 3354 135f BB140000 		.4byte	0x14bb
 3355 1363 6E130000 		.4byte	0x136e
 3356 1367 29       		.uleb128 0x29
 3357 1368 01       		.uleb128 0x1
 3358 1369 51       		.byte	0x51
 3359 136a 02       		.uleb128 0x2
 3360 136b 74       		.byte	0x74
 3361 136c 00       		.sleb128 0
 3362 136d 00       		.byte	0
 3363 136e 32       		.uleb128 0x32
 3364 136f 3C000000 		.4byte	.LVL56
 3365 1373 C6140000 		.4byte	0x14c6
 3366 1377 28       		.uleb128 0x28
 3367 1378 46000000 		.4byte	.LVL57
 3368 137c 98140000 		.4byte	0x1498
 3369 1380 98130000 		.4byte	0x1398
 3370 1384 29       		.uleb128 0x29
 3371 1385 01       		.uleb128 0x1
 3372 1386 50       		.byte	0x50
 3373 1387 05       		.uleb128 0x5
 3374 1388 0C       		.byte	0xc
 3375 1389 00080240 		.4byte	0x40020800
 3376 138d 29       		.uleb128 0x29
 3377 138e 01       		.uleb128 0x1
 3378 138f 51       		.byte	0x51
 3379 1390 01       		.uleb128 0x1
 3380 1391 31       		.byte	0x31
 3381 1392 29       		.uleb128 0x29
 3382 1393 01       		.uleb128 0x1
 3383 1394 52       		.byte	0x52
 3384 1395 01       		.uleb128 0x1
 3385 1396 33       		.byte	0x33
 3386 1397 00       		.byte	0
 3387 1398 28       		.uleb128 0x28
 3388 1399 56000000 		.4byte	.LVL58
 3389 139d D2140000 		.4byte	0x14d2
 3390 13a1 CC130000 		.4byte	0x13cc
 3391 13a5 29       		.uleb128 0x29
 3392 13a6 01       		.uleb128 0x1
 3393 13a7 50       		.byte	0x50
 3394 13a8 05       		.uleb128 0x5
 3395 13a9 03       		.byte	0x3
 3396 13aa 00000000 		.4byte	.LANCHOR0
 3397 13ae 29       		.uleb128 0x29
 3398 13af 01       		.uleb128 0x1
 3399 13b0 51       		.byte	0x51
 3400 13b1 03       		.uleb128 0x3
 3401 13b2 0A       		.byte	0xa
 3402 13b3 D001     		.2byte	0x1d0
 3403 13b5 29       		.uleb128 0x29
 3404 13b6 01       		.uleb128 0x1
 3405 13b7 52       		.byte	0x52
 3406 13b8 02       		.uleb128 0x2
 3407 13b9 08       		.byte	0x8
ARM GAS  /tmp/ccNKSpOC.s 			page 61


 3408 13ba 40       		.byte	0x40
 3409 13bb 29       		.uleb128 0x29
 3410 13bc 01       		.uleb128 0x1
 3411 13bd 53       		.byte	0x53
 3412 13be 05       		.uleb128 0x5
 3413 13bf 03       		.byte	0x3
 3414 13c0 00000000 		.4byte	Thread1
 3415 13c4 29       		.uleb128 0x29
 3416 13c5 02       		.uleb128 0x2
 3417 13c6 7D       		.byte	0x7d
 3418 13c7 00       		.sleb128 0
 3419 13c8 02       		.uleb128 0x2
 3420 13c9 74       		.byte	0x74
 3421 13ca 00       		.sleb128 0
 3422 13cb 00       		.byte	0
 3423 13cc 28       		.uleb128 0x28
 3424 13cd 64000000 		.4byte	.LVL59
 3425 13d1 DD140000 		.4byte	0x14dd
 3426 13d5 EE130000 		.4byte	0x13ee
 3427 13d9 29       		.uleb128 0x29
 3428 13da 01       		.uleb128 0x1
 3429 13db 51       		.byte	0x51
 3430 13dc 05       		.uleb128 0x5
 3431 13dd 03       		.byte	0x3
 3432 13de 00000000 		.4byte	.LANCHOR2
 3433 13e2 29       		.uleb128 0x29
 3434 13e3 01       		.uleb128 0x1
 3435 13e4 52       		.byte	0x52
 3436 13e5 02       		.uleb128 0x2
 3437 13e6 7A       		.byte	0x7a
 3438 13e7 00       		.sleb128 0
 3439 13e8 29       		.uleb128 0x29
 3440 13e9 01       		.uleb128 0x1
 3441 13ea 53       		.byte	0x53
 3442 13eb 01       		.uleb128 0x1
 3443 13ec 34       		.byte	0x34
 3444 13ed 00       		.byte	0
 3445 13ee 28       		.uleb128 0x28
 3446 13ef 80000000 		.4byte	.LVL60
 3447 13f3 31110000 		.4byte	0x1131
 3448 13f7 05140000 		.4byte	0x1405
 3449 13fb 29       		.uleb128 0x29
 3450 13fc 01       		.uleb128 0x1
 3451 13fd 50       		.byte	0x50
 3452 13fe 05       		.uleb128 0x5
 3453 13ff 03       		.byte	0x3
 3454 1400 08000000 		.4byte	.LC1
 3455 1404 00       		.byte	0
 3456 1405 2A       		.uleb128 0x2a
 3457 1406 C2000000 		.4byte	.LVL69
 3458 140a 8D140000 		.4byte	0x148d
 3459 140e 29       		.uleb128 0x29
 3460 140f 01       		.uleb128 0x1
 3461 1410 50       		.byte	0x50
 3462 1411 03       		.uleb128 0x3
 3463 1412 0A       		.byte	0xa
 3464 1413 1027     		.2byte	0x2710
ARM GAS  /tmp/ccNKSpOC.s 			page 62


 3465 1415 00       		.byte	0
 3466 1416 00       		.byte	0
 3467 1417 15       		.uleb128 0x15
 3468 1418 EF090000 		.4byte	0x9ef
 3469 141c 27140000 		.4byte	0x1427
 3470 1420 16       		.uleb128 0x16
 3471 1421 6E040000 		.4byte	0x46e
 3472 1425 03       		.byte	0x3
 3473 1426 00       		.byte	0
 3474 1427 39       		.uleb128 0x39
 3475 1428 27030000 		.4byte	.LASF197
 3476 142c 01       		.byte	0x1
 3477 142d 21       		.byte	0x21
 3478 142e 17140000 		.4byte	0x1417
 3479 1432 05       		.uleb128 0x5
 3480 1433 03       		.byte	0x3
 3481 1434 00000000 		.4byte	samples1
 3482 1438 39       		.uleb128 0x39
 3483 1439 3D040000 		.4byte	.LASF198
 3484 143d 01       		.byte	0x1
 3485 143e 28       		.byte	0x28
 3486 143f F70B0000 		.4byte	0xbf7
 3487 1443 05       		.uleb128 0x5
 3488 1444 03       		.byte	0x3
 3489 1445 00000000 		.4byte	adcgrpcfg1
 3490 1449 15       		.uleb128 0x15
 3491 144a DD050000 		.4byte	0x5dd
 3492 144e 59140000 		.4byte	0x1459
 3493 1452 16       		.uleb128 0x16
 3494 1453 6E040000 		.4byte	0x46e
 3495 1457 39       		.byte	0x39
 3496 1458 00       		.byte	0
 3497 1459 39       		.uleb128 0x39
 3498 145a 0D090000 		.4byte	.LASF199
 3499 145e 01       		.byte	0x1
 3500 145f 3B       		.byte	0x3b
 3501 1460 49140000 		.4byte	0x1449
 3502 1464 05       		.uleb128 0x5
 3503 1465 03       		.byte	0x3
 3504 1466 00000000 		.4byte	waThread1
 3505 146a 3F       		.uleb128 0x3f
 3506 146b AC050000 		.4byte	.LASF200
 3507 146f 17       		.byte	0x17
 3508 1470 A706     		.2byte	0x6a7
 3509 1472 EB000000 		.4byte	0xeb
 3510 1476 40       		.uleb128 0x40
 3511 1477 636800   		.ascii	"ch\000"
 3512 147a 0A       		.byte	0xa
 3513 147b 0902     		.2byte	0x209
 3514 147d 07040000 		.4byte	0x407
 3515 1481 3F       		.uleb128 0x3f
 3516 1482 21060000 		.4byte	.LASF201
 3517 1486 14       		.byte	0x14
 3518 1487 1402     		.2byte	0x214
 3519 1489 2D0A0000 		.4byte	0xa2d
 3520 148d 41       		.uleb128 0x41
 3521 148e B6030000 		.4byte	.LASF202
ARM GAS  /tmp/ccNKSpOC.s 			page 63


 3522 1492 B6030000 		.4byte	.LASF202
 3523 1496 18       		.byte	0x18
 3524 1497 96       		.byte	0x96
 3525 1498 42       		.uleb128 0x42
 3526 1499 DD000000 		.4byte	.LASF203
 3527 149d DD000000 		.4byte	.LASF203
 3528 14a1 12       		.byte	0x12
 3529 14a2 E001     		.2byte	0x1e0
 3530 14a4 41       		.uleb128 0x41
 3531 14a5 D4040000 		.4byte	.LASF204
 3532 14a9 D4040000 		.4byte	.LASF204
 3533 14ad 19       		.byte	0x19
 3534 14ae 99       		.byte	0x99
 3535 14af 42       		.uleb128 0x42
 3536 14b0 58080000 		.4byte	.LASF205
 3537 14b4 58080000 		.4byte	.LASF205
 3538 14b8 15       		.byte	0x15
 3539 14b9 1501     		.2byte	0x115
 3540 14bb 41       		.uleb128 0x41
 3541 14bc B3080000 		.4byte	.LASF206
 3542 14c0 B3080000 		.4byte	.LASF206
 3543 14c4 13       		.byte	0x13
 3544 14c5 F8       		.byte	0xf8
 3545 14c6 42       		.uleb128 0x42
 3546 14c7 55020000 		.4byte	.LASF207
 3547 14cb 55020000 		.4byte	.LASF207
 3548 14cf 14       		.byte	0x14
 3549 14d0 2702     		.2byte	0x227
 3550 14d2 41       		.uleb128 0x41
 3551 14d3 6C050000 		.4byte	.LASF208
 3552 14d7 6C050000 		.4byte	.LASF208
 3553 14db 18       		.byte	0x18
 3554 14dc 89       		.byte	0x89
 3555 14dd 42       		.uleb128 0x42
 3556 14de 34080000 		.4byte	.LASF209
 3557 14e2 34080000 		.4byte	.LASF209
 3558 14e6 13       		.byte	0x13
 3559 14e7 0501     		.2byte	0x105
 3560 14e9 00       		.byte	0
 3561              		.section	.debug_abbrev,"",%progbits
 3562              	.Ldebug_abbrev0:
 3563 0000 01       		.uleb128 0x1
 3564 0001 11       		.uleb128 0x11
 3565 0002 01       		.byte	0x1
 3566 0003 25       		.uleb128 0x25
 3567 0004 0E       		.uleb128 0xe
 3568 0005 13       		.uleb128 0x13
 3569 0006 0B       		.uleb128 0xb
 3570 0007 03       		.uleb128 0x3
 3571 0008 0E       		.uleb128 0xe
 3572 0009 1B       		.uleb128 0x1b
 3573 000a 0E       		.uleb128 0xe
 3574 000b 55       		.uleb128 0x55
 3575 000c 17       		.uleb128 0x17
 3576 000d 11       		.uleb128 0x11
 3577 000e 01       		.uleb128 0x1
 3578 000f 10       		.uleb128 0x10
ARM GAS  /tmp/ccNKSpOC.s 			page 64


 3579 0010 17       		.uleb128 0x17
 3580 0011 00       		.byte	0
 3581 0012 00       		.byte	0
 3582 0013 02       		.uleb128 0x2
 3583 0014 24       		.uleb128 0x24
 3584 0015 00       		.byte	0
 3585 0016 0B       		.uleb128 0xb
 3586 0017 0B       		.uleb128 0xb
 3587 0018 3E       		.uleb128 0x3e
 3588 0019 0B       		.uleb128 0xb
 3589 001a 03       		.uleb128 0x3
 3590 001b 08       		.uleb128 0x8
 3591 001c 00       		.byte	0
 3592 001d 00       		.byte	0
 3593 001e 03       		.uleb128 0x3
 3594 001f 16       		.uleb128 0x16
 3595 0020 00       		.byte	0
 3596 0021 03       		.uleb128 0x3
 3597 0022 0E       		.uleb128 0xe
 3598 0023 3A       		.uleb128 0x3a
 3599 0024 0B       		.uleb128 0xb
 3600 0025 3B       		.uleb128 0x3b
 3601 0026 0B       		.uleb128 0xb
 3602 0027 49       		.uleb128 0x49
 3603 0028 13       		.uleb128 0x13
 3604 0029 00       		.byte	0
 3605 002a 00       		.byte	0
 3606 002b 04       		.uleb128 0x4
 3607 002c 24       		.uleb128 0x24
 3608 002d 00       		.byte	0
 3609 002e 0B       		.uleb128 0xb
 3610 002f 0B       		.uleb128 0xb
 3611 0030 3E       		.uleb128 0x3e
 3612 0031 0B       		.uleb128 0xb
 3613 0032 03       		.uleb128 0x3
 3614 0033 0E       		.uleb128 0xe
 3615 0034 00       		.byte	0
 3616 0035 00       		.byte	0
 3617 0036 05       		.uleb128 0x5
 3618 0037 35       		.uleb128 0x35
 3619 0038 00       		.byte	0
 3620 0039 49       		.uleb128 0x49
 3621 003a 13       		.uleb128 0x13
 3622 003b 00       		.byte	0
 3623 003c 00       		.byte	0
 3624 003d 06       		.uleb128 0x6
 3625 003e 13       		.uleb128 0x13
 3626 003f 01       		.byte	0x1
 3627 0040 03       		.uleb128 0x3
 3628 0041 0E       		.uleb128 0xe
 3629 0042 0B       		.uleb128 0xb
 3630 0043 0B       		.uleb128 0xb
 3631 0044 3A       		.uleb128 0x3a
 3632 0045 0B       		.uleb128 0xb
 3633 0046 3B       		.uleb128 0x3b
 3634 0047 0B       		.uleb128 0xb
 3635 0048 01       		.uleb128 0x1
ARM GAS  /tmp/ccNKSpOC.s 			page 65


 3636 0049 13       		.uleb128 0x13
 3637 004a 00       		.byte	0
 3638 004b 00       		.byte	0
 3639 004c 07       		.uleb128 0x7
 3640 004d 0D       		.uleb128 0xd
 3641 004e 00       		.byte	0
 3642 004f 03       		.uleb128 0x3
 3643 0050 0E       		.uleb128 0xe
 3644 0051 3A       		.uleb128 0x3a
 3645 0052 0B       		.uleb128 0xb
 3646 0053 3B       		.uleb128 0x3b
 3647 0054 0B       		.uleb128 0xb
 3648 0055 49       		.uleb128 0x49
 3649 0056 13       		.uleb128 0x13
 3650 0057 38       		.uleb128 0x38
 3651 0058 0B       		.uleb128 0xb
 3652 0059 00       		.byte	0
 3653 005a 00       		.byte	0
 3654 005b 08       		.uleb128 0x8
 3655 005c 0D       		.uleb128 0xd
 3656 005d 00       		.byte	0
 3657 005e 03       		.uleb128 0x3
 3658 005f 08       		.uleb128 0x8
 3659 0060 3A       		.uleb128 0x3a
 3660 0061 0B       		.uleb128 0xb
 3661 0062 3B       		.uleb128 0x3b
 3662 0063 05       		.uleb128 0x5
 3663 0064 49       		.uleb128 0x49
 3664 0065 13       		.uleb128 0x13
 3665 0066 38       		.uleb128 0x38
 3666 0067 0B       		.uleb128 0xb
 3667 0068 00       		.byte	0
 3668 0069 00       		.byte	0
 3669 006a 09       		.uleb128 0x9
 3670 006b 0D       		.uleb128 0xd
 3671 006c 00       		.byte	0
 3672 006d 03       		.uleb128 0x3
 3673 006e 0E       		.uleb128 0xe
 3674 006f 3A       		.uleb128 0x3a
 3675 0070 0B       		.uleb128 0xb
 3676 0071 3B       		.uleb128 0x3b
 3677 0072 05       		.uleb128 0x5
 3678 0073 49       		.uleb128 0x49
 3679 0074 13       		.uleb128 0x13
 3680 0075 38       		.uleb128 0x38
 3681 0076 0B       		.uleb128 0xb
 3682 0077 00       		.byte	0
 3683 0078 00       		.byte	0
 3684 0079 0A       		.uleb128 0xa
 3685 007a 0F       		.uleb128 0xf
 3686 007b 00       		.byte	0
 3687 007c 0B       		.uleb128 0xb
 3688 007d 0B       		.uleb128 0xb
 3689 007e 49       		.uleb128 0x49
 3690 007f 13       		.uleb128 0x13
 3691 0080 00       		.byte	0
 3692 0081 00       		.byte	0
ARM GAS  /tmp/ccNKSpOC.s 			page 66


 3693 0082 0B       		.uleb128 0xb
 3694 0083 13       		.uleb128 0x13
 3695 0084 01       		.byte	0x1
 3696 0085 03       		.uleb128 0x3
 3697 0086 0E       		.uleb128 0xe
 3698 0087 0B       		.uleb128 0xb
 3699 0088 0B       		.uleb128 0xb
 3700 0089 3A       		.uleb128 0x3a
 3701 008a 0B       		.uleb128 0xb
 3702 008b 3B       		.uleb128 0x3b
 3703 008c 05       		.uleb128 0x5
 3704 008d 01       		.uleb128 0x1
 3705 008e 13       		.uleb128 0x13
 3706 008f 00       		.byte	0
 3707 0090 00       		.byte	0
 3708 0091 0C       		.uleb128 0xc
 3709 0092 15       		.uleb128 0x15
 3710 0093 01       		.byte	0x1
 3711 0094 27       		.uleb128 0x27
 3712 0095 19       		.uleb128 0x19
 3713 0096 01       		.uleb128 0x1
 3714 0097 13       		.uleb128 0x13
 3715 0098 00       		.byte	0
 3716 0099 00       		.byte	0
 3717 009a 0D       		.uleb128 0xd
 3718 009b 05       		.uleb128 0x5
 3719 009c 00       		.byte	0
 3720 009d 49       		.uleb128 0x49
 3721 009e 13       		.uleb128 0x13
 3722 009f 00       		.byte	0
 3723 00a0 00       		.byte	0
 3724 00a1 0E       		.uleb128 0xe
 3725 00a2 0F       		.uleb128 0xf
 3726 00a3 00       		.byte	0
 3727 00a4 0B       		.uleb128 0xb
 3728 00a5 0B       		.uleb128 0xb
 3729 00a6 00       		.byte	0
 3730 00a7 00       		.byte	0
 3731 00a8 0F       		.uleb128 0xf
 3732 00a9 13       		.uleb128 0x13
 3733 00aa 01       		.byte	0x1
 3734 00ab 03       		.uleb128 0x3
 3735 00ac 0E       		.uleb128 0xe
 3736 00ad 0B       		.uleb128 0xb
 3737 00ae 05       		.uleb128 0x5
 3738 00af 3A       		.uleb128 0x3a
 3739 00b0 0B       		.uleb128 0xb
 3740 00b1 3B       		.uleb128 0x3b
 3741 00b2 05       		.uleb128 0x5
 3742 00b3 01       		.uleb128 0x1
 3743 00b4 13       		.uleb128 0x13
 3744 00b5 00       		.byte	0
 3745 00b6 00       		.byte	0
 3746 00b7 10       		.uleb128 0x10
 3747 00b8 13       		.uleb128 0x13
 3748 00b9 01       		.byte	0x1
 3749 00ba 0B       		.uleb128 0xb
ARM GAS  /tmp/ccNKSpOC.s 			page 67


 3750 00bb 0B       		.uleb128 0xb
 3751 00bc 3A       		.uleb128 0x3a
 3752 00bd 0B       		.uleb128 0xb
 3753 00be 3B       		.uleb128 0x3b
 3754 00bf 0B       		.uleb128 0xb
 3755 00c0 01       		.uleb128 0x1
 3756 00c1 13       		.uleb128 0x13
 3757 00c2 00       		.byte	0
 3758 00c3 00       		.byte	0
 3759 00c4 11       		.uleb128 0x11
 3760 00c5 0D       		.uleb128 0xd
 3761 00c6 00       		.byte	0
 3762 00c7 03       		.uleb128 0x3
 3763 00c8 08       		.uleb128 0x8
 3764 00c9 3A       		.uleb128 0x3a
 3765 00ca 0B       		.uleb128 0xb
 3766 00cb 3B       		.uleb128 0x3b
 3767 00cc 0B       		.uleb128 0xb
 3768 00cd 49       		.uleb128 0x49
 3769 00ce 13       		.uleb128 0x13
 3770 00cf 38       		.uleb128 0x38
 3771 00d0 0B       		.uleb128 0xb
 3772 00d1 00       		.byte	0
 3773 00d2 00       		.byte	0
 3774 00d3 12       		.uleb128 0x12
 3775 00d4 17       		.uleb128 0x17
 3776 00d5 01       		.byte	0x1
 3777 00d6 0B       		.uleb128 0xb
 3778 00d7 0B       		.uleb128 0xb
 3779 00d8 3A       		.uleb128 0x3a
 3780 00d9 0B       		.uleb128 0xb
 3781 00da 3B       		.uleb128 0x3b
 3782 00db 0B       		.uleb128 0xb
 3783 00dc 01       		.uleb128 0x1
 3784 00dd 13       		.uleb128 0x13
 3785 00de 00       		.byte	0
 3786 00df 00       		.byte	0
 3787 00e0 13       		.uleb128 0x13
 3788 00e1 0D       		.uleb128 0xd
 3789 00e2 00       		.byte	0
 3790 00e3 03       		.uleb128 0x3
 3791 00e4 0E       		.uleb128 0xe
 3792 00e5 3A       		.uleb128 0x3a
 3793 00e6 0B       		.uleb128 0xb
 3794 00e7 3B       		.uleb128 0x3b
 3795 00e8 05       		.uleb128 0x5
 3796 00e9 49       		.uleb128 0x49
 3797 00ea 13       		.uleb128 0x13
 3798 00eb 00       		.byte	0
 3799 00ec 00       		.byte	0
 3800 00ed 14       		.uleb128 0x14
 3801 00ee 26       		.uleb128 0x26
 3802 00ef 00       		.byte	0
 3803 00f0 49       		.uleb128 0x49
 3804 00f1 13       		.uleb128 0x13
 3805 00f2 00       		.byte	0
 3806 00f3 00       		.byte	0
ARM GAS  /tmp/ccNKSpOC.s 			page 68


 3807 00f4 15       		.uleb128 0x15
 3808 00f5 01       		.uleb128 0x1
 3809 00f6 01       		.byte	0x1
 3810 00f7 49       		.uleb128 0x49
 3811 00f8 13       		.uleb128 0x13
 3812 00f9 01       		.uleb128 0x1
 3813 00fa 13       		.uleb128 0x13
 3814 00fb 00       		.byte	0
 3815 00fc 00       		.byte	0
 3816 00fd 16       		.uleb128 0x16
 3817 00fe 21       		.uleb128 0x21
 3818 00ff 00       		.byte	0
 3819 0100 49       		.uleb128 0x49
 3820 0101 13       		.uleb128 0x13
 3821 0102 2F       		.uleb128 0x2f
 3822 0103 0B       		.uleb128 0xb
 3823 0104 00       		.byte	0
 3824 0105 00       		.byte	0
 3825 0106 17       		.uleb128 0x17
 3826 0107 0D       		.uleb128 0xd
 3827 0108 00       		.byte	0
 3828 0109 03       		.uleb128 0x3
 3829 010a 08       		.uleb128 0x8
 3830 010b 3A       		.uleb128 0x3a
 3831 010c 0B       		.uleb128 0xb
 3832 010d 3B       		.uleb128 0x3b
 3833 010e 0B       		.uleb128 0xb
 3834 010f 49       		.uleb128 0x49
 3835 0110 13       		.uleb128 0x13
 3836 0111 00       		.byte	0
 3837 0112 00       		.byte	0
 3838 0113 18       		.uleb128 0x18
 3839 0114 16       		.uleb128 0x16
 3840 0115 00       		.byte	0
 3841 0116 03       		.uleb128 0x3
 3842 0117 0E       		.uleb128 0xe
 3843 0118 3A       		.uleb128 0x3a
 3844 0119 0B       		.uleb128 0xb
 3845 011a 3B       		.uleb128 0x3b
 3846 011b 05       		.uleb128 0x5
 3847 011c 49       		.uleb128 0x49
 3848 011d 13       		.uleb128 0x13
 3849 011e 00       		.byte	0
 3850 011f 00       		.byte	0
 3851 0120 19       		.uleb128 0x19
 3852 0121 04       		.uleb128 0x4
 3853 0122 01       		.byte	0x1
 3854 0123 0B       		.uleb128 0xb
 3855 0124 0B       		.uleb128 0xb
 3856 0125 49       		.uleb128 0x49
 3857 0126 13       		.uleb128 0x13
 3858 0127 3A       		.uleb128 0x3a
 3859 0128 0B       		.uleb128 0xb
 3860 0129 3B       		.uleb128 0x3b
 3861 012a 0B       		.uleb128 0xb
 3862 012b 01       		.uleb128 0x1
 3863 012c 13       		.uleb128 0x13
ARM GAS  /tmp/ccNKSpOC.s 			page 69


 3864 012d 00       		.byte	0
 3865 012e 00       		.byte	0
 3866 012f 1A       		.uleb128 0x1a
 3867 0130 28       		.uleb128 0x28
 3868 0131 00       		.byte	0
 3869 0132 03       		.uleb128 0x3
 3870 0133 0E       		.uleb128 0xe
 3871 0134 1C       		.uleb128 0x1c
 3872 0135 0B       		.uleb128 0xb
 3873 0136 00       		.byte	0
 3874 0137 00       		.byte	0
 3875 0138 1B       		.uleb128 0x1b
 3876 0139 04       		.uleb128 0x4
 3877 013a 01       		.byte	0x1
 3878 013b 0B       		.uleb128 0xb
 3879 013c 0B       		.uleb128 0xb
 3880 013d 49       		.uleb128 0x49
 3881 013e 13       		.uleb128 0x13
 3882 013f 3A       		.uleb128 0x3a
 3883 0140 0B       		.uleb128 0xb
 3884 0141 3B       		.uleb128 0x3b
 3885 0142 05       		.uleb128 0x5
 3886 0143 01       		.uleb128 0x1
 3887 0144 13       		.uleb128 0x13
 3888 0145 00       		.byte	0
 3889 0146 00       		.byte	0
 3890 0147 1C       		.uleb128 0x1c
 3891 0148 13       		.uleb128 0x13
 3892 0149 01       		.byte	0x1
 3893 014a 0B       		.uleb128 0xb
 3894 014b 0B       		.uleb128 0xb
 3895 014c 3A       		.uleb128 0x3a
 3896 014d 0B       		.uleb128 0xb
 3897 014e 3B       		.uleb128 0x3b
 3898 014f 05       		.uleb128 0x5
 3899 0150 01       		.uleb128 0x1
 3900 0151 13       		.uleb128 0x13
 3901 0152 00       		.byte	0
 3902 0153 00       		.byte	0
 3903 0154 1D       		.uleb128 0x1d
 3904 0155 2E       		.uleb128 0x2e
 3905 0156 00       		.byte	0
 3906 0157 03       		.uleb128 0x3
 3907 0158 0E       		.uleb128 0xe
 3908 0159 3A       		.uleb128 0x3a
 3909 015a 0B       		.uleb128 0xb
 3910 015b 3B       		.uleb128 0x3b
 3911 015c 05       		.uleb128 0x5
 3912 015d 27       		.uleb128 0x27
 3913 015e 19       		.uleb128 0x19
 3914 015f 20       		.uleb128 0x20
 3915 0160 0B       		.uleb128 0xb
 3916 0161 00       		.byte	0
 3917 0162 00       		.byte	0
 3918 0163 1E       		.uleb128 0x1e
 3919 0164 2E       		.uleb128 0x2e
 3920 0165 01       		.byte	0x1
ARM GAS  /tmp/ccNKSpOC.s 			page 70


 3921 0166 03       		.uleb128 0x3
 3922 0167 0E       		.uleb128 0xe
 3923 0168 3A       		.uleb128 0x3a
 3924 0169 0B       		.uleb128 0xb
 3925 016a 3B       		.uleb128 0x3b
 3926 016b 05       		.uleb128 0x5
 3927 016c 27       		.uleb128 0x27
 3928 016d 19       		.uleb128 0x19
 3929 016e 20       		.uleb128 0x20
 3930 016f 0B       		.uleb128 0xb
 3931 0170 01       		.uleb128 0x1
 3932 0171 13       		.uleb128 0x13
 3933 0172 00       		.byte	0
 3934 0173 00       		.byte	0
 3935 0174 1F       		.uleb128 0x1f
 3936 0175 05       		.uleb128 0x5
 3937 0176 00       		.byte	0
 3938 0177 03       		.uleb128 0x3
 3939 0178 0E       		.uleb128 0xe
 3940 0179 3A       		.uleb128 0x3a
 3941 017a 0B       		.uleb128 0xb
 3942 017b 3B       		.uleb128 0x3b
 3943 017c 05       		.uleb128 0x5
 3944 017d 49       		.uleb128 0x49
 3945 017e 13       		.uleb128 0x13
 3946 017f 00       		.byte	0
 3947 0180 00       		.byte	0
 3948 0181 20       		.uleb128 0x20
 3949 0182 2E       		.uleb128 0x2e
 3950 0183 01       		.byte	0x1
 3951 0184 03       		.uleb128 0x3
 3952 0185 0E       		.uleb128 0xe
 3953 0186 3A       		.uleb128 0x3a
 3954 0187 0B       		.uleb128 0xb
 3955 0188 3B       		.uleb128 0x3b
 3956 0189 0B       		.uleb128 0xb
 3957 018a 27       		.uleb128 0x27
 3958 018b 19       		.uleb128 0x19
 3959 018c 20       		.uleb128 0x20
 3960 018d 0B       		.uleb128 0xb
 3961 018e 01       		.uleb128 0x1
 3962 018f 13       		.uleb128 0x13
 3963 0190 00       		.byte	0
 3964 0191 00       		.byte	0
 3965 0192 21       		.uleb128 0x21
 3966 0193 05       		.uleb128 0x5
 3967 0194 00       		.byte	0
 3968 0195 03       		.uleb128 0x3
 3969 0196 0E       		.uleb128 0xe
 3970 0197 3A       		.uleb128 0x3a
 3971 0198 0B       		.uleb128 0xb
 3972 0199 3B       		.uleb128 0x3b
 3973 019a 0B       		.uleb128 0xb
 3974 019b 49       		.uleb128 0x49
 3975 019c 13       		.uleb128 0x13
 3976 019d 00       		.byte	0
 3977 019e 00       		.byte	0
ARM GAS  /tmp/ccNKSpOC.s 			page 71


 3978 019f 22       		.uleb128 0x22
 3979 01a0 2E       		.uleb128 0x2e
 3980 01a1 01       		.byte	0x1
 3981 01a2 3F       		.uleb128 0x3f
 3982 01a3 19       		.uleb128 0x19
 3983 01a4 03       		.uleb128 0x3
 3984 01a5 0E       		.uleb128 0xe
 3985 01a6 3A       		.uleb128 0x3a
 3986 01a7 0B       		.uleb128 0xb
 3987 01a8 3B       		.uleb128 0x3b
 3988 01a9 0B       		.uleb128 0xb
 3989 01aa 27       		.uleb128 0x27
 3990 01ab 19       		.uleb128 0x19
 3991 01ac 20       		.uleb128 0x20
 3992 01ad 0B       		.uleb128 0xb
 3993 01ae 01       		.uleb128 0x1
 3994 01af 13       		.uleb128 0x13
 3995 01b0 00       		.byte	0
 3996 01b1 00       		.byte	0
 3997 01b2 23       		.uleb128 0x23
 3998 01b3 05       		.uleb128 0x5
 3999 01b4 00       		.byte	0
 4000 01b5 03       		.uleb128 0x3
 4001 01b6 08       		.uleb128 0x8
 4002 01b7 3A       		.uleb128 0x3a
 4003 01b8 0B       		.uleb128 0xb
 4004 01b9 3B       		.uleb128 0x3b
 4005 01ba 0B       		.uleb128 0xb
 4006 01bb 49       		.uleb128 0x49
 4007 01bc 13       		.uleb128 0x13
 4008 01bd 00       		.byte	0
 4009 01be 00       		.byte	0
 4010 01bf 24       		.uleb128 0x24
 4011 01c0 2E       		.uleb128 0x2e
 4012 01c1 01       		.byte	0x1
 4013 01c2 03       		.uleb128 0x3
 4014 01c3 0E       		.uleb128 0xe
 4015 01c4 3A       		.uleb128 0x3a
 4016 01c5 0B       		.uleb128 0xb
 4017 01c6 3B       		.uleb128 0x3b
 4018 01c7 0B       		.uleb128 0xb
 4019 01c8 27       		.uleb128 0x27
 4020 01c9 19       		.uleb128 0x19
 4021 01ca 8701     		.uleb128 0x87
 4022 01cc 19       		.uleb128 0x19
 4023 01cd 11       		.uleb128 0x11
 4024 01ce 01       		.uleb128 0x1
 4025 01cf 12       		.uleb128 0x12
 4026 01d0 06       		.uleb128 0x6
 4027 01d1 40       		.uleb128 0x40
 4028 01d2 18       		.uleb128 0x18
 4029 01d3 9742     		.uleb128 0x2117
 4030 01d5 19       		.uleb128 0x19
 4031 01d6 01       		.uleb128 0x1
 4032 01d7 13       		.uleb128 0x13
 4033 01d8 00       		.byte	0
 4034 01d9 00       		.byte	0
ARM GAS  /tmp/ccNKSpOC.s 			page 72


 4035 01da 25       		.uleb128 0x25
 4036 01db 05       		.uleb128 0x5
 4037 01dc 00       		.byte	0
 4038 01dd 03       		.uleb128 0x3
 4039 01de 08       		.uleb128 0x8
 4040 01df 3A       		.uleb128 0x3a
 4041 01e0 0B       		.uleb128 0xb
 4042 01e1 3B       		.uleb128 0x3b
 4043 01e2 0B       		.uleb128 0xb
 4044 01e3 49       		.uleb128 0x49
 4045 01e4 13       		.uleb128 0x13
 4046 01e5 02       		.uleb128 0x2
 4047 01e6 17       		.uleb128 0x17
 4048 01e7 00       		.byte	0
 4049 01e8 00       		.byte	0
 4050 01e9 26       		.uleb128 0x26
 4051 01ea 1D       		.uleb128 0x1d
 4052 01eb 01       		.byte	0x1
 4053 01ec 31       		.uleb128 0x31
 4054 01ed 13       		.uleb128 0x13
 4055 01ee 52       		.uleb128 0x52
 4056 01ef 01       		.uleb128 0x1
 4057 01f0 55       		.uleb128 0x55
 4058 01f1 17       		.uleb128 0x17
 4059 01f2 58       		.uleb128 0x58
 4060 01f3 0B       		.uleb128 0xb
 4061 01f4 59       		.uleb128 0x59
 4062 01f5 0B       		.uleb128 0xb
 4063 01f6 01       		.uleb128 0x1
 4064 01f7 13       		.uleb128 0x13
 4065 01f8 00       		.byte	0
 4066 01f9 00       		.byte	0
 4067 01fa 27       		.uleb128 0x27
 4068 01fb 05       		.uleb128 0x5
 4069 01fc 00       		.byte	0
 4070 01fd 31       		.uleb128 0x31
 4071 01fe 13       		.uleb128 0x13
 4072 01ff 02       		.uleb128 0x2
 4073 0200 18       		.uleb128 0x18
 4074 0201 00       		.byte	0
 4075 0202 00       		.byte	0
 4076 0203 28       		.uleb128 0x28
 4077 0204 898201   		.uleb128 0x4109
 4078 0207 01       		.byte	0x1
 4079 0208 11       		.uleb128 0x11
 4080 0209 01       		.uleb128 0x1
 4081 020a 31       		.uleb128 0x31
 4082 020b 13       		.uleb128 0x13
 4083 020c 01       		.uleb128 0x1
 4084 020d 13       		.uleb128 0x13
 4085 020e 00       		.byte	0
 4086 020f 00       		.byte	0
 4087 0210 29       		.uleb128 0x29
 4088 0211 8A8201   		.uleb128 0x410a
 4089 0214 00       		.byte	0
 4090 0215 02       		.uleb128 0x2
 4091 0216 18       		.uleb128 0x18
ARM GAS  /tmp/ccNKSpOC.s 			page 73


 4092 0217 9142     		.uleb128 0x2111
 4093 0219 18       		.uleb128 0x18
 4094 021a 00       		.byte	0
 4095 021b 00       		.byte	0
 4096 021c 2A       		.uleb128 0x2a
 4097 021d 898201   		.uleb128 0x4109
 4098 0220 01       		.byte	0x1
 4099 0221 11       		.uleb128 0x11
 4100 0222 01       		.uleb128 0x1
 4101 0223 31       		.uleb128 0x31
 4102 0224 13       		.uleb128 0x13
 4103 0225 00       		.byte	0
 4104 0226 00       		.byte	0
 4105 0227 2B       		.uleb128 0x2b
 4106 0228 2E       		.uleb128 0x2e
 4107 0229 01       		.byte	0x1
 4108 022a 3F       		.uleb128 0x3f
 4109 022b 19       		.uleb128 0x19
 4110 022c 03       		.uleb128 0x3
 4111 022d 0E       		.uleb128 0xe
 4112 022e 3A       		.uleb128 0x3a
 4113 022f 0B       		.uleb128 0xb
 4114 0230 3B       		.uleb128 0x3b
 4115 0231 0B       		.uleb128 0xb
 4116 0232 11       		.uleb128 0x11
 4117 0233 01       		.uleb128 0x1
 4118 0234 12       		.uleb128 0x12
 4119 0235 06       		.uleb128 0x6
 4120 0236 40       		.uleb128 0x40
 4121 0237 18       		.uleb128 0x18
 4122 0238 9742     		.uleb128 0x2117
 4123 023a 19       		.uleb128 0x19
 4124 023b 01       		.uleb128 0x1
 4125 023c 13       		.uleb128 0x13
 4126 023d 00       		.byte	0
 4127 023e 00       		.byte	0
 4128 023f 2C       		.uleb128 0x2c
 4129 0240 2E       		.uleb128 0x2e
 4130 0241 01       		.byte	0x1
 4131 0242 31       		.uleb128 0x31
 4132 0243 13       		.uleb128 0x13
 4133 0244 11       		.uleb128 0x11
 4134 0245 01       		.uleb128 0x1
 4135 0246 12       		.uleb128 0x12
 4136 0247 06       		.uleb128 0x6
 4137 0248 40       		.uleb128 0x40
 4138 0249 18       		.uleb128 0x18
 4139 024a 9742     		.uleb128 0x2117
 4140 024c 19       		.uleb128 0x19
 4141 024d 01       		.uleb128 0x1
 4142 024e 13       		.uleb128 0x13
 4143 024f 00       		.byte	0
 4144 0250 00       		.byte	0
 4145 0251 2D       		.uleb128 0x2d
 4146 0252 05       		.uleb128 0x5
 4147 0253 00       		.byte	0
 4148 0254 31       		.uleb128 0x31
ARM GAS  /tmp/ccNKSpOC.s 			page 74


 4149 0255 13       		.uleb128 0x13
 4150 0256 02       		.uleb128 0x2
 4151 0257 17       		.uleb128 0x17
 4152 0258 00       		.byte	0
 4153 0259 00       		.byte	0
 4154 025a 2E       		.uleb128 0x2e
 4155 025b 898201   		.uleb128 0x4109
 4156 025e 01       		.byte	0x1
 4157 025f 11       		.uleb128 0x11
 4158 0260 01       		.uleb128 0x1
 4159 0261 9542     		.uleb128 0x2115
 4160 0263 19       		.uleb128 0x19
 4161 0264 31       		.uleb128 0x31
 4162 0265 13       		.uleb128 0x13
 4163 0266 00       		.byte	0
 4164 0267 00       		.byte	0
 4165 0268 2F       		.uleb128 0x2f
 4166 0269 2E       		.uleb128 0x2e
 4167 026a 01       		.byte	0x1
 4168 026b 3F       		.uleb128 0x3f
 4169 026c 19       		.uleb128 0x19
 4170 026d 03       		.uleb128 0x3
 4171 026e 0E       		.uleb128 0xe
 4172 026f 3A       		.uleb128 0x3a
 4173 0270 0B       		.uleb128 0xb
 4174 0271 3B       		.uleb128 0x3b
 4175 0272 0B       		.uleb128 0xb
 4176 0273 27       		.uleb128 0x27
 4177 0274 19       		.uleb128 0x19
 4178 0275 11       		.uleb128 0x11
 4179 0276 01       		.uleb128 0x1
 4180 0277 12       		.uleb128 0x12
 4181 0278 06       		.uleb128 0x6
 4182 0279 40       		.uleb128 0x40
 4183 027a 18       		.uleb128 0x18
 4184 027b 9742     		.uleb128 0x2117
 4185 027d 19       		.uleb128 0x19
 4186 027e 01       		.uleb128 0x1
 4187 027f 13       		.uleb128 0x13
 4188 0280 00       		.byte	0
 4189 0281 00       		.byte	0
 4190 0282 30       		.uleb128 0x30
 4191 0283 34       		.uleb128 0x34
 4192 0284 00       		.byte	0
 4193 0285 03       		.uleb128 0x3
 4194 0286 08       		.uleb128 0x8
 4195 0287 3A       		.uleb128 0x3a
 4196 0288 0B       		.uleb128 0xb
 4197 0289 3B       		.uleb128 0x3b
 4198 028a 0B       		.uleb128 0xb
 4199 028b 49       		.uleb128 0x49
 4200 028c 13       		.uleb128 0x13
 4201 028d 02       		.uleb128 0x2
 4202 028e 17       		.uleb128 0x17
 4203 028f 00       		.byte	0
 4204 0290 00       		.byte	0
 4205 0291 31       		.uleb128 0x31
ARM GAS  /tmp/ccNKSpOC.s 			page 75


 4206 0292 05       		.uleb128 0x5
 4207 0293 00       		.byte	0
 4208 0294 31       		.uleb128 0x31
 4209 0295 13       		.uleb128 0x13
 4210 0296 00       		.byte	0
 4211 0297 00       		.byte	0
 4212 0298 32       		.uleb128 0x32
 4213 0299 898201   		.uleb128 0x4109
 4214 029c 00       		.byte	0
 4215 029d 11       		.uleb128 0x11
 4216 029e 01       		.uleb128 0x1
 4217 029f 31       		.uleb128 0x31
 4218 02a0 13       		.uleb128 0x13
 4219 02a1 00       		.byte	0
 4220 02a2 00       		.byte	0
 4221 02a3 33       		.uleb128 0x33
 4222 02a4 898201   		.uleb128 0x4109
 4223 02a7 00       		.byte	0
 4224 02a8 11       		.uleb128 0x11
 4225 02a9 01       		.uleb128 0x1
 4226 02aa 9542     		.uleb128 0x2115
 4227 02ac 19       		.uleb128 0x19
 4228 02ad 31       		.uleb128 0x31
 4229 02ae 13       		.uleb128 0x13
 4230 02af 00       		.byte	0
 4231 02b0 00       		.byte	0
 4232 02b1 34       		.uleb128 0x34
 4233 02b2 05       		.uleb128 0x5
 4234 02b3 00       		.byte	0
 4235 02b4 31       		.uleb128 0x31
 4236 02b5 13       		.uleb128 0x13
 4237 02b6 1C       		.uleb128 0x1c
 4238 02b7 0B       		.uleb128 0xb
 4239 02b8 00       		.byte	0
 4240 02b9 00       		.byte	0
 4241 02ba 35       		.uleb128 0x35
 4242 02bb 1D       		.uleb128 0x1d
 4243 02bc 01       		.byte	0x1
 4244 02bd 31       		.uleb128 0x31
 4245 02be 13       		.uleb128 0x13
 4246 02bf 11       		.uleb128 0x11
 4247 02c0 01       		.uleb128 0x1
 4248 02c1 12       		.uleb128 0x12
 4249 02c2 06       		.uleb128 0x6
 4250 02c3 58       		.uleb128 0x58
 4251 02c4 0B       		.uleb128 0xb
 4252 02c5 59       		.uleb128 0x59
 4253 02c6 0B       		.uleb128 0xb
 4254 02c7 01       		.uleb128 0x1
 4255 02c8 13       		.uleb128 0x13
 4256 02c9 00       		.byte	0
 4257 02ca 00       		.byte	0
 4258 02cb 36       		.uleb128 0x36
 4259 02cc 05       		.uleb128 0x5
 4260 02cd 00       		.byte	0
 4261 02ce 03       		.uleb128 0x3
 4262 02cf 0E       		.uleb128 0xe
ARM GAS  /tmp/ccNKSpOC.s 			page 76


 4263 02d0 3A       		.uleb128 0x3a
 4264 02d1 0B       		.uleb128 0xb
 4265 02d2 3B       		.uleb128 0x3b
 4266 02d3 0B       		.uleb128 0xb
 4267 02d4 49       		.uleb128 0x49
 4268 02d5 13       		.uleb128 0x13
 4269 02d6 02       		.uleb128 0x2
 4270 02d7 17       		.uleb128 0x17
 4271 02d8 00       		.byte	0
 4272 02d9 00       		.byte	0
 4273 02da 37       		.uleb128 0x37
 4274 02db 1D       		.uleb128 0x1d
 4275 02dc 01       		.byte	0x1
 4276 02dd 31       		.uleb128 0x31
 4277 02de 13       		.uleb128 0x13
 4278 02df 11       		.uleb128 0x11
 4279 02e0 01       		.uleb128 0x1
 4280 02e1 12       		.uleb128 0x12
 4281 02e2 06       		.uleb128 0x6
 4282 02e3 58       		.uleb128 0x58
 4283 02e4 0B       		.uleb128 0xb
 4284 02e5 59       		.uleb128 0x59
 4285 02e6 0B       		.uleb128 0xb
 4286 02e7 00       		.byte	0
 4287 02e8 00       		.byte	0
 4288 02e9 38       		.uleb128 0x38
 4289 02ea 2E       		.uleb128 0x2e
 4290 02eb 01       		.byte	0x1
 4291 02ec 3F       		.uleb128 0x3f
 4292 02ed 19       		.uleb128 0x19
 4293 02ee 03       		.uleb128 0x3
 4294 02ef 0E       		.uleb128 0xe
 4295 02f0 3A       		.uleb128 0x3a
 4296 02f1 0B       		.uleb128 0xb
 4297 02f2 3B       		.uleb128 0x3b
 4298 02f3 0B       		.uleb128 0xb
 4299 02f4 27       		.uleb128 0x27
 4300 02f5 19       		.uleb128 0x19
 4301 02f6 49       		.uleb128 0x49
 4302 02f7 13       		.uleb128 0x13
 4303 02f8 8701     		.uleb128 0x87
 4304 02fa 19       		.uleb128 0x19
 4305 02fb 11       		.uleb128 0x11
 4306 02fc 01       		.uleb128 0x1
 4307 02fd 12       		.uleb128 0x12
 4308 02fe 06       		.uleb128 0x6
 4309 02ff 40       		.uleb128 0x40
 4310 0300 18       		.uleb128 0x18
 4311 0301 9742     		.uleb128 0x2117
 4312 0303 19       		.uleb128 0x19
 4313 0304 01       		.uleb128 0x1
 4314 0305 13       		.uleb128 0x13
 4315 0306 00       		.byte	0
 4316 0307 00       		.byte	0
 4317 0308 39       		.uleb128 0x39
 4318 0309 34       		.uleb128 0x34
 4319 030a 00       		.byte	0
ARM GAS  /tmp/ccNKSpOC.s 			page 77


 4320 030b 03       		.uleb128 0x3
 4321 030c 0E       		.uleb128 0xe
 4322 030d 3A       		.uleb128 0x3a
 4323 030e 0B       		.uleb128 0xb
 4324 030f 3B       		.uleb128 0x3b
 4325 0310 0B       		.uleb128 0xb
 4326 0311 49       		.uleb128 0x49
 4327 0312 13       		.uleb128 0x13
 4328 0313 02       		.uleb128 0x2
 4329 0314 18       		.uleb128 0x18
 4330 0315 00       		.byte	0
 4331 0316 00       		.byte	0
 4332 0317 3A       		.uleb128 0x3a
 4333 0318 1D       		.uleb128 0x1d
 4334 0319 01       		.byte	0x1
 4335 031a 31       		.uleb128 0x31
 4336 031b 13       		.uleb128 0x13
 4337 031c 52       		.uleb128 0x52
 4338 031d 01       		.uleb128 0x1
 4339 031e 55       		.uleb128 0x55
 4340 031f 17       		.uleb128 0x17
 4341 0320 58       		.uleb128 0x58
 4342 0321 0B       		.uleb128 0xb
 4343 0322 59       		.uleb128 0x59
 4344 0323 05       		.uleb128 0x5
 4345 0324 00       		.byte	0
 4346 0325 00       		.byte	0
 4347 0326 3B       		.uleb128 0x3b
 4348 0327 1D       		.uleb128 0x1d
 4349 0328 01       		.byte	0x1
 4350 0329 31       		.uleb128 0x31
 4351 032a 13       		.uleb128 0x13
 4352 032b 52       		.uleb128 0x52
 4353 032c 01       		.uleb128 0x1
 4354 032d 55       		.uleb128 0x55
 4355 032e 17       		.uleb128 0x17
 4356 032f 58       		.uleb128 0x58
 4357 0330 0B       		.uleb128 0xb
 4358 0331 59       		.uleb128 0x59
 4359 0332 05       		.uleb128 0x5
 4360 0333 01       		.uleb128 0x1
 4361 0334 13       		.uleb128 0x13
 4362 0335 00       		.byte	0
 4363 0336 00       		.byte	0
 4364 0337 3C       		.uleb128 0x3c
 4365 0338 1D       		.uleb128 0x1d
 4366 0339 00       		.byte	0
 4367 033a 31       		.uleb128 0x31
 4368 033b 13       		.uleb128 0x13
 4369 033c 11       		.uleb128 0x11
 4370 033d 01       		.uleb128 0x1
 4371 033e 12       		.uleb128 0x12
 4372 033f 06       		.uleb128 0x6
 4373 0340 58       		.uleb128 0x58
 4374 0341 0B       		.uleb128 0xb
 4375 0342 59       		.uleb128 0x59
 4376 0343 05       		.uleb128 0x5
ARM GAS  /tmp/ccNKSpOC.s 			page 78


 4377 0344 00       		.byte	0
 4378 0345 00       		.byte	0
 4379 0346 3D       		.uleb128 0x3d
 4380 0347 0B       		.uleb128 0xb
 4381 0348 01       		.byte	0x1
 4382 0349 55       		.uleb128 0x55
 4383 034a 17       		.uleb128 0x17
 4384 034b 01       		.uleb128 0x1
 4385 034c 13       		.uleb128 0x13
 4386 034d 00       		.byte	0
 4387 034e 00       		.byte	0
 4388 034f 3E       		.uleb128 0x3e
 4389 0350 1D       		.uleb128 0x1d
 4390 0351 01       		.byte	0x1
 4391 0352 31       		.uleb128 0x31
 4392 0353 13       		.uleb128 0x13
 4393 0354 52       		.uleb128 0x52
 4394 0355 01       		.uleb128 0x1
 4395 0356 55       		.uleb128 0x55
 4396 0357 17       		.uleb128 0x17
 4397 0358 58       		.uleb128 0x58
 4398 0359 0B       		.uleb128 0xb
 4399 035a 59       		.uleb128 0x59
 4400 035b 0B       		.uleb128 0xb
 4401 035c 00       		.byte	0
 4402 035d 00       		.byte	0
 4403 035e 3F       		.uleb128 0x3f
 4404 035f 34       		.uleb128 0x34
 4405 0360 00       		.byte	0
 4406 0361 03       		.uleb128 0x3
 4407 0362 0E       		.uleb128 0xe
 4408 0363 3A       		.uleb128 0x3a
 4409 0364 0B       		.uleb128 0xb
 4410 0365 3B       		.uleb128 0x3b
 4411 0366 05       		.uleb128 0x5
 4412 0367 49       		.uleb128 0x49
 4413 0368 13       		.uleb128 0x13
 4414 0369 3F       		.uleb128 0x3f
 4415 036a 19       		.uleb128 0x19
 4416 036b 3C       		.uleb128 0x3c
 4417 036c 19       		.uleb128 0x19
 4418 036d 00       		.byte	0
 4419 036e 00       		.byte	0
 4420 036f 40       		.uleb128 0x40
 4421 0370 34       		.uleb128 0x34
 4422 0371 00       		.byte	0
 4423 0372 03       		.uleb128 0x3
 4424 0373 08       		.uleb128 0x8
 4425 0374 3A       		.uleb128 0x3a
 4426 0375 0B       		.uleb128 0xb
 4427 0376 3B       		.uleb128 0x3b
 4428 0377 05       		.uleb128 0x5
 4429 0378 49       		.uleb128 0x49
 4430 0379 13       		.uleb128 0x13
 4431 037a 3F       		.uleb128 0x3f
 4432 037b 19       		.uleb128 0x19
 4433 037c 3C       		.uleb128 0x3c
ARM GAS  /tmp/ccNKSpOC.s 			page 79


 4434 037d 19       		.uleb128 0x19
 4435 037e 00       		.byte	0
 4436 037f 00       		.byte	0
 4437 0380 41       		.uleb128 0x41
 4438 0381 2E       		.uleb128 0x2e
 4439 0382 00       		.byte	0
 4440 0383 3F       		.uleb128 0x3f
 4441 0384 19       		.uleb128 0x19
 4442 0385 3C       		.uleb128 0x3c
 4443 0386 19       		.uleb128 0x19
 4444 0387 6E       		.uleb128 0x6e
 4445 0388 0E       		.uleb128 0xe
 4446 0389 03       		.uleb128 0x3
 4447 038a 0E       		.uleb128 0xe
 4448 038b 3A       		.uleb128 0x3a
 4449 038c 0B       		.uleb128 0xb
 4450 038d 3B       		.uleb128 0x3b
 4451 038e 0B       		.uleb128 0xb
 4452 038f 00       		.byte	0
 4453 0390 00       		.byte	0
 4454 0391 42       		.uleb128 0x42
 4455 0392 2E       		.uleb128 0x2e
 4456 0393 00       		.byte	0
 4457 0394 3F       		.uleb128 0x3f
 4458 0395 19       		.uleb128 0x19
 4459 0396 3C       		.uleb128 0x3c
 4460 0397 19       		.uleb128 0x19
 4461 0398 6E       		.uleb128 0x6e
 4462 0399 0E       		.uleb128 0xe
 4463 039a 03       		.uleb128 0x3
 4464 039b 0E       		.uleb128 0xe
 4465 039c 3A       		.uleb128 0x3a
 4466 039d 0B       		.uleb128 0xb
 4467 039e 3B       		.uleb128 0x3b
 4468 039f 05       		.uleb128 0x5
 4469 03a0 00       		.byte	0
 4470 03a1 00       		.byte	0
 4471 03a2 00       		.byte	0
 4472              		.section	.debug_loc,"",%progbits
 4473              	.Ldebug_loc0:
 4474              	.LLST0:
 4475 0000 00000000 		.4byte	.LVL0
 4476 0004 12000000 		.4byte	.LVL1
 4477 0008 0100     		.2byte	0x1
 4478 000a 50       		.byte	0x50
 4479 000b 12000000 		.4byte	.LVL1
 4480 000f 34000000 		.4byte	.LFE268
 4481 0013 0400     		.2byte	0x4
 4482 0015 F3       		.byte	0xf3
 4483 0016 01       		.uleb128 0x1
 4484 0017 50       		.byte	0x50
 4485 0018 9F       		.byte	0x9f
 4486 0019 00000000 		.4byte	0
 4487 001d 00000000 		.4byte	0
 4488              	.LLST1:
 4489 0021 00000000 		.4byte	.LVL10
 4490 0025 04000000 		.4byte	.LVL11
ARM GAS  /tmp/ccNKSpOC.s 			page 80


 4491 0029 0100     		.2byte	0x1
 4492 002b 50       		.byte	0x50
 4493 002c 04000000 		.4byte	.LVL11
 4494 0030 0C000000 		.4byte	.LFE261
 4495 0034 0400     		.2byte	0x4
 4496 0036 F3       		.byte	0xf3
 4497 0037 01       		.uleb128 0x1
 4498 0038 50       		.byte	0x50
 4499 0039 9F       		.byte	0x9f
 4500 003a 00000000 		.4byte	0
 4501 003e 00000000 		.4byte	0
 4502              	.LLST2:
 4503 0042 00000000 		.4byte	.LVL14
 4504 0046 15000000 		.4byte	.LVL16-1
 4505 004a 0100     		.2byte	0x1
 4506 004c 50       		.byte	0x50
 4507 004d 15000000 		.4byte	.LVL16-1
 4508 0051 24000000 		.4byte	.LFE263
 4509 0055 0400     		.2byte	0x4
 4510 0057 F3       		.byte	0xf3
 4511 0058 01       		.uleb128 0x1
 4512 0059 50       		.byte	0x50
 4513 005a 9F       		.byte	0x9f
 4514 005b 00000000 		.4byte	0
 4515 005f 00000000 		.4byte	0
 4516              	.LLST3:
 4517 0063 06000000 		.4byte	.LVL15
 4518 0067 15000000 		.4byte	.LVL16-1
 4519 006b 0500     		.2byte	0x5
 4520 006d 70       		.byte	0x70
 4521 006e 00       		.sleb128 0
 4522 006f 34       		.byte	0x34
 4523 0070 25       		.byte	0x25
 4524 0071 9F       		.byte	0x9f
 4525 0072 15000000 		.4byte	.LVL16-1
 4526 0076 16000000 		.4byte	.LVL16
 4527 007a 0600     		.2byte	0x6
 4528 007c F3       		.byte	0xf3
 4529 007d 01       		.uleb128 0x1
 4530 007e 50       		.byte	0x50
 4531 007f 34       		.byte	0x34
 4532 0080 25       		.byte	0x25
 4533 0081 9F       		.byte	0x9f
 4534 0082 00000000 		.4byte	0
 4535 0086 00000000 		.4byte	0
 4536              	.LLST4:
 4537 008a 06000000 		.4byte	.LVL15
 4538 008e 15000000 		.4byte	.LVL16-1
 4539 0092 0500     		.2byte	0x5
 4540 0094 70       		.byte	0x70
 4541 0095 00       		.sleb128 0
 4542 0096 34       		.byte	0x34
 4543 0097 25       		.byte	0x25
 4544 0098 9F       		.byte	0x9f
 4545 0099 15000000 		.4byte	.LVL16-1
 4546 009d 24000000 		.4byte	.LFE263
 4547 00a1 0600     		.2byte	0x6
ARM GAS  /tmp/ccNKSpOC.s 			page 81


 4548 00a3 F3       		.byte	0xf3
 4549 00a4 01       		.uleb128 0x1
 4550 00a5 50       		.byte	0x50
 4551 00a6 34       		.byte	0x34
 4552 00a7 25       		.byte	0x25
 4553 00a8 9F       		.byte	0x9f
 4554 00a9 00000000 		.4byte	0
 4555 00ad 00000000 		.4byte	0
 4556              	.LLST5:
 4557 00b1 00000000 		.4byte	.LVL18
 4558 00b5 0B000000 		.4byte	.LVL19-1
 4559 00b9 0100     		.2byte	0x1
 4560 00bb 50       		.byte	0x50
 4561 00bc 0B000000 		.4byte	.LVL19-1
 4562 00c0 1C000000 		.4byte	.LFE264
 4563 00c4 0400     		.2byte	0x4
 4564 00c6 F3       		.byte	0xf3
 4565 00c7 01       		.uleb128 0x1
 4566 00c8 50       		.byte	0x50
 4567 00c9 9F       		.byte	0x9f
 4568 00ca 00000000 		.4byte	0
 4569 00ce 00000000 		.4byte	0
 4570              	.LLST6:
 4571 00d2 00000000 		.4byte	.LVL21
 4572 00d6 0B000000 		.4byte	.LVL22-1
 4573 00da 0100     		.2byte	0x1
 4574 00dc 50       		.byte	0x50
 4575 00dd 0B000000 		.4byte	.LVL22-1
 4576 00e1 1C000000 		.4byte	.LFE265
 4577 00e5 0400     		.2byte	0x4
 4578 00e7 F3       		.byte	0xf3
 4579 00e8 01       		.uleb128 0x1
 4580 00e9 50       		.byte	0x50
 4581 00ea 9F       		.byte	0x9f
 4582 00eb 00000000 		.4byte	0
 4583 00ef 00000000 		.4byte	0
 4584              	.LLST7:
 4585 00f3 00000000 		.4byte	.LVL43
 4586 00f7 06000000 		.4byte	.LVL44
 4587 00fb 0100     		.2byte	0x1
 4588 00fd 50       		.byte	0x50
 4589 00fe 06000000 		.4byte	.LVL44
 4590 0102 20000000 		.4byte	.LVL48
 4591 0106 0100     		.2byte	0x1
 4592 0108 54       		.byte	0x54
 4593 0109 20000000 		.4byte	.LVL48
 4594 010d 24000000 		.4byte	.LVL49
 4595 0111 0300     		.2byte	0x3
 4596 0113 74       		.byte	0x74
 4597 0114 7F       		.sleb128 -1
 4598 0115 9F       		.byte	0x9f
 4599 0116 00000000 		.4byte	0
 4600 011a 00000000 		.4byte	0
 4601              	.LLST8:
 4602 011e 0E000000 		.4byte	.LVL45
 4603 0122 13000000 		.4byte	.LVL46-1
 4604 0126 0100     		.2byte	0x1
ARM GAS  /tmp/ccNKSpOC.s 			page 82


 4605 0128 50       		.byte	0x50
 4606 0129 00000000 		.4byte	0
 4607 012d 00000000 		.4byte	0
 4608              	.LLST9:
 4609 0131 84000000 		.4byte	.LVL61
 4610 0135 8A000000 		.4byte	.LVL62
 4611 0139 0200     		.2byte	0x2
 4612 013b 30       		.byte	0x30
 4613 013c 9F       		.byte	0x9f
 4614 013d 8A000000 		.4byte	.LVL62
 4615 0141 98000000 		.4byte	.LVL64
 4616 0145 0500     		.2byte	0x5
 4617 0147 4A       		.byte	0x4a
 4618 0148 74       		.byte	0x74
 4619 0149 00       		.sleb128 0
 4620 014a 1C       		.byte	0x1c
 4621 014b 9F       		.byte	0x9f
 4622 014c 98000000 		.4byte	.LVL64
 4623 0150 9E000000 		.4byte	.LVL65
 4624 0154 0500     		.2byte	0x5
 4625 0156 4B       		.byte	0x4b
 4626 0157 74       		.byte	0x74
 4627 0158 00       		.sleb128 0
 4628 0159 1C       		.byte	0x1c
 4629 015a 9F       		.byte	0x9f
 4630 015b 00000000 		.4byte	0
 4631 015f 00000000 		.4byte	0
 4632              		.section	.debug_aranges,"",%progbits
 4633 0000 64000000 		.4byte	0x64
 4634 0004 0200     		.2byte	0x2
 4635 0006 00000000 		.4byte	.Ldebug_info0
 4636 000a 04       		.byte	0x4
 4637 000b 00       		.byte	0
 4638 000c 0000     		.2byte	0
 4639 000e 0000     		.2byte	0
 4640 0010 00000000 		.4byte	.LFB268
 4641 0014 34000000 		.4byte	.LFE268-.LFB268
 4642 0018 00000000 		.4byte	.LFB260
 4643 001c 50000000 		.4byte	.LFE260-.LFB260
 4644 0020 00000000 		.4byte	.LFB261
 4645 0024 0C000000 		.4byte	.LFE261-.LFB261
 4646 0028 00000000 		.4byte	.LFB262
 4647 002c 20000000 		.4byte	.LFE262-.LFB262
 4648 0030 00000000 		.4byte	.LFB263
 4649 0034 24000000 		.4byte	.LFE263-.LFB263
 4650 0038 00000000 		.4byte	.LFB264
 4651 003c 1C000000 		.4byte	.LFE264-.LFB264
 4652 0040 00000000 		.4byte	.LFB265
 4653 0044 1C000000 		.4byte	.LFE265-.LFB265
 4654 0048 00000000 		.4byte	.LFB266
 4655 004c 90000000 		.4byte	.LFE266-.LFB266
 4656 0050 00000000 		.4byte	.LFB267
 4657 0054 2C000000 		.4byte	.LFE267-.LFB267
 4658 0058 00000000 		.4byte	.LFB269
 4659 005c 04010000 		.4byte	.LFE269-.LFB269
 4660 0060 00000000 		.4byte	0
 4661 0064 00000000 		.4byte	0
ARM GAS  /tmp/ccNKSpOC.s 			page 83


 4662              		.section	.debug_ranges,"",%progbits
 4663              	.Ldebug_ranges0:
 4664 0000 02000000 		.4byte	.LBB58
 4665 0004 08000000 		.4byte	.LBE58
 4666 0008 0A000000 		.4byte	.LBB61
 4667 000c 0C000000 		.4byte	.LBE61
 4668 0010 00000000 		.4byte	0
 4669 0014 00000000 		.4byte	0
 4670 0018 02000000 		.4byte	.LBB62
 4671 001c 04000000 		.4byte	.LBE62
 4672 0020 06000000 		.4byte	.LBB66
 4673 0024 0A000000 		.4byte	.LBE66
 4674 0028 0E000000 		.4byte	.LBB71
 4675 002c 10000000 		.4byte	.LBE71
 4676 0030 00000000 		.4byte	0
 4677 0034 00000000 		.4byte	0
 4678 0038 0A000000 		.4byte	.LBB67
 4679 003c 0E000000 		.4byte	.LBE67
 4680 0040 10000000 		.4byte	.LBB72
 4681 0044 12000000 		.4byte	.LBE72
 4682 0048 16000000 		.4byte	.LBB73
 4683 004c 18000000 		.4byte	.LBE73
 4684 0050 00000000 		.4byte	0
 4685 0054 00000000 		.4byte	0
 4686 0058 02000000 		.4byte	.LBB74
 4687 005c 06000000 		.4byte	.LBE74
 4688 0060 0E000000 		.4byte	.LBB77
 4689 0064 1C000000 		.4byte	.LBE77
 4690 0068 00000000 		.4byte	0
 4691 006c 00000000 		.4byte	0
 4692 0070 0A000000 		.4byte	.LBB92
 4693 0074 0C000000 		.4byte	.LBE92
 4694 0078 10000000 		.4byte	.LBB103
 4695 007c 16000000 		.4byte	.LBE103
 4696 0080 00000000 		.4byte	0
 4697 0084 00000000 		.4byte	0
 4698 0088 0A000000 		.4byte	.LBB95
 4699 008c 0C000000 		.4byte	.LBE95
 4700 0090 10000000 		.4byte	.LBB98
 4701 0094 14000000 		.4byte	.LBE98
 4702 0098 00000000 		.4byte	0
 4703 009c 00000000 		.4byte	0
 4704 00a0 1E000000 		.4byte	.LBB104
 4705 00a4 24000000 		.4byte	.LBE104
 4706 00a8 56000000 		.4byte	.LBB113
 4707 00ac 58000000 		.4byte	.LBE113
 4708 00b0 86000000 		.4byte	.LBB114
 4709 00b4 A4000000 		.4byte	.LBE114
 4710 00b8 00000000 		.4byte	0
 4711 00bc 00000000 		.4byte	0
 4712 00c0 1E000000 		.4byte	.LBB105
 4713 00c4 24000000 		.4byte	.LBE105
 4714 00c8 56000000 		.4byte	.LBB110
 4715 00cc 58000000 		.4byte	.LBE110
 4716 00d0 86000000 		.4byte	.LBB111
 4717 00d4 9A000000 		.4byte	.LBE111
 4718 00d8 9E000000 		.4byte	.LBB112
ARM GAS  /tmp/ccNKSpOC.s 			page 84


 4719 00dc A2000000 		.4byte	.LBE112
 4720 00e0 00000000 		.4byte	0
 4721 00e4 00000000 		.4byte	0
 4722 00e8 00000000 		.4byte	.LFB268
 4723 00ec 34000000 		.4byte	.LFE268
 4724 00f0 00000000 		.4byte	.LFB260
 4725 00f4 50000000 		.4byte	.LFE260
 4726 00f8 00000000 		.4byte	.LFB261
 4727 00fc 0C000000 		.4byte	.LFE261
 4728 0100 00000000 		.4byte	.LFB262
 4729 0104 20000000 		.4byte	.LFE262
 4730 0108 00000000 		.4byte	.LFB263
 4731 010c 24000000 		.4byte	.LFE263
 4732 0110 00000000 		.4byte	.LFB264
 4733 0114 1C000000 		.4byte	.LFE264
 4734 0118 00000000 		.4byte	.LFB265
 4735 011c 1C000000 		.4byte	.LFE265
 4736 0120 00000000 		.4byte	.LFB266
 4737 0124 90000000 		.4byte	.LFE266
 4738 0128 00000000 		.4byte	.LFB267
 4739 012c 2C000000 		.4byte	.LFE267
 4740 0130 00000000 		.4byte	.LFB269
 4741 0134 04010000 		.4byte	.LFE269
 4742 0138 00000000 		.4byte	0
 4743 013c 00000000 		.4byte	0
 4744              		.section	.debug_line,"",%progbits
 4745              	.Ldebug_line0:
 4746 0000 69040000 		.section	.debug_str,"MS",%progbits,1
 4746      0200B302 
 4746      00000201 
 4746      FB0E0D00 
 4746      01010101 
 4747              	.LASF100:
 4748 0000 4D314152 		.ascii	"M1AR\000"
 4748      00
 4749              	.LASF129:
 4750 0005 73746D33 		.ascii	"stm32_dma_stream_t\000"
 4750      325F646D 
 4750      615F7374 
 4750      7265616D 
 4750      5F7400
 4751              	.LASF4:
 4752 0018 73697A65 		.ascii	"size_t\000"
 4752      5F7400
 4753              	.LASF172:
 4754 001f 73717231 		.ascii	"sqr1\000"
 4754      00
 4755              	.LASF173:
 4756 0024 73717232 		.ascii	"sqr2\000"
 4756      00
 4757              	.LASF82:
 4758 0029 73697A65 		.ascii	"sizetype\000"
 4758      74797065 
 4758      00
 4759              	.LASF112:
 4760 0032 77747365 		.ascii	"wtsemp\000"
 4760      6D7000
ARM GAS  /tmp/ccNKSpOC.s 			page 85


 4761              	.LASF29:
 4762 0039 73797374 		.ascii	"systime_t\000"
 4762      696D655F 
 4762      7400
 4763              	.LASF34:
 4764 0043 705F6374 		.ascii	"p_ctx\000"
 4764      7800
 4765              	.LASF25:
 4766 0049 74707269 		.ascii	"tprio_t\000"
 4766      6F5F7400 
 4767              	.LASF164:
 4768 0051 61646363 		.ascii	"adccallback_t\000"
 4768      616C6C62 
 4768      61636B5F 
 4768      7400
 4769              	.LASF89:
 4770 005f 53515231 		.ascii	"SQR1\000"
 4770      00
 4771              	.LASF90:
 4772 0064 53515232 		.ascii	"SQR2\000"
 4772      00
 4773              	.LASF91:
 4774 0069 53515233 		.ascii	"SQR3\000"
 4774      00
 4775              	.LASF42:
 4776 006e 705F6D73 		.ascii	"p_msgqueue\000"
 4776      67717565 
 4776      756500
 4777              	.LASF58:
 4778 0079 725F6374 		.ascii	"r_ctx\000"
 4778      7800
 4779              	.LASF18:
 4780 007f 696E7433 		.ascii	"int32_t\000"
 4780      325F7400 
 4781              	.LASF148:
 4782 0087 61646373 		.ascii	"adcstate_t\000"
 4782      74617465 
 4782      5F7400
 4783              	.LASF62:
 4784 0092 76746675 		.ascii	"vtfunc_t\000"
 4784      6E635F74 
 4784      00
 4785              	.LASF71:
 4786 009b 63685F76 		.ascii	"ch_virtual_timers_list\000"
 4786      69727475 
 4786      616C5F74 
 4786      696D6572 
 4786      735F6C69 
 4787              	.LASF192:
 4788 00b2 6C63645F 		.ascii	"lcd_init\000"
 4788      696E6974 
 4788      00
 4789              	.LASF180:
 4790 00bb 63685379 		.ascii	"chSysEnable\000"
 4790      73456E61 
 4790      626C6500 
 4791              	.LASF156:
ARM GAS  /tmp/ccNKSpOC.s 			page 86


 4792 00c7 636F6E66 		.ascii	"config\000"
 4792      696700
 4793              	.LASF155:
 4794 00ce 73746174 		.ascii	"state\000"
 4794      6500
 4795              	.LASF169:
 4796 00d4 6572726F 		.ascii	"error_cb\000"
 4796      725F6362 
 4796      00
 4797              	.LASF203:
 4798 00dd 5F70616C 		.ascii	"_pal_lld_setgroupmode\000"
 4798      5F6C6C64 
 4798      5F736574 
 4798      67726F75 
 4798      706D6F64 
 4799              	.LASF120:
 4800 00f3 6D5F6F77 		.ascii	"m_owner\000"
 4800      6E657200 
 4801              	.LASF69:
 4802 00fb 76745F70 		.ascii	"vt_par\000"
 4802      617200
 4803              	.LASF168:
 4804 0102 656E645F 		.ascii	"end_cb\000"
 4804      636200
 4805              	.LASF109:
 4806 0109 65786974 		.ascii	"exitcode\000"
 4806      636F6465 
 4806      00
 4807              	.LASF5:
 4808 0112 5F5F7569 		.ascii	"__uint8_t\000"
 4808      6E74385F 
 4808      7400
 4809              	.LASF135:
 4810 011c 50555044 		.ascii	"PUPDR\000"
 4810      5200
 4811              	.LASF35:
 4812 0122 705F6E65 		.ascii	"p_newer\000"
 4812      77657200 
 4813              	.LASF11:
 4814 012a 6C6F6E67 		.ascii	"long int\000"
 4814      20696E74 
 4814      00
 4815              	.LASF31:
 4816 0133 705F6E65 		.ascii	"p_next\000"
 4816      787400
 4817              	.LASF210:
 4818 013a 474E5520 		.ascii	"GNU C11 5.2.0 -mcpu=cortex-m4 -mfloat-abi=hard -mfp"
 4818      43313120 
 4818      352E322E 
 4818      30202D6D 
 4818      6370753D 
 4819 016d 753D6670 		.ascii	"u=fpv4-sp-d16 -mno-thumb-interwork -mthumb -ggdb -O"
 4819      76342D73 
 4819      702D6431 
 4819      36202D6D 
 4819      6E6F2D74 
 4820 01a0 32202D66 		.ascii	"2 -fomit-frame-pointer -falign-functions=16 -ffunct"
ARM GAS  /tmp/ccNKSpOC.s 			page 87


 4820      6F6D6974 
 4820      2D667261 
 4820      6D652D70 
 4820      6F696E74 
 4821 01d3 696F6E2D 		.ascii	"ion-sections -fdata-sections -fno-common -fsingle-p"
 4821      73656374 
 4821      696F6E73 
 4821      202D6664 
 4821      6174612D 
 4822 0206 72656369 		.ascii	"recision-constant\000"
 4822      73696F6E 
 4822      2D636F6E 
 4822      7374616E 
 4822      7400
 4823              	.LASF32:
 4824 0218 705F7072 		.ascii	"p_prev\000"
 4824      657600
 4825              	.LASF23:
 4826 021f 74737461 		.ascii	"tstate_t\000"
 4826      74655F74 
 4826      00
 4827              	.LASF214:
 4828 0228 6D61696E 		.ascii	"main\000"
 4828      00
 4829              	.LASF52:
 4830 022d 74687265 		.ascii	"threads_queue_t\000"
 4830      6164735F 
 4830      71756575 
 4830      655F7400 
 4831              	.LASF45:
 4832 023d 705F6D74 		.ascii	"p_mtxlist\000"
 4832      786C6973 
 4832      7400
 4833              	.LASF102:
 4834 0247 72656761 		.ascii	"regarm_t\000"
 4834      726D5F74 
 4834      00
 4835              	.LASF185:
 4836 0250 64617461 		.ascii	"data\000"
 4836      00
 4837              	.LASF207:
 4838 0255 61646353 		.ascii	"adcSTM32EnableTSVREFE\000"
 4838      544D3332 
 4838      456E6162 
 4838      6C655453 
 4838      56524546 
 4839              	.LASF3:
 4840 026b 7369676E 		.ascii	"signed char\000"
 4840      65642063 
 4840      68617200 
 4841              	.LASF114:
 4842 0277 65776D61 		.ascii	"ewmask\000"
 4842      736B00
 4843              	.LASF16:
 4844 027e 75696E74 		.ascii	"uint8_t\000"
 4844      385F7400 
 4845              	.LASF27:
ARM GAS  /tmp/ccNKSpOC.s 			page 88


 4846 0286 6576656E 		.ascii	"eventmask_t\000"
 4846      746D6173 
 4846      6B5F7400 
 4847              	.LASF104:
 4848 0292 636F6E74 		.ascii	"context\000"
 4848      65787400 
 4849              	.LASF111:
 4850 029a 77747472 		.ascii	"wttrp\000"
 4850      7000
 4851              	.LASF6:
 4852 02a0 756E7369 		.ascii	"unsigned char\000"
 4852      676E6564 
 4852      20636861 
 4852      7200
 4853              	.LASF140:
 4854 02ae 73746D33 		.ascii	"stm32_gpio_t\000"
 4854      325F6770 
 4854      696F5F74 
 4854      00
 4855              	.LASF75:
 4856 02bb 70616E69 		.ascii	"panic_msg\000"
 4856      635F6D73 
 4856      6700
 4857              	.LASF153:
 4858 02c5 61646365 		.ascii	"adcerror_t\000"
 4858      72726F72 
 4858      5F7400
 4859              	.LASF59:
 4860 02d0 725F6E65 		.ascii	"r_newer\000"
 4860      77657200 
 4861              	.LASF73:
 4862 02d8 73797374 		.ascii	"system_debug_t\000"
 4862      656D5F64 
 4862      65627567 
 4862      5F7400
 4863              	.LASF144:
 4864 02e7 4144435F 		.ascii	"ADC_READY\000"
 4864      52454144 
 4864      5900
 4865              	.LASF130:
 4866 02f1 5F426F6F 		.ascii	"_Bool\000"
 4866      6C00
 4867              	.LASF183:
 4868 02f7 76616C75 		.ascii	"value\000"
 4868      6500
 4869              	.LASF149:
 4870 02fd 61646373 		.ascii	"adcsample_t\000"
 4870      616D706C 
 4870      655F7400 
 4871              	.LASF122:
 4872 0309 63686172 		.ascii	"char\000"
 4872      00
 4873              	.LASF126:
 4874 030e 69736869 		.ascii	"ishift\000"
 4874      667400
 4875              	.LASF33:
 4876 0315 705F7072 		.ascii	"p_prio\000"
ARM GAS  /tmp/ccNKSpOC.s 			page 89


 4876      696F00
 4877              	.LASF8:
 4878 031c 5F5F7569 		.ascii	"__uint16_t\000"
 4878      6E743136 
 4878      5F7400
 4879              	.LASF197:
 4880 0327 73616D70 		.ascii	"samples1\000"
 4880      6C657331 
 4880      00
 4881              	.LASF110:
 4882 0330 77746F62 		.ascii	"wtobjp\000"
 4882      6A7000
 4883              	.LASF147:
 4884 0337 4144435F 		.ascii	"ADC_ERROR\000"
 4884      4552524F 
 4884      5200
 4885              	.LASF103:
 4886 0341 73746B61 		.ascii	"stkalign_t\000"
 4886      6C69676E 
 4886      5F7400
 4887              	.LASF190:
 4888 034c 6C63645F 		.ascii	"lcd_setio\000"
 4888      73657469 
 4888      6F00
 4889              	.LASF174:
 4890 0356 73717233 		.ascii	"sqr3\000"
 4890      00
 4891              	.LASF166:
 4892 035b 63697263 		.ascii	"circular\000"
 4892      756C6172 
 4892      00
 4893              	.LASF151:
 4894 0364 4144435F 		.ascii	"ADC_ERR_DMAFAILURE\000"
 4894      4552525F 
 4894      444D4146 
 4894      41494C55 
 4894      524500
 4895              	.LASF124:
 4896 0377 73747265 		.ascii	"stream\000"
 4896      616D00
 4897              	.LASF195:
 4898 037e 74657874 		.ascii	"text\000"
 4898      00
 4899              	.LASF178:
 4900 0383 5F5F656E 		.ascii	"__enable_irq\000"
 4900      61626C65 
 4900      5F697271 
 4900      00
 4901              	.LASF141:
 4902 0390 696F706F 		.ascii	"ioportmask_t\000"
 4902      72746D61 
 4902      736B5F74 
 4902      00
 4903              	.LASF194:
 4904 039d 6C63645F 		.ascii	"lcd_printf\000"
 4904      7072696E 
 4904      746600
ARM GAS  /tmp/ccNKSpOC.s 			page 90


 4905              	.LASF157:
 4906 03a8 73616D70 		.ascii	"samples\000"
 4906      6C657300 
 4907              	.LASF28:
 4908 03b0 636E745F 		.ascii	"cnt_t\000"
 4908      7400
 4909              	.LASF202:
 4910 03b6 63685468 		.ascii	"chThdSleep\000"
 4910      64536C65 
 4910      657000
 4911              	.LASF68:
 4912 03c1 76745F66 		.ascii	"vt_func\000"
 4912      756E6300 
 4913              	.LASF97:
 4914 03c9 4144435F 		.ascii	"ADC_TypeDef\000"
 4914      54797065 
 4914      44656600 
 4915              	.LASF212:
 4916 03d5 2F686F6D 		.ascii	"/home/sssilvar/Documents/embebidos/ChibiOS/iflab/pr"
 4916      652F7373 
 4916      73696C76 
 4916      61722F44 
 4916      6F63756D 
 4917 0408 6F6A6563 		.ascii	"ojects/ADC_LCD\000"
 4917      74732F41 
 4917      44435F4C 
 4917      434400
 4918              	.LASF44:
 4919 0417 705F6570 		.ascii	"p_epending\000"
 4919      656E6469 
 4919      6E6700
 4920              	.LASF113:
 4921 0422 77746D74 		.ascii	"wtmtxp\000"
 4921      787000
 4922              	.LASF55:
 4923 0429 63685F72 		.ascii	"ch_ready_list\000"
 4923      65616479 
 4923      5F6C6973 
 4923      7400
 4924              	.LASF131:
 4925 0437 636C6561 		.ascii	"clear\000"
 4925      7200
 4926              	.LASF198:
 4927 043d 61646367 		.ascii	"adcgrpcfg1\000"
 4927      72706366 
 4927      673100
 4928              	.LASF14:
 4929 0448 5F5F7569 		.ascii	"__uint64_t\000"
 4929      6E743634 
 4929      5F7400
 4930              	.LASF13:
 4931 0453 6C6F6E67 		.ascii	"long unsigned int\000"
 4931      20756E73 
 4931      69676E65 
 4931      6420696E 
 4931      7400
 4932              	.LASF162:
ARM GAS  /tmp/ccNKSpOC.s 			page 91


 4933 0465 646D6173 		.ascii	"dmastp\000"
 4933      747000
 4934              	.LASF115:
 4935 046c 63685F73 		.ascii	"ch_semaphore\000"
 4935      656D6170 
 4935      686F7265 
 4935      00
 4936              	.LASF50:
 4937 0479 63685F74 		.ascii	"ch_thread\000"
 4937      68726561 
 4937      6400
 4938              	.LASF70:
 4939 0483 76697274 		.ascii	"virtual_timers_list_t\000"
 4939      75616C5F 
 4939      74696D65 
 4939      72735F6C 
 4939      6973745F 
 4940              	.LASF83:
 4941 0499 534D5052 		.ascii	"SMPR1\000"
 4941      3100
 4942              	.LASF84:
 4943 049f 534D5052 		.ascii	"SMPR2\000"
 4943      3200
 4944              	.LASF63:
 4945 04a5 76697274 		.ascii	"virtual_timer_t\000"
 4945      75616C5F 
 4945      74696D65 
 4945      725F7400 
 4946              	.LASF54:
 4947 04b5 72656164 		.ascii	"ready_list_t\000"
 4947      795F6C69 
 4947      73745F74 
 4947      00
 4948              	.LASF137:
 4949 04c2 4C434B52 		.ascii	"LCKR\000"
 4949      00
 4950              	.LASF188:
 4951 04c7 6C63645F 		.ascii	"lcd_sendChar\000"
 4951      73656E64 
 4951      43686172 
 4951      00
 4952              	.LASF204:
 4953 04d4 68616C49 		.ascii	"halInit\000"
 4953      6E697400 
 4954              	.LASF175:
 4955 04dc 41444343 		.ascii	"ADCConversionGroup\000"
 4955      6F6E7665 
 4955      7273696F 
 4955      6E47726F 
 4955      757000
 4956              	.LASF146:
 4957 04ef 4144435F 		.ascii	"ADC_COMPLETE\000"
 4957      434F4D50 
 4957      4C455445 
 4957      00
 4958              	.LASF51:
 4959 04fc 63685F74 		.ascii	"ch_threads_list\000"
ARM GAS  /tmp/ccNKSpOC.s 			page 92


 4959      68726561 
 4959      64735F6C 
 4959      69737400 
 4960              	.LASF170:
 4961 050c 736D7072 		.ascii	"smpr1\000"
 4961      3100
 4962              	.LASF171:
 4963 0512 736D7072 		.ascii	"smpr2\000"
 4963      3200
 4964              	.LASF134:
 4965 0518 4F535045 		.ascii	"OSPEEDR\000"
 4965      45445200 
 4966              	.LASF187:
 4967 0520 6C63645F 		.ascii	"lcd_cmd\000"
 4967      636D6400 
 4968              	.LASF150:
 4969 0528 6164635F 		.ascii	"adc_channels_num_t\000"
 4969      6368616E 
 4969      6E656C73 
 4969      5F6E756D 
 4969      5F7400
 4970              	.LASF12:
 4971 053b 5F5F7569 		.ascii	"__uint32_t\000"
 4971      6E743332 
 4971      5F7400
 4972              	.LASF213:
 4973 0546 54687265 		.ascii	"Thread1\000"
 4973      61643100 
 4974              	.LASF1:
 4975 054e 6C6F6E67 		.ascii	"long long int\000"
 4975      206C6F6E 
 4975      6720696E 
 4975      7400
 4976              	.LASF119:
 4977 055c 6D5F7175 		.ascii	"m_queue\000"
 4977      65756500 
 4978              	.LASF65:
 4979 0564 76745F6E 		.ascii	"vt_next\000"
 4979      65787400 
 4980              	.LASF208:
 4981 056c 63685468 		.ascii	"chThdCreateStatic\000"
 4981      64437265 
 4981      61746553 
 4981      74617469 
 4981      6300
 4982              	.LASF66:
 4983 057e 76745F70 		.ascii	"vt_prev\000"
 4983      72657600 
 4984              	.LASF165:
 4985 0586 61646365 		.ascii	"adcerrorcallback_t\000"
 4985      72726F72 
 4985      63616C6C 
 4985      6261636B 
 4985      5F7400
 4986              	.LASF211:
 4987 0599 6D61696E 		.ascii	"main.c\000"
 4987      2E6300
ARM GAS  /tmp/ccNKSpOC.s 			page 93


 4988              	.LASF158:
 4989 05a0 64657074 		.ascii	"depth\000"
 4989      6800
 4990              	.LASF161:
 4991 05a6 6D757465 		.ascii	"mutex\000"
 4991      7800
 4992              	.LASF200:
 4993 05ac 49544D5F 		.ascii	"ITM_RxBuffer\000"
 4993      52784275 
 4993      66666572 
 4993      00
 4994              	.LASF163:
 4995 05b9 646D616D 		.ascii	"dmamode\000"
 4995      6F646500 
 4996              	.LASF41:
 4997 05c1 705F7761 		.ascii	"p_waiting\000"
 4997      6974696E 
 4997      6700
 4998              	.LASF132:
 4999 05cb 4D4F4445 		.ascii	"MODER\000"
 4999      5200
 5000              	.LASF39:
 5001 05d1 705F666C 		.ascii	"p_flags\000"
 5001      61677300 
 5002              	.LASF81:
 5003 05d9 69646C65 		.ascii	"idle_thread_wa\000"
 5003      5F746872 
 5003      6561645F 
 5003      776100
 5004              	.LASF0:
 5005 05e8 756E7369 		.ascii	"unsigned int\000"
 5005      676E6564 
 5005      20696E74 
 5005      00
 5006              	.LASF21:
 5007 05f5 7274636E 		.ascii	"rtcnt_t\000"
 5007      745F7400 
 5008              	.LASF47:
 5009 05fd 705F6D70 		.ascii	"p_mpool\000"
 5009      6F6F6C00 
 5010              	.LASF40:
 5011 0605 705F7265 		.ascii	"p_refs\000"
 5011      667300
 5012              	.LASF167:
 5013 060c 6E756D5F 		.ascii	"num_channels\000"
 5013      6368616E 
 5013      6E656C73 
 5013      00
 5014              	.LASF196:
 5015 0619 6176675F 		.ascii	"avg_ch1\000"
 5015      63683100 
 5016              	.LASF201:
 5017 0621 41444344 		.ascii	"ADCD1\000"
 5017      3100
 5018              	.LASF106:
 5019 0627 6F666673 		.ascii	"offset\000"
 5019      657400
ARM GAS  /tmp/ccNKSpOC.s 			page 94


 5020              	.LASF101:
 5021 062e 444D415F 		.ascii	"DMA_Stream_TypeDef\000"
 5021      53747265 
 5021      616D5F54 
 5021      79706544 
 5021      656600
 5022              	.LASF30:
 5023 0641 74687265 		.ascii	"thread_t\000"
 5023      61645F74 
 5023      00
 5024              	.LASF2:
 5025 064a 6C6F6E67 		.ascii	"long double\000"
 5025      20646F75 
 5025      626C6500 
 5026              	.LASF48:
 5027 0656 74687265 		.ascii	"thread_reference_t\000"
 5027      61645F72 
 5027      65666572 
 5027      656E6365 
 5027      5F7400
 5028              	.LASF46:
 5029 0669 705F7265 		.ascii	"p_realprio\000"
 5029      616C7072 
 5029      696F00
 5030              	.LASF105:
 5031 0674 706F7274 		.ascii	"port_intctx\000"
 5031      5F696E74 
 5031      63747800 
 5032              	.LASF145:
 5033 0680 4144435F 		.ascii	"ADC_ACTIVE\000"
 5033      41435449 
 5033      564500
 5034              	.LASF67:
 5035 068b 76745F64 		.ascii	"vt_delta\000"
 5035      656C7461 
 5035      00
 5036              	.LASF64:
 5037 0694 63685F76 		.ascii	"ch_virtual_timer\000"
 5037      69727475 
 5037      616C5F74 
 5037      696D6572 
 5037      00
 5038              	.LASF117:
 5039 06a5 735F636E 		.ascii	"s_cnt\000"
 5039      7400
 5040              	.LASF127:
 5041 06ab 73656C66 		.ascii	"selfindex\000"
 5041      696E6465 
 5041      7800
 5042              	.LASF15:
 5043 06b5 6C6F6E67 		.ascii	"long long unsigned int\000"
 5043      206C6F6E 
 5043      6720756E 
 5043      7369676E 
 5043      65642069 
 5044              	.LASF36:
 5045 06cc 705F6F6C 		.ascii	"p_older\000"
ARM GAS  /tmp/ccNKSpOC.s 			page 95


 5045      64657200 
 5046              	.LASF17:
 5047 06d4 75696E74 		.ascii	"uint16_t\000"
 5047      31365F74 
 5047      00
 5048              	.LASF26:
 5049 06dd 6D73675F 		.ascii	"msg_t\000"
 5049      7400
 5050              	.LASF53:
 5051 06e3 63685F74 		.ascii	"ch_threads_queue\000"
 5051      68726561 
 5051      64735F71 
 5051      75657565 
 5051      00
 5052              	.LASF61:
 5053 06f4 725F6375 		.ascii	"r_current\000"
 5053      7272656E 
 5053      7400
 5054              	.LASF154:
 5055 06fe 41444344 		.ascii	"ADCDriver\000"
 5055      72697665 
 5055      7200
 5056              	.LASF139:
 5057 0708 41465248 		.ascii	"AFRH\000"
 5057      00
 5058              	.LASF138:
 5059 070d 4146524C 		.ascii	"AFRL\000"
 5059      00
 5060              	.LASF128:
 5061 0712 76656374 		.ascii	"vector\000"
 5061      6F7200
 5062              	.LASF152:
 5063 0719 4144435F 		.ascii	"ADC_ERR_OVERFLOW\000"
 5063      4552525F 
 5063      4F564552 
 5063      464C4F57 
 5063      00
 5064              	.LASF80:
 5065 072a 6D61696E 		.ascii	"mainthread\000"
 5065      74687265 
 5065      616400
 5066              	.LASF181:
 5067 0735 5F5F7365 		.ascii	"__set_BASEPRI\000"
 5067      745F4241 
 5067      53455052 
 5067      4900
 5068              	.LASF56:
 5069 0743 725F7175 		.ascii	"r_queue\000"
 5069      65756500 
 5070              	.LASF189:
 5071 074b 6F73616C 		.ascii	"osalSysEnable\000"
 5071      53797345 
 5071      6E61626C 
 5071      6500
 5072              	.LASF133:
 5073 0759 4F545950 		.ascii	"OTYPER\000"
 5073      455200
ARM GAS  /tmp/ccNKSpOC.s 			page 96


 5074              	.LASF78:
 5075 0760 726C6973 		.ascii	"rlist\000"
 5075      7400
 5076              	.LASF22:
 5077 0766 746D6F64 		.ascii	"tmode_t\000"
 5077      655F7400 
 5078              	.LASF176:
 5079 076e 64756D6D 		.ascii	"dummy\000"
 5079      7900
 5080              	.LASF143:
 5081 0774 4144435F 		.ascii	"ADC_STOP\000"
 5081      53544F50 
 5081      00
 5082              	.LASF159:
 5083 077d 67727070 		.ascii	"grpp\000"
 5083      00
 5084              	.LASF60:
 5085 0782 725F6F6C 		.ascii	"r_older\000"
 5085      64657200 
 5086              	.LASF107:
 5087 078a 746D5F63 		.ascii	"tm_calibration_t\000"
 5087      616C6962 
 5087      72617469 
 5087      6F6E5F74 
 5087      00
 5088              	.LASF160:
 5089 079b 74687265 		.ascii	"thread\000"
 5089      616400
 5090              	.LASF99:
 5091 07a2 4D304152 		.ascii	"M0AR\000"
 5091      00
 5092              	.LASF184:
 5093 07a7 6E616D65 		.ascii	"name\000"
 5093      00
 5094              	.LASF116:
 5095 07ac 735F7175 		.ascii	"s_queue\000"
 5095      65756500 
 5096              	.LASF7:
 5097 07b4 73686F72 		.ascii	"short int\000"
 5097      7420696E 
 5097      7400
 5098              	.LASF20:
 5099 07be 75696E74 		.ascii	"uint64_t\000"
 5099      36345F74 
 5099      00
 5100              	.LASF118:
 5101 07c7 63685F6D 		.ascii	"ch_mutex\000"
 5101      75746578 
 5101      00
 5102              	.LASF85:
 5103 07d0 4A4F4652 		.ascii	"JOFR1\000"
 5103      3100
 5104              	.LASF86:
 5105 07d6 4A4F4652 		.ascii	"JOFR2\000"
 5105      3200
 5106              	.LASF87:
 5107 07dc 4A4F4652 		.ascii	"JOFR3\000"
ARM GAS  /tmp/ccNKSpOC.s 			page 97


 5107      3300
 5108              	.LASF88:
 5109 07e2 4A4F4652 		.ascii	"JOFR4\000"
 5109      3400
 5110              	.LASF57:
 5111 07e8 725F7072 		.ascii	"r_prio\000"
 5111      696F00
 5112              	.LASF74:
 5113 07ef 63685F73 		.ascii	"ch_system_debug\000"
 5113      79737465 
 5113      6D5F6465 
 5113      62756700 
 5114              	.LASF136:
 5115 07ff 42535252 		.ascii	"BSRR\000"
 5115      00
 5116              	.LASF93:
 5117 0804 4A445231 		.ascii	"JDR1\000"
 5117      00
 5118              	.LASF94:
 5119 0809 4A445232 		.ascii	"JDR2\000"
 5119      00
 5120              	.LASF95:
 5121 080e 4A445233 		.ascii	"JDR3\000"
 5121      00
 5122              	.LASF96:
 5123 0813 4A445234 		.ascii	"JDR4\000"
 5123      00
 5124              	.LASF92:
 5125 0818 4A535152 		.ascii	"JSQR\000"
 5125      00
 5126              	.LASF79:
 5127 081d 76746C69 		.ascii	"vtlist\000"
 5127      737400
 5128              	.LASF123:
 5129 0824 6D757465 		.ascii	"mutex_t\000"
 5129      785F7400 
 5130              	.LASF24:
 5131 082c 74726566 		.ascii	"trefs_t\000"
 5131      735F7400 
 5132              	.LASF209:
 5133 0834 61646343 		.ascii	"adcConvert\000"
 5133      6F6E7665 
 5133      727400
 5134              	.LASF49:
 5135 083f 74687265 		.ascii	"threads_list_t\000"
 5135      6164735F 
 5135      6C697374 
 5135      5F7400
 5136              	.LASF77:
 5137 084e 63685F73 		.ascii	"ch_system\000"
 5137      79737465 
 5137      6D00
 5138              	.LASF205:
 5139 0858 63685379 		.ascii	"chSysInit\000"
 5139      73496E69 
 5139      7400
 5140              	.LASF19:
ARM GAS  /tmp/ccNKSpOC.s 			page 98


 5141 0862 75696E74 		.ascii	"uint32_t\000"
 5141      33325F74 
 5141      00
 5142              	.LASF191:
 5143 086b 6C63645F 		.ascii	"lcd_pulsen\000"
 5143      70756C73 
 5143      656E00
 5144              	.LASF108:
 5145 0876 7264796D 		.ascii	"rdymsg\000"
 5145      736700
 5146              	.LASF72:
 5147 087d 76745F6C 		.ascii	"vt_lasttime\000"
 5147      61737474 
 5147      696D6500 
 5148              	.LASF9:
 5149 0889 73686F72 		.ascii	"short unsigned int\000"
 5149      7420756E 
 5149      7369676E 
 5149      65642069 
 5149      6E7400
 5150              	.LASF142:
 5151 089c 4144435F 		.ascii	"ADC_UNINIT\000"
 5151      554E494E 
 5151      495400
 5152              	.LASF76:
 5153 08a7 63685F73 		.ascii	"ch_system_t\000"
 5153      79737465 
 5153      6D5F7400 
 5154              	.LASF206:
 5155 08b3 61646353 		.ascii	"adcStart\000"
 5155      74617274 
 5155      00
 5156              	.LASF10:
 5157 08bc 5F5F696E 		.ascii	"__int32_t\000"
 5157      7433325F 
 5157      7400
 5158              	.LASF98:
 5159 08c6 4E445452 		.ascii	"NDTR\000"
 5159      00
 5160              	.LASF125:
 5161 08cb 69666372 		.ascii	"ifcr\000"
 5161      00
 5162              	.LASF182:
 5163 08d0 63685265 		.ascii	"chRegSetThreadName\000"
 5163      67536574 
 5163      54687265 
 5163      61644E61 
 5163      6D6500
 5164              	.LASF37:
 5165 08e3 705F6E61 		.ascii	"p_name\000"
 5165      6D6500
 5166              	.LASF179:
 5167 08ea 706F7274 		.ascii	"port_enable\000"
 5167      5F656E61 
 5167      626C6500 
 5168              	.LASF186:
 5169 08f6 6C63645F 		.ascii	"lcd_send_nibble\000"
ARM GAS  /tmp/ccNKSpOC.s 			page 99


 5169      73656E64 
 5169      5F6E6962 
 5169      626C6500 
 5170              	.LASF121:
 5171 0906 6D5F6E65 		.ascii	"m_next\000"
 5171      787400
 5172              	.LASF199:
 5173 090d 77615468 		.ascii	"waThread1\000"
 5173      72656164 
 5173      3100
 5174              	.LASF43:
 5175 0917 705F6D73 		.ascii	"p_msg\000"
 5175      6700
 5176              	.LASF193:
 5177 091d 6C63645F 		.ascii	"lcd_sendByte\000"
 5177      73656E64 
 5177      42797465 
 5177      00
 5178              	.LASF177:
 5179 092a 41444343 		.ascii	"ADCConfig\000"
 5179      6F6E6669 
 5179      6700
 5180              	.LASF38:
 5181 0934 705F7374 		.ascii	"p_state\000"
 5181      61746500 
 5182              		.ident	"GCC: (Fedora 5.2.0-2.fc22) 5.2.0"
ARM GAS  /tmp/ccNKSpOC.s 			page 100


DEFINED SYMBOLS
                            *ABS*:0000000000000000 main.c
     /tmp/ccNKSpOC.s:22     .text.Thread1:0000000000000000 $t
     /tmp/ccNKSpOC.s:27     .text.Thread1:0000000000000000 Thread1
     /tmp/ccNKSpOC.s:78     .text.Thread1:0000000000000028 $d
     /tmp/ccNKSpOC.s:85     .text.lcd_setio:0000000000000000 $t
     /tmp/ccNKSpOC.s:91     .text.lcd_setio:0000000000000000 lcd_setio
     /tmp/ccNKSpOC.s:146    .text.lcd_setio:0000000000000048 $d
     /tmp/ccNKSpOC.s:152    .text.lcd_send_nibble:0000000000000000 $t
     /tmp/ccNKSpOC.s:158    .text.lcd_send_nibble:0000000000000000 lcd_send_nibble
     /tmp/ccNKSpOC.s:175    .text.lcd_send_nibble:0000000000000008 $d
     /tmp/ccNKSpOC.s:180    .text.lcd_pulsen:0000000000000000 $t
     /tmp/ccNKSpOC.s:186    .text.lcd_pulsen:0000000000000000 lcd_pulsen
     /tmp/ccNKSpOC.s:225    .text.lcd_pulsen:000000000000001c $d
     /tmp/ccNKSpOC.s:230    .text.lcd_sendByte:0000000000000000 $t
     /tmp/ccNKSpOC.s:236    .text.lcd_sendByte:0000000000000000 lcd_sendByte
     /tmp/ccNKSpOC.s:302    .text.lcd_sendByte:0000000000000020 $d
     /tmp/ccNKSpOC.s:307    .text.lcd_sendChar:0000000000000000 $t
     /tmp/ccNKSpOC.s:313    .text.lcd_sendChar:0000000000000000 lcd_sendChar
     /tmp/ccNKSpOC.s:343    .text.lcd_sendChar:0000000000000018 $d
     /tmp/ccNKSpOC.s:348    .text.lcd_cmd:0000000000000000 $t
     /tmp/ccNKSpOC.s:354    .text.lcd_cmd:0000000000000000 lcd_cmd
     /tmp/ccNKSpOC.s:385    .text.lcd_cmd:0000000000000018 $d
     /tmp/ccNKSpOC.s:390    .text.lcd_init:0000000000000000 $t
     /tmp/ccNKSpOC.s:396    .text.lcd_init:0000000000000000 lcd_init
     /tmp/ccNKSpOC.s:544    .text.lcd_init:000000000000008c $d
     /tmp/ccNKSpOC.s:549    .text.lcd_printf:0000000000000000 $t
     /tmp/ccNKSpOC.s:555    .text.lcd_printf:0000000000000000 lcd_printf
     /tmp/ccNKSpOC.s:607    .text.lcd_printf:0000000000000028 $d
     /tmp/ccNKSpOC.s:612    .text.startup.main:0000000000000000 $t
     /tmp/ccNKSpOC.s:618    .text.startup.main:0000000000000000 main
     /tmp/ccNKSpOC.s:847    .text.startup.main:00000000000000e4 $d
     /tmp/ccNKSpOC.s:861    .bss.waThread1:0000000000000000 $d
     /tmp/ccNKSpOC.s:865    .bss.waThread1:0000000000000000 waThread1
     /tmp/ccNKSpOC.s:868    .rodata.str1.4:0000000000000000 $d
     /tmp/ccNKSpOC.s:874    .rodata.adcgrpcfg1:0000000000000000 $d
     /tmp/ccNKSpOC.s:878    .rodata.adcgrpcfg1:0000000000000000 adcgrpcfg1
     /tmp/ccNKSpOC.s:892    .bss.samples1:0000000000000000 $d
     /tmp/ccNKSpOC.s:896    .bss.samples1:0000000000000000 samples1
                     .debug_frame:0000000000000010 $d
     /tmp/ccNKSpOC.s:84     .text.Thread1:0000000000000034 $t
     /tmp/ccNKSpOC.s:179    .text.lcd_send_nibble:000000000000000c $t
     /tmp/ccNKSpOC.s:306    .text.lcd_sendByte:0000000000000024 $t
     /tmp/ccNKSpOC.s:347    .text.lcd_sendChar:000000000000001c $t
     /tmp/ccNKSpOC.s:389    .text.lcd_cmd:000000000000001c $t
     /tmp/ccNKSpOC.s:611    .text.lcd_printf:000000000000002c $t
     /tmp/ccNKSpOC.s:5182   .text.startup.main:0000000000000104 $t

UNDEFINED SYMBOLS
chThdSleep
ch
_pal_lld_setgroupmode
halInit
chSysInit
adcStart
adcSTM32EnableTSVREFE
chThdCreateStatic
ARM GAS  /tmp/ccNKSpOC.s 			page 101


adcConvert
ADCD1
