ARM GAS  /tmp/ccNKSpOC.s 			page 1


   1              		.syntax unified
   2              		.cpu cortex-m4
   3              		.eabi_attribute 27, 1
   4              		.eabi_attribute 28, 1
   5              		.fpu fpv4-sp-d16
   6              		.eabi_attribute 20, 1
   7              		.eabi_attribute 21, 1
   8              		.eabi_attribute 23, 3
   9              		.eabi_attribute 24, 1
  10              		.eabi_attribute 25, 1
  11              		.eabi_attribute 26, 1
  12              		.eabi_attribute 30, 2
  13              		.eabi_attribute 34, 1
  14              		.eabi_attribute 18, 4
  15              		.thumb
  16              		.syntax unified
  17              		.file	"main.c"
  18              		.text
  19              	.Ltext0:
  20              		.cfi_sections	.debug_frame
  21              		.section	.text.Thread1,"ax",%progbits
  22              		.align	2
  23              		.p2align 4,,15
  24              		.thumb
  25              		.thumb_func
  26              		.type	Thread1, %function
  27              	Thread1:
  28              	.LFB268:
  29              		.file 1 "main.c"
  30              		.loc 1 60 0
  31              		.cfi_startproc
  32              		@ Volatile: function does not return.
  33              		@ args = 0, pretend = 0, frame = 0
  34              		@ frame_needed = 0, uses_anonymous_args = 0
  35              	.LVL0:
  36 0000 08B5     		push	{r3, lr}
  37              		.cfi_def_cfa_offset 8
  38              		.cfi_offset 3, -8
  39              		.cfi_offset 14, -4
  40              	.LBB58:
  41              	.LBB59:
  42              		.file 2 "../../os/rt/include/chregistry.h"
  43              		.loc 2 135 0
  44 0002 094B     		ldr	r3, .L5
  45 0004 094A     		ldr	r2, .L5+4
  46 0006 9B69     		ldr	r3, [r3, #24]
  47              	.LBE59:
  48              	.LBE58:
  49              		.loc 1 65 0
  50 0008 094C     		ldr	r4, .L5+8
  51              	.LBB61:
  52              	.LBB60:
  53              		.loc 2 135 0
  54 000a 9A61     		str	r2, [r3, #24]
  55              	.LBE60:
  56              	.LBE61:
  57              		.loc 1 65 0
ARM GAS  /tmp/ccNKSpOC.s 			page 2


  58 000c 4FF40055 		mov	r5, #8192
  59 0010 2E46     		mov	r6, r5	@ movhi
  60              	.LVL1:
  61              	.L2:
  62              		.loc 1 65 0 is_stmt 0 discriminator 1
  63 0012 2683     		strh	r6, [r4, #24]	@ movhi
  64              		.loc 1 66 0 is_stmt 1 discriminator 1
  65 0014 42F21070 		movw	r0, #10000
  66 0018 FFF7FEFF 		bl	chThdSleep
  67              	.LVL2:
  68              		.loc 1 67 0 discriminator 1
  69 001c 6583     		strh	r5, [r4, #26]	@ movhi
  70              		.loc 1 68 0 discriminator 1
  71 001e 42F21070 		movw	r0, #10000
  72 0022 FFF7FEFF 		bl	chThdSleep
  73              	.LVL3:
  74 0026 F4E7     		b	.L2
  75              	.L6:
  76              		.align	2
  77              	.L5:
  78 0028 00000000 		.word	ch
  79 002c 00000000 		.word	.LC0
  80 0030 00080240 		.word	1073874944
  81              		.cfi_endproc
  82              	.LFE268:
  83              		.size	Thread1, .-Thread1
  84 0034 AFF30080 		.section	.text.lcd_setio,"ax",%progbits
  84      AFF30080 
  84      AFF30080 
  85              		.align	2
  86              		.p2align 4,,15
  87              		.global	lcd_setio
  88              		.thumb
  89              		.thumb_func
  90              		.type	lcd_setio, %function
  91              	lcd_setio:
  92              	.LFB260:
  93              		.file 3 "lcd.c"
  94              		.loc 3 23 0
  95              		.cfi_startproc
  96              		@ args = 0, pretend = 0, frame = 0
  97              		@ frame_needed = 0, uses_anonymous_args = 0
  98 0000 10B5     		push	{r4, lr}
  99              		.cfi_def_cfa_offset 8
 100              		.cfi_offset 4, -8
 101              		.cfi_offset 14, -4
 102              		.loc 3 25 0
 103 0002 114C     		ldr	r4, .L9
 104 0004 0122     		movs	r2, #1
 105 0006 1146     		mov	r1, r2
 106 0008 2046     		mov	r0, r4
 107 000a FFF7FEFF 		bl	_pal_lld_setgroupmode
 108              	.LVL4:
 109              		.loc 3 26 0
 110 000e 0122     		movs	r2, #1
 111 0010 2021     		movs	r1, #32
 112 0012 0E48     		ldr	r0, .L9+4
ARM GAS  /tmp/ccNKSpOC.s 			page 3


 113 0014 FFF7FEFF 		bl	_pal_lld_setgroupmode
 114              	.LVL5:
 115              		.loc 3 28 0
 116 0018 2046     		mov	r0, r4
 117 001a 0122     		movs	r2, #1
 118 001c 0221     		movs	r1, #2
 119 001e FFF7FEFF 		bl	_pal_lld_setgroupmode
 120              	.LVL6:
 121              		.loc 3 29 0
 122 0022 2046     		mov	r0, r4
 123 0024 0122     		movs	r2, #1
 124 0026 0421     		movs	r1, #4
 125 0028 FFF7FEFF 		bl	_pal_lld_setgroupmode
 126              	.LVL7:
 127              		.loc 3 30 0
 128 002c 2046     		mov	r0, r4
 129 002e 0122     		movs	r2, #1
 130 0030 0821     		movs	r1, #8
 131 0032 FFF7FEFF 		bl	_pal_lld_setgroupmode
 132              	.LVL8:
 133              		.loc 3 31 0
 134 0036 2046     		mov	r0, r4
 135 0038 0122     		movs	r2, #1
 136 003a 1021     		movs	r1, #16
 137 003c FFF7FEFF 		bl	_pal_lld_setgroupmode
 138              	.LVL9:
 139              		.loc 3 33 0
 140 0040 0023     		movs	r3, #0
 141 0042 6361     		str	r3, [r4, #20]
 142 0044 10BD     		pop	{r4, pc}
 143              	.L10:
 144 0046 00BF     		.align	2
 145              	.L9:
 146 0048 00100240 		.word	1073876992
 147 004c 00040240 		.word	1073873920
 148              		.cfi_endproc
 149              	.LFE260:
 150              		.size	lcd_setio, .-lcd_setio
 151              		.section	.text.lcd_send_nibble,"ax",%progbits
 152              		.align	2
 153              		.p2align 4,,15
 154              		.global	lcd_send_nibble
 155              		.thumb
 156              		.thumb_func
 157              		.type	lcd_send_nibble, %function
 158              	lcd_send_nibble:
 159              	.LFB261:
 160              		.loc 3 39 0
 161              		.cfi_startproc
 162              		@ args = 0, pretend = 0, frame = 0
 163              		@ frame_needed = 0, uses_anonymous_args = 0
 164              		@ link register save eliminated.
 165              	.LVL10:
 166              		.loc 3 40 0
 167 0000 014B     		ldr	r3, .L12
 168 0002 4000     		lsls	r0, r0, #1
 169              	.LVL11:
ARM GAS  /tmp/ccNKSpOC.s 			page 4


 170 0004 5861     		str	r0, [r3, #20]
 171 0006 7047     		bx	lr
 172              	.L13:
 173              		.align	2
 174              	.L12:
 175 0008 00100240 		.word	1073876992
 176              		.cfi_endproc
 177              	.LFE261:
 178              		.size	lcd_send_nibble, .-lcd_send_nibble
 179 000c AFF30080 		.section	.text.lcd_pulsen,"ax",%progbits
 180              		.align	2
 181              		.p2align 4,,15
 182              		.global	lcd_pulsen
 183              		.thumb
 184              		.thumb_func
 185              		.type	lcd_pulsen, %function
 186              	lcd_pulsen:
 187              	.LFB262:
 188              		.loc 3 45 0
 189              		.cfi_startproc
 190              		@ args = 0, pretend = 0, frame = 0
 191              		@ frame_needed = 0, uses_anonymous_args = 0
 192 0000 38B5     		push	{r3, r4, r5, lr}
 193              		.cfi_def_cfa_offset 16
 194              		.cfi_offset 3, -16
 195              		.cfi_offset 4, -12
 196              		.cfi_offset 5, -8
 197              		.cfi_offset 14, -4
 198              		.loc 3 48 0
 199 0002 064D     		ldr	r5, .L16
 200 0004 0124     		movs	r4, #1
 201              		.loc 3 49 0
 202 0006 2046     		mov	r0, r4
 203              		.loc 3 48 0
 204 0008 2C83     		strh	r4, [r5, #24]	@ movhi
 205              		.loc 3 49 0
 206 000a FFF7FEFF 		bl	chThdSleep
 207              	.LVL12:
 208              		.loc 3 50 0
 209 000e 6C83     		strh	r4, [r5, #26]	@ movhi
 210              		.loc 3 51 0
 211 0010 2046     		mov	r0, r4
 212              		.loc 3 53 0
 213 0012 BDE83840 		pop	{r3, r4, r5, lr}
 214              		.cfi_restore 14
 215              		.cfi_restore 5
 216              		.cfi_restore 4
 217              		.cfi_restore 3
 218              		.cfi_def_cfa_offset 0
 219              		.loc 3 51 0
 220 0016 FFF7FEBF 		b	chThdSleep
 221              	.LVL13:
 222              	.L17:
 223 001a 00BF     		.align	2
 224              	.L16:
 225 001c 00100240 		.word	1073876992
 226              		.cfi_endproc
ARM GAS  /tmp/ccNKSpOC.s 			page 5


 227              	.LFE262:
 228              		.size	lcd_pulsen, .-lcd_pulsen
 229              		.section	.text.lcd_sendByte,"ax",%progbits
 230              		.align	2
 231              		.p2align 4,,15
 232              		.global	lcd_sendByte
 233              		.thumb
 234              		.thumb_func
 235              		.type	lcd_sendByte, %function
 236              	lcd_sendByte:
 237              	.LFB263:
 238              		.loc 3 54 0
 239              		.cfi_startproc
 240              		@ args = 0, pretend = 0, frame = 0
 241              		@ frame_needed = 0, uses_anonymous_args = 0
 242              	.LVL14:
 243 0000 38B5     		push	{r3, r4, r5, lr}
 244              		.cfi_def_cfa_offset 16
 245              		.cfi_offset 3, -16
 246              		.cfi_offset 4, -12
 247              		.cfi_offset 5, -8
 248              		.cfi_offset 14, -4
 249              	.LBB62:
 250              	.LBB63:
 251              		.loc 3 40 0
 252 0002 074D     		ldr	r5, .L20
 253              	.LBE63:
 254              	.LBE62:
 255              		.loc 3 54 0
 256 0004 0446     		mov	r4, r0
 257              	.LVL15:
 258              	.LBB66:
 259              	.LBB64:
 260              		.loc 3 40 0
 261 0006 0309     		lsrs	r3, r0, #4
 262 0008 5B00     		lsls	r3, r3, #1
 263              	.LBE64:
 264              	.LBE66:
 265              	.LBB67:
 266              	.LBB68:
 267 000a 04F00F04 		and	r4, r4, #15
 268              	.LBE68:
 269              	.LBE67:
 270              	.LBB71:
 271              	.LBB65:
 272 000e 6B61     		str	r3, [r5, #20]
 273              	.LBE65:
 274              	.LBE71:
 275              	.LBB72:
 276              	.LBB69:
 277 0010 6400     		lsls	r4, r4, #1
 278              	.LBE69:
 279              	.LBE72:
 280              		.loc 3 60 0
 281 0012 FFF7FEFF 		bl	lcd_pulsen
 282              	.LVL16:
 283              	.LBB73:
ARM GAS  /tmp/ccNKSpOC.s 			page 6


 284              	.LBB70:
 285              		.loc 3 40 0
 286 0016 6C61     		str	r4, [r5, #20]
 287              	.LBE70:
 288              	.LBE73:
 289              		.loc 3 67 0
 290 0018 BDE83840 		pop	{r3, r4, r5, lr}
 291              		.cfi_restore 14
 292              		.cfi_restore 5
 293              		.cfi_restore 4
 294              		.cfi_restore 3
 295              		.cfi_def_cfa_offset 0
 296              		.loc 3 65 0
 297 001c FFF7FEBF 		b	lcd_pulsen
 298              	.LVL17:
 299              	.L21:
 300              		.align	2
 301              	.L20:
 302 0020 00100240 		.word	1073876992
 303              		.cfi_endproc
 304              	.LFE263:
 305              		.size	lcd_sendByte, .-lcd_sendByte
 306 0024 AFF30080 		.section	.text.lcd_sendChar,"ax",%progbits
 306      AFF30080 
 306      AFF30080 
 307              		.align	2
 308              		.p2align 4,,15
 309              		.global	lcd_sendChar
 310              		.thumb
 311              		.thumb_func
 312              		.type	lcd_sendChar, %function
 313              	lcd_sendChar:
 314              	.LFB264:
 315              		.loc 3 69 0
 316              		.cfi_startproc
 317              		@ args = 0, pretend = 0, frame = 0
 318              		@ frame_needed = 0, uses_anonymous_args = 0
 319              	.LVL18:
 320 0000 38B5     		push	{r3, r4, r5, lr}
 321              		.cfi_def_cfa_offset 16
 322              		.cfi_offset 3, -16
 323              		.cfi_offset 4, -12
 324              		.cfi_offset 5, -8
 325              		.cfi_offset 14, -4
 326              		.loc 3 71 0
 327 0002 054C     		ldr	r4, .L24
 328 0004 2025     		movs	r5, #32
 329 0006 2583     		strh	r5, [r4, #24]	@ movhi
 330              		.loc 3 72 0
 331 0008 FFF7FEFF 		bl	lcd_sendByte
 332              	.LVL19:
 333              		.loc 3 73 0
 334 000c 0120     		movs	r0, #1
 335 000e FFF7FEFF 		bl	chThdSleep
 336              	.LVL20:
 337              		.loc 3 74 0
 338 0012 6583     		strh	r5, [r4, #26]	@ movhi
ARM GAS  /tmp/ccNKSpOC.s 			page 7


 339 0014 38BD     		pop	{r3, r4, r5, pc}
 340              	.L25:
 341 0016 00BF     		.align	2
 342              	.L24:
 343 0018 00040240 		.word	1073873920
 344              		.cfi_endproc
 345              	.LFE264:
 346              		.size	lcd_sendChar, .-lcd_sendChar
 347 001c AFF30080 		.section	.text.lcd_cmd,"ax",%progbits
 348              		.align	2
 349              		.p2align 4,,15
 350              		.global	lcd_cmd
 351              		.thumb
 352              		.thumb_func
 353              		.type	lcd_cmd, %function
 354              	lcd_cmd:
 355              	.LFB265:
 356              		.loc 3 77 0
 357              		.cfi_startproc
 358              		@ args = 0, pretend = 0, frame = 0
 359              		@ frame_needed = 0, uses_anonymous_args = 0
 360              	.LVL21:
 361 0000 08B5     		push	{r3, lr}
 362              		.cfi_def_cfa_offset 8
 363              		.cfi_offset 3, -8
 364              		.cfi_offset 14, -4
 365              		.loc 3 79 0
 366 0002 054B     		ldr	r3, .L28
 367 0004 2022     		movs	r2, #32
 368 0006 5A83     		strh	r2, [r3, #26]	@ movhi
 369              		.loc 3 80 0
 370 0008 FFF7FEFF 		bl	lcd_sendByte
 371              	.LVL22:
 372              		.loc 3 81 0
 373 000c 0120     		movs	r0, #1
 374              		.loc 3 82 0
 375 000e BDE80840 		pop	{r3, lr}
 376              		.cfi_restore 14
 377              		.cfi_restore 3
 378              		.cfi_def_cfa_offset 0
 379              		.loc 3 81 0
 380 0012 FFF7FEBF 		b	chThdSleep
 381              	.LVL23:
 382              	.L29:
 383 0016 00BF     		.align	2
 384              	.L28:
 385 0018 00040240 		.word	1073873920
 386              		.cfi_endproc
 387              	.LFE265:
 388              		.size	lcd_cmd, .-lcd_cmd
 389 001c AFF30080 		.section	.text.lcd_init,"ax",%progbits
 390              		.align	2
 391              		.p2align 4,,15
 392              		.global	lcd_init
 393              		.thumb
 394              		.thumb_func
 395              		.type	lcd_init, %function
ARM GAS  /tmp/ccNKSpOC.s 			page 8


 396              	lcd_init:
 397              	.LFB266:
 398              		.loc 3 86 0
 399              		.cfi_startproc
 400              		@ args = 0, pretend = 0, frame = 0
 401              		@ frame_needed = 0, uses_anonymous_args = 0
 402 0000 38B5     		push	{r3, r4, r5, lr}
 403              		.cfi_def_cfa_offset 16
 404              		.cfi_offset 3, -16
 405              		.cfi_offset 4, -12
 406              		.cfi_offset 5, -8
 407              		.cfi_offset 14, -4
 408              	.LBB74:
 409              	.LBB75:
 410              		.loc 3 79 0
 411 0002 224C     		ldr	r4, .L32
 412 0004 2025     		movs	r5, #32
 413              	.LBE75:
 414              	.LBE74:
 415              		.loc 3 87 0
 416 0006 4FF47A70 		mov	r0, #1000
 417 000a FFF7FEFF 		bl	chThdSleep
 418              	.LVL24:
 419              	.LBB77:
 420              	.LBB76:
 421              		.loc 3 79 0
 422 000e 6583     		strh	r5, [r4, #26]	@ movhi
 423              		.loc 3 80 0
 424 0010 3320     		movs	r0, #51
 425 0012 FFF7FEFF 		bl	lcd_sendByte
 426              	.LVL25:
 427              		.loc 3 81 0
 428 0016 0120     		movs	r0, #1
 429 0018 FFF7FEFF 		bl	chThdSleep
 430              	.LVL26:
 431              	.LBE76:
 432              	.LBE77:
 433              		.loc 3 89 0
 434 001c 3220     		movs	r0, #50
 435 001e FFF7FEFF 		bl	chThdSleep
 436              	.LVL27:
 437              	.LBB78:
 438              	.LBB79:
 439              		.loc 3 79 0
 440 0022 6583     		strh	r5, [r4, #26]	@ movhi
 441              		.loc 3 80 0
 442 0024 3220     		movs	r0, #50
 443 0026 FFF7FEFF 		bl	lcd_sendByte
 444              	.LVL28:
 445              		.loc 3 81 0
 446 002a 0120     		movs	r0, #1
 447 002c FFF7FEFF 		bl	chThdSleep
 448              	.LVL29:
 449              	.LBE79:
 450              	.LBE78:
 451              		.loc 3 91 0
 452 0030 3220     		movs	r0, #50
ARM GAS  /tmp/ccNKSpOC.s 			page 9


 453 0032 FFF7FEFF 		bl	chThdSleep
 454              	.LVL30:
 455              	.LBB80:
 456              	.LBB81:
 457              		.loc 3 79 0
 458 0036 6583     		strh	r5, [r4, #26]	@ movhi
 459              		.loc 3 80 0
 460 0038 2820     		movs	r0, #40
 461 003a FFF7FEFF 		bl	lcd_sendByte
 462              	.LVL31:
 463              		.loc 3 81 0
 464 003e 0120     		movs	r0, #1
 465 0040 FFF7FEFF 		bl	chThdSleep
 466              	.LVL32:
 467              	.LBE81:
 468              	.LBE80:
 469              	.LBB82:
 470              	.LBB83:
 471              		.loc 3 79 0
 472 0044 6583     		strh	r5, [r4, #26]	@ movhi
 473              		.loc 3 80 0
 474 0046 0820     		movs	r0, #8
 475 0048 FFF7FEFF 		bl	lcd_sendByte
 476              	.LVL33:
 477              		.loc 3 81 0
 478 004c 0120     		movs	r0, #1
 479 004e FFF7FEFF 		bl	chThdSleep
 480              	.LVL34:
 481              	.LBE83:
 482              	.LBE82:
 483              	.LBB84:
 484              	.LBB85:
 485              		.loc 3 79 0
 486 0052 6583     		strh	r5, [r4, #26]	@ movhi
 487              		.loc 3 80 0
 488 0054 0120     		movs	r0, #1
 489 0056 FFF7FEFF 		bl	lcd_sendByte
 490              	.LVL35:
 491              		.loc 3 81 0
 492 005a 0120     		movs	r0, #1
 493 005c FFF7FEFF 		bl	chThdSleep
 494              	.LVL36:
 495              	.LBE85:
 496              	.LBE84:
 497              		.loc 3 95 0
 498 0060 1E20     		movs	r0, #30
 499 0062 FFF7FEFF 		bl	chThdSleep
 500              	.LVL37:
 501              	.LBB86:
 502              	.LBB87:
 503              		.loc 3 79 0
 504 0066 6583     		strh	r5, [r4, #26]	@ movhi
 505              		.loc 3 80 0
 506 0068 0620     		movs	r0, #6
 507 006a FFF7FEFF 		bl	lcd_sendByte
 508              	.LVL38:
 509              		.loc 3 81 0
ARM GAS  /tmp/ccNKSpOC.s 			page 10


 510 006e 0120     		movs	r0, #1
 511 0070 FFF7FEFF 		bl	chThdSleep
 512              	.LVL39:
 513              	.LBE87:
 514              	.LBE86:
 515              	.LBB88:
 516              	.LBB89:
 517              		.loc 3 79 0
 518 0074 6583     		strh	r5, [r4, #26]	@ movhi
 519              		.loc 3 80 0
 520 0076 0F20     		movs	r0, #15
 521 0078 FFF7FEFF 		bl	lcd_sendByte
 522              	.LVL40:
 523              		.loc 3 81 0
 524 007c 0120     		movs	r0, #1
 525 007e FFF7FEFF 		bl	chThdSleep
 526              	.LVL41:
 527              	.LBE89:
 528              	.LBE88:
 529              		.loc 3 100 0
 530 0082 3220     		movs	r0, #50
 531              		.loc 3 101 0
 532 0084 BDE83840 		pop	{r3, r4, r5, lr}
 533              		.cfi_restore 14
 534              		.cfi_restore 5
 535              		.cfi_restore 4
 536              		.cfi_restore 3
 537              		.cfi_def_cfa_offset 0
 538              		.loc 3 100 0
 539 0088 FFF7FEBF 		b	chThdSleep
 540              	.LVL42:
 541              	.L33:
 542              		.align	2
 543              	.L32:
 544 008c 00040240 		.word	1073873920
 545              		.cfi_endproc
 546              	.LFE266:
 547              		.size	lcd_init, .-lcd_init
 548              		.section	.text.lcd_printf,"ax",%progbits
 549              		.align	2
 550              		.p2align 4,,15
 551              		.global	lcd_printf
 552              		.thumb
 553              		.thumb_func
 554              		.type	lcd_printf, %function
 555              	lcd_printf:
 556              	.LFB267:
 557              		.loc 3 105 0
 558              		.cfi_startproc
 559              		@ args = 0, pretend = 0, frame = 0
 560              		@ frame_needed = 0, uses_anonymous_args = 0
 561              	.LVL43:
 562 0000 F8B5     		push	{r3, r4, r5, r6, r7, lr}
 563              		.cfi_def_cfa_offset 24
 564              		.cfi_offset 3, -24
 565              		.cfi_offset 4, -20
 566              		.cfi_offset 5, -16
ARM GAS  /tmp/ccNKSpOC.s 			page 11


 567              		.cfi_offset 6, -12
 568              		.cfi_offset 7, -8
 569              		.cfi_offset 14, -4
 570              		.loc 3 105 0
 571 0002 0446     		mov	r4, r0
 572              		.loc 3 106 0
 573 0004 0078     		ldrb	r0, [r0]	@ zero_extendqisi2
 574              	.LVL44:
 575 0006 68B1     		cbz	r0, .L34
 576              	.LBB90:
 577              	.LBB91:
 578              		.loc 3 71 0
 579 0008 2026     		movs	r6, #32
 580 000a 074D     		ldr	r5, .L40
 581 000c 3746     		mov	r7, r6	@ movhi
 582              	.LVL45:
 583              	.L36:
 584 000e 2F83     		strh	r7, [r5, #24]	@ movhi
 585              		.loc 3 72 0
 586 0010 FFF7FEFF 		bl	lcd_sendByte
 587              	.LVL46:
 588              		.loc 3 73 0
 589 0014 0120     		movs	r0, #1
 590 0016 FFF7FEFF 		bl	chThdSleep
 591              	.LVL47:
 592              		.loc 3 74 0
 593 001a 6E83     		strh	r6, [r5, #26]	@ movhi
 594              	.LBE91:
 595              	.LBE90:
 596              		.loc 3 106 0
 597 001c 14F8010F 		ldrb	r0, [r4, #1]!	@ zero_extendqisi2
 598              	.LVL48:
 599 0020 0028     		cmp	r0, #0
 600 0022 F4D1     		bne	.L36
 601              	.LVL49:
 602              	.L34:
 603 0024 F8BD     		pop	{r3, r4, r5, r6, r7, pc}
 604              	.L41:
 605 0026 00BF     		.align	2
 606              	.L40:
 607 0028 00040240 		.word	1073873920
 608              		.cfi_endproc
 609              	.LFE267:
 610              		.size	lcd_printf, .-lcd_printf
 611 002c AFF30080 		.section	.text.startup.main,"ax",%progbits
 612              		.align	2
 613              		.p2align 4,,15
 614              		.global	main
 615              		.thumb
 616              		.thumb_func
 617              		.type	main, %function
 618              	main:
 619              	.LFB269:
 620              		.loc 1 76 0
 621              		.cfi_startproc
 622              		@ args = 0, pretend = 0, frame = 0
 623              		@ frame_needed = 0, uses_anonymous_args = 0
ARM GAS  /tmp/ccNKSpOC.s 			page 12


 624 0000 2DE9F047 		push	{r4, r5, r6, r7, r8, r9, r10, lr}
 625              		.cfi_def_cfa_offset 32
 626              		.cfi_offset 4, -32
 627              		.cfi_offset 5, -28
 628              		.cfi_offset 6, -24
 629              		.cfi_offset 7, -20
 630              		.cfi_offset 8, -16
 631              		.cfi_offset 9, -12
 632              		.cfi_offset 10, -8
 633              		.cfi_offset 14, -4
 634 0004 82B0     		sub	sp, sp, #8
 635              		.cfi_def_cfa_offset 40
 636              		.loc 1 85 0
 637 0006 FFF7FEFF 		bl	halInit
 638              	.LVL50:
 639              	.LBB92:
 640              	.LBB93:
 641              	.LBB94:
 642              	.LBB95:
 643              	.LBB96:
 644              		.file 4 "../../os/ext/CMSIS/include/core_cmFunc.h"
 645              		.loc 4 546 0
 646 000a 0024     		movs	r4, #0
 647              	.LBE96:
 648              	.LBE95:
 649              	.LBE94:
 650              	.LBE93:
 651              	.LBE92:
 652              		.loc 1 86 0
 653 000c FFF7FEFF 		bl	chSysInit
 654              	.LVL51:
 655              	.LBB103:
 656              	.LBB102:
 657              	.LBB101:
 658              	.LBB98:
 659              	.LBB97:
 660              		.loc 4 546 0
 661              		.syntax unified
 662              	@ 546 "../../os/ext/CMSIS/include/core_cmFunc.h" 1
 663 0010 84F31188 		MSR basepri, r4
 664              	@ 0 "" 2
 665              		.thumb
 666              		.syntax unified
 667              	.LBE97:
 668              	.LBE98:
 669              	.LBB99:
 670              	.LBB100:
 671              		.loc 4 331 0
 672              		.syntax unified
 673              	@ 331 "../../os/ext/CMSIS/include/core_cmFunc.h" 1
 674 0014 62B6     		cpsie i
 675              	@ 0 "" 2
 676              		.thumb
 677              		.syntax unified
 678              	.LBE100:
 679              	.LBE99:
 680              	.LBE101:
ARM GAS  /tmp/ccNKSpOC.s 			page 13


 681              	.LBE102:
 682              	.LBE103:
 683              		.loc 1 89 0
 684 0016 0122     		movs	r2, #1
 685 0018 4FF40051 		mov	r1, #8192
 686 001c 3148     		ldr	r0, .L47
 687              	.LBB104:
 688              	.LBB105:
 689              	.LBB106:
 690              		.loc 3 79 0
 691 001e 324F     		ldr	r7, .L47+4
 692 0020 DFF8D4A0 		ldr	r10, .L47+20
 693              	.LBE106:
 694              	.LBE105:
 695              	.LBE104:
 696              		.loc 1 89 0
 697 0024 FFF7FEFF 		bl	_pal_lld_setgroupmode
 698              	.LVL52:
 699              		.loc 1 91 0
 700 0028 FFF7FEFF 		bl	lcd_setio
 701              	.LVL53:
 702              		.loc 1 92 0
 703 002c FFF7FEFF 		bl	lcd_init
 704              	.LVL54:
 705              		.loc 1 99 0
 706 0030 2146     		mov	r1, r4
 707 0032 2E48     		ldr	r0, .L47+8
 708 0034 FFF7FEFF 		bl	adcStart
 709              	.LVL55:
 710              		.loc 1 100 0
 711 0038 FFF7FEFF 		bl	adcSTM32EnableTSVREFE
 712              	.LVL56:
 713              		.loc 1 101 0
 714 003c 0322     		movs	r2, #3
 715 003e 0121     		movs	r1, #1
 716 0040 2848     		ldr	r0, .L47
 717 0042 FFF7FEFF 		bl	_pal_lld_setgroupmode
 718              	.LVL57:
 719              		.loc 1 108 0
 720 0046 0094     		str	r4, [sp]
 721 0048 294B     		ldr	r3, .L47+12
 722 004a 2A48     		ldr	r0, .L47+16
 723 004c 4022     		movs	r2, #64
 724 004e 4FF4E871 		mov	r1, #464
 725 0052 FFF7FEFF 		bl	chThdCreateStatic
 726              	.LVL58:
 727              	.LBB113:
 728              	.LBB110:
 729              	.LBB107:
 730              		.loc 3 79 0
 731 0056 B946     		mov	r9, r7
 732              	.L44:
 733              	.LBE107:
 734              	.LBE110:
 735              	.LBE113:
 736              		.loc 1 118 0
 737 0058 0423     		movs	r3, #4
ARM GAS  /tmp/ccNKSpOC.s 			page 14


 738 005a 274A     		ldr	r2, .L47+20
 739 005c 2749     		ldr	r1, .L47+24
 740 005e 2348     		ldr	r0, .L47+8
 741 0060 FFF7FEFF 		bl	adcConvert
 742              	.LVL59:
 743              		.loc 1 121 0
 744 0064 BAF80080 		ldrh	r8, [r10]
 745 0068 BAF80210 		ldrh	r1, [r10, #2]
 746 006c BAF80420 		ldrh	r2, [r10, #4]
 747 0070 BAF80630 		ldrh	r3, [r10, #6]
 748              		.loc 1 129 0
 749 0074 2248     		ldr	r0, .L47+28
 750              		.loc 1 121 0
 751 0076 8844     		add	r8, r8, r1
 752 0078 9044     		add	r8, r8, r2
 753 007a 9844     		add	r8, r8, r3
 754              		.loc 1 129 0
 755 007c FFF7FEFF 		bl	lcd_printf
 756              	.LVL60:
 757              		.loc 1 121 0
 758 0080 4FEAA808 		asr	r8, r8, #2
 759              	.LVL61:
 760              		.loc 1 129 0
 761 0084 1A24     		movs	r4, #26
 762              	.LBB114:
 763              	.LBB111:
 764              	.LBB108:
 765              		.loc 3 79 0
 766 0086 4FF02006 		mov	r6, #32	@ movhi
 767              	.LVL62:
 768              	.L43:
 769              		.loc 3 80 0
 770 008a 1420     		movs	r0, #20
 771              		.loc 3 79 0
 772 008c 7E83     		strh	r6, [r7, #26]	@ movhi
 773              		.loc 3 80 0
 774 008e FFF7FEFF 		bl	lcd_sendByte
 775              	.LVL63:
 776              		.loc 3 81 0
 777 0092 0120     		movs	r0, #1
 778 0094 FFF7FEFF 		bl	chThdSleep
 779              	.LVL64:
 780 0098 631E     		subs	r3, r4, #1
 781              	.LBE108:
 782              	.LBE111:
 783              		.loc 1 131 0
 784 009a 13F0FF04 		ands	r4, r3, #255
 785              	.LVL65:
 786              	.LBB112:
 787              	.LBB109:
 788              		.loc 3 79 0
 789 009e 4FF02005 		mov	r5, #32
 790              	.LBE109:
 791              	.LBE112:
 792              		.loc 1 131 0
 793 00a2 F2D1     		bne	.L43
 794              	.LVL66:
ARM GAS  /tmp/ccNKSpOC.s 			page 15


 795              	.LBE114:
 796              	.LBB115:
 797              	.LBB116:
 798              		.loc 3 72 0
 799 00a4 5FFA88F0 		uxtb	r0, r8
 800              		.loc 3 71 0
 801 00a8 A9F81850 		strh	r5, [r9, #24]	@ movhi
 802              		.loc 3 72 0
 803 00ac FFF7FEFF 		bl	lcd_sendByte
 804              	.LVL67:
 805              		.loc 3 73 0
 806 00b0 0120     		movs	r0, #1
 807 00b2 FFF7FEFF 		bl	chThdSleep
 808              	.LVL68:
 809              		.loc 3 74 0
 810 00b6 A9F81A50 		strh	r5, [r9, #26]	@ movhi
 811              	.LBE116:
 812              	.LBE115:
 813              		.loc 1 137 0
 814 00ba 42F21070 		movw	r0, #10000
 815 00be FFF7FEFF 		bl	chThdSleep
 816              	.LVL69:
 817              	.LBB117:
 818              	.LBB118:
 819              		.loc 3 79 0
 820 00c2 A9F81A50 		strh	r5, [r9, #26]	@ movhi
 821              		.loc 3 80 0
 822 00c6 0120     		movs	r0, #1
 823 00c8 FFF7FEFF 		bl	lcd_sendByte
 824              	.LVL70:
 825              		.loc 3 81 0
 826 00cc 0120     		movs	r0, #1
 827 00ce FFF7FEFF 		bl	chThdSleep
 828              	.LVL71:
 829              	.LBE118:
 830              	.LBE117:
 831              	.LBB119:
 832              	.LBB120:
 833              		.loc 3 79 0
 834 00d2 A9F81A50 		strh	r5, [r9, #26]	@ movhi
 835              		.loc 3 80 0
 836 00d6 0220     		movs	r0, #2
 837 00d8 FFF7FEFF 		bl	lcd_sendByte
 838              	.LVL72:
 839              		.loc 3 81 0
 840 00dc 0120     		movs	r0, #1
 841 00de FFF7FEFF 		bl	chThdSleep
 842              	.LVL73:
 843 00e2 B9E7     		b	.L44
 844              	.L48:
 845              		.align	2
 846              	.L47:
 847 00e4 00080240 		.word	1073874944
 848 00e8 00040240 		.word	1073873920
 849 00ec 00000000 		.word	ADCD1
 850 00f0 00000000 		.word	Thread1
 851 00f4 00000000 		.word	.LANCHOR0
ARM GAS  /tmp/ccNKSpOC.s 			page 16


 852 00f8 00000000 		.word	.LANCHOR1
 853 00fc 00000000 		.word	.LANCHOR2
 854 0100 08000000 		.word	.LC1
 855              	.LBE120:
 856              	.LBE119:
 857              		.cfi_endproc
 858              	.LFE269:
 859              		.size	main, .-main
 860              		.section	.bss.waThread1,"aw",%nobits
 861              		.align	3
 862              		.set	.LANCHOR0,. + 0
 863              		.type	waThread1, %object
 864              		.size	waThread1, 464
 865              	waThread1:
 866 0000 00000000 		.space	464
 866      00000000 
 866      00000000 
 866      00000000 
 866      00000000 
 867              		.section	.rodata.str1.4,"aMS",%progbits,1
 868              		.align	2
 869              	.LC0:
 870 0000 626C696E 		.ascii	"blinker\000"
 870      6B657200 
 871              	.LC1:
 872 0008 456C2074 		.ascii	"El taller de RF\000"
 872      616C6C65 
 872      72206465 
 872      20524600 
 873              		.section	.rodata.adcgrpcfg1,"a",%progbits
 874              		.align	2
 875              		.set	.LANCHOR2,. + 0
 876              		.type	adcgrpcfg1, %object
 877              		.size	adcgrpcfg1, 40
 878              	adcgrpcfg1:
 879 0000 00       		.byte	0
 880 0001 00       		.space	1
 881 0002 0100     		.short	1
 882 0004 00000000 		.word	0
 883 0008 00000000 		.word	0
 884 000c 00000000 		.word	0
 885 0010 00000040 		.word	1073741824
 886 0014 00000000 		.word	0
 887 0018 00000000 		.word	0
 888 001c 00000000 		.word	0
 889 0020 00000000 		.word	0
 890 0024 00000000 		.word	0
 891              		.section	.bss.samples1,"aw",%nobits
 892              		.align	2
 893              		.set	.LANCHOR1,. + 0
 894              		.type	samples1, %object
 895              		.size	samples1, 8
 896              	samples1:
 897 0000 00000000 		.space	8
 897      00000000 
 898              		.text
 899              	.Letext0:
ARM GAS  /tmp/ccNKSpOC.s 			page 17


 900              		.file 5 "/usr/lib/gcc/arm-none-eabi/5.2.0/include/stddef.h"
 901              		.file 6 "/usr/arm-none-eabi/include/machine/_default_types.h"
 902              		.file 7 "/usr/arm-none-eabi/include/stdint.h"
 903              		.file 8 "../../os/rt/ports/ARMCMx/compilers/GCC/chtypes.h"
 904              		.file 9 "../../os/rt/include/chsystypes.h"
 905              		.file 10 "../../os/rt/include/chschd.h"
 906              		.file 11 "../../os/ext/CMSIS/ST/stm32f401xc.h"
 907              		.file 12 "../../os/rt/ports/ARMCMx/chcore.h"
 908              		.file 13 "../../os/rt/ports/ARMCMx/chcore_v7m.h"
 909              		.file 14 "../../os/rt/include/chtm.h"
 910              		.file 15 "../../os/rt/include/chsem.h"
 911              		.file 16 "../../os/rt/include/chmtx.h"
 912              		.file 17 "../../os/hal/ports/STM32/STM32F4xx/stm32_dma.h"
 913              		.file 18 "../../os/hal/ports/STM32/LLD/GPIOv2/pal_lld.h"
 914              		.file 19 "../../os/hal/include/adc.h"
 915              		.file 20 "../../os/hal/ports/STM32/STM32F4xx/adc_lld.h"
 916              		.file 21 "../../os/rt/include/chsys.h"
 917              		.file 22 "../../os/hal/osal/rt/osal.h"
 918              		.file 23 "../../os/ext/CMSIS/include/core_cm4.h"
 919              		.file 24 "../../os/rt/include/chthreads.h"
 920              		.file 25 "../../os/hal/include/hal.h"