ARM GAS  /tmp/cc481lMf.s 			page 1


   1              		.syntax unified
   2              		.cpu cortex-m4
   3              		.eabi_attribute 27, 1
   4              		.eabi_attribute 28, 1
   5              		.fpu fpv4-sp-d16
   6              		.eabi_attribute 20, 1
   7              		.eabi_attribute 21, 1
   8              		.eabi_attribute 23, 3
   9              		.eabi_attribute 24, 1
  10              		.eabi_attribute 25, 1
  11              		.eabi_attribute 26, 1
  12              		.eabi_attribute 30, 2
  13              		.eabi_attribute 34, 1
  14              		.eabi_attribute 18, 4
  15              		.thumb
  16              		.syntax unified
  17              		.file	"serial_lld.c"
  18              		.text
  19              	.Ltext0:
  20              		.cfi_sections	.debug_frame
  21              		.section	.text.notify2,"ax",%progbits
  22              		.align	2
  23              		.p2align 4,,15
  24              		.thumb
  25              		.thumb_func
  26              		.type	notify2, %function
  27              	notify2:
  28              	.LFB264:
  29              		.file 1 "../../os/hal/ports/STM32/LLD/USARTv1/serial_lld.c"
  30              		.loc 1 216 0
  31              		.cfi_startproc
  32              		@ args = 0, pretend = 0, frame = 0
  33              		@ frame_needed = 0, uses_anonymous_args = 0
  34              		@ link register save eliminated.
  35              	.LVL0:
  36              		.loc 1 219 0
  37 0000 024A     		ldr	r2, .L2
  38 0002 D368     		ldr	r3, [r2, #12]
  39 0004 43F08003 		orr	r3, r3, #128
  40 0008 D360     		str	r3, [r2, #12]
  41 000a 7047     		bx	lr
  42              	.L3:
  43              		.align	2
  44              	.L2:
  45 000c 00440040 		.word	1073759232
  46              		.cfi_endproc
  47              	.LFE264:
  48              		.size	notify2, .-notify2
  49              		.section	.text.VectorD8,"ax",%progbits
  50              		.align	2
  51              		.p2align 4,,15
  52              		.global	VectorD8
  53              		.thumb
  54              		.thumb_func
  55              		.type	VectorD8, %function
  56              	VectorD8:
  57              	.LFB265:
ARM GAS  /tmp/cc481lMf.s 			page 2


  58              		.loc 1 287 0
  59              		.cfi_startproc
  60              		@ args = 0, pretend = 0, frame = 0
  61              		@ frame_needed = 0, uses_anonymous_args = 0
  62              	.LVL1:
  63 0000 F8B5     		push	{r3, r4, r5, r6, r7, lr}
  64              		.cfi_def_cfa_offset 24
  65              		.cfi_offset 3, -24
  66              		.cfi_offset 4, -20
  67              		.cfi_offset 5, -16
  68              		.cfi_offset 6, -12
  69              		.cfi_offset 7, -8
  70              		.cfi_offset 14, -4
  71              	.LBB232:
  72              	.LBB233:
  73              		.loc 1 154 0
  74 0002 434E     		ldr	r6, .L59
  75 0004 756F     		ldr	r5, [r6, #116]
  76              	.LVL2:
  77              		.loc 1 155 0
  78 0006 EF68     		ldr	r7, [r5, #12]
  79              	.LVL3:
  80              		.loc 1 156 0
  81 0008 2B68     		ldr	r3, [r5]
  82              		.loc 1 159 0
  83 000a DA05     		lsls	r2, r3, #23
  84              		.loc 1 156 0
  85 000c 9CB2     		uxth	r4, r3
  86              	.LVL4:
  87              		.loc 1 159 0
  88 000e 4FD4     		bmi	.L54
  89              	.L5:
  90              	.LVL5:
  91              	.LBB234:
  92              	.LBB235:
  93              	.LBB236:
  94              	.LBB237:
  95              	.LBB238:
  96              	.LBB239:
  97              		.file 2 "../../os/ext/CMSIS/include/core_cmFunc.h"
  98              		.loc 2 546 0
  99 0010 2023     		movs	r3, #32
 100              		.syntax unified
 101              	@ 546 "../../os/ext/CMSIS/include/core_cmFunc.h" 1
 102 0012 83F31188 		MSR basepri, r3
 103              	@ 0 "" 2
 104              		.thumb
 105              		.syntax unified
 106              	.LBE239:
 107              	.LBE238:
 108              	.LBE237:
 109              	.LBE236:
 110              	.LBE235:
 111              	.LBE234:
 112              		.loc 1 168 0
 113 0016 14F02F0F 		tst	r4, #47
 114 001a 08D1     		bne	.L13
ARM GAS  /tmp/cc481lMf.s 			page 3


 115 001c 29E0     		b	.L6
 116              	.L7:
 117              	.LBB240:
 118              		.loc 1 176 0
 119 001e A006     		lsls	r0, r4, #26
 120              		.loc 1 175 0
 121 0020 6968     		ldr	r1, [r5, #4]
 122              	.LVL6:
 123              		.loc 1 176 0
 124 0022 1DD4     		bmi	.L55
 125              	.L12:
 126              		.loc 1 178 0
 127 0024 2C68     		ldr	r4, [r5]
 128              	.LVL7:
 129 0026 A4B2     		uxth	r4, r4
 130              	.LVL8:
 131              	.LBE240:
 132              		.loc 1 168 0
 133 0028 14F02F0F 		tst	r4, #47
 134 002c 21D0     		beq	.L6
 135              	.LVL9:
 136              	.L13:
 137              	.LBB245:
 138              		.loc 1 173 0
 139 002e 2307     		lsls	r3, r4, #28
 140 0030 F5D0     		beq	.L7
 141              	.LVL10:
 142              	.LBB241:
 143              	.LBB242:
 144              		.loc 1 138 0
 145 0032 14F0080F 		tst	r4, #8
 146 0036 0CBF     		ite	eq
 147 0038 0021     		moveq	r1, #0
 148 003a 8021     		movne	r1, #128
 149              	.LVL11:
 150              		.loc 1 139 0
 151 003c E007     		lsls	r0, r4, #31
 152              		.loc 1 140 0
 153 003e 48BF     		it	mi
 154 0040 41F02001 		orrmi	r1, r1, #32
 155              	.LVL12:
 156              		.loc 1 141 0
 157 0044 A207     		lsls	r2, r4, #30
 158              		.loc 1 142 0
 159 0046 48BF     		it	mi
 160 0048 41F04001 		orrmi	r1, r1, #64
 161              	.LVL13:
 162              		.loc 1 143 0
 163 004c 6307     		lsls	r3, r4, #29
 164              		.loc 1 144 0
 165 004e 48BF     		it	mi
 166 0050 41F48071 		orrmi	r1, r1, #256
 167              	.LVL14:
 168              	.LBB243:
 169              	.LBB244:
 170              		.file 3 "../../os/hal/osal/rt/osal.h"
 171              		.loc 3 798 0
ARM GAS  /tmp/cc481lMf.s 			page 4


 172 0054 2F48     		ldr	r0, .L59+4
 173 0056 FFF7FEFF 		bl	chEvtBroadcastFlagsI
 174              	.LVL15:
 175              	.LBE244:
 176              	.LBE243:
 177              	.LBE242:
 178              	.LBE241:
 179              		.loc 1 176 0
 180 005a A006     		lsls	r0, r4, #26
 181              		.loc 1 175 0
 182 005c 6968     		ldr	r1, [r5, #4]
 183              	.LVL16:
 184              		.loc 1 176 0
 185 005e E1D5     		bpl	.L12
 186              	.LVL17:
 187              	.L55:
 188              		.loc 1 177 0
 189 0060 C9B2     		uxtb	r1, r1
 190 0062 2B48     		ldr	r0, .L59
 191 0064 FFF7FEFF 		bl	sdIncomingDataI
 192              	.LVL18:
 193              		.loc 1 178 0
 194 0068 2C68     		ldr	r4, [r5]
 195              	.LVL19:
 196 006a A4B2     		uxth	r4, r4
 197              	.LVL20:
 198              	.LBE245:
 199              		.loc 1 168 0
 200 006c 14F02F0F 		tst	r4, #47
 201 0070 DDD1     		bne	.L13
 202              	.L6:
 203              	.LVL21:
 204              	.LBB246:
 205              	.LBB247:
 206              	.LBB248:
 207              	.LBB249:
 208              	.LBB250:
 209              	.LBB251:
 210              		.loc 2 546 0
 211 0072 0023     		movs	r3, #0
 212              		.syntax unified
 213              	@ 546 "../../os/ext/CMSIS/include/core_cmFunc.h" 1
 214 0074 83F31188 		MSR basepri, r3
 215              	@ 0 "" 2
 216              		.thumb
 217              		.syntax unified
 218              	.LBE251:
 219              	.LBE250:
 220              	.LBE249:
 221              	.LBE248:
 222              	.LBE247:
 223              	.LBE246:
 224              		.loc 1 183 0
 225 0078 3906     		lsls	r1, r7, #24
 226 007a 01D5     		bpl	.L14
 227 007c 2206     		lsls	r2, r4, #24
 228 007e 26D4     		bmi	.L56
ARM GAS  /tmp/cc481lMf.s 			page 5


 229              	.L14:
 230              		.loc 1 197 0
 231 0080 6306     		lsls	r3, r4, #25
 232 0082 11D5     		bpl	.L17
 233              	.LVL22:
 234              	.LBB252:
 235              	.LBB253:
 236              	.LBB254:
 237              	.LBB255:
 238              	.LBB256:
 239              	.LBB257:
 240              		.loc 2 546 0
 241 0084 2023     		movs	r3, #32
 242              		.syntax unified
 243              	@ 546 "../../os/ext/CMSIS/include/core_cmFunc.h" 1
 244 0086 83F31188 		MSR basepri, r3
 245              	@ 0 "" 2
 246              	.LVL23:
 247              		.thumb
 248              		.syntax unified
 249              	.LBE257:
 250              	.LBE256:
 251              	.LBE255:
 252              	.LBE254:
 253              	.LBE253:
 254              	.LBE252:
 255              	.LBB258:
 256              	.LBB259:
 257              		.file 4 "../../os/rt/include/chqueues.h"
 258              		.loc 4 390 0
 259 008a 726C     		ldr	r2, [r6, #68]
 260 008c B36C     		ldr	r3, [r6, #72]
 261 008e 2048     		ldr	r0, .L59
 262 0090 9A42     		cmp	r2, r3
 263 0092 29D0     		beq	.L57
 264              	.L18:
 265              	.LBE259:
 266              	.LBE258:
 267              		.loc 1 201 0
 268 0094 4FF6BF73 		movw	r3, #65471
 269 0098 3B40     		ands	r3, r3, r7
 270              		.loc 1 202 0
 271 009a 6FF04002 		mvn	r2, #64
 272              		.loc 1 201 0
 273 009e EB60     		str	r3, [r5, #12]
 274              	.LBB261:
 275              	.LBB262:
 276              	.LBB263:
 277              	.LBB264:
 278              	.LBB265:
 279              	.LBB266:
 280              		.loc 2 546 0
 281 00a0 0023     		movs	r3, #0
 282              	.LBE266:
 283              	.LBE265:
 284              	.LBE264:
 285              	.LBE263:
ARM GAS  /tmp/cc481lMf.s 			page 6


 286              	.LBE262:
 287              	.LBE261:
 288              		.loc 1 202 0
 289 00a2 2A60     		str	r2, [r5]
 290              	.LVL24:
 291              	.LBB272:
 292              	.LBB271:
 293              	.LBB270:
 294              	.LBB269:
 295              	.LBB268:
 296              	.LBB267:
 297              		.loc 2 546 0
 298              		.syntax unified
 299              	@ 546 "../../os/ext/CMSIS/include/core_cmFunc.h" 1
 300 00a4 83F31188 		MSR basepri, r3
 301              	@ 0 "" 2
 302              	.LVL25:
 303              		.thumb
 304              		.syntax unified
 305              	.L17:
 306              	.LBE267:
 307              	.LBE268:
 308              	.LBE269:
 309              	.LBE270:
 310              	.LBE271:
 311              	.LBE272:
 312              	.LBE233:
 313              	.LBE232:
 314              		.loc 1 294 0
 315 00a8 BDE8F840 		pop	{r3, r4, r5, r6, r7, lr}
 316              		.cfi_remember_state
 317              		.cfi_restore 14
 318              		.cfi_restore 7
 319              		.cfi_restore 6
 320              		.cfi_restore 5
 321              		.cfi_restore 4
 322              		.cfi_restore 3
 323              		.cfi_def_cfa_offset 0
 324              	.LVL26:
 325              		.loc 1 293 0
 326 00ac FFF7FEBF 		b	_port_irq_epilogue
 327              	.LVL27:
 328              	.L54:
 329              		.cfi_restore_state
 330              	.LBB307:
 331              	.LBB306:
 332              	.LBB273:
 333              	.LBB274:
 334              	.LBB275:
 335              	.LBB276:
 336              	.LBB277:
 337              	.LBB278:
 338              		.loc 2 546 0
 339 00b0 2023     		movs	r3, #32
 340              		.syntax unified
 341              	@ 546 "../../os/ext/CMSIS/include/core_cmFunc.h" 1
 342 00b2 83F31188 		MSR basepri, r3
ARM GAS  /tmp/cc481lMf.s 			page 7


 343              	@ 0 "" 2
 344              	.LVL28:
 345              		.thumb
 346              		.syntax unified
 347              	.LBE278:
 348              	.LBE277:
 349              	.LBE276:
 350              	.LBE275:
 351              	.LBE274:
 352              	.LBE273:
 353              	.LBB279:
 354              	.LBB280:
 355              		.loc 3 798 0
 356 00b6 4FF40071 		mov	r1, #512
 357 00ba 301D     		adds	r0, r6, #4
 358 00bc FFF7FEFF 		bl	chEvtBroadcastFlagsI
 359              	.LVL29:
 360              	.LBE280:
 361              	.LBE279:
 362              		.loc 1 162 0
 363 00c0 6FF48073 		mvn	r3, #256
 364 00c4 2B60     		str	r3, [r5]
 365              	.LVL30:
 366              	.LBB281:
 367              	.LBB282:
 368              	.LBB283:
 369              	.LBB284:
 370              	.LBB285:
 371              	.LBB286:
 372              		.loc 2 546 0
 373 00c6 0023     		movs	r3, #0
 374              		.syntax unified
 375              	@ 546 "../../os/ext/CMSIS/include/core_cmFunc.h" 1
 376 00c8 83F31188 		MSR basepri, r3
 377              	@ 0 "" 2
 378              		.thumb
 379              		.syntax unified
 380 00cc A0E7     		b	.L5
 381              	.LVL31:
 382              	.L56:
 383              	.LBE286:
 384              	.LBE285:
 385              	.LBE284:
 386              	.LBE283:
 387              	.LBE282:
 388              	.LBE281:
 389              	.LBB287:
 390              	.LBB288:
 391              	.LBB289:
 392              	.LBB290:
 393              	.LBB291:
 394              	.LBB292:
 395              	.LBB293:
 396 00ce 2023     		movs	r3, #32
 397              		.syntax unified
 398              	@ 546 "../../os/ext/CMSIS/include/core_cmFunc.h" 1
 399 00d0 83F31188 		MSR basepri, r3
ARM GAS  /tmp/cc481lMf.s 			page 8


 400              	@ 0 "" 2
 401              		.thumb
 402              		.syntax unified
 403              	.LBE293:
 404              	.LBE292:
 405              	.LBE291:
 406              	.LBE290:
 407              	.LBE289:
 408              	.LBE288:
 409              		.loc 1 186 0
 410 00d4 1048     		ldr	r0, .L59+8
 411 00d6 FFF7FEFF 		bl	chOQGetI
 412              	.LVL32:
 413              		.loc 1 187 0
 414 00da 0028     		cmp	r0, #0
 415 00dc 0CDB     		blt	.L58
 416              		.loc 1 192 0
 417 00de 6860     		str	r0, [r5, #4]
 418              	.LVL33:
 419              	.L16:
 420              	.LBB294:
 421              	.LBB295:
 422              	.LBB296:
 423              	.LBB297:
 424              	.LBB298:
 425              	.LBB299:
 426              		.loc 2 546 0
 427 00e0 0023     		movs	r3, #0
 428              		.syntax unified
 429              	@ 546 "../../os/ext/CMSIS/include/core_cmFunc.h" 1
 430 00e2 83F31188 		MSR basepri, r3
 431              	@ 0 "" 2
 432              		.thumb
 433              		.syntax unified
 434 00e6 CBE7     		b	.L14
 435              	.LVL34:
 436              	.L57:
 437              	.LBE299:
 438              	.LBE298:
 439              	.LBE297:
 440              	.LBE296:
 441              	.LBE295:
 442              	.LBE294:
 443              	.LBE287:
 444              	.LBB302:
 445              	.LBB260:
 446              		.loc 4 390 0
 447 00e8 836B     		ldr	r3, [r0, #56]
 448 00ea 002B     		cmp	r3, #0
 449 00ec D2D0     		beq	.L18
 450              	.LVL35:
 451              	.LBE260:
 452              	.LBE302:
 453              	.LBB303:
 454              	.LBB304:
 455              		.loc 3 798 0
 456 00ee 0430     		adds	r0, r0, #4
ARM GAS  /tmp/cc481lMf.s 			page 9


 457 00f0 1021     		movs	r1, #16
 458 00f2 FFF7FEFF 		bl	chEvtBroadcastFlagsI
 459              	.LVL36:
 460 00f6 CDE7     		b	.L18
 461              	.LVL37:
 462              	.L58:
 463              	.LBE304:
 464              	.LBE303:
 465              	.LBB305:
 466              	.LBB300:
 467              	.LBB301:
 468 00f8 0821     		movs	r1, #8
 469 00fa 0648     		ldr	r0, .L59+4
 470              	.LVL38:
 471 00fc FFF7FEFF 		bl	chEvtBroadcastFlagsI
 472              	.LVL39:
 473              	.LBE301:
 474              	.LBE300:
 475              		.loc 1 189 0
 476 0100 4FF63F73 		movw	r3, #65343
 477 0104 3B40     		ands	r3, r3, r7
 478 0106 43F04003 		orr	r3, r3, #64
 479 010a EB60     		str	r3, [r5, #12]
 480 010c E8E7     		b	.L16
 481              	.L60:
 482 010e 00BF     		.align	2
 483              	.L59:
 484 0110 00000000 		.word	.LANCHOR0
 485 0114 04000000 		.word	.LANCHOR0+4
 486 0118 30000000 		.word	.LANCHOR0+48
 487              	.LBE305:
 488              	.LBE306:
 489              	.LBE307:
 490              		.cfi_endproc
 491              	.LFE265:
 492              		.size	VectorD8, .-VectorD8
 493 011c AFF30080 		.section	.text.sd_lld_init,"ax",%progbits
 494              		.align	2
 495              		.p2align 4,,15
 496              		.global	sd_lld_init
 497              		.thumb
 498              		.thumb_func
 499              		.type	sd_lld_init, %function
 500              	sd_lld_init:
 501              	.LFB266:
 502              		.loc 1 382 0
 503              		.cfi_startproc
 504              		@ args = 0, pretend = 0, frame = 0
 505              		@ frame_needed = 0, uses_anonymous_args = 0
 506 0000 10B5     		push	{r4, lr}
 507              		.cfi_def_cfa_offset 8
 508              		.cfi_offset 4, -8
 509              		.cfi_offset 14, -4
 510              		.loc 1 390 0
 511 0002 044C     		ldr	r4, .L63
 512 0004 044A     		ldr	r2, .L63+4
 513 0006 2046     		mov	r0, r4
ARM GAS  /tmp/cc481lMf.s 			page 10


 514 0008 0021     		movs	r1, #0
 515 000a FFF7FEFF 		bl	sdObjectInit
 516              	.LVL40:
 517              		.loc 1 391 0
 518 000e 034B     		ldr	r3, .L63+8
 519 0010 6367     		str	r3, [r4, #116]
 520 0012 10BD     		pop	{r4, pc}
 521              	.L64:
 522              		.align	2
 523              	.L63:
 524 0014 00000000 		.word	.LANCHOR0
 525 0018 00000000 		.word	notify2
 526 001c 00440040 		.word	1073759232
 527              		.cfi_endproc
 528              	.LFE266:
 529              		.size	sd_lld_init, .-sd_lld_init
 530              		.section	.text.sd_lld_start,"ax",%progbits
 531              		.align	2
 532              		.p2align 4,,15
 533              		.global	sd_lld_start
 534              		.thumb
 535              		.thumb_func
 536              		.type	sd_lld_start, %function
 537              	sd_lld_start:
 538              	.LFB267:
 539              		.loc 1 425 0
 540              		.cfi_startproc
 541              		@ args = 0, pretend = 0, frame = 0
 542              		@ frame_needed = 0, uses_anonymous_args = 0
 543              	.LVL41:
 544 0000 38B5     		push	{r3, r4, r5, lr}
 545              		.cfi_def_cfa_offset 16
 546              		.cfi_offset 3, -16
 547              		.cfi_offset 4, -12
 548              		.cfi_offset 5, -8
 549              		.cfi_offset 14, -4
 550              		.loc 1 428 0
 551 0002 1F4C     		ldr	r4, .L73
 552              		.loc 1 430 0
 553 0004 037A     		ldrb	r3, [r0, #8]	@ zero_extendqisi2
 554              		.loc 1 428 0
 555 0006 0029     		cmp	r1, #0
 556 0008 18BF     		it	ne
 557 000a 0C46     		movne	r4, r1
 558              	.LVL42:
 559              		.loc 1 430 0
 560 000c 012B     		cmp	r3, #1
 561              		.loc 1 425 0
 562 000e 0546     		mov	r5, r0
 563              		.loc 1 430 0
 564 0010 22D0     		beq	.L72
 565              	.LVL43:
 566              	.L67:
 567 0012 6B6F     		ldr	r3, [r5, #116]
 568              	.LVL44:
 569              	.LBB308:
 570              	.LBB309:
ARM GAS  /tmp/cc481lMf.s 			page 11


 571              		.loc 1 96 0
 572 0014 1B4A     		ldr	r2, .L73+4
 573 0016 9342     		cmp	r3, r2
 574 0018 2BD0     		beq	.L68
 575 001a 02F58062 		add	r2, r2, #1024
 576 001e 9342     		cmp	r3, r2
 577 0020 27D0     		beq	.L68
 578              		.loc 1 102 0
 579 0022 2168     		ldr	r1, [r4]
 580 0024 184A     		ldr	r2, .L73+8
 581 0026 B2FBF1F2 		udiv	r2, r2, r1
 582 002a 9A60     		str	r2, [r3, #8]
 583              	.L70:
 584              		.loc 1 108 0
 585 002c A288     		ldrh	r2, [r4, #4]
 586              		.loc 1 105 0
 587 002e E088     		ldrh	r0, [r4, #6]
 588              		.loc 1 106 0
 589 0030 2189     		ldrh	r1, [r4, #8]
 590              		.loc 1 108 0
 591 0032 42F40452 		orr	r2, r2, #8448
 592              		.loc 1 105 0
 593 0036 40F04000 		orr	r0, r0, #64
 594              		.loc 1 108 0
 595 003a 42F02C02 		orr	r2, r2, #44
 596              		.loc 1 106 0
 597 003e 41F00101 		orr	r1, r1, #1
 598              		.loc 1 108 0
 599 0042 92B2     		uxth	r2, r2
 600              		.loc 1 105 0
 601 0044 80B2     		uxth	r0, r0
 602              		.loc 1 106 0
 603 0046 89B2     		uxth	r1, r1
 604              		.loc 1 110 0
 605 0048 0024     		movs	r4, #0
 606              	.LVL45:
 607              		.loc 1 105 0
 608 004a 1861     		str	r0, [r3, #16]
 609              		.loc 1 106 0
 610 004c 5961     		str	r1, [r3, #20]
 611              		.loc 1 107 0
 612 004e DA60     		str	r2, [r3, #12]
 613              		.loc 1 110 0
 614 0050 1C60     		str	r4, [r3]
 615              		.loc 1 111 0
 616 0052 1A68     		ldr	r2, [r3]
 617              		.loc 1 112 0
 618 0054 5B68     		ldr	r3, [r3, #4]
 619              	.LVL46:
 620 0056 38BD     		pop	{r3, r4, r5, pc}
 621              	.LVL47:
 622              	.L72:
 623              	.LBE309:
 624              	.LBE308:
 625              		.loc 1 438 0
 626 0058 0C4B     		ldr	r3, .L73+12
 627 005a 9842     		cmp	r0, r3
ARM GAS  /tmp/cc481lMf.s 			page 12


 628 005c D9D1     		bne	.L67
 629              		.loc 1 439 0
 630 005e 0C4A     		ldr	r2, .L73+16
 631 0060 136C     		ldr	r3, [r2, #64]
 632 0062 43F40033 		orr	r3, r3, #131072
 633 0066 1364     		str	r3, [r2, #64]
 634              		.loc 1 440 0
 635 0068 0C21     		movs	r1, #12
 636 006a 2620     		movs	r0, #38
 637              	.LVL48:
 638 006c FFF7FEFF 		bl	nvicEnableVector
 639              	.LVL49:
 640 0070 CFE7     		b	.L67
 641              	.LVL50:
 642              	.L68:
 643              	.LBB311:
 644              	.LBB310:
 645              		.loc 1 100 0
 646 0072 2168     		ldr	r1, [r4]
 647 0074 074A     		ldr	r2, .L73+20
 648 0076 B2FBF1F2 		udiv	r2, r2, r1
 649 007a 9A60     		str	r2, [r3, #8]
 650 007c D6E7     		b	.L70
 651              	.L74:
 652 007e 00BF     		.align	2
 653              	.L73:
 654 0080 00000000 		.word	.LANCHOR1
 655 0084 00100140 		.word	1073811456
 656 0088 80DE8002 		.word	42000000
 657 008c 00000000 		.word	.LANCHOR0
 658 0090 00380240 		.word	1073887232
 659 0094 00BD0105 		.word	84000000
 660              	.LBE310:
 661              	.LBE311:
 662              		.cfi_endproc
 663              	.LFE267:
 664              		.size	sd_lld_start, .-sd_lld_start
 665 0098 AFF30080 		.section	.text.sd_lld_stop,"ax",%progbits
 665      AFF30080 
 666              		.align	2
 667              		.p2align 4,,15
 668              		.global	sd_lld_stop
 669              		.thumb
 670              		.thumb_func
 671              		.type	sd_lld_stop, %function
 672              	sd_lld_stop:
 673              	.LFB268:
 674              		.loc 1 480 0
 675              		.cfi_startproc
 676              		@ args = 0, pretend = 0, frame = 0
 677              		@ frame_needed = 0, uses_anonymous_args = 0
 678              		@ link register save eliminated.
 679              	.LVL51:
 680              		.loc 1 482 0
 681 0000 037A     		ldrb	r3, [r0, #8]	@ zero_extendqisi2
 682 0002 022B     		cmp	r3, #2
 683 0004 00D0     		beq	.L79
ARM GAS  /tmp/cc481lMf.s 			page 13


 684              	.L75:
 685 0006 7047     		bx	lr
 686              	.L79:
 687              		.loc 1 492 0
 688 0008 0749     		ldr	r1, .L80
 689              		.loc 1 483 0
 690 000a 436F     		ldr	r3, [r0, #116]
 691              	.LVL52:
 692              	.LBB312:
 693              	.LBB313:
 694              		.loc 1 123 0
 695 000c 0022     		movs	r2, #0
 696              	.LBE313:
 697              	.LBE312:
 698              		.loc 1 492 0
 699 000e 8842     		cmp	r0, r1
 700              	.LBB315:
 701              	.LBB314:
 702              		.loc 1 123 0
 703 0010 DA60     		str	r2, [r3, #12]
 704              		.loc 1 124 0
 705 0012 1A61     		str	r2, [r3, #16]
 706              		.loc 1 125 0
 707 0014 5A61     		str	r2, [r3, #20]
 708              	.LBE314:
 709              	.LBE315:
 710              		.loc 1 492 0
 711 0016 F6D1     		bne	.L75
 712              		.loc 1 493 0
 713 0018 044A     		ldr	r2, .L80+4
 714 001a 136C     		ldr	r3, [r2, #64]
 715              	.LVL53:
 716 001c 23F40033 		bic	r3, r3, #131072
 717 0020 1364     		str	r3, [r2, #64]
 718              		.loc 1 494 0
 719 0022 2620     		movs	r0, #38
 720              	.LVL54:
 721 0024 FFF7FEBF 		b	nvicDisableVector
 722              	.LVL55:
 723              	.L81:
 724              		.align	2
 725              	.L80:
 726 0028 00000000 		.word	.LANCHOR0
 727 002c 00380240 		.word	1073887232
 728              		.cfi_endproc
 729              	.LFE268:
 730              		.size	sd_lld_stop, .-sd_lld_stop
 731              		.global	SD2
 732              		.section	.rodata.default_config,"a",%progbits
 733              		.align	2
 734              		.set	.LANCHOR1,. + 0
 735              		.type	default_config, %object
 736              		.size	default_config, 12
 737              	default_config:
 738 0000 00960000 		.word	38400
 739 0004 0000     		.short	0
 740 0006 0040     		.short	16384
ARM GAS  /tmp/cc481lMf.s 			page 14


 741 0008 0000     		.short	0
 742 000a 0000     		.space	2
 743              		.section	.bss.SD2,"aw",%nobits
 744              		.align	2
 745              		.set	.LANCHOR0,. + 0
 746              		.type	SD2, %object
 747              		.size	SD2, 120
 748              	SD2:
 749 0000 00000000 		.space	120
 749      00000000 
 749      00000000 
 749      00000000 
 749      00000000 
 750              		.text
 751              	.Letext0:
 752              		.file 5 "/usr/lib/gcc/arm-none-eabi/5.2.0/include/stddef.h"
 753              		.file 6 "/usr/arm-none-eabi/include/machine/_default_types.h"
 754              		.file 7 "/usr/arm-none-eabi/include/stdint.h"
 755              		.file 8 "../../os/rt/ports/ARMCMx/compilers/GCC/chtypes.h"
 756              		.file 9 "../../os/rt/include/chsystypes.h"
 757              		.file 10 "../../os/rt/include/chschd.h"
 758              		.file 11 "../../os/ext/CMSIS/ST/stm32f401xc.h"
 759              		.file 12 "../../os/rt/ports/ARMCMx/chcore.h"
 760              		.file 13 "../../os/rt/ports/ARMCMx/chcore_v7m.h"
 761              		.file 14 "../../os/rt/include/chtm.h"
 762              		.file 15 "../../os/rt/include/chsem.h"
 763              		.file 16 "../../os/rt/include/chmtx.h"
 764              		.file 17 "../../os/rt/include/chevents.h"
 765              		.file 18 "../../os/hal/include/serial.h"
 766              		.file 19 "../../os/hal/ports/STM32/LLD/USARTv1/serial_lld.h"
 767              		.file 20 "../../os/rt/include/chsys.h"
 768              		.file 21 "../../os/hal/ports/common/ARMCMx/nvic.h"
 769              		.file 22 "../../os/ext/CMSIS/include/core_cm4.h"
 770              		.section	.debug_info,"",%progbits
 771              	.Ldebug_info0:
 772 0000 FF140000 		.4byte	0x14ff
 773 0004 0400     		.2byte	0x4
 774 0006 00000000 		.4byte	.Ldebug_abbrev0
 775 000a 04       		.byte	0x4
 776 000b 01       		.uleb128 0x1
 777 000c 51010000 		.4byte	.LASF208
 778 0010 0C       		.byte	0xc
 779 0011 D4020000 		.4byte	.LASF209
 780 0015 2F040000 		.4byte	.LASF210
 781 0019 A8000000 		.4byte	.Ldebug_ranges0+0xa8
 782 001d 00000000 		.4byte	0
 783 0021 00000000 		.4byte	.Ldebug_line0
 784 0025 02       		.uleb128 0x2
 785 0026 04       		.byte	0x4
 786 0027 05       		.byte	0x5
 787 0028 696E7400 		.ascii	"int\000"
 788 002c 03       		.uleb128 0x3
 789 002d 00000000 		.4byte	.LASF4
 790 0031 05       		.byte	0x5
 791 0032 D8       		.byte	0xd8
 792 0033 37000000 		.4byte	0x37
 793 0037 04       		.uleb128 0x4
ARM GAS  /tmp/cc481lMf.s 			page 15


 794 0038 04       		.byte	0x4
 795 0039 07       		.byte	0x7
 796 003a 58060000 		.4byte	.LASF0
 797 003e 04       		.uleb128 0x4
 798 003f 08       		.byte	0x8
 799 0040 05       		.byte	0x5
 800 0041 96050000 		.4byte	.LASF1
 801 0045 04       		.uleb128 0x4
 802 0046 08       		.byte	0x8
 803 0047 04       		.byte	0x4
 804 0048 E4060000 		.4byte	.LASF2
 805 004c 04       		.uleb128 0x4
 806 004d 01       		.byte	0x1
 807 004e 06       		.byte	0x6
 808 004f B9020000 		.4byte	.LASF3
 809 0053 03       		.uleb128 0x3
 810 0054 ED000000 		.4byte	.LASF5
 811 0058 06       		.byte	0x6
 812 0059 1D       		.byte	0x1d
 813 005a 5E000000 		.4byte	0x5e
 814 005e 04       		.uleb128 0x4
 815 005f 01       		.byte	0x1
 816 0060 08       		.byte	0x8
 817 0061 47030000 		.4byte	.LASF6
 818 0065 04       		.uleb128 0x4
 819 0066 02       		.byte	0x2
 820 0067 05       		.byte	0x5
 821 0068 94080000 		.4byte	.LASF7
 822 006c 03       		.uleb128 0x3
 823 006d D3030000 		.4byte	.LASF8
 824 0071 06       		.byte	0x6
 825 0072 2B       		.byte	0x2b
 826 0073 77000000 		.4byte	0x77
 827 0077 04       		.uleb128 0x4
 828 0078 02       		.byte	0x2
 829 0079 07       		.byte	0x7
 830 007a 79090000 		.4byte	.LASF9
 831 007e 03       		.uleb128 0x3
 832 007f B3090000 		.4byte	.LASF10
 833 0083 06       		.byte	0x6
 834 0084 3F       		.byte	0x3f
 835 0085 89000000 		.4byte	0x89
 836 0089 04       		.uleb128 0x4
 837 008a 04       		.byte	0x4
 838 008b 05       		.byte	0x5
 839 008c 41010000 		.4byte	.LASF11
 840 0090 03       		.uleb128 0x3
 841 0091 7B050000 		.4byte	.LASF12
 842 0095 06       		.byte	0x6
 843 0096 41       		.byte	0x41
 844 0097 9B000000 		.4byte	0x9b
 845 009b 04       		.uleb128 0x4
 846 009c 04       		.byte	0x4
 847 009d 07       		.byte	0x7
 848 009e CE040000 		.4byte	.LASF13
 849 00a2 03       		.uleb128 0x3
 850 00a3 C3040000 		.4byte	.LASF14
ARM GAS  /tmp/cc481lMf.s 			page 16


 851 00a7 06       		.byte	0x6
 852 00a8 5B       		.byte	0x5b
 853 00a9 AD000000 		.4byte	0xad
 854 00ad 04       		.uleb128 0x4
 855 00ae 08       		.byte	0x8
 856 00af 07       		.byte	0x7
 857 00b0 7D070000 		.4byte	.LASF15
 858 00b4 03       		.uleb128 0x3
 859 00b5 CC020000 		.4byte	.LASF16
 860 00b9 07       		.byte	0x7
 861 00ba 15       		.byte	0x15
 862 00bb 53000000 		.4byte	0x53
 863 00bf 03       		.uleb128 0x3
 864 00c0 9C070000 		.4byte	.LASF17
 865 00c4 07       		.byte	0x7
 866 00c5 21       		.byte	0x21
 867 00c6 6C000000 		.4byte	0x6c
 868 00ca 03       		.uleb128 0x3
 869 00cb 4B000000 		.4byte	.LASF18
 870 00cf 07       		.byte	0x7
 871 00d0 2C       		.byte	0x2c
 872 00d1 7E000000 		.4byte	0x7e
 873 00d5 03       		.uleb128 0x3
 874 00d6 27090000 		.4byte	.LASF19
 875 00da 07       		.byte	0x7
 876 00db 2D       		.byte	0x2d
 877 00dc 90000000 		.4byte	0x90
 878 00e0 03       		.uleb128 0x3
 879 00e1 AB080000 		.4byte	.LASF20
 880 00e5 07       		.byte	0x7
 881 00e6 39       		.byte	0x39
 882 00e7 A2000000 		.4byte	0xa2
 883 00eb 05       		.uleb128 0x5
 884 00ec CA000000 		.4byte	0xca
 885 00f0 05       		.uleb128 0x5
 886 00f1 D5000000 		.4byte	0xd5
 887 00f5 03       		.uleb128 0x3
 888 00f6 65060000 		.4byte	.LASF21
 889 00fa 08       		.byte	0x8
 890 00fb 45       		.byte	0x45
 891 00fc D5000000 		.4byte	0xd5
 892 0100 03       		.uleb128 0x3
 893 0101 21080000 		.4byte	.LASF22
 894 0105 08       		.byte	0x8
 895 0106 48       		.byte	0x48
 896 0107 B4000000 		.4byte	0xb4
 897 010b 03       		.uleb128 0x3
 898 010c 5E020000 		.4byte	.LASF23
 899 0110 08       		.byte	0x8
 900 0111 49       		.byte	0x49
 901 0112 B4000000 		.4byte	0xb4
 902 0116 03       		.uleb128 0x3
 903 0117 F5080000 		.4byte	.LASF24
 904 011b 08       		.byte	0x8
 905 011c 4A       		.byte	0x4a
 906 011d B4000000 		.4byte	0xb4
 907 0121 03       		.uleb128 0x3
ARM GAS  /tmp/cc481lMf.s 			page 17


 908 0122 32000000 		.4byte	.LASF25
 909 0126 08       		.byte	0x8
 910 0127 4C       		.byte	0x4c
 911 0128 D5000000 		.4byte	0xd5
 912 012c 03       		.uleb128 0x3
 913 012d A5070000 		.4byte	.LASF26
 914 0131 08       		.byte	0x8
 915 0132 4D       		.byte	0x4d
 916 0133 CA000000 		.4byte	0xca
 917 0137 03       		.uleb128 0x3
 918 0138 06030000 		.4byte	.LASF27
 919 013c 08       		.byte	0x8
 920 013d 4F       		.byte	0x4f
 921 013e D5000000 		.4byte	0xd5
 922 0142 03       		.uleb128 0x3
 923 0143 BC070000 		.4byte	.LASF28
 924 0147 08       		.byte	0x8
 925 0148 50       		.byte	0x50
 926 0149 D5000000 		.4byte	0xd5
 927 014d 03       		.uleb128 0x3
 928 014e 21040000 		.4byte	.LASF29
 929 0152 08       		.byte	0x8
 930 0153 51       		.byte	0x51
 931 0154 CA000000 		.4byte	0xca
 932 0158 03       		.uleb128 0x3
 933 0159 17000000 		.4byte	.LASF30
 934 015d 09       		.byte	0x9
 935 015e 33       		.byte	0x33
 936 015f D5000000 		.4byte	0xd5
 937 0163 03       		.uleb128 0x3
 938 0164 DB060000 		.4byte	.LASF31
 939 0168 09       		.byte	0x9
 940 0169 3F       		.byte	0x3f
 941 016a 6E010000 		.4byte	0x16e
 942 016e 06       		.uleb128 0x6
 943 016f ED040000 		.4byte	.LASF51
 944 0173 44       		.byte	0x44
 945 0174 0A       		.byte	0xa
 946 0175 C2       		.byte	0xc2
 947 0176 5B020000 		.4byte	0x25b
 948 017a 07       		.uleb128 0x7
 949 017b 4A010000 		.4byte	.LASF32
 950 017f 0A       		.byte	0xa
 951 0180 C3       		.byte	0xc3
 952 0181 66020000 		.4byte	0x266
 953 0185 00       		.byte	0
 954 0186 07       		.uleb128 0x7
 955 0187 37020000 		.4byte	.LASF33
 956 018b 0A       		.byte	0xa
 957 018c C5       		.byte	0xc5
 958 018d 66020000 		.4byte	0x266
 959 0191 04       		.byte	0x4
 960 0192 07       		.uleb128 0x7
 961 0193 CC030000 		.4byte	.LASF34
 962 0197 0A       		.byte	0xa
 963 0198 C7       		.byte	0xc7
 964 0199 21010000 		.4byte	0x121
ARM GAS  /tmp/cc481lMf.s 			page 18


 965 019d 08       		.byte	0x8
 966 019e 07       		.uleb128 0x7
 967 019f 2C000000 		.4byte	.LASF35
 968 01a3 0A       		.byte	0xa
 969 01a4 C8       		.byte	0xc8
 970 01a5 B0060000 		.4byte	0x6b0
 971 01a9 0C       		.byte	0xc
 972 01aa 07       		.uleb128 0x7
 973 01ab 39010000 		.4byte	.LASF36
 974 01af 0A       		.byte	0xa
 975 01b0 CA       		.byte	0xca
 976 01b1 66020000 		.4byte	0x266
 977 01b5 10       		.byte	0x10
 978 01b6 07       		.uleb128 0x7
 979 01b7 94070000 		.4byte	.LASF37
 980 01bb 0A       		.byte	0xa
 981 01bc CB       		.byte	0xcb
 982 01bd 66020000 		.4byte	0x266
 983 01c1 14       		.byte	0x14
 984 01c2 07       		.uleb128 0x7
 985 01c3 CE090000 		.4byte	.LASF38
 986 01c7 0A       		.byte	0xa
 987 01c8 D2       		.byte	0xd2
 988 01c9 F5080000 		.4byte	0x8f5
 989 01cd 18       		.byte	0x18
 990 01ce 07       		.uleb128 0x7
 991 01cf EE090000 		.4byte	.LASF39
 992 01d3 0A       		.byte	0xa
 993 01d4 DD       		.byte	0xdd
 994 01d5 0B010000 		.4byte	0x10b
 995 01d9 1C       		.byte	0x1c
 996 01da 07       		.uleb128 0x7
 997 01db 3C060000 		.4byte	.LASF40
 998 01df 0A       		.byte	0xa
 999 01e0 E1       		.byte	0xe1
 1000 01e1 00010000 		.4byte	0x100
 1001 01e5 1D       		.byte	0x1d
 1002 01e6 07       		.uleb128 0x7
 1003 01e7 75060000 		.4byte	.LASF41
 1004 01eb 0A       		.byte	0xa
 1005 01ec E6       		.byte	0xe6
 1006 01ed 16010000 		.4byte	0x116
 1007 01f1 1E       		.byte	0x1e
 1008 01f2 08       		.uleb128 0x8
 1009 01f3 705F7500 		.ascii	"p_u\000"
 1010 01f7 0A       		.byte	0xa
 1011 01f8 3101     		.2byte	0x131
 1012 01fa 30080000 		.4byte	0x830
 1013 01fe 20       		.byte	0x20
 1014 01ff 09       		.uleb128 0x9
 1015 0200 2C060000 		.4byte	.LASF42
 1016 0204 0A       		.byte	0xa
 1017 0205 3601     		.2byte	0x136
 1018 0207 6C020000 		.4byte	0x26c
 1019 020b 24       		.byte	0x24
 1020 020c 09       		.uleb128 0x9
 1021 020d 3A000000 		.4byte	.LASF43
ARM GAS  /tmp/cc481lMf.s 			page 19


 1022 0211 0A       		.byte	0xa
 1023 0212 3C01     		.2byte	0x13c
 1024 0214 90020000 		.4byte	0x290
 1025 0218 28       		.byte	0x28
 1026 0219 09       		.uleb128 0x9
 1027 021a DC090000 		.4byte	.LASF44
 1028 021e 0A       		.byte	0xa
 1029 021f 4001     		.2byte	0x140
 1030 0221 2C010000 		.4byte	0x12c
 1031 0225 30       		.byte	0x30
 1032 0226 09       		.uleb128 0x9
 1033 0227 77040000 		.4byte	.LASF45
 1034 022b 0A       		.byte	0xa
 1035 022c 4601     		.2byte	0x146
 1036 022e 37010000 		.4byte	0x137
 1037 0232 34       		.byte	0x34
 1038 0233 09       		.uleb128 0x9
 1039 0234 77020000 		.4byte	.LASF46
 1040 0238 0A       		.byte	0xa
 1041 0239 4D01     		.2byte	0x14d
 1042 023b EF080000 		.4byte	0x8ef
 1043 023f 38       		.byte	0x38
 1044 0240 09       		.uleb128 0x9
 1045 0241 15070000 		.4byte	.LASF47
 1046 0245 0A       		.byte	0xa
 1047 0246 5101     		.2byte	0x151
 1048 0248 21010000 		.4byte	0x121
 1049 024c 3C       		.byte	0x3c
 1050 024d 09       		.uleb128 0x9
 1051 024e 6D060000 		.4byte	.LASF48
 1052 0252 0A       		.byte	0xa
 1053 0253 5801     		.2byte	0x158
 1054 0255 43030000 		.4byte	0x343
 1055 0259 40       		.byte	0x40
 1056 025a 00       		.byte	0
 1057 025b 03       		.uleb128 0x3
 1058 025c 02070000 		.4byte	.LASF49
 1059 0260 09       		.byte	0x9
 1060 0261 44       		.byte	0x44
 1061 0262 66020000 		.4byte	0x266
 1062 0266 0A       		.uleb128 0xa
 1063 0267 04       		.byte	0x4
 1064 0268 63010000 		.4byte	0x163
 1065 026c 03       		.uleb128 0x3
 1066 026d FD080000 		.4byte	.LASF50
 1067 0271 09       		.byte	0x9
 1068 0272 49       		.byte	0x49
 1069 0273 77020000 		.4byte	0x277
 1070 0277 06       		.uleb128 0x6
 1071 0278 57050000 		.4byte	.LASF52
 1072 027c 04       		.byte	0x4
 1073 027d 0A       		.byte	0xa
 1074 027e B0       		.byte	0xb0
 1075 027f 90020000 		.4byte	0x290
 1076 0283 07       		.uleb128 0x7
 1077 0284 4A010000 		.4byte	.LASF32
 1078 0288 0A       		.byte	0xa
ARM GAS  /tmp/cc481lMf.s 			page 20


 1079 0289 B1       		.byte	0xb1
 1080 028a 66020000 		.4byte	0x266
 1081 028e 00       		.byte	0
 1082 028f 00       		.byte	0
 1083 0290 03       		.uleb128 0x3
 1084 0291 67020000 		.4byte	.LASF53
 1085 0295 09       		.byte	0x9
 1086 0296 50       		.byte	0x50
 1087 0297 9B020000 		.4byte	0x29b
 1088 029b 06       		.uleb128 0x6
 1089 029c AB070000 		.4byte	.LASF54
 1090 02a0 08       		.byte	0x8
 1091 02a1 0A       		.byte	0xa
 1092 02a2 B7       		.byte	0xb7
 1093 02a3 C0020000 		.4byte	0x2c0
 1094 02a7 07       		.uleb128 0x7
 1095 02a8 4A010000 		.4byte	.LASF32
 1096 02ac 0A       		.byte	0xa
 1097 02ad B8       		.byte	0xb8
 1098 02ae 66020000 		.4byte	0x266
 1099 02b2 00       		.byte	0
 1100 02b3 07       		.uleb128 0x7
 1101 02b4 37020000 		.4byte	.LASF33
 1102 02b8 0A       		.byte	0xa
 1103 02b9 B9       		.byte	0xb9
 1104 02ba 66020000 		.4byte	0x266
 1105 02be 04       		.byte	0x4
 1106 02bf 00       		.byte	0
 1107 02c0 03       		.uleb128 0x3
 1108 02c1 25050000 		.4byte	.LASF55
 1109 02c5 09       		.byte	0x9
 1110 02c6 57       		.byte	0x57
 1111 02c7 CB020000 		.4byte	0x2cb
 1112 02cb 0B       		.uleb128 0xb
 1113 02cc 89040000 		.4byte	.LASF56
 1114 02d0 1C       		.byte	0x1c
 1115 02d1 0A       		.byte	0xa
 1116 02d2 9001     		.2byte	0x190
 1117 02d4 27030000 		.4byte	0x327
 1118 02d8 09       		.uleb128 0x9
 1119 02d9 FC070000 		.4byte	.LASF57
 1120 02dd 0A       		.byte	0xa
 1121 02de 9101     		.2byte	0x191
 1122 02e0 90020000 		.4byte	0x290
 1123 02e4 00       		.byte	0
 1124 02e5 09       		.uleb128 0x9
 1125 02e6 C4080000 		.4byte	.LASF58
 1126 02ea 0A       		.byte	0xa
 1127 02eb 9201     		.2byte	0x192
 1128 02ed 21010000 		.4byte	0x121
 1129 02f1 08       		.byte	0x8
 1130 02f2 09       		.uleb128 0x9
 1131 02f3 45000000 		.4byte	.LASF59
 1132 02f7 0A       		.byte	0xa
 1133 02f8 9401     		.2byte	0x194
 1134 02fa B0060000 		.4byte	0x6b0
 1135 02fe 0C       		.byte	0xc
ARM GAS  /tmp/cc481lMf.s 			page 21


 1136 02ff 09       		.uleb128 0x9
 1137 0300 87030000 		.4byte	.LASF60
 1138 0304 0A       		.byte	0xa
 1139 0305 9701     		.2byte	0x197
 1140 0307 66020000 		.4byte	0x266
 1141 030b 10       		.byte	0x10
 1142 030c 09       		.uleb128 0x9
 1143 030d 4C080000 		.4byte	.LASF61
 1144 0311 0A       		.byte	0xa
 1145 0312 9801     		.2byte	0x198
 1146 0314 66020000 		.4byte	0x266
 1147 0318 14       		.byte	0x14
 1148 0319 09       		.uleb128 0x9
 1149 031a CF070000 		.4byte	.LASF62
 1150 031e 0A       		.byte	0xa
 1151 031f 9B01     		.2byte	0x19b
 1152 0321 66020000 		.4byte	0x266
 1153 0325 18       		.byte	0x18
 1154 0326 00       		.byte	0
 1155 0327 03       		.uleb128 0x3
 1156 0328 67000000 		.4byte	.LASF63
 1157 032c 09       		.byte	0x9
 1158 032d 5C       		.byte	0x5c
 1159 032e 32030000 		.4byte	0x332
 1160 0332 0A       		.uleb128 0xa
 1161 0333 04       		.byte	0x4
 1162 0334 38030000 		.4byte	0x338
 1163 0338 0C       		.uleb128 0xc
 1164 0339 43030000 		.4byte	0x343
 1165 033d 0D       		.uleb128 0xd
 1166 033e 43030000 		.4byte	0x343
 1167 0342 00       		.byte	0
 1168 0343 0E       		.uleb128 0xe
 1169 0344 04       		.byte	0x4
 1170 0345 03       		.uleb128 0x3
 1171 0346 15050000 		.4byte	.LASF64
 1172 034a 09       		.byte	0x9
 1173 034b 61       		.byte	0x61
 1174 034c 50030000 		.4byte	0x350
 1175 0350 0B       		.uleb128 0xb
 1176 0351 5E070000 		.4byte	.LASF65
 1177 0355 14       		.byte	0x14
 1178 0356 0A       		.byte	0xa
 1179 0357 6B01     		.2byte	0x16b
 1180 0359 9F030000 		.4byte	0x39f
 1181 035d 09       		.uleb128 0x9
 1182 035e C5050000 		.4byte	.LASF66
 1183 0362 0A       		.byte	0xa
 1184 0363 6C01     		.2byte	0x16c
 1185 0365 07090000 		.4byte	0x907
 1186 0369 00       		.byte	0
 1187 036a 09       		.uleb128 0x9
 1188 036b CD050000 		.4byte	.LASF67
 1189 036f 0A       		.byte	0xa
 1190 0370 6D01     		.2byte	0x16d
 1191 0372 07090000 		.4byte	0x907
 1192 0376 04       		.byte	0x4
ARM GAS  /tmp/cc481lMf.s 			page 22


 1193 0377 09       		.uleb128 0x9
 1194 0378 41070000 		.4byte	.LASF68
 1195 037c 0A       		.byte	0xa
 1196 037d 6E01     		.2byte	0x16e
 1197 037f 58010000 		.4byte	0x158
 1198 0383 08       		.byte	0x8
 1199 0384 09       		.uleb128 0x9
 1200 0385 27040000 		.4byte	.LASF69
 1201 0389 0A       		.byte	0xa
 1202 038a 6F01     		.2byte	0x16f
 1203 038c 27030000 		.4byte	0x327
 1204 0390 0C       		.byte	0xc
 1205 0391 09       		.uleb128 0x9
 1206 0392 DD000000 		.4byte	.LASF70
 1207 0396 0A       		.byte	0xa
 1208 0397 7101     		.2byte	0x171
 1209 0399 43030000 		.4byte	0x343
 1210 039d 10       		.byte	0x10
 1211 039e 00       		.byte	0
 1212 039f 03       		.uleb128 0x3
 1213 03a0 F7040000 		.4byte	.LASF71
 1214 03a4 09       		.byte	0x9
 1215 03a5 66       		.byte	0x66
 1216 03a6 AA030000 		.4byte	0x3aa
 1217 03aa 0B       		.uleb128 0xb
 1218 03ab 70000000 		.4byte	.LASF72
 1219 03af 10       		.byte	0x10
 1220 03b0 0A       		.byte	0xa
 1221 03b1 7B01     		.2byte	0x17b
 1222 03b3 EC030000 		.4byte	0x3ec
 1223 03b7 09       		.uleb128 0x9
 1224 03b8 C5050000 		.4byte	.LASF66
 1225 03bc 0A       		.byte	0xa
 1226 03bd 7C01     		.2byte	0x17c
 1227 03bf 07090000 		.4byte	0x907
 1228 03c3 00       		.byte	0
 1229 03c4 09       		.uleb128 0x9
 1230 03c5 CD050000 		.4byte	.LASF67
 1231 03c9 0A       		.byte	0xa
 1232 03ca 7E01     		.2byte	0x17e
 1233 03cc 07090000 		.4byte	0x907
 1234 03d0 04       		.byte	0x4
 1235 03d1 09       		.uleb128 0x9
 1236 03d2 41070000 		.4byte	.LASF68
 1237 03d6 0A       		.byte	0xa
 1238 03d7 8001     		.2byte	0x180
 1239 03d9 58010000 		.4byte	0x158
 1240 03dd 08       		.byte	0x8
 1241 03de 09       		.uleb128 0x9
 1242 03df 6D090000 		.4byte	.LASF73
 1243 03e3 0A       		.byte	0xa
 1244 03e4 8801     		.2byte	0x188
 1245 03e6 58010000 		.4byte	0x158
 1246 03ea 0C       		.byte	0xc
 1247 03eb 00       		.byte	0
 1248 03ec 03       		.uleb128 0x3
 1249 03ed 8F030000 		.4byte	.LASF74
ARM GAS  /tmp/cc481lMf.s 			page 23


 1250 03f1 09       		.byte	0x9
 1251 03f2 6B       		.byte	0x6b
 1252 03f3 F7030000 		.4byte	0x3f7
 1253 03f7 0B       		.uleb128 0xb
 1254 03f8 CB080000 		.4byte	.LASF75
 1255 03fc 04       		.byte	0x4
 1256 03fd 0A       		.byte	0xa
 1257 03fe A201     		.2byte	0x1a2
 1258 0400 12040000 		.4byte	0x412
 1259 0404 09       		.uleb128 0x9
 1260 0405 7D030000 		.4byte	.LASF76
 1261 0409 0A       		.byte	0xa
 1262 040a AA01     		.2byte	0x1aa
 1263 040c 0D090000 		.4byte	0x90d
 1264 0410 00       		.byte	0
 1265 0411 00       		.byte	0
 1266 0412 03       		.uleb128 0x3
 1267 0413 98090000 		.4byte	.LASF77
 1268 0417 09       		.byte	0x9
 1269 0418 70       		.byte	0x70
 1270 0419 1D040000 		.4byte	0x41d
 1271 041d 0F       		.uleb128 0xf
 1272 041e 0C090000 		.4byte	.LASF78
 1273 0422 D801     		.2byte	0x1d8
 1274 0424 0A       		.byte	0xa
 1275 0425 C201     		.2byte	0x1c2
 1276 0427 79040000 		.4byte	0x479
 1277 042b 09       		.uleb128 0x9
 1278 042c 1B080000 		.4byte	.LASF79
 1279 0430 0A       		.byte	0xa
 1280 0431 C601     		.2byte	0x1c6
 1281 0433 C0020000 		.4byte	0x2c0
 1282 0437 00       		.byte	0
 1283 0438 09       		.uleb128 0x9
 1284 0439 E6080000 		.4byte	.LASF80
 1285 043d 0A       		.byte	0xa
 1286 043e CA01     		.2byte	0x1ca
 1287 0440 9F030000 		.4byte	0x39f
 1288 0444 1C       		.byte	0x1c
 1289 0445 08       		.uleb128 0x8
 1290 0446 64626700 		.ascii	"dbg\000"
 1291 044a 0A       		.byte	0xa
 1292 044b CE01     		.2byte	0x1ce
 1293 044d EC030000 		.4byte	0x3ec
 1294 0451 2C       		.byte	0x2c
 1295 0452 09       		.uleb128 0x9
 1296 0453 D9070000 		.4byte	.LASF81
 1297 0457 0A       		.byte	0xa
 1298 0458 D201     		.2byte	0x1d2
 1299 045a 63010000 		.4byte	0x163
 1300 045e 30       		.byte	0x30
 1301 045f 08       		.uleb128 0x8
 1302 0460 746D00   		.ascii	"tm\000"
 1303 0463 0A       		.byte	0xa
 1304 0464 D701     		.2byte	0x1d7
 1305 0466 25080000 		.4byte	0x825
 1306 046a 74       		.byte	0x74
ARM GAS  /tmp/cc481lMf.s 			page 24


 1307 046b 09       		.uleb128 0x9
 1308 046c 49060000 		.4byte	.LASF82
 1309 0470 0A       		.byte	0xa
 1310 0471 E301     		.2byte	0x1e3
 1311 0473 12090000 		.4byte	0x912
 1312 0477 78       		.byte	0x78
 1313 0478 00       		.byte	0
 1314 0479 04       		.uleb128 0x4
 1315 047a 04       		.byte	0x4
 1316 047b 07       		.byte	0x7
 1317 047c 07000000 		.4byte	.LASF83
 1318 0480 10       		.uleb128 0x10
 1319 0481 D5000000 		.4byte	0xd5
 1320 0485 90040000 		.4byte	0x490
 1321 0489 11       		.uleb128 0x11
 1322 048a 79040000 		.4byte	0x479
 1323 048e 01       		.byte	0x1
 1324 048f 00       		.byte	0
 1325 0490 12       		.uleb128 0x12
 1326 0491 88       		.byte	0x88
 1327 0492 0B       		.byte	0xb
 1328 0493 6401     		.2byte	0x164
 1329 0495 1F060000 		.4byte	0x61f
 1330 0499 08       		.uleb128 0x8
 1331 049a 435200   		.ascii	"CR\000"
 1332 049d 0B       		.byte	0xb
 1333 049e 6601     		.2byte	0x166
 1334 04a0 F0000000 		.4byte	0xf0
 1335 04a4 00       		.byte	0
 1336 04a5 09       		.uleb128 0x9
 1337 04a6 73050000 		.4byte	.LASF84
 1338 04aa 0B       		.byte	0xb
 1339 04ab 6701     		.2byte	0x167
 1340 04ad F0000000 		.4byte	0xf0
 1341 04b1 04       		.byte	0x4
 1342 04b2 09       		.uleb128 0x9
 1343 04b3 97040000 		.4byte	.LASF85
 1344 04b7 0B       		.byte	0xb
 1345 04b8 6801     		.2byte	0x168
 1346 04ba F0000000 		.4byte	0xf0
 1347 04be 08       		.byte	0x8
 1348 04bf 08       		.uleb128 0x8
 1349 04c0 43495200 		.ascii	"CIR\000"
 1350 04c4 0B       		.byte	0xb
 1351 04c5 6901     		.2byte	0x169
 1352 04c7 F0000000 		.4byte	0xf0
 1353 04cb 0C       		.byte	0xc
 1354 04cc 09       		.uleb128 0x9
 1355 04cd C3030000 		.4byte	.LASF86
 1356 04d1 0B       		.byte	0xb
 1357 04d2 6A01     		.2byte	0x16a
 1358 04d4 F0000000 		.4byte	0xf0
 1359 04d8 10       		.byte	0x10
 1360 04d9 09       		.uleb128 0x9
 1361 04da 65080000 		.4byte	.LASF87
 1362 04de 0B       		.byte	0xb
 1363 04df 6B01     		.2byte	0x16b
ARM GAS  /tmp/cc481lMf.s 			page 25


 1364 04e1 F0000000 		.4byte	0xf0
 1365 04e5 14       		.byte	0x14
 1366 04e6 09       		.uleb128 0x9
 1367 04e7 D2060000 		.4byte	.LASF88
 1368 04eb 0B       		.byte	0xb
 1369 04ec 6C01     		.2byte	0x16c
 1370 04ee F0000000 		.4byte	0xf0
 1371 04f2 18       		.byte	0x18
 1372 04f3 09       		.uleb128 0x9
 1373 04f4 33030000 		.4byte	.LASF89
 1374 04f8 0B       		.byte	0xb
 1375 04f9 6D01     		.2byte	0x16d
 1376 04fb D5000000 		.4byte	0xd5
 1377 04ff 1C       		.byte	0x1c
 1378 0500 09       		.uleb128 0x9
 1379 0501 4A070000 		.4byte	.LASF90
 1380 0505 0B       		.byte	0xb
 1381 0506 6E01     		.2byte	0x16e
 1382 0508 F0000000 		.4byte	0xf0
 1383 050c 20       		.byte	0x20
 1384 050d 09       		.uleb128 0x9
 1385 050e DA050000 		.4byte	.LASF91
 1386 0512 0B       		.byte	0xb
 1387 0513 6F01     		.2byte	0x16f
 1388 0515 F0000000 		.4byte	0xf0
 1389 0519 24       		.byte	0x24
 1390 051a 09       		.uleb128 0x9
 1391 051b 3D030000 		.4byte	.LASF92
 1392 051f 0B       		.byte	0xb
 1393 0520 7001     		.2byte	0x170
 1394 0522 80040000 		.4byte	0x480
 1395 0526 28       		.byte	0x28
 1396 0527 09       		.uleb128 0x9
 1397 0528 33080000 		.4byte	.LASF93
 1398 052c 0B       		.byte	0xb
 1399 052d 7101     		.2byte	0x171
 1400 052f F0000000 		.4byte	0xf0
 1401 0533 30       		.byte	0x30
 1402 0534 09       		.uleb128 0x9
 1403 0535 DE030000 		.4byte	.LASF94
 1404 0539 0B       		.byte	0xb
 1405 053a 7201     		.2byte	0x172
 1406 053c F0000000 		.4byte	0xf0
 1407 0540 34       		.byte	0x34
 1408 0541 09       		.uleb128 0x9
 1409 0542 44080000 		.4byte	.LASF95
 1410 0546 0B       		.byte	0xb
 1411 0547 7301     		.2byte	0x173
 1412 0549 F0000000 		.4byte	0xf0
 1413 054d 38       		.byte	0x38
 1414 054e 09       		.uleb128 0x9
 1415 054f AE030000 		.4byte	.LASF96
 1416 0553 0B       		.byte	0xb
 1417 0554 7401     		.2byte	0x174
 1418 0556 D5000000 		.4byte	0xd5
 1419 055a 3C       		.byte	0x3c
 1420 055b 09       		.uleb128 0x9
ARM GAS  /tmp/cc481lMf.s 			page 26


 1421 055c 6F070000 		.4byte	.LASF97
 1422 0560 0B       		.byte	0xb
 1423 0561 7501     		.2byte	0x175
 1424 0563 F0000000 		.4byte	0xf0
 1425 0567 40       		.byte	0x40
 1426 0568 09       		.uleb128 0x9
 1427 0569 91020000 		.4byte	.LASF98
 1428 056d 0B       		.byte	0xb
 1429 056e 7601     		.2byte	0x176
 1430 0570 F0000000 		.4byte	0xf0
 1431 0574 44       		.byte	0x44
 1432 0575 09       		.uleb128 0x9
 1433 0576 55030000 		.4byte	.LASF99
 1434 057a 0B       		.byte	0xb
 1435 057b 7701     		.2byte	0x177
 1436 057d 80040000 		.4byte	0x480
 1437 0581 48       		.byte	0x48
 1438 0582 09       		.uleb128 0x9
 1439 0583 A2020000 		.4byte	.LASF100
 1440 0587 0B       		.byte	0xb
 1441 0588 7801     		.2byte	0x178
 1442 058a F0000000 		.4byte	0xf0
 1443 058e 50       		.byte	0x50
 1444 058f 09       		.uleb128 0x9
 1445 0590 FD000000 		.4byte	.LASF101
 1446 0594 0B       		.byte	0xb
 1447 0595 7901     		.2byte	0x179
 1448 0597 F0000000 		.4byte	0xf0
 1449 059b 54       		.byte	0x54
 1450 059c 09       		.uleb128 0x9
 1451 059d E4070000 		.4byte	.LASF102
 1452 05a1 0B       		.byte	0xb
 1453 05a2 7A01     		.2byte	0x17a
 1454 05a4 F0000000 		.4byte	0xf0
 1455 05a8 58       		.byte	0x58
 1456 05a9 09       		.uleb128 0x9
 1457 05aa 5F030000 		.4byte	.LASF103
 1458 05ae 0B       		.byte	0xb
 1459 05af 7B01     		.2byte	0x17b
 1460 05b1 D5000000 		.4byte	0xd5
 1461 05b5 5C       		.byte	0x5c
 1462 05b6 09       		.uleb128 0x9
 1463 05b7 B3060000 		.4byte	.LASF104
 1464 05bb 0B       		.byte	0xb
 1465 05bc 7C01     		.2byte	0x17c
 1466 05be F0000000 		.4byte	0xf0
 1467 05c2 60       		.byte	0x60
 1468 05c3 09       		.uleb128 0x9
 1469 05c4 18060000 		.4byte	.LASF105
 1470 05c8 0B       		.byte	0xb
 1471 05c9 7D01     		.2byte	0x17d
 1472 05cb F0000000 		.4byte	0xf0
 1473 05cf 64       		.byte	0x64
 1474 05d0 09       		.uleb128 0x9
 1475 05d1 69030000 		.4byte	.LASF106
 1476 05d5 0B       		.byte	0xb
 1477 05d6 7E01     		.2byte	0x17e
ARM GAS  /tmp/cc481lMf.s 			page 27


 1478 05d8 80040000 		.4byte	0x480
 1479 05dc 68       		.byte	0x68
 1480 05dd 09       		.uleb128 0x9
 1481 05de 1C040000 		.4byte	.LASF107
 1482 05e2 0B       		.byte	0xb
 1483 05e3 7F01     		.2byte	0x17f
 1484 05e5 F0000000 		.4byte	0xf0
 1485 05e9 70       		.byte	0x70
 1486 05ea 08       		.uleb128 0x8
 1487 05eb 43535200 		.ascii	"CSR\000"
 1488 05ef 0B       		.byte	0xb
 1489 05f0 8001     		.2byte	0x180
 1490 05f2 F0000000 		.4byte	0xf0
 1491 05f6 74       		.byte	0x74
 1492 05f7 09       		.uleb128 0x9
 1493 05f8 73030000 		.4byte	.LASF108
 1494 05fc 0B       		.byte	0xb
 1495 05fd 8101     		.2byte	0x181
 1496 05ff 80040000 		.4byte	0x480
 1497 0603 78       		.byte	0x78
 1498 0604 09       		.uleb128 0x9
 1499 0605 BF050000 		.4byte	.LASF109
 1500 0609 0B       		.byte	0xb
 1501 060a 8201     		.2byte	0x182
 1502 060c F0000000 		.4byte	0xf0
 1503 0610 80       		.byte	0x80
 1504 0611 09       		.uleb128 0x9
 1505 0612 21000000 		.4byte	.LASF110
 1506 0616 0B       		.byte	0xb
 1507 0617 8301     		.2byte	0x183
 1508 0619 F0000000 		.4byte	0xf0
 1509 061d 84       		.byte	0x84
 1510 061e 00       		.byte	0
 1511 061f 13       		.uleb128 0x13
 1512 0620 88080000 		.4byte	.LASF111
 1513 0624 0B       		.byte	0xb
 1514 0625 8501     		.2byte	0x185
 1515 0627 90040000 		.4byte	0x490
 1516 062b 12       		.uleb128 0x12
 1517 062c 1C       		.byte	0x1c
 1518 062d 0B       		.byte	0xb
 1519 062e 0602     		.2byte	0x206
 1520 0630 8E060000 		.4byte	0x68e
 1521 0634 08       		.uleb128 0x8
 1522 0635 535200   		.ascii	"SR\000"
 1523 0638 0B       		.byte	0xb
 1524 0639 0802     		.2byte	0x208
 1525 063b F0000000 		.4byte	0xf0
 1526 063f 00       		.byte	0
 1527 0640 08       		.uleb128 0x8
 1528 0641 445200   		.ascii	"DR\000"
 1529 0644 0B       		.byte	0xb
 1530 0645 0902     		.2byte	0x209
 1531 0647 F0000000 		.4byte	0xf0
 1532 064b 04       		.byte	0x4
 1533 064c 08       		.uleb128 0x8
 1534 064d 42525200 		.ascii	"BRR\000"
ARM GAS  /tmp/cc481lMf.s 			page 28


 1535 0651 0B       		.byte	0xb
 1536 0652 0A02     		.2byte	0x20a
 1537 0654 F0000000 		.4byte	0xf0
 1538 0658 08       		.byte	0x8
 1539 0659 08       		.uleb128 0x8
 1540 065a 43523100 		.ascii	"CR1\000"
 1541 065e 0B       		.byte	0xb
 1542 065f 0B02     		.2byte	0x20b
 1543 0661 F0000000 		.4byte	0xf0
 1544 0665 0C       		.byte	0xc
 1545 0666 08       		.uleb128 0x8
 1546 0667 43523200 		.ascii	"CR2\000"
 1547 066b 0B       		.byte	0xb
 1548 066c 0C02     		.2byte	0x20c
 1549 066e F0000000 		.4byte	0xf0
 1550 0672 10       		.byte	0x10
 1551 0673 08       		.uleb128 0x8
 1552 0674 43523300 		.ascii	"CR3\000"
 1553 0678 0B       		.byte	0xb
 1554 0679 0D02     		.2byte	0x20d
 1555 067b F0000000 		.4byte	0xf0
 1556 067f 14       		.byte	0x14
 1557 0680 09       		.uleb128 0x9
 1558 0681 D5050000 		.4byte	.LASF112
 1559 0685 0B       		.byte	0xb
 1560 0686 0E02     		.2byte	0x20e
 1561 0688 F0000000 		.4byte	0xf0
 1562 068c 18       		.byte	0x18
 1563 068d 00       		.byte	0
 1564 068e 13       		.uleb128 0x13
 1565 068f FD030000 		.4byte	.LASF113
 1566 0693 0B       		.byte	0xb
 1567 0694 0F02     		.2byte	0x20f
 1568 0696 2B060000 		.4byte	0x62b
 1569 069a 03       		.uleb128 0x3
 1570 069b 88020000 		.4byte	.LASF114
 1571 069f 0C       		.byte	0xc
 1572 06a0 65       		.byte	0x65
 1573 06a1 43030000 		.4byte	0x343
 1574 06a5 03       		.uleb128 0x3
 1575 06a6 F2030000 		.4byte	.LASF115
 1576 06aa 0C       		.byte	0xc
 1577 06ab 6D       		.byte	0x6d
 1578 06ac E0000000 		.4byte	0xe0
 1579 06b0 06       		.uleb128 0x6
 1580 06b1 12030000 		.4byte	.LASF116
 1581 06b5 04       		.byte	0x4
 1582 06b6 0C       		.byte	0xc
 1583 06b7 89       		.byte	0x89
 1584 06b8 C9060000 		.4byte	0x6c9
 1585 06bc 14       		.uleb128 0x14
 1586 06bd 72313300 		.ascii	"r13\000"
 1587 06c1 0C       		.byte	0xc
 1588 06c2 8A       		.byte	0x8a
 1589 06c3 0A080000 		.4byte	0x80a
 1590 06c7 00       		.byte	0
 1591 06c8 00       		.byte	0
ARM GAS  /tmp/cc481lMf.s 			page 29


 1592 06c9 06       		.uleb128 0x6
 1593 06ca 20070000 		.4byte	.LASF117
 1594 06ce 64       		.byte	0x64
 1595 06cf 0D       		.byte	0xd
 1596 06d0 F4       		.byte	0xf4
 1597 06d1 0A080000 		.4byte	0x80a
 1598 06d5 14       		.uleb128 0x14
 1599 06d6 73313600 		.ascii	"s16\000"
 1600 06da 0D       		.byte	0xd
 1601 06db F6       		.byte	0xf6
 1602 06dc 9A060000 		.4byte	0x69a
 1603 06e0 00       		.byte	0
 1604 06e1 14       		.uleb128 0x14
 1605 06e2 73313700 		.ascii	"s17\000"
 1606 06e6 0D       		.byte	0xd
 1607 06e7 F7       		.byte	0xf7
 1608 06e8 9A060000 		.4byte	0x69a
 1609 06ec 04       		.byte	0x4
 1610 06ed 14       		.uleb128 0x14
 1611 06ee 73313800 		.ascii	"s18\000"
 1612 06f2 0D       		.byte	0xd
 1613 06f3 F8       		.byte	0xf8
 1614 06f4 9A060000 		.4byte	0x69a
 1615 06f8 08       		.byte	0x8
 1616 06f9 14       		.uleb128 0x14
 1617 06fa 73313900 		.ascii	"s19\000"
 1618 06fe 0D       		.byte	0xd
 1619 06ff F9       		.byte	0xf9
 1620 0700 9A060000 		.4byte	0x69a
 1621 0704 0C       		.byte	0xc
 1622 0705 14       		.uleb128 0x14
 1623 0706 73323000 		.ascii	"s20\000"
 1624 070a 0D       		.byte	0xd
 1625 070b FA       		.byte	0xfa
 1626 070c 9A060000 		.4byte	0x69a
 1627 0710 10       		.byte	0x10
 1628 0711 14       		.uleb128 0x14
 1629 0712 73323100 		.ascii	"s21\000"
 1630 0716 0D       		.byte	0xd
 1631 0717 FB       		.byte	0xfb
 1632 0718 9A060000 		.4byte	0x69a
 1633 071c 14       		.byte	0x14
 1634 071d 14       		.uleb128 0x14
 1635 071e 73323200 		.ascii	"s22\000"
 1636 0722 0D       		.byte	0xd
 1637 0723 FC       		.byte	0xfc
 1638 0724 9A060000 		.4byte	0x69a
 1639 0728 18       		.byte	0x18
 1640 0729 14       		.uleb128 0x14
 1641 072a 73323300 		.ascii	"s23\000"
 1642 072e 0D       		.byte	0xd
 1643 072f FD       		.byte	0xfd
 1644 0730 9A060000 		.4byte	0x69a
 1645 0734 1C       		.byte	0x1c
 1646 0735 14       		.uleb128 0x14
 1647 0736 73323400 		.ascii	"s24\000"
 1648 073a 0D       		.byte	0xd
ARM GAS  /tmp/cc481lMf.s 			page 30


 1649 073b FE       		.byte	0xfe
 1650 073c 9A060000 		.4byte	0x69a
 1651 0740 20       		.byte	0x20
 1652 0741 14       		.uleb128 0x14
 1653 0742 73323500 		.ascii	"s25\000"
 1654 0746 0D       		.byte	0xd
 1655 0747 FF       		.byte	0xff
 1656 0748 9A060000 		.4byte	0x69a
 1657 074c 24       		.byte	0x24
 1658 074d 08       		.uleb128 0x8
 1659 074e 73323600 		.ascii	"s26\000"
 1660 0752 0D       		.byte	0xd
 1661 0753 0001     		.2byte	0x100
 1662 0755 9A060000 		.4byte	0x69a
 1663 0759 28       		.byte	0x28
 1664 075a 08       		.uleb128 0x8
 1665 075b 73323700 		.ascii	"s27\000"
 1666 075f 0D       		.byte	0xd
 1667 0760 0101     		.2byte	0x101
 1668 0762 9A060000 		.4byte	0x69a
 1669 0766 2C       		.byte	0x2c
 1670 0767 08       		.uleb128 0x8
 1671 0768 73323800 		.ascii	"s28\000"
 1672 076c 0D       		.byte	0xd
 1673 076d 0201     		.2byte	0x102
 1674 076f 9A060000 		.4byte	0x69a
 1675 0773 30       		.byte	0x30
 1676 0774 08       		.uleb128 0x8
 1677 0775 73323900 		.ascii	"s29\000"
 1678 0779 0D       		.byte	0xd
 1679 077a 0301     		.2byte	0x103
 1680 077c 9A060000 		.4byte	0x69a
 1681 0780 34       		.byte	0x34
 1682 0781 08       		.uleb128 0x8
 1683 0782 73333000 		.ascii	"s30\000"
 1684 0786 0D       		.byte	0xd
 1685 0787 0401     		.2byte	0x104
 1686 0789 9A060000 		.4byte	0x69a
 1687 078d 38       		.byte	0x38
 1688 078e 08       		.uleb128 0x8
 1689 078f 73333100 		.ascii	"s31\000"
 1690 0793 0D       		.byte	0xd
 1691 0794 0501     		.2byte	0x105
 1692 0796 9A060000 		.4byte	0x69a
 1693 079a 3C       		.byte	0x3c
 1694 079b 08       		.uleb128 0x8
 1695 079c 723400   		.ascii	"r4\000"
 1696 079f 0D       		.byte	0xd
 1697 07a0 0701     		.2byte	0x107
 1698 07a2 9A060000 		.4byte	0x69a
 1699 07a6 40       		.byte	0x40
 1700 07a7 08       		.uleb128 0x8
 1701 07a8 723500   		.ascii	"r5\000"
 1702 07ab 0D       		.byte	0xd
 1703 07ac 0801     		.2byte	0x108
 1704 07ae 9A060000 		.4byte	0x69a
 1705 07b2 44       		.byte	0x44
ARM GAS  /tmp/cc481lMf.s 			page 31


 1706 07b3 08       		.uleb128 0x8
 1707 07b4 723600   		.ascii	"r6\000"
 1708 07b7 0D       		.byte	0xd
 1709 07b8 0901     		.2byte	0x109
 1710 07ba 9A060000 		.4byte	0x69a
 1711 07be 48       		.byte	0x48
 1712 07bf 08       		.uleb128 0x8
 1713 07c0 723700   		.ascii	"r7\000"
 1714 07c3 0D       		.byte	0xd
 1715 07c4 0A01     		.2byte	0x10a
 1716 07c6 9A060000 		.4byte	0x69a
 1717 07ca 4C       		.byte	0x4c
 1718 07cb 08       		.uleb128 0x8
 1719 07cc 723800   		.ascii	"r8\000"
 1720 07cf 0D       		.byte	0xd
 1721 07d0 0B01     		.2byte	0x10b
 1722 07d2 9A060000 		.4byte	0x69a
 1723 07d6 50       		.byte	0x50
 1724 07d7 08       		.uleb128 0x8
 1725 07d8 723900   		.ascii	"r9\000"
 1726 07db 0D       		.byte	0xd
 1727 07dc 0C01     		.2byte	0x10c
 1728 07de 9A060000 		.4byte	0x69a
 1729 07e2 54       		.byte	0x54
 1730 07e3 08       		.uleb128 0x8
 1731 07e4 72313000 		.ascii	"r10\000"
 1732 07e8 0D       		.byte	0xd
 1733 07e9 0D01     		.2byte	0x10d
 1734 07eb 9A060000 		.4byte	0x69a
 1735 07ef 58       		.byte	0x58
 1736 07f0 08       		.uleb128 0x8
 1737 07f1 72313100 		.ascii	"r11\000"
 1738 07f5 0D       		.byte	0xd
 1739 07f6 0E01     		.2byte	0x10e
 1740 07f8 9A060000 		.4byte	0x69a
 1741 07fc 5C       		.byte	0x5c
 1742 07fd 08       		.uleb128 0x8
 1743 07fe 6C7200   		.ascii	"lr\000"
 1744 0801 0D       		.byte	0xd
 1745 0802 0F01     		.2byte	0x10f
 1746 0804 9A060000 		.4byte	0x69a
 1747 0808 60       		.byte	0x60
 1748 0809 00       		.byte	0
 1749 080a 0A       		.uleb128 0xa
 1750 080b 04       		.byte	0x4
 1751 080c C9060000 		.4byte	0x6c9
 1752 0810 15       		.uleb128 0x15
 1753 0811 04       		.byte	0x4
 1754 0812 0E       		.byte	0xe
 1755 0813 38       		.byte	0x38
 1756 0814 25080000 		.4byte	0x825
 1757 0818 07       		.uleb128 0x7
 1758 0819 AC060000 		.4byte	.LASF118
 1759 081d 0E       		.byte	0xe
 1760 081e 3C       		.byte	0x3c
 1761 081f F5000000 		.4byte	0xf5
 1762 0823 00       		.byte	0
ARM GAS  /tmp/cc481lMf.s 			page 32


 1763 0824 00       		.byte	0
 1764 0825 03       		.uleb128 0x3
 1765 0826 54080000 		.4byte	.LASF119
 1766 082a 0E       		.byte	0xe
 1767 082b 3D       		.byte	0x3d
 1768 082c 10080000 		.4byte	0x810
 1769 0830 16       		.uleb128 0x16
 1770 0831 04       		.byte	0x4
 1771 0832 0A       		.byte	0xa
 1772 0833 FA       		.byte	0xfa
 1773 0834 8D080000 		.4byte	0x88d
 1774 0838 17       		.uleb128 0x17
 1775 0839 66090000 		.4byte	.LASF120
 1776 083d 0A       		.byte	0xa
 1777 083e 0101     		.2byte	0x101
 1778 0840 2C010000 		.4byte	0x12c
 1779 0844 17       		.uleb128 0x17
 1780 0845 E4000000 		.4byte	.LASF121
 1781 0849 0A       		.byte	0xa
 1782 084a 0801     		.2byte	0x108
 1783 084c 2C010000 		.4byte	0x12c
 1784 0850 17       		.uleb128 0x17
 1785 0851 E6030000 		.4byte	.LASF122
 1786 0855 0A       		.byte	0xa
 1787 0856 0F01     		.2byte	0x10f
 1788 0858 43030000 		.4byte	0x343
 1789 085c 17       		.uleb128 0x17
 1790 085d 1A030000 		.4byte	.LASF123
 1791 0861 0A       		.byte	0xa
 1792 0862 1601     		.2byte	0x116
 1793 0864 8D080000 		.4byte	0x88d
 1794 0868 17       		.uleb128 0x17
 1795 0869 10000000 		.4byte	.LASF124
 1796 086d 0A       		.byte	0xa
 1797 086e 1E01     		.2byte	0x11e
 1798 0870 B8080000 		.4byte	0x8b8
 1799 0874 17       		.uleb128 0x17
 1800 0875 82040000 		.4byte	.LASF125
 1801 0879 0A       		.byte	0xa
 1802 087a 2701     		.2byte	0x127
 1803 087c EF080000 		.4byte	0x8ef
 1804 0880 17       		.uleb128 0x17
 1805 0881 C5020000 		.4byte	.LASF126
 1806 0885 0A       		.byte	0xa
 1807 0886 2F01     		.2byte	0x12f
 1808 0888 37010000 		.4byte	0x137
 1809 088c 00       		.byte	0
 1810 088d 0A       		.uleb128 0xa
 1811 088e 04       		.byte	0x4
 1812 088f 5B020000 		.4byte	0x25b
 1813 0893 06       		.uleb128 0x6
 1814 0894 E0040000 		.4byte	.LASF127
 1815 0898 0C       		.byte	0xc
 1816 0899 0F       		.byte	0xf
 1817 089a 34       		.byte	0x34
 1818 089b B8080000 		.4byte	0x8b8
 1819 089f 07       		.uleb128 0x7
ARM GAS  /tmp/cc481lMf.s 			page 33


 1820 08a0 78080000 		.4byte	.LASF128
 1821 08a4 0F       		.byte	0xf
 1822 08a5 35       		.byte	0x35
 1823 08a6 90020000 		.4byte	0x290
 1824 08aa 00       		.byte	0
 1825 08ab 07       		.uleb128 0x7
 1826 08ac 77070000 		.4byte	.LASF129
 1827 08b0 0F       		.byte	0xf
 1828 08b1 37       		.byte	0x37
 1829 08b2 4D010000 		.4byte	0x14d
 1830 08b6 08       		.byte	0x8
 1831 08b7 00       		.byte	0
 1832 08b8 0A       		.uleb128 0xa
 1833 08b9 04       		.byte	0x4
 1834 08ba 93080000 		.4byte	0x893
 1835 08be 06       		.uleb128 0x6
 1836 08bf B4080000 		.4byte	.LASF130
 1837 08c3 10       		.byte	0x10
 1838 08c4 10       		.byte	0x10
 1839 08c5 39       		.byte	0x39
 1840 08c6 EF080000 		.4byte	0x8ef
 1841 08ca 07       		.uleb128 0x7
 1842 08cb A4050000 		.4byte	.LASF131
 1843 08cf 10       		.byte	0x10
 1844 08d0 3A       		.byte	0x3a
 1845 08d1 90020000 		.4byte	0x290
 1846 08d5 00       		.byte	0
 1847 08d6 07       		.uleb128 0x7
 1848 08d7 D5000000 		.4byte	.LASF132
 1849 08db 10       		.byte	0x10
 1850 08dc 3C       		.byte	0x3c
 1851 08dd 66020000 		.4byte	0x266
 1852 08e1 08       		.byte	0x8
 1853 08e2 07       		.uleb128 0x7
 1854 08e3 D5090000 		.4byte	.LASF133
 1855 08e7 10       		.byte	0x10
 1856 08e8 3E       		.byte	0x3e
 1857 08e9 2D090000 		.4byte	0x92d
 1858 08ed 0C       		.byte	0xc
 1859 08ee 00       		.byte	0
 1860 08ef 0A       		.uleb128 0xa
 1861 08f0 04       		.byte	0x4
 1862 08f1 BE080000 		.4byte	0x8be
 1863 08f5 0A       		.uleb128 0xa
 1864 08f6 04       		.byte	0x4
 1865 08f7 02090000 		.4byte	0x902
 1866 08fb 04       		.uleb128 0x4
 1867 08fc 01       		.byte	0x1
 1868 08fd 08       		.byte	0x8
 1869 08fe BE030000 		.4byte	.LASF134
 1870 0902 18       		.uleb128 0x18
 1871 0903 FB080000 		.4byte	0x8fb
 1872 0907 0A       		.uleb128 0xa
 1873 0908 04       		.byte	0x4
 1874 0909 45030000 		.4byte	0x345
 1875 090d 05       		.uleb128 0x5
 1876 090e F5080000 		.4byte	0x8f5
ARM GAS  /tmp/cc481lMf.s 			page 34


 1877 0912 10       		.uleb128 0x10
 1878 0913 A5060000 		.4byte	0x6a5
 1879 0917 22090000 		.4byte	0x922
 1880 091b 11       		.uleb128 0x11
 1881 091c 79040000 		.4byte	0x479
 1882 0920 2B       		.byte	0x2b
 1883 0921 00       		.byte	0
 1884 0922 03       		.uleb128 0x3
 1885 0923 ED080000 		.4byte	.LASF135
 1886 0927 10       		.byte	0x10
 1887 0928 34       		.byte	0x34
 1888 0929 BE080000 		.4byte	0x8be
 1889 092d 0A       		.uleb128 0xa
 1890 092e 04       		.byte	0x4
 1891 092f 22090000 		.4byte	0x922
 1892 0933 03       		.uleb128 0x3
 1893 0934 0B040000 		.4byte	.LASF136
 1894 0938 11       		.byte	0x11
 1895 0939 34       		.byte	0x34
 1896 093a 3E090000 		.4byte	0x93e
 1897 093e 06       		.uleb128 0x6
 1898 093f 57090000 		.4byte	.LASF137
 1899 0943 14       		.byte	0x14
 1900 0944 11       		.byte	0x11
 1901 0945 39       		.byte	0x39
 1902 0946 87090000 		.4byte	0x987
 1903 094a 07       		.uleb128 0x7
 1904 094b 0D050000 		.4byte	.LASF138
 1905 094f 11       		.byte	0x11
 1906 0950 3A       		.byte	0x3a
 1907 0951 87090000 		.4byte	0x987
 1908 0955 00       		.byte	0
 1909 0956 07       		.uleb128 0x7
 1910 0957 E2090000 		.4byte	.LASF139
 1911 095b 11       		.byte	0x11
 1912 095c 3D       		.byte	0x3d
 1913 095d 66020000 		.4byte	0x266
 1914 0961 04       		.byte	0x4
 1915 0962 07       		.uleb128 0x7
 1916 0963 8F060000 		.4byte	.LASF140
 1917 0967 11       		.byte	0x11
 1918 0968 3F       		.byte	0x3f
 1919 0969 37010000 		.4byte	0x137
 1920 096d 08       		.byte	0x8
 1921 096e 07       		.uleb128 0x7
 1922 096f 8D000000 		.4byte	.LASF141
 1923 0973 11       		.byte	0x11
 1924 0974 41       		.byte	0x41
 1925 0975 42010000 		.4byte	0x142
 1926 0979 0C       		.byte	0xc
 1927 097a 07       		.uleb128 0x7
 1928 097b 85060000 		.4byte	.LASF142
 1929 097f 11       		.byte	0x11
 1930 0980 43       		.byte	0x43
 1931 0981 42010000 		.4byte	0x142
 1932 0985 10       		.byte	0x10
 1933 0986 00       		.byte	0
ARM GAS  /tmp/cc481lMf.s 			page 35


 1934 0987 0A       		.uleb128 0xa
 1935 0988 04       		.byte	0x4
 1936 0989 33090000 		.4byte	0x933
 1937 098d 06       		.uleb128 0x6
 1938 098e 9E080000 		.4byte	.LASF143
 1939 0992 04       		.byte	0x4
 1940 0993 11       		.byte	0x11
 1941 0994 4A       		.byte	0x4a
 1942 0995 A6090000 		.4byte	0x9a6
 1943 0999 07       		.uleb128 0x7
 1944 099a B1040000 		.4byte	.LASF144
 1945 099e 11       		.byte	0x11
 1946 099f 4B       		.byte	0x4b
 1947 09a0 87090000 		.4byte	0x987
 1948 09a4 00       		.byte	0
 1949 09a5 00       		.byte	0
 1950 09a6 03       		.uleb128 0x3
 1951 09a7 E3050000 		.4byte	.LASF145
 1952 09ab 11       		.byte	0x11
 1953 09ac 4E       		.byte	0x4e
 1954 09ad 8D090000 		.4byte	0x98d
 1955 09b1 03       		.uleb128 0x3
 1956 09b2 DB080000 		.4byte	.LASF146
 1957 09b6 04       		.byte	0x4
 1958 09b7 3F       		.byte	0x3f
 1959 09b8 BC090000 		.4byte	0x9bc
 1960 09bc 06       		.uleb128 0x6
 1961 09bd 99020000 		.4byte	.LASF147
 1962 09c1 24       		.byte	0x24
 1963 09c2 04       		.byte	0x4
 1964 09c3 4D       		.byte	0x4d
 1965 09c4 290A0000 		.4byte	0xa29
 1966 09c8 07       		.uleb128 0x7
 1967 09c9 11080000 		.4byte	.LASF148
 1968 09cd 04       		.byte	0x4
 1969 09ce 4E       		.byte	0x4e
 1970 09cf 90020000 		.4byte	0x290
 1971 09d3 00       		.byte	0
 1972 09d4 07       		.uleb128 0x7
 1973 09d5 B9040000 		.4byte	.LASF149
 1974 09d9 04       		.byte	0x4
 1975 09da 4F       		.byte	0x4f
 1976 09db 2C000000 		.4byte	0x2c
 1977 09df 08       		.byte	0x8
 1978 09e0 07       		.uleb128 0x7
 1979 09e1 1A010000 		.4byte	.LASF150
 1980 09e5 04       		.byte	0x4
 1981 09e6 50       		.byte	0x50
 1982 09e7 4B0A0000 		.4byte	0xa4b
 1983 09eb 0C       		.byte	0xc
 1984 09ec 07       		.uleb128 0x7
 1985 09ed F7000000 		.4byte	.LASF151
 1986 09f1 04       		.byte	0x4
 1987 09f2 51       		.byte	0x51
 1988 09f3 4B0A0000 		.4byte	0xa4b
 1989 09f7 10       		.byte	0x10
 1990 09f8 07       		.uleb128 0x7
ARM GAS  /tmp/cc481lMf.s 			page 36


 1991 09f9 32050000 		.4byte	.LASF152
 1992 09fd 04       		.byte	0x4
 1993 09fe 53       		.byte	0x53
 1994 09ff 4B0A0000 		.4byte	0xa4b
 1995 0a03 14       		.byte	0x14
 1996 0a04 07       		.uleb128 0x7
 1997 0a05 2F020000 		.4byte	.LASF153
 1998 0a09 04       		.byte	0x4
 1999 0a0a 54       		.byte	0x54
 2000 0a0b 4B0A0000 		.4byte	0xa4b
 2001 0a0f 18       		.byte	0x18
 2002 0a10 07       		.uleb128 0x7
 2003 0a11 23010000 		.4byte	.LASF154
 2004 0a15 04       		.byte	0x4
 2005 0a16 55       		.byte	0x55
 2006 0a17 290A0000 		.4byte	0xa29
 2007 0a1b 1C       		.byte	0x1c
 2008 0a1c 07       		.uleb128 0x7
 2009 0a1d B2020000 		.4byte	.LASF155
 2010 0a21 04       		.byte	0x4
 2011 0a22 56       		.byte	0x56
 2012 0a23 43030000 		.4byte	0x343
 2013 0a27 20       		.byte	0x20
 2014 0a28 00       		.byte	0
 2015 0a29 03       		.uleb128 0x3
 2016 0a2a 22060000 		.4byte	.LASF156
 2017 0a2e 04       		.byte	0x4
 2018 0a2f 42       		.byte	0x42
 2019 0a30 340A0000 		.4byte	0xa34
 2020 0a34 0A       		.uleb128 0xa
 2021 0a35 04       		.byte	0x4
 2022 0a36 3A0A0000 		.4byte	0xa3a
 2023 0a3a 0C       		.uleb128 0xc
 2024 0a3b 450A0000 		.4byte	0xa45
 2025 0a3f 0D       		.uleb128 0xd
 2026 0a40 450A0000 		.4byte	0xa45
 2027 0a44 00       		.byte	0
 2028 0a45 0A       		.uleb128 0xa
 2029 0a46 04       		.byte	0x4
 2030 0a47 B1090000 		.4byte	0x9b1
 2031 0a4b 0A       		.uleb128 0xa
 2032 0a4c 04       		.byte	0x4
 2033 0a4d B4000000 		.4byte	0xb4
 2034 0a51 03       		.uleb128 0x3
 2035 0a52 30090000 		.4byte	.LASF157
 2036 0a56 04       		.byte	0x4
 2037 0a57 64       		.byte	0x64
 2038 0a58 B1090000 		.4byte	0x9b1
 2039 0a5c 03       		.uleb128 0x3
 2040 0a5d A4090000 		.4byte	.LASF158
 2041 0a61 04       		.byte	0x4
 2042 0a62 71       		.byte	0x71
 2043 0a63 B1090000 		.4byte	0x9b1
 2044 0a67 19       		.uleb128 0x19
 2045 0a68 2C000000 		.4byte	0x2c
 2046 0a6c 800A0000 		.4byte	0xa80
 2047 0a70 0D       		.uleb128 0xd
ARM GAS  /tmp/cc481lMf.s 			page 37


 2048 0a71 43030000 		.4byte	0x343
 2049 0a75 0D       		.uleb128 0xd
 2050 0a76 800A0000 		.4byte	0xa80
 2051 0a7a 0D       		.uleb128 0xd
 2052 0a7b 2C000000 		.4byte	0x2c
 2053 0a7f 00       		.byte	0
 2054 0a80 0A       		.uleb128 0xa
 2055 0a81 04       		.byte	0x4
 2056 0a82 860A0000 		.4byte	0xa86
 2057 0a86 18       		.uleb128 0x18
 2058 0a87 B4000000 		.4byte	0xb4
 2059 0a8b 0A       		.uleb128 0xa
 2060 0a8c 04       		.byte	0x4
 2061 0a8d 670A0000 		.4byte	0xa67
 2062 0a91 19       		.uleb128 0x19
 2063 0a92 2C000000 		.4byte	0x2c
 2064 0a96 AA0A0000 		.4byte	0xaaa
 2065 0a9a 0D       		.uleb128 0xd
 2066 0a9b 43030000 		.4byte	0x343
 2067 0a9f 0D       		.uleb128 0xd
 2068 0aa0 4B0A0000 		.4byte	0xa4b
 2069 0aa4 0D       		.uleb128 0xd
 2070 0aa5 2C000000 		.4byte	0x2c
 2071 0aa9 00       		.byte	0
 2072 0aaa 0A       		.uleb128 0xa
 2073 0aab 04       		.byte	0x4
 2074 0aac 910A0000 		.4byte	0xa91
 2075 0ab0 19       		.uleb128 0x19
 2076 0ab1 2C010000 		.4byte	0x12c
 2077 0ab5 C40A0000 		.4byte	0xac4
 2078 0ab9 0D       		.uleb128 0xd
 2079 0aba 43030000 		.4byte	0x343
 2080 0abe 0D       		.uleb128 0xd
 2081 0abf B4000000 		.4byte	0xb4
 2082 0ac3 00       		.byte	0
 2083 0ac4 0A       		.uleb128 0xa
 2084 0ac5 04       		.byte	0x4
 2085 0ac6 B00A0000 		.4byte	0xab0
 2086 0aca 19       		.uleb128 0x19
 2087 0acb 2C010000 		.4byte	0x12c
 2088 0acf D90A0000 		.4byte	0xad9
 2089 0ad3 0D       		.uleb128 0xd
 2090 0ad4 43030000 		.4byte	0x343
 2091 0ad8 00       		.byte	0
 2092 0ad9 0A       		.uleb128 0xa
 2093 0ada 04       		.byte	0x4
 2094 0adb CA0A0000 		.4byte	0xaca
 2095 0adf 19       		.uleb128 0x19
 2096 0ae0 2C010000 		.4byte	0x12c
 2097 0ae4 F80A0000 		.4byte	0xaf8
 2098 0ae8 0D       		.uleb128 0xd
 2099 0ae9 43030000 		.4byte	0x343
 2100 0aed 0D       		.uleb128 0xd
 2101 0aee B4000000 		.4byte	0xb4
 2102 0af2 0D       		.uleb128 0xd
 2103 0af3 58010000 		.4byte	0x158
 2104 0af7 00       		.byte	0
ARM GAS  /tmp/cc481lMf.s 			page 38


 2105 0af8 0A       		.uleb128 0xa
 2106 0af9 04       		.byte	0x4
 2107 0afa DF0A0000 		.4byte	0xadf
 2108 0afe 19       		.uleb128 0x19
 2109 0aff 2C010000 		.4byte	0x12c
 2110 0b03 120B0000 		.4byte	0xb12
 2111 0b07 0D       		.uleb128 0xd
 2112 0b08 43030000 		.4byte	0x343
 2113 0b0c 0D       		.uleb128 0xd
 2114 0b0d 58010000 		.4byte	0x158
 2115 0b11 00       		.byte	0
 2116 0b12 0A       		.uleb128 0xa
 2117 0b13 04       		.byte	0x4
 2118 0b14 FE0A0000 		.4byte	0xafe
 2119 0b18 19       		.uleb128 0x19
 2120 0b19 2C000000 		.4byte	0x2c
 2121 0b1d 360B0000 		.4byte	0xb36
 2122 0b21 0D       		.uleb128 0xd
 2123 0b22 43030000 		.4byte	0x343
 2124 0b26 0D       		.uleb128 0xd
 2125 0b27 800A0000 		.4byte	0xa80
 2126 0b2b 0D       		.uleb128 0xd
 2127 0b2c 2C000000 		.4byte	0x2c
 2128 0b30 0D       		.uleb128 0xd
 2129 0b31 58010000 		.4byte	0x158
 2130 0b35 00       		.byte	0
 2131 0b36 0A       		.uleb128 0xa
 2132 0b37 04       		.byte	0x4
 2133 0b38 180B0000 		.4byte	0xb18
 2134 0b3c 19       		.uleb128 0x19
 2135 0b3d 2C000000 		.4byte	0x2c
 2136 0b41 5A0B0000 		.4byte	0xb5a
 2137 0b45 0D       		.uleb128 0xd
 2138 0b46 43030000 		.4byte	0x343
 2139 0b4a 0D       		.uleb128 0xd
 2140 0b4b 4B0A0000 		.4byte	0xa4b
 2141 0b4f 0D       		.uleb128 0xd
 2142 0b50 2C000000 		.4byte	0x2c
 2143 0b54 0D       		.uleb128 0xd
 2144 0b55 58010000 		.4byte	0x158
 2145 0b59 00       		.byte	0
 2146 0b5a 0A       		.uleb128 0xa
 2147 0b5b 04       		.byte	0x4
 2148 0b5c 3C0B0000 		.4byte	0xb3c
 2149 0b60 04       		.uleb128 0x4
 2150 0b61 01       		.byte	0x1
 2151 0b62 02       		.byte	0x2
 2152 0b63 A8030000 		.4byte	.LASF159
 2153 0b67 1A       		.uleb128 0x1a
 2154 0b68 01       		.byte	0x1
 2155 0b69 5E000000 		.4byte	0x5e
 2156 0b6d 12       		.byte	0x12
 2157 0b6e 55       		.byte	0x55
 2158 0b6f 860B0000 		.4byte	0xb86
 2159 0b73 1B       		.uleb128 0x1b
 2160 0b74 9E030000 		.4byte	.LASF160
 2161 0b78 00       		.byte	0
ARM GAS  /tmp/cc481lMf.s 			page 39


 2162 0b79 1B       		.uleb128 0x1b
 2163 0b7a BD090000 		.4byte	.LASF161
 2164 0b7e 01       		.byte	0x1
 2165 0b7f 1B       		.uleb128 0x1b
 2166 0b80 3B080000 		.4byte	.LASF162
 2167 0b84 02       		.byte	0x2
 2168 0b85 00       		.byte	0
 2169 0b86 03       		.uleb128 0x3
 2170 0b87 29080000 		.4byte	.LASF163
 2171 0b8b 12       		.byte	0x12
 2172 0b8c 59       		.byte	0x59
 2173 0b8d 670B0000 		.4byte	0xb67
 2174 0b91 03       		.uleb128 0x3
 2175 0b92 04080000 		.4byte	.LASF164
 2176 0b96 12       		.byte	0x12
 2177 0b97 5E       		.byte	0x5e
 2178 0b98 9C0B0000 		.4byte	0xb9c
 2179 0b9c 06       		.uleb128 0x6
 2180 0b9d 04080000 		.4byte	.LASF164
 2181 0ba1 78       		.byte	0x78
 2182 0ba2 12       		.byte	0x12
 2183 0ba3 78       		.byte	0x78
 2184 0ba4 070C0000 		.4byte	0xc07
 2185 0ba8 14       		.uleb128 0x14
 2186 0ba9 766D7400 		.ascii	"vmt\000"
 2187 0bad 12       		.byte	0x12
 2188 0bae 7A       		.byte	0x7a
 2189 0baf B80C0000 		.4byte	0xcb8
 2190 0bb3 00       		.byte	0
 2191 0bb4 07       		.uleb128 0x7
 2192 0bb5 36060000 		.4byte	.LASF165
 2193 0bb9 12       		.byte	0x12
 2194 0bba 7B       		.byte	0x7b
 2195 0bbb A6090000 		.4byte	0x9a6
 2196 0bbf 04       		.byte	0x4
 2197 0bc0 07       		.uleb128 0x7
 2198 0bc1 9D000000 		.4byte	.LASF166
 2199 0bc5 12       		.byte	0x12
 2200 0bc6 7B       		.byte	0x7b
 2201 0bc7 860B0000 		.4byte	0xb86
 2202 0bcb 08       		.byte	0x8
 2203 0bcc 07       		.uleb128 0x7
 2204 0bcd BD080000 		.4byte	.LASF167
 2205 0bd1 12       		.byte	0x12
 2206 0bd2 7B       		.byte	0x7b
 2207 0bd3 510A0000 		.4byte	0xa51
 2208 0bd7 0C       		.byte	0xc
 2209 0bd8 07       		.uleb128 0x7
 2210 0bd9 81020000 		.4byte	.LASF168
 2211 0bdd 12       		.byte	0x12
 2212 0bde 7B       		.byte	0x7b
 2213 0bdf 5C0A0000 		.4byte	0xa5c
 2214 0be3 30       		.byte	0x30
 2215 0be4 14       		.uleb128 0x14
 2216 0be5 696200   		.ascii	"ib\000"
 2217 0be8 12       		.byte	0x12
 2218 0be9 7B       		.byte	0x7b
ARM GAS  /tmp/cc481lMf.s 			page 40


 2219 0bea C30C0000 		.4byte	0xcc3
 2220 0bee 54       		.byte	0x54
 2221 0bef 14       		.uleb128 0x14
 2222 0bf0 6F6200   		.ascii	"ob\000"
 2223 0bf3 12       		.byte	0x12
 2224 0bf4 7B       		.byte	0x7b
 2225 0bf5 C30C0000 		.4byte	0xcc3
 2226 0bf9 64       		.byte	0x64
 2227 0bfa 07       		.uleb128 0x7
 2228 0bfb AC020000 		.4byte	.LASF169
 2229 0bff 12       		.byte	0x12
 2230 0c00 7B       		.byte	0x7b
 2231 0c01 D30C0000 		.4byte	0xcd3
 2232 0c05 74       		.byte	0x74
 2233 0c06 00       		.byte	0
 2234 0c07 15       		.uleb128 0x15
 2235 0c08 0C       		.byte	0xc
 2236 0c09 13       		.byte	0x13
 2237 0c0a D7       		.byte	0xd7
 2238 0c0b 400C0000 		.4byte	0xc40
 2239 0c0f 07       		.uleb128 0x7
 2240 0c10 71040000 		.4byte	.LASF170
 2241 0c14 13       		.byte	0x13
 2242 0c15 DB       		.byte	0xdb
 2243 0c16 D5000000 		.4byte	0xd5
 2244 0c1a 00       		.byte	0
 2245 0c1b 14       		.uleb128 0x14
 2246 0c1c 63723100 		.ascii	"cr1\000"
 2247 0c20 13       		.byte	0x13
 2248 0c21 E0       		.byte	0xe0
 2249 0c22 BF000000 		.4byte	0xbf
 2250 0c26 04       		.byte	0x4
 2251 0c27 14       		.uleb128 0x14
 2252 0c28 63723200 		.ascii	"cr2\000"
 2253 0c2c 13       		.byte	0x13
 2254 0c2d E4       		.byte	0xe4
 2255 0c2e BF000000 		.4byte	0xbf
 2256 0c32 06       		.byte	0x6
 2257 0c33 14       		.uleb128 0x14
 2258 0c34 63723300 		.ascii	"cr3\000"
 2259 0c38 13       		.byte	0x13
 2260 0c39 E8       		.byte	0xe8
 2261 0c3a BF000000 		.4byte	0xbf
 2262 0c3e 08       		.byte	0x8
 2263 0c3f 00       		.byte	0
 2264 0c40 03       		.uleb128 0x3
 2265 0c41 53000000 		.4byte	.LASF171
 2266 0c45 13       		.byte	0x13
 2267 0c46 E9       		.byte	0xe9
 2268 0c47 070C0000 		.4byte	0xc07
 2269 0c4b 06       		.uleb128 0x6
 2270 0c4c 3A050000 		.4byte	.LASF172
 2271 0c50 20       		.byte	0x20
 2272 0c51 12       		.byte	0x12
 2273 0c52 6D       		.byte	0x6d
 2274 0c53 B80C0000 		.4byte	0xcb8
 2275 0c57 07       		.uleb128 0x7
ARM GAS  /tmp/cc481lMf.s 			page 41


 2276 0c58 87000000 		.4byte	.LASF173
 2277 0c5c 12       		.byte	0x12
 2278 0c5d 6E       		.byte	0x6e
 2279 0c5e 8B0A0000 		.4byte	0xa8b
 2280 0c62 00       		.byte	0
 2281 0c63 07       		.uleb128 0x7
 2282 0c64 44060000 		.4byte	.LASF174
 2283 0c68 12       		.byte	0x12
 2284 0c69 6E       		.byte	0x6e
 2285 0c6a AA0A0000 		.4byte	0xaaa
 2286 0c6e 04       		.byte	0x4
 2287 0c6f 14       		.uleb128 0x14
 2288 0c70 70757400 		.ascii	"put\000"
 2289 0c74 12       		.byte	0x12
 2290 0c75 6E       		.byte	0x6e
 2291 0c76 C40A0000 		.4byte	0xac4
 2292 0c7a 08       		.byte	0x8
 2293 0c7b 14       		.uleb128 0x14
 2294 0c7c 67657400 		.ascii	"get\000"
 2295 0c80 12       		.byte	0x12
 2296 0c81 6E       		.byte	0x6e
 2297 0c82 D90A0000 		.4byte	0xad9
 2298 0c86 0C       		.byte	0xc
 2299 0c87 07       		.uleb128 0x7
 2300 0c88 A3000000 		.4byte	.LASF175
 2301 0c8c 12       		.byte	0x12
 2302 0c8d 6E       		.byte	0x6e
 2303 0c8e F80A0000 		.4byte	0xaf8
 2304 0c92 10       		.byte	0x10
 2305 0c93 07       		.uleb128 0x7
 2306 0c94 ED030000 		.4byte	.LASF176
 2307 0c98 12       		.byte	0x12
 2308 0c99 6E       		.byte	0x6e
 2309 0c9a 120B0000 		.4byte	0xb12
 2310 0c9e 14       		.byte	0x14
 2311 0c9f 07       		.uleb128 0x7
 2312 0ca0 60000000 		.4byte	.LASF177
 2313 0ca4 12       		.byte	0x12
 2314 0ca5 6E       		.byte	0x6e
 2315 0ca6 360B0000 		.4byte	0xb36
 2316 0caa 18       		.byte	0x18
 2317 0cab 07       		.uleb128 0x7
 2318 0cac 07010000 		.4byte	.LASF178
 2319 0cb0 12       		.byte	0x12
 2320 0cb1 6E       		.byte	0x6e
 2321 0cb2 5A0B0000 		.4byte	0xb5a
 2322 0cb6 1C       		.byte	0x1c
 2323 0cb7 00       		.byte	0
 2324 0cb8 0A       		.uleb128 0xa
 2325 0cb9 04       		.byte	0x4
 2326 0cba BE0C0000 		.4byte	0xcbe
 2327 0cbe 18       		.uleb128 0x18
 2328 0cbf 4B0C0000 		.4byte	0xc4b
 2329 0cc3 10       		.uleb128 0x10
 2330 0cc4 B4000000 		.4byte	0xb4
 2331 0cc8 D30C0000 		.4byte	0xcd3
 2332 0ccc 11       		.uleb128 0x11
ARM GAS  /tmp/cc481lMf.s 			page 42


 2333 0ccd 79040000 		.4byte	0x479
 2334 0cd1 0F       		.byte	0xf
 2335 0cd2 00       		.byte	0
 2336 0cd3 0A       		.uleb128 0xa
 2337 0cd4 04       		.byte	0x4
 2338 0cd5 8E060000 		.4byte	0x68e
 2339 0cd9 1C       		.uleb128 0x1c
 2340 0cda EE070000 		.4byte	.LASF185
 2341 0cde 02       		.byte	0x2
 2342 0cdf 2002     		.2byte	0x220
 2343 0ce1 03       		.byte	0x3
 2344 0ce2 F30C0000 		.4byte	0xcf3
 2345 0ce6 1D       		.uleb128 0x1d
 2346 0ce7 C9070000 		.4byte	.LASF187
 2347 0ceb 02       		.byte	0x2
 2348 0cec 2002     		.2byte	0x220
 2349 0cee D5000000 		.4byte	0xd5
 2350 0cf2 00       		.byte	0
 2351 0cf3 1E       		.uleb128 0x1e
 2352 0cf4 6E080000 		.4byte	.LASF179
 2353 0cf8 0D       		.byte	0xd
 2354 0cf9 BC01     		.2byte	0x1bc
 2355 0cfb 03       		.byte	0x3
 2356 0cfc 1E       		.uleb128 0x1e
 2357 0cfd 0C060000 		.4byte	.LASF180
 2358 0d01 0D       		.byte	0xd
 2359 0d02 CA01     		.2byte	0x1ca
 2360 0d04 03       		.byte	0x3
 2361 0d05 1E       		.uleb128 0x1e
 2362 0d06 AC050000 		.4byte	.LASF181
 2363 0d0a 0D       		.byte	0xd
 2364 0d0b D901     		.2byte	0x1d9
 2365 0d0d 03       		.byte	0x3
 2366 0d0e 1E       		.uleb128 0x1e
 2367 0d0f 2C070000 		.4byte	.LASF182
 2368 0d13 0D       		.byte	0xd
 2369 0d14 E401     		.2byte	0x1e4
 2370 0d16 03       		.byte	0x3
 2371 0d17 1E       		.uleb128 0x1e
 2372 0d18 4D020000 		.4byte	.LASF183
 2373 0d1c 14       		.byte	0x14
 2374 0d1d 8201     		.2byte	0x182
 2375 0d1f 03       		.byte	0x3
 2376 0d20 1E       		.uleb128 0x1e
 2377 0d21 20030000 		.4byte	.LASF184
 2378 0d25 14       		.byte	0x14
 2379 0d26 9601     		.2byte	0x196
 2380 0d28 03       		.byte	0x3
 2381 0d29 1F       		.uleb128 0x1f
 2382 0d2a 53070000 		.4byte	.LASF186
 2383 0d2e 01       		.byte	0x1
 2384 0d2f 5B       		.byte	0x5b
 2385 0d30 01       		.byte	0x1
 2386 0d31 550D0000 		.4byte	0xd55
 2387 0d35 20       		.uleb128 0x20
 2388 0d36 73647000 		.ascii	"sdp\000"
 2389 0d3a 01       		.byte	0x1
ARM GAS  /tmp/cc481lMf.s 			page 43


 2390 0d3b 5B       		.byte	0x5b
 2391 0d3c 550D0000 		.4byte	0xd55
 2392 0d40 21       		.uleb128 0x21
 2393 0d41 96000000 		.4byte	.LASF188
 2394 0d45 01       		.byte	0x1
 2395 0d46 5B       		.byte	0x5b
 2396 0d47 5B0D0000 		.4byte	0xd5b
 2397 0d4b 22       		.uleb128 0x22
 2398 0d4c 7500     		.ascii	"u\000"
 2399 0d4e 01       		.byte	0x1
 2400 0d4f 5C       		.byte	0x5c
 2401 0d50 D30C0000 		.4byte	0xcd3
 2402 0d54 00       		.byte	0
 2403 0d55 0A       		.uleb128 0xa
 2404 0d56 04       		.byte	0x4
 2405 0d57 910B0000 		.4byte	0xb91
 2406 0d5b 0A       		.uleb128 0xa
 2407 0d5c 04       		.byte	0x4
 2408 0d5d 610D0000 		.4byte	0xd61
 2409 0d61 18       		.uleb128 0x18
 2410 0d62 400C0000 		.4byte	0xc40
 2411 0d66 1C       		.uleb128 0x1c
 2412 0d67 3E090000 		.4byte	.LASF189
 2413 0d6b 03       		.byte	0x3
 2414 0d6c 1B03     		.2byte	0x31b
 2415 0d6e 03       		.byte	0x3
 2416 0d6f 8C0D0000 		.4byte	0xd8c
 2417 0d73 23       		.uleb128 0x23
 2418 0d74 65737000 		.ascii	"esp\000"
 2419 0d78 03       		.byte	0x3
 2420 0d79 1B03     		.2byte	0x31b
 2421 0d7b 8C0D0000 		.4byte	0xd8c
 2422 0d7f 1D       		.uleb128 0x1d
 2423 0d80 B8030000 		.4byte	.LASF190
 2424 0d84 03       		.byte	0x3
 2425 0d85 1C03     		.2byte	0x31c
 2426 0d87 42010000 		.4byte	0x142
 2427 0d8b 00       		.byte	0
 2428 0d8c 0A       		.uleb128 0xa
 2429 0d8d 04       		.byte	0x4
 2430 0d8e A6090000 		.4byte	0x9a6
 2431 0d92 1E       		.uleb128 0x1e
 2432 0d93 9C040000 		.4byte	.LASF191
 2433 0d97 03       		.byte	0x3
 2434 0d98 DE01     		.2byte	0x1de
 2435 0d9a 03       		.byte	0x3
 2436 0d9b 1E       		.uleb128 0x1e
 2437 0d9c B8000000 		.4byte	.LASF192
 2438 0da0 03       		.byte	0x3
 2439 0da1 D301     		.2byte	0x1d3
 2440 0da3 03       		.byte	0x3
 2441 0da4 24       		.uleb128 0x24
 2442 0da5 F2050000 		.4byte	.LASF211
 2443 0da9 04       		.byte	0x4
 2444 0daa 8201     		.2byte	0x182
 2445 0dac 600B0000 		.4byte	0xb60
 2446 0db0 03       		.byte	0x3
ARM GAS  /tmp/cc481lMf.s 			page 44


 2447 0db1 C20D0000 		.4byte	0xdc2
 2448 0db5 23       		.uleb128 0x23
 2449 0db6 6F717000 		.ascii	"oqp\000"
 2450 0dba 04       		.byte	0x4
 2451 0dbb 8201     		.2byte	0x182
 2452 0dbd C20D0000 		.4byte	0xdc2
 2453 0dc1 00       		.byte	0
 2454 0dc2 0A       		.uleb128 0xa
 2455 0dc3 04       		.byte	0x4
 2456 0dc4 5C0A0000 		.4byte	0xa5c
 2457 0dc8 1F       		.uleb128 0x1f
 2458 0dc9 4A050000 		.4byte	.LASF193
 2459 0dcd 01       		.byte	0x1
 2460 0dce 79       		.byte	0x79
 2461 0dcf 01       		.byte	0x1
 2462 0dd0 DE0D0000 		.4byte	0xdde
 2463 0dd4 20       		.uleb128 0x20
 2464 0dd5 7500     		.ascii	"u\000"
 2465 0dd7 01       		.byte	0x1
 2466 0dd8 79       		.byte	0x79
 2467 0dd9 D30C0000 		.4byte	0xcd3
 2468 0ddd 00       		.byte	0
 2469 0dde 1F       		.uleb128 0x1f
 2470 0ddf CB000000 		.4byte	.LASF194
 2471 0de3 01       		.byte	0x1
 2472 0de4 86       		.byte	0x86
 2473 0de5 01       		.byte	0x1
 2474 0de6 0B0E0000 		.4byte	0xe0b
 2475 0dea 20       		.uleb128 0x20
 2476 0deb 73647000 		.ascii	"sdp\000"
 2477 0def 01       		.byte	0x1
 2478 0df0 86       		.byte	0x86
 2479 0df1 550D0000 		.4byte	0xd55
 2480 0df5 20       		.uleb128 0x20
 2481 0df6 737200   		.ascii	"sr\000"
 2482 0df9 01       		.byte	0x1
 2483 0dfa 86       		.byte	0x86
 2484 0dfb BF000000 		.4byte	0xbf
 2485 0dff 22       		.uleb128 0x22
 2486 0e00 73747300 		.ascii	"sts\000"
 2487 0e04 01       		.byte	0x1
 2488 0e05 87       		.byte	0x87
 2489 0e06 42010000 		.4byte	0x142
 2490 0e0a 00       		.byte	0
 2491 0e0b 1F       		.uleb128 0x1f
 2492 0e0c A8000000 		.4byte	.LASF195
 2493 0e10 01       		.byte	0x1
 2494 0e11 99       		.byte	0x99
 2495 0e12 01       		.byte	0x1
 2496 0e13 5B0E0000 		.4byte	0xe5b
 2497 0e17 20       		.uleb128 0x20
 2498 0e18 73647000 		.ascii	"sdp\000"
 2499 0e1c 01       		.byte	0x1
 2500 0e1d 99       		.byte	0x99
 2501 0e1e 550D0000 		.4byte	0xd55
 2502 0e22 22       		.uleb128 0x22
 2503 0e23 7500     		.ascii	"u\000"
ARM GAS  /tmp/cc481lMf.s 			page 45


 2504 0e25 01       		.byte	0x1
 2505 0e26 9A       		.byte	0x9a
 2506 0e27 D30C0000 		.4byte	0xcd3
 2507 0e2b 22       		.uleb128 0x22
 2508 0e2c 63723100 		.ascii	"cr1\000"
 2509 0e30 01       		.byte	0x1
 2510 0e31 9B       		.byte	0x9b
 2511 0e32 BF000000 		.4byte	0xbf
 2512 0e36 22       		.uleb128 0x22
 2513 0e37 737200   		.ascii	"sr\000"
 2514 0e3a 01       		.byte	0x1
 2515 0e3b 9C       		.byte	0x9c
 2516 0e3c BF000000 		.4byte	0xbf
 2517 0e40 25       		.uleb128 0x25
 2518 0e41 4F0E0000 		.4byte	0xe4f
 2519 0e45 22       		.uleb128 0x22
 2520 0e46 6200     		.ascii	"b\000"
 2521 0e48 01       		.byte	0x1
 2522 0e49 AA       		.byte	0xaa
 2523 0e4a B4000000 		.4byte	0xb4
 2524 0e4e 00       		.byte	0
 2525 0e4f 26       		.uleb128 0x26
 2526 0e50 22       		.uleb128 0x22
 2527 0e51 6200     		.ascii	"b\000"
 2528 0e53 01       		.byte	0x1
 2529 0e54 B8       		.byte	0xb8
 2530 0e55 2C010000 		.4byte	0x12c
 2531 0e59 00       		.byte	0
 2532 0e5a 00       		.byte	0
 2533 0e5b 27       		.uleb128 0x27
 2534 0e5c 80080000 		.4byte	.LASF212
 2535 0e60 01       		.byte	0x1
 2536 0e61 D8       		.byte	0xd8
 2537 0e62 00000000 		.4byte	.LFB264
 2538 0e66 10000000 		.4byte	.LFE264-.LFB264
 2539 0e6a 01       		.uleb128 0x1
 2540 0e6b 9C       		.byte	0x9c
 2541 0e6c 7D0E0000 		.4byte	0xe7d
 2542 0e70 28       		.uleb128 0x28
 2543 0e71 717000   		.ascii	"qp\000"
 2544 0e74 01       		.byte	0x1
 2545 0e75 D8       		.byte	0xd8
 2546 0e76 450A0000 		.4byte	0xa45
 2547 0e7a 01       		.uleb128 0x1
 2548 0e7b 50       		.byte	0x50
 2549 0e7c 00       		.byte	0
 2550 0e7d 29       		.uleb128 0x29
 2551 0e7e C5090000 		.4byte	.LASF196
 2552 0e82 01       		.byte	0x1
 2553 0e83 1F01     		.2byte	0x11f
 2554 0e85 00000000 		.4byte	.LFB265
 2555 0e89 1C010000 		.4byte	.LFE265-.LFB265
 2556 0e8d 01       		.uleb128 0x1
 2557 0e8e 9C       		.byte	0x9c
 2558 0e8f 6D130000 		.4byte	0x136d
 2559 0e93 2A       		.uleb128 0x2a
 2560 0e94 0B0E0000 		.4byte	0xe0b
ARM GAS  /tmp/cc481lMf.s 			page 46


 2561 0e98 02000000 		.4byte	.LBB232
 2562 0e9c 00000000 		.4byte	.Ldebug_ranges0+0
 2563 0ea0 01       		.byte	0x1
 2564 0ea1 2301     		.2byte	0x123
 2565 0ea3 63130000 		.4byte	0x1363
 2566 0ea7 2B       		.uleb128 0x2b
 2567 0ea8 170E0000 		.4byte	0xe17
 2568 0eac 06       		.uleb128 0x6
 2569 0ead 03       		.byte	0x3
 2570 0eae 00000000 		.4byte	SD2
 2571 0eb2 9F       		.byte	0x9f
 2572 0eb3 2C       		.uleb128 0x2c
 2573 0eb4 00000000 		.4byte	.Ldebug_ranges0+0
 2574 0eb8 2D       		.uleb128 0x2d
 2575 0eb9 220E0000 		.4byte	0xe22
 2576 0ebd 00000000 		.4byte	.LLST0
 2577 0ec1 2D       		.uleb128 0x2d
 2578 0ec2 2B0E0000 		.4byte	0xe2b
 2579 0ec6 1E000000 		.4byte	.LLST1
 2580 0eca 2D       		.uleb128 0x2d
 2581 0ecb 360E0000 		.4byte	0xe36
 2582 0ecf 3C000000 		.4byte	.LLST2
 2583 0ed3 2E       		.uleb128 0x2e
 2584 0ed4 9B0D0000 		.4byte	0xd9b
 2585 0ed8 10000000 		.4byte	.LBB234
 2586 0edc 06000000 		.4byte	.LBE234-.LBB234
 2587 0ee0 01       		.byte	0x1
 2588 0ee1 A7       		.byte	0xa7
 2589 0ee2 340F0000 		.4byte	0xf34
 2590 0ee6 2F       		.uleb128 0x2f
 2591 0ee7 170D0000 		.4byte	0xd17
 2592 0eeb 10000000 		.4byte	.LBB235
 2593 0eef 06000000 		.4byte	.LBE235-.LBB235
 2594 0ef3 03       		.byte	0x3
 2595 0ef4 D501     		.2byte	0x1d5
 2596 0ef6 2F       		.uleb128 0x2f
 2597 0ef7 050D0000 		.4byte	0xd05
 2598 0efb 10000000 		.4byte	.LBB236
 2599 0eff 06000000 		.4byte	.LBE236-.LBB236
 2600 0f03 14       		.byte	0x14
 2601 0f04 8401     		.2byte	0x184
 2602 0f06 2F       		.uleb128 0x2f
 2603 0f07 F30C0000 		.4byte	0xcf3
 2604 0f0b 10000000 		.4byte	.LBB237
 2605 0f0f 06000000 		.4byte	.LBE237-.LBB237
 2606 0f13 0D       		.byte	0xd
 2607 0f14 DB01     		.2byte	0x1db
 2608 0f16 2F       		.uleb128 0x2f
 2609 0f17 D90C0000 		.4byte	0xcd9
 2610 0f1b 10000000 		.4byte	.LBB238
 2611 0f1f 06000000 		.4byte	.LBE238-.LBB238
 2612 0f23 0D       		.byte	0xd
 2613 0f24 BF01     		.2byte	0x1bf
 2614 0f26 30       		.uleb128 0x30
 2615 0f27 E60C0000 		.4byte	0xce6
 2616 0f2b 70000000 		.4byte	.LLST3
 2617 0f2f 00       		.byte	0
ARM GAS  /tmp/cc481lMf.s 			page 47


 2618 0f30 00       		.byte	0
 2619 0f31 00       		.byte	0
 2620 0f32 00       		.byte	0
 2621 0f33 00       		.byte	0
 2622 0f34 31       		.uleb128 0x31
 2623 0f35 18000000 		.4byte	.Ldebug_ranges0+0x18
 2624 0f39 C50F0000 		.4byte	0xfc5
 2625 0f3d 2D       		.uleb128 0x2d
 2626 0f3e 450E0000 		.4byte	0xe45
 2627 0f42 92000000 		.4byte	.LLST4
 2628 0f46 2E       		.uleb128 0x2e
 2629 0f47 DE0D0000 		.4byte	0xdde
 2630 0f4b 32000000 		.4byte	.LBB241
 2631 0f4f 28000000 		.4byte	.LBE241-.LBB241
 2632 0f53 01       		.byte	0x1
 2633 0f54 AE       		.byte	0xae
 2634 0f55 B40F0000 		.4byte	0xfb4
 2635 0f59 30       		.uleb128 0x30
 2636 0f5a EA0D0000 		.4byte	0xdea
 2637 0f5e B0000000 		.4byte	.LLST5
 2638 0f62 30       		.uleb128 0x30
 2639 0f63 F50D0000 		.4byte	0xdf5
 2640 0f67 C8000000 		.4byte	.LLST6
 2641 0f6b 32       		.uleb128 0x32
 2642 0f6c 32000000 		.4byte	.LBB242
 2643 0f70 28000000 		.4byte	.LBE242-.LBB242
 2644 0f74 2D       		.uleb128 0x2d
 2645 0f75 FF0D0000 		.4byte	0xdff
 2646 0f79 DB000000 		.4byte	.LLST7
 2647 0f7d 33       		.uleb128 0x33
 2648 0f7e 660D0000 		.4byte	0xd66
 2649 0f82 54000000 		.4byte	.LBB243
 2650 0f86 06000000 		.4byte	.LBE243-.LBB243
 2651 0f8a 01       		.byte	0x1
 2652 0f8b 91       		.byte	0x91
 2653 0f8c 30       		.uleb128 0x30
 2654 0f8d 7F0D0000 		.4byte	0xd7f
 2655 0f91 FA000000 		.4byte	.LLST8
 2656 0f95 30       		.uleb128 0x30
 2657 0f96 730D0000 		.4byte	0xd73
 2658 0f9a 0D010000 		.4byte	.LLST9
 2659 0f9e 34       		.uleb128 0x34
 2660 0f9f 5A000000 		.4byte	.LVL15
 2661 0fa3 B2140000 		.4byte	0x14b2
 2662 0fa7 35       		.uleb128 0x35
 2663 0fa8 01       		.uleb128 0x1
 2664 0fa9 50       		.byte	0x50
 2665 0faa 05       		.uleb128 0x5
 2666 0fab 03       		.byte	0x3
 2667 0fac 04000000 		.4byte	.LANCHOR0+4
 2668 0fb0 00       		.byte	0
 2669 0fb1 00       		.byte	0
 2670 0fb2 00       		.byte	0
 2671 0fb3 00       		.byte	0
 2672 0fb4 34       		.uleb128 0x34
 2673 0fb5 68000000 		.4byte	.LVL18
 2674 0fb9 BD140000 		.4byte	0x14bd
ARM GAS  /tmp/cc481lMf.s 			page 48


 2675 0fbd 35       		.uleb128 0x35
 2676 0fbe 01       		.uleb128 0x1
 2677 0fbf 50       		.byte	0x50
 2678 0fc0 02       		.uleb128 0x2
 2679 0fc1 76       		.byte	0x76
 2680 0fc2 00       		.sleb128 0
 2681 0fc3 00       		.byte	0
 2682 0fc4 00       		.byte	0
 2683 0fc5 2E       		.uleb128 0x2e
 2684 0fc6 920D0000 		.4byte	0xd92
 2685 0fca 72000000 		.4byte	.LBB246
 2686 0fce 06000000 		.4byte	.LBE246-.LBB246
 2687 0fd2 01       		.byte	0x1
 2688 0fd3 B4       		.byte	0xb4
 2689 0fd4 26100000 		.4byte	0x1026
 2690 0fd8 2F       		.uleb128 0x2f
 2691 0fd9 200D0000 		.4byte	0xd20
 2692 0fdd 72000000 		.4byte	.LBB247
 2693 0fe1 06000000 		.4byte	.LBE247-.LBB247
 2694 0fe5 03       		.byte	0x3
 2695 0fe6 E001     		.2byte	0x1e0
 2696 0fe8 2F       		.uleb128 0x2f
 2697 0fe9 0E0D0000 		.4byte	0xd0e
 2698 0fed 72000000 		.4byte	.LBB248
 2699 0ff1 06000000 		.4byte	.LBE248-.LBB248
 2700 0ff5 14       		.byte	0x14
 2701 0ff6 9A01     		.2byte	0x19a
 2702 0ff8 2F       		.uleb128 0x2f
 2703 0ff9 FC0C0000 		.4byte	0xcfc
 2704 0ffd 72000000 		.4byte	.LBB249
 2705 1001 06000000 		.4byte	.LBE249-.LBB249
 2706 1005 0D       		.byte	0xd
 2707 1006 E601     		.2byte	0x1e6
 2708 1008 2F       		.uleb128 0x2f
 2709 1009 D90C0000 		.4byte	0xcd9
 2710 100d 72000000 		.4byte	.LBB250
 2711 1011 06000000 		.4byte	.LBE250-.LBB250
 2712 1015 0D       		.byte	0xd
 2713 1016 CD01     		.2byte	0x1cd
 2714 1018 30       		.uleb128 0x30
 2715 1019 E60C0000 		.4byte	0xce6
 2716 101d 25010000 		.4byte	.LLST10
 2717 1021 00       		.byte	0
 2718 1022 00       		.byte	0
 2719 1023 00       		.byte	0
 2720 1024 00       		.byte	0
 2721 1025 00       		.byte	0
 2722 1026 2E       		.uleb128 0x2e
 2723 1027 9B0D0000 		.4byte	0xd9b
 2724 102b 84000000 		.4byte	.LBB252
 2725 102f 06000000 		.4byte	.LBE252-.LBB252
 2726 1033 01       		.byte	0x1
 2727 1034 C6       		.byte	0xc6
 2728 1035 87100000 		.4byte	0x1087
 2729 1039 2F       		.uleb128 0x2f
 2730 103a 170D0000 		.4byte	0xd17
 2731 103e 84000000 		.4byte	.LBB253
ARM GAS  /tmp/cc481lMf.s 			page 49


 2732 1042 06000000 		.4byte	.LBE253-.LBB253
 2733 1046 03       		.byte	0x3
 2734 1047 D501     		.2byte	0x1d5
 2735 1049 2F       		.uleb128 0x2f
 2736 104a 050D0000 		.4byte	0xd05
 2737 104e 84000000 		.4byte	.LBB254
 2738 1052 06000000 		.4byte	.LBE254-.LBB254
 2739 1056 14       		.byte	0x14
 2740 1057 8401     		.2byte	0x184
 2741 1059 2F       		.uleb128 0x2f
 2742 105a F30C0000 		.4byte	0xcf3
 2743 105e 84000000 		.4byte	.LBB255
 2744 1062 06000000 		.4byte	.LBE255-.LBB255
 2745 1066 0D       		.byte	0xd
 2746 1067 DB01     		.2byte	0x1db
 2747 1069 2F       		.uleb128 0x2f
 2748 106a D90C0000 		.4byte	0xcd9
 2749 106e 84000000 		.4byte	.LBB256
 2750 1072 06000000 		.4byte	.LBE256-.LBB256
 2751 1076 0D       		.byte	0xd
 2752 1077 BF01     		.2byte	0x1bf
 2753 1079 30       		.uleb128 0x30
 2754 107a E60C0000 		.4byte	0xce6
 2755 107e 45010000 		.4byte	.LLST11
 2756 1082 00       		.byte	0
 2757 1083 00       		.byte	0
 2758 1084 00       		.byte	0
 2759 1085 00       		.byte	0
 2760 1086 00       		.byte	0
 2761 1087 36       		.uleb128 0x36
 2762 1088 A40D0000 		.4byte	0xda4
 2763 108c 8A000000 		.4byte	.LBB258
 2764 1090 30000000 		.4byte	.Ldebug_ranges0+0x30
 2765 1094 01       		.byte	0x1
 2766 1095 C7       		.byte	0xc7
 2767 1096 A4100000 		.4byte	0x10a4
 2768 109a 30       		.uleb128 0x30
 2769 109b B50D0000 		.4byte	0xdb5
 2770 109f 67010000 		.4byte	.LLST12
 2771 10a3 00       		.byte	0
 2772 10a4 36       		.uleb128 0x36
 2773 10a5 920D0000 		.4byte	0xd92
 2774 10a9 A0000000 		.4byte	.LBB261
 2775 10ad 48000000 		.4byte	.Ldebug_ranges0+0x48
 2776 10b1 01       		.byte	0x1
 2777 10b2 CB       		.byte	0xcb
 2778 10b3 05110000 		.4byte	0x1105
 2779 10b7 37       		.uleb128 0x37
 2780 10b8 200D0000 		.4byte	0xd20
 2781 10bc A0000000 		.4byte	.LBB262
 2782 10c0 48000000 		.4byte	.Ldebug_ranges0+0x48
 2783 10c4 03       		.byte	0x3
 2784 10c5 E001     		.2byte	0x1e0
 2785 10c7 37       		.uleb128 0x37
 2786 10c8 0E0D0000 		.4byte	0xd0e
 2787 10cc A0000000 		.4byte	.LBB263
 2788 10d0 48000000 		.4byte	.Ldebug_ranges0+0x48
ARM GAS  /tmp/cc481lMf.s 			page 50


 2789 10d4 14       		.byte	0x14
 2790 10d5 9A01     		.2byte	0x19a
 2791 10d7 37       		.uleb128 0x37
 2792 10d8 FC0C0000 		.4byte	0xcfc
 2793 10dc A0000000 		.4byte	.LBB264
 2794 10e0 48000000 		.4byte	.Ldebug_ranges0+0x48
 2795 10e4 0D       		.byte	0xd
 2796 10e5 E601     		.2byte	0x1e6
 2797 10e7 37       		.uleb128 0x37
 2798 10e8 D90C0000 		.4byte	0xcd9
 2799 10ec A0000000 		.4byte	.LBB265
 2800 10f0 48000000 		.4byte	.Ldebug_ranges0+0x48
 2801 10f4 0D       		.byte	0xd
 2802 10f5 CD01     		.2byte	0x1cd
 2803 10f7 30       		.uleb128 0x30
 2804 10f8 E60C0000 		.4byte	0xce6
 2805 10fc 8F010000 		.4byte	.LLST13
 2806 1100 00       		.byte	0
 2807 1101 00       		.byte	0
 2808 1102 00       		.byte	0
 2809 1103 00       		.byte	0
 2810 1104 00       		.byte	0
 2811 1105 2E       		.uleb128 0x2e
 2812 1106 9B0D0000 		.4byte	0xd9b
 2813 110a B0000000 		.4byte	.LBB273
 2814 110e 06000000 		.4byte	.LBE273-.LBB273
 2815 1112 01       		.byte	0x1
 2816 1113 A0       		.byte	0xa0
 2817 1114 66110000 		.4byte	0x1166
 2818 1118 2F       		.uleb128 0x2f
 2819 1119 170D0000 		.4byte	0xd17
 2820 111d B0000000 		.4byte	.LBB274
 2821 1121 06000000 		.4byte	.LBE274-.LBB274
 2822 1125 03       		.byte	0x3
 2823 1126 D501     		.2byte	0x1d5
 2824 1128 2F       		.uleb128 0x2f
 2825 1129 050D0000 		.4byte	0xd05
 2826 112d B0000000 		.4byte	.LBB275
 2827 1131 06000000 		.4byte	.LBE275-.LBB275
 2828 1135 14       		.byte	0x14
 2829 1136 8401     		.2byte	0x184
 2830 1138 2F       		.uleb128 0x2f
 2831 1139 F30C0000 		.4byte	0xcf3
 2832 113d B0000000 		.4byte	.LBB276
 2833 1141 06000000 		.4byte	.LBE276-.LBB276
 2834 1145 0D       		.byte	0xd
 2835 1146 DB01     		.2byte	0x1db
 2836 1148 2F       		.uleb128 0x2f
 2837 1149 D90C0000 		.4byte	0xcd9
 2838 114d B0000000 		.4byte	.LBB277
 2839 1151 06000000 		.4byte	.LBE277-.LBB277
 2840 1155 0D       		.byte	0xd
 2841 1156 BF01     		.2byte	0x1bf
 2842 1158 30       		.uleb128 0x30
 2843 1159 E60C0000 		.4byte	0xce6
 2844 115d A3010000 		.4byte	.LLST14
 2845 1161 00       		.byte	0
ARM GAS  /tmp/cc481lMf.s 			page 51


 2846 1162 00       		.byte	0
 2847 1163 00       		.byte	0
 2848 1164 00       		.byte	0
 2849 1165 00       		.byte	0
 2850 1166 2E       		.uleb128 0x2e
 2851 1167 660D0000 		.4byte	0xd66
 2852 116b B6000000 		.4byte	.LBB279
 2853 116f 0A000000 		.4byte	.LBE279-.LBB279
 2854 1173 01       		.byte	0x1
 2855 1174 A1       		.byte	0xa1
 2856 1175 A3110000 		.4byte	0x11a3
 2857 1179 30       		.uleb128 0x30
 2858 117a 7F0D0000 		.4byte	0xd7f
 2859 117e B8010000 		.4byte	.LLST15
 2860 1182 30       		.uleb128 0x30
 2861 1183 730D0000 		.4byte	0xd73
 2862 1187 CE010000 		.4byte	.LLST16
 2863 118b 34       		.uleb128 0x34
 2864 118c C0000000 		.4byte	.LVL29
 2865 1190 B2140000 		.4byte	0x14b2
 2866 1194 35       		.uleb128 0x35
 2867 1195 01       		.uleb128 0x1
 2868 1196 50       		.byte	0x50
 2869 1197 02       		.uleb128 0x2
 2870 1198 76       		.byte	0x76
 2871 1199 04       		.sleb128 4
 2872 119a 35       		.uleb128 0x35
 2873 119b 01       		.uleb128 0x1
 2874 119c 51       		.byte	0x51
 2875 119d 03       		.uleb128 0x3
 2876 119e 0A       		.byte	0xa
 2877 119f 0002     		.2byte	0x200
 2878 11a1 00       		.byte	0
 2879 11a2 00       		.byte	0
 2880 11a3 2E       		.uleb128 0x2e
 2881 11a4 920D0000 		.4byte	0xd92
 2882 11a8 C6000000 		.4byte	.LBB281
 2883 11ac 08000000 		.4byte	.LBE281-.LBB281
 2884 11b0 01       		.byte	0x1
 2885 11b1 A3       		.byte	0xa3
 2886 11b2 04120000 		.4byte	0x1204
 2887 11b6 2F       		.uleb128 0x2f
 2888 11b7 200D0000 		.4byte	0xd20
 2889 11bb C6000000 		.4byte	.LBB282
 2890 11bf 08000000 		.4byte	.LBE282-.LBB282
 2891 11c3 03       		.byte	0x3
 2892 11c4 E001     		.2byte	0x1e0
 2893 11c6 2F       		.uleb128 0x2f
 2894 11c7 0E0D0000 		.4byte	0xd0e
 2895 11cb C6000000 		.4byte	.LBB283
 2896 11cf 08000000 		.4byte	.LBE283-.LBB283
 2897 11d3 14       		.byte	0x14
 2898 11d4 9A01     		.2byte	0x19a
 2899 11d6 2F       		.uleb128 0x2f
 2900 11d7 FC0C0000 		.4byte	0xcfc
 2901 11db C6000000 		.4byte	.LBB284
 2902 11df 08000000 		.4byte	.LBE284-.LBB284
ARM GAS  /tmp/cc481lMf.s 			page 52


 2903 11e3 0D       		.byte	0xd
 2904 11e4 E601     		.2byte	0x1e6
 2905 11e6 2F       		.uleb128 0x2f
 2906 11e7 D90C0000 		.4byte	0xcd9
 2907 11eb C6000000 		.4byte	.LBB285
 2908 11ef 08000000 		.4byte	.LBE285-.LBB285
 2909 11f3 0D       		.byte	0xd
 2910 11f4 CD01     		.2byte	0x1cd
 2911 11f6 30       		.uleb128 0x30
 2912 11f7 E60C0000 		.4byte	0xce6
 2913 11fb E6010000 		.4byte	.LLST17
 2914 11ff 00       		.byte	0
 2915 1200 00       		.byte	0
 2916 1201 00       		.byte	0
 2917 1202 00       		.byte	0
 2918 1203 00       		.byte	0
 2919 1204 31       		.uleb128 0x31
 2920 1205 60000000 		.4byte	.Ldebug_ranges0+0x60
 2921 1209 2A130000 		.4byte	0x132a
 2922 120d 2D       		.uleb128 0x2d
 2923 120e 500E0000 		.4byte	0xe50
 2924 1212 FA010000 		.4byte	.LLST18
 2925 1216 2E       		.uleb128 0x2e
 2926 1217 9B0D0000 		.4byte	0xd9b
 2927 121b CE000000 		.4byte	.LBB288
 2928 121f 06000000 		.4byte	.LBE288-.LBB288
 2929 1223 01       		.byte	0x1
 2930 1224 B9       		.byte	0xb9
 2931 1225 77120000 		.4byte	0x1277
 2932 1229 2F       		.uleb128 0x2f
 2933 122a 170D0000 		.4byte	0xd17
 2934 122e CE000000 		.4byte	.LBB289
 2935 1232 06000000 		.4byte	.LBE289-.LBB289
 2936 1236 03       		.byte	0x3
 2937 1237 D501     		.2byte	0x1d5
 2938 1239 2F       		.uleb128 0x2f
 2939 123a 050D0000 		.4byte	0xd05
 2940 123e CE000000 		.4byte	.LBB290
 2941 1242 06000000 		.4byte	.LBE290-.LBB290
 2942 1246 14       		.byte	0x14
 2943 1247 8401     		.2byte	0x184
 2944 1249 2F       		.uleb128 0x2f
 2945 124a F30C0000 		.4byte	0xcf3
 2946 124e CE000000 		.4byte	.LBB291
 2947 1252 06000000 		.4byte	.LBE291-.LBB291
 2948 1256 0D       		.byte	0xd
 2949 1257 DB01     		.2byte	0x1db
 2950 1259 2F       		.uleb128 0x2f
 2951 125a D90C0000 		.4byte	0xcd9
 2952 125e CE000000 		.4byte	.LBB292
 2953 1262 06000000 		.4byte	.LBE292-.LBB292
 2954 1266 0D       		.byte	0xd
 2955 1267 BF01     		.2byte	0x1bf
 2956 1269 30       		.uleb128 0x30
 2957 126a E60C0000 		.4byte	0xce6
 2958 126e 18020000 		.4byte	.LLST19
 2959 1272 00       		.byte	0
ARM GAS  /tmp/cc481lMf.s 			page 53


 2960 1273 00       		.byte	0
 2961 1274 00       		.byte	0
 2962 1275 00       		.byte	0
 2963 1276 00       		.byte	0
 2964 1277 2E       		.uleb128 0x2e
 2965 1278 920D0000 		.4byte	0xd92
 2966 127c E0000000 		.4byte	.LBB294
 2967 1280 08000000 		.4byte	.LBE294-.LBB294
 2968 1284 01       		.byte	0x1
 2969 1285 C1       		.byte	0xc1
 2970 1286 D8120000 		.4byte	0x12d8
 2971 128a 2F       		.uleb128 0x2f
 2972 128b 200D0000 		.4byte	0xd20
 2973 128f E0000000 		.4byte	.LBB295
 2974 1293 08000000 		.4byte	.LBE295-.LBB295
 2975 1297 03       		.byte	0x3
 2976 1298 E001     		.2byte	0x1e0
 2977 129a 2F       		.uleb128 0x2f
 2978 129b 0E0D0000 		.4byte	0xd0e
 2979 129f E0000000 		.4byte	.LBB296
 2980 12a3 08000000 		.4byte	.LBE296-.LBB296
 2981 12a7 14       		.byte	0x14
 2982 12a8 9A01     		.2byte	0x19a
 2983 12aa 2F       		.uleb128 0x2f
 2984 12ab FC0C0000 		.4byte	0xcfc
 2985 12af E0000000 		.4byte	.LBB297
 2986 12b3 08000000 		.4byte	.LBE297-.LBB297
 2987 12b7 0D       		.byte	0xd
 2988 12b8 E601     		.2byte	0x1e6
 2989 12ba 2F       		.uleb128 0x2f
 2990 12bb D90C0000 		.4byte	0xcd9
 2991 12bf E0000000 		.4byte	.LBB298
 2992 12c3 08000000 		.4byte	.LBE298-.LBB298
 2993 12c7 0D       		.byte	0xd
 2994 12c8 CD01     		.2byte	0x1cd
 2995 12ca 30       		.uleb128 0x30
 2996 12cb E60C0000 		.4byte	0xce6
 2997 12cf 3A020000 		.4byte	.LLST20
 2998 12d3 00       		.byte	0
 2999 12d4 00       		.byte	0
 3000 12d5 00       		.byte	0
 3001 12d6 00       		.byte	0
 3002 12d7 00       		.byte	0
 3003 12d8 2E       		.uleb128 0x2e
 3004 12d9 660D0000 		.4byte	0xd66
 3005 12dd F8000000 		.4byte	.LBB300
 3006 12e1 08000000 		.4byte	.LBE300-.LBB300
 3007 12e5 01       		.byte	0x1
 3008 12e6 BC       		.byte	0xbc
 3009 12e7 16130000 		.4byte	0x1316
 3010 12eb 38       		.uleb128 0x38
 3011 12ec 7F0D0000 		.4byte	0xd7f
 3012 12f0 08       		.byte	0x8
 3013 12f1 2B       		.uleb128 0x2b
 3014 12f2 730D0000 		.4byte	0xd73
 3015 12f6 06       		.uleb128 0x6
 3016 12f7 03       		.byte	0x3
ARM GAS  /tmp/cc481lMf.s 			page 54


 3017 12f8 04000000 		.4byte	SD2+4
 3018 12fc 9F       		.byte	0x9f
 3019 12fd 34       		.uleb128 0x34
 3020 12fe 00010000 		.4byte	.LVL39
 3021 1302 B2140000 		.4byte	0x14b2
 3022 1306 35       		.uleb128 0x35
 3023 1307 01       		.uleb128 0x1
 3024 1308 50       		.byte	0x50
 3025 1309 05       		.uleb128 0x5
 3026 130a 03       		.byte	0x3
 3027 130b 04000000 		.4byte	.LANCHOR0+4
 3028 130f 35       		.uleb128 0x35
 3029 1310 01       		.uleb128 0x1
 3030 1311 51       		.byte	0x51
 3031 1312 01       		.uleb128 0x1
 3032 1313 38       		.byte	0x38
 3033 1314 00       		.byte	0
 3034 1315 00       		.byte	0
 3035 1316 34       		.uleb128 0x34
 3036 1317 DA000000 		.4byte	.LVL32
 3037 131b C9140000 		.4byte	0x14c9
 3038 131f 35       		.uleb128 0x35
 3039 1320 01       		.uleb128 0x1
 3040 1321 50       		.byte	0x50
 3041 1322 05       		.uleb128 0x5
 3042 1323 03       		.byte	0x3
 3043 1324 30000000 		.4byte	.LANCHOR0+48
 3044 1328 00       		.byte	0
 3045 1329 00       		.byte	0
 3046 132a 33       		.uleb128 0x33
 3047 132b 660D0000 		.4byte	0xd66
 3048 132f EE000000 		.4byte	.LBB303
 3049 1333 0A000000 		.4byte	.LBE303-.LBB303
 3050 1337 01       		.byte	0x1
 3051 1338 C8       		.byte	0xc8
 3052 1339 30       		.uleb128 0x30
 3053 133a 7F0D0000 		.4byte	0xd7f
 3054 133e 4E020000 		.4byte	.LLST21
 3055 1342 30       		.uleb128 0x30
 3056 1343 730D0000 		.4byte	0xd73
 3057 1347 62020000 		.4byte	.LLST22
 3058 134b 34       		.uleb128 0x34
 3059 134c F6000000 		.4byte	.LVL36
 3060 1350 B2140000 		.4byte	0x14b2
 3061 1354 35       		.uleb128 0x35
 3062 1355 01       		.uleb128 0x1
 3063 1356 50       		.byte	0x50
 3064 1357 02       		.uleb128 0x2
 3065 1358 76       		.byte	0x76
 3066 1359 04       		.sleb128 4
 3067 135a 35       		.uleb128 0x35
 3068 135b 01       		.uleb128 0x1
 3069 135c 51       		.byte	0x51
 3070 135d 01       		.uleb128 0x1
 3071 135e 40       		.byte	0x40
 3072 135f 00       		.byte	0
 3073 1360 00       		.byte	0
ARM GAS  /tmp/cc481lMf.s 			page 55


 3074 1361 00       		.byte	0
 3075 1362 00       		.byte	0
 3076 1363 39       		.uleb128 0x39
 3077 1364 B0000000 		.4byte	.LVL27
 3078 1368 D4140000 		.4byte	0x14d4
 3079 136c 00       		.byte	0
 3080 136d 29       		.uleb128 0x29
 3081 136e 67050000 		.4byte	.LASF197
 3082 1372 01       		.byte	0x1
 3083 1373 7E01     		.2byte	0x17e
 3084 1375 00000000 		.4byte	.LFB266
 3085 1379 20000000 		.4byte	.LFE266-.LFB266
 3086 137d 01       		.uleb128 0x1
 3087 137e 9C       		.byte	0x9c
 3088 137f A2130000 		.4byte	0x13a2
 3089 1383 34       		.uleb128 0x34
 3090 1384 0E000000 		.4byte	.LVL40
 3091 1388 E0140000 		.4byte	0x14e0
 3092 138c 35       		.uleb128 0x35
 3093 138d 01       		.uleb128 0x1
 3094 138e 50       		.byte	0x50
 3095 138f 02       		.uleb128 0x2
 3096 1390 74       		.byte	0x74
 3097 1391 00       		.sleb128 0
 3098 1392 35       		.uleb128 0x35
 3099 1393 01       		.uleb128 0x1
 3100 1394 51       		.byte	0x51
 3101 1395 01       		.uleb128 0x1
 3102 1396 30       		.byte	0x30
 3103 1397 35       		.uleb128 0x35
 3104 1398 01       		.uleb128 0x1
 3105 1399 52       		.byte	0x52
 3106 139a 05       		.uleb128 0x5
 3107 139b 03       		.byte	0x3
 3108 139c 00000000 		.4byte	notify2
 3109 13a0 00       		.byte	0
 3110 13a1 00       		.byte	0
 3111 13a2 29       		.uleb128 0x29
 3112 13a3 0D010000 		.4byte	.LASF198
 3113 13a7 01       		.byte	0x1
 3114 13a8 A901     		.2byte	0x1a9
 3115 13aa 00000000 		.4byte	.LFB267
 3116 13ae 98000000 		.4byte	.LFE267-.LFB267
 3117 13b2 01       		.uleb128 0x1
 3118 13b3 9C       		.byte	0x9c
 3119 13b4 24140000 		.4byte	0x1424
 3120 13b8 3A       		.uleb128 0x3a
 3121 13b9 73647000 		.ascii	"sdp\000"
 3122 13bd 01       		.byte	0x1
 3123 13be A901     		.2byte	0x1a9
 3124 13c0 550D0000 		.4byte	0xd55
 3125 13c4 7A020000 		.4byte	.LLST23
 3126 13c8 3B       		.uleb128 0x3b
 3127 13c9 96000000 		.4byte	.LASF188
 3128 13cd 01       		.byte	0x1
 3129 13ce A901     		.2byte	0x1a9
 3130 13d0 5B0D0000 		.4byte	0xd5b
ARM GAS  /tmp/cc481lMf.s 			page 56


 3131 13d4 AE020000 		.4byte	.LLST24
 3132 13d8 2A       		.uleb128 0x2a
 3133 13d9 290D0000 		.4byte	0xd29
 3134 13dd 14000000 		.4byte	.LBB308
 3135 13e1 78000000 		.4byte	.Ldebug_ranges0+0x78
 3136 13e5 01       		.byte	0x1
 3137 13e6 D401     		.2byte	0x1d4
 3138 13e8 0E140000 		.4byte	0x140e
 3139 13ec 30       		.uleb128 0x30
 3140 13ed 350D0000 		.4byte	0xd35
 3141 13f1 F4020000 		.4byte	.LLST25
 3142 13f5 30       		.uleb128 0x30
 3143 13f6 400D0000 		.4byte	0xd40
 3144 13fa 12030000 		.4byte	.LLST26
 3145 13fe 2C       		.uleb128 0x2c
 3146 13ff 78000000 		.4byte	.Ldebug_ranges0+0x78
 3147 1403 2D       		.uleb128 0x2d
 3148 1404 4B0D0000 		.4byte	0xd4b
 3149 1408 4D030000 		.4byte	.LLST27
 3150 140c 00       		.byte	0
 3151 140d 00       		.byte	0
 3152 140e 34       		.uleb128 0x34
 3153 140f 70000000 		.4byte	.LVL49
 3154 1413 EC140000 		.4byte	0x14ec
 3155 1417 35       		.uleb128 0x35
 3156 1418 01       		.uleb128 0x1
 3157 1419 50       		.byte	0x50
 3158 141a 02       		.uleb128 0x2
 3159 141b 08       		.byte	0x8
 3160 141c 26       		.byte	0x26
 3161 141d 35       		.uleb128 0x35
 3162 141e 01       		.uleb128 0x1
 3163 141f 51       		.byte	0x51
 3164 1420 01       		.uleb128 0x1
 3165 1421 3C       		.byte	0x3c
 3166 1422 00       		.byte	0
 3167 1423 00       		.byte	0
 3168 1424 29       		.uleb128 0x29
 3169 1425 8C090000 		.4byte	.LASF199
 3170 1429 01       		.byte	0x1
 3171 142a E001     		.2byte	0x1e0
 3172 142c 00000000 		.4byte	.LFB268
 3173 1430 30000000 		.4byte	.LFE268-.LFB268
 3174 1434 01       		.uleb128 0x1
 3175 1435 9C       		.byte	0x9c
 3176 1436 79140000 		.4byte	0x1479
 3177 143a 3A       		.uleb128 0x3a
 3178 143b 73647000 		.ascii	"sdp\000"
 3179 143f 01       		.byte	0x1
 3180 1440 E001     		.2byte	0x1e0
 3181 1442 550D0000 		.4byte	0xd55
 3182 1446 78030000 		.4byte	.LLST28
 3183 144a 2A       		.uleb128 0x2a
 3184 144b C80D0000 		.4byte	0xdc8
 3185 144f 0C000000 		.4byte	.LBB312
 3186 1453 90000000 		.4byte	.Ldebug_ranges0+0x90
 3187 1457 01       		.byte	0x1
ARM GAS  /tmp/cc481lMf.s 			page 57


 3188 1458 E301     		.2byte	0x1e3
 3189 145a 68140000 		.4byte	0x1468
 3190 145e 30       		.uleb128 0x30
 3191 145f D40D0000 		.4byte	0xdd4
 3192 1463 99030000 		.4byte	.LLST29
 3193 1467 00       		.byte	0
 3194 1468 3C       		.uleb128 0x3c
 3195 1469 28000000 		.4byte	.LVL55
 3196 146d F7140000 		.4byte	0x14f7
 3197 1471 35       		.uleb128 0x35
 3198 1472 01       		.uleb128 0x1
 3199 1473 50       		.byte	0x50
 3200 1474 02       		.uleb128 0x2
 3201 1475 08       		.byte	0x8
 3202 1476 26       		.byte	0x26
 3203 1477 00       		.byte	0
 3204 1478 00       		.byte	0
 3205 1479 3D       		.uleb128 0x3d
 3206 147a 3E020000 		.4byte	.LASF213
 3207 147e 01       		.byte	0x1
 3208 147f 48       		.byte	0x48
 3209 1480 610D0000 		.4byte	0xd61
 3210 1484 05       		.uleb128 0x5
 3211 1485 03       		.byte	0x3
 3212 1486 00000000 		.4byte	default_config
 3213 148a 3E       		.uleb128 0x3e
 3214 148b FF050000 		.4byte	.LASF200
 3215 148f 16       		.byte	0x16
 3216 1490 A706     		.2byte	0x6a7
 3217 1492 EB000000 		.4byte	0xeb
 3218 1496 3F       		.uleb128 0x3f
 3219 1497 636800   		.ascii	"ch\000"
 3220 149a 0A       		.byte	0xa
 3221 149b 0902     		.2byte	0x209
 3222 149d 12040000 		.4byte	0x412
 3223 14a1 40       		.uleb128 0x40
 3224 14a2 53443200 		.ascii	"SD2\000"
 3225 14a6 01       		.byte	0x1
 3226 14a7 2C       		.byte	0x2c
 3227 14a8 910B0000 		.4byte	0xb91
 3228 14ac 05       		.uleb128 0x5
 3229 14ad 03       		.byte	0x3
 3230 14ae 00000000 		.4byte	SD2
 3231 14b2 41       		.uleb128 0x41
 3232 14b3 BD060000 		.4byte	.LASF201
 3233 14b7 BD060000 		.4byte	.LASF201
 3234 14bb 11       		.byte	0x11
 3235 14bc 87       		.byte	0x87
 3236 14bd 42       		.uleb128 0x42
 3237 14be 86050000 		.4byte	.LASF202
 3238 14c2 86050000 		.4byte	.LASF202
 3239 14c6 12       		.byte	0x12
 3240 14c7 2A01     		.2byte	0x12a
 3241 14c9 41       		.uleb128 0x41
 3242 14ca 7C060000 		.4byte	.LASF203
 3243 14ce 7C060000 		.4byte	.LASF203
 3244 14d2 04       		.byte	0x4
ARM GAS  /tmp/cc481lMf.s 			page 58


 3245 14d3 FA       		.byte	0xfa
 3246 14d4 42       		.uleb128 0x42
 3247 14d5 99060000 		.4byte	.LASF204
 3248 14d9 99060000 		.4byte	.LASF204
 3249 14dd 0D       		.byte	0xd
 3250 14de 6601     		.2byte	0x166
 3251 14e0 42       		.uleb128 0x42
 3252 14e1 2C010000 		.4byte	.LASF205
 3253 14e5 2C010000 		.4byte	.LASF205
 3254 14e9 12       		.byte	0x12
 3255 14ea 2701     		.2byte	0x127
 3256 14ec 41       		.uleb128 0x41
 3257 14ed 16090000 		.4byte	.LASF206
 3258 14f1 16090000 		.4byte	.LASF206
 3259 14f5 15       		.byte	0x15
 3260 14f6 4E       		.byte	0x4e
 3261 14f7 41       		.uleb128 0x41
 3262 14f8 F0060000 		.4byte	.LASF207
 3263 14fc F0060000 		.4byte	.LASF207
 3264 1500 15       		.byte	0x15
 3265 1501 4F       		.byte	0x4f
 3266 1502 00       		.byte	0
 3267              		.section	.debug_abbrev,"",%progbits
 3268              	.Ldebug_abbrev0:
 3269 0000 01       		.uleb128 0x1
 3270 0001 11       		.uleb128 0x11
 3271 0002 01       		.byte	0x1
 3272 0003 25       		.uleb128 0x25
 3273 0004 0E       		.uleb128 0xe
 3274 0005 13       		.uleb128 0x13
 3275 0006 0B       		.uleb128 0xb
 3276 0007 03       		.uleb128 0x3
 3277 0008 0E       		.uleb128 0xe
 3278 0009 1B       		.uleb128 0x1b
 3279 000a 0E       		.uleb128 0xe
 3280 000b 55       		.uleb128 0x55
 3281 000c 17       		.uleb128 0x17
 3282 000d 11       		.uleb128 0x11
 3283 000e 01       		.uleb128 0x1
 3284 000f 10       		.uleb128 0x10
 3285 0010 17       		.uleb128 0x17
 3286 0011 00       		.byte	0
 3287 0012 00       		.byte	0
 3288 0013 02       		.uleb128 0x2
 3289 0014 24       		.uleb128 0x24
 3290 0015 00       		.byte	0
 3291 0016 0B       		.uleb128 0xb
 3292 0017 0B       		.uleb128 0xb
 3293 0018 3E       		.uleb128 0x3e
 3294 0019 0B       		.uleb128 0xb
 3295 001a 03       		.uleb128 0x3
 3296 001b 08       		.uleb128 0x8
 3297 001c 00       		.byte	0
 3298 001d 00       		.byte	0
 3299 001e 03       		.uleb128 0x3
 3300 001f 16       		.uleb128 0x16
 3301 0020 00       		.byte	0
ARM GAS  /tmp/cc481lMf.s 			page 59


 3302 0021 03       		.uleb128 0x3
 3303 0022 0E       		.uleb128 0xe
 3304 0023 3A       		.uleb128 0x3a
 3305 0024 0B       		.uleb128 0xb
 3306 0025 3B       		.uleb128 0x3b
 3307 0026 0B       		.uleb128 0xb
 3308 0027 49       		.uleb128 0x49
 3309 0028 13       		.uleb128 0x13
 3310 0029 00       		.byte	0
 3311 002a 00       		.byte	0
 3312 002b 04       		.uleb128 0x4
 3313 002c 24       		.uleb128 0x24
 3314 002d 00       		.byte	0
 3315 002e 0B       		.uleb128 0xb
 3316 002f 0B       		.uleb128 0xb
 3317 0030 3E       		.uleb128 0x3e
 3318 0031 0B       		.uleb128 0xb
 3319 0032 03       		.uleb128 0x3
 3320 0033 0E       		.uleb128 0xe
 3321 0034 00       		.byte	0
 3322 0035 00       		.byte	0
 3323 0036 05       		.uleb128 0x5
 3324 0037 35       		.uleb128 0x35
 3325 0038 00       		.byte	0
 3326 0039 49       		.uleb128 0x49
 3327 003a 13       		.uleb128 0x13
 3328 003b 00       		.byte	0
 3329 003c 00       		.byte	0
 3330 003d 06       		.uleb128 0x6
 3331 003e 13       		.uleb128 0x13
 3332 003f 01       		.byte	0x1
 3333 0040 03       		.uleb128 0x3
 3334 0041 0E       		.uleb128 0xe
 3335 0042 0B       		.uleb128 0xb
 3336 0043 0B       		.uleb128 0xb
 3337 0044 3A       		.uleb128 0x3a
 3338 0045 0B       		.uleb128 0xb
 3339 0046 3B       		.uleb128 0x3b
 3340 0047 0B       		.uleb128 0xb
 3341 0048 01       		.uleb128 0x1
 3342 0049 13       		.uleb128 0x13
 3343 004a 00       		.byte	0
 3344 004b 00       		.byte	0
 3345 004c 07       		.uleb128 0x7
 3346 004d 0D       		.uleb128 0xd
 3347 004e 00       		.byte	0
 3348 004f 03       		.uleb128 0x3
 3349 0050 0E       		.uleb128 0xe
 3350 0051 3A       		.uleb128 0x3a
 3351 0052 0B       		.uleb128 0xb
 3352 0053 3B       		.uleb128 0x3b
 3353 0054 0B       		.uleb128 0xb
 3354 0055 49       		.uleb128 0x49
 3355 0056 13       		.uleb128 0x13
 3356 0057 38       		.uleb128 0x38
 3357 0058 0B       		.uleb128 0xb
 3358 0059 00       		.byte	0
ARM GAS  /tmp/cc481lMf.s 			page 60


 3359 005a 00       		.byte	0
 3360 005b 08       		.uleb128 0x8
 3361 005c 0D       		.uleb128 0xd
 3362 005d 00       		.byte	0
 3363 005e 03       		.uleb128 0x3
 3364 005f 08       		.uleb128 0x8
 3365 0060 3A       		.uleb128 0x3a
 3366 0061 0B       		.uleb128 0xb
 3367 0062 3B       		.uleb128 0x3b
 3368 0063 05       		.uleb128 0x5
 3369 0064 49       		.uleb128 0x49
 3370 0065 13       		.uleb128 0x13
 3371 0066 38       		.uleb128 0x38
 3372 0067 0B       		.uleb128 0xb
 3373 0068 00       		.byte	0
 3374 0069 00       		.byte	0
 3375 006a 09       		.uleb128 0x9
 3376 006b 0D       		.uleb128 0xd
 3377 006c 00       		.byte	0
 3378 006d 03       		.uleb128 0x3
 3379 006e 0E       		.uleb128 0xe
 3380 006f 3A       		.uleb128 0x3a
 3381 0070 0B       		.uleb128 0xb
 3382 0071 3B       		.uleb128 0x3b
 3383 0072 05       		.uleb128 0x5
 3384 0073 49       		.uleb128 0x49
 3385 0074 13       		.uleb128 0x13
 3386 0075 38       		.uleb128 0x38
 3387 0076 0B       		.uleb128 0xb
 3388 0077 00       		.byte	0
 3389 0078 00       		.byte	0
 3390 0079 0A       		.uleb128 0xa
 3391 007a 0F       		.uleb128 0xf
 3392 007b 00       		.byte	0
 3393 007c 0B       		.uleb128 0xb
 3394 007d 0B       		.uleb128 0xb
 3395 007e 49       		.uleb128 0x49
 3396 007f 13       		.uleb128 0x13
 3397 0080 00       		.byte	0
 3398 0081 00       		.byte	0
 3399 0082 0B       		.uleb128 0xb
 3400 0083 13       		.uleb128 0x13
 3401 0084 01       		.byte	0x1
 3402 0085 03       		.uleb128 0x3
 3403 0086 0E       		.uleb128 0xe
 3404 0087 0B       		.uleb128 0xb
 3405 0088 0B       		.uleb128 0xb
 3406 0089 3A       		.uleb128 0x3a
 3407 008a 0B       		.uleb128 0xb
 3408 008b 3B       		.uleb128 0x3b
 3409 008c 05       		.uleb128 0x5
 3410 008d 01       		.uleb128 0x1
 3411 008e 13       		.uleb128 0x13
 3412 008f 00       		.byte	0
 3413 0090 00       		.byte	0
 3414 0091 0C       		.uleb128 0xc
 3415 0092 15       		.uleb128 0x15
ARM GAS  /tmp/cc481lMf.s 			page 61


 3416 0093 01       		.byte	0x1
 3417 0094 27       		.uleb128 0x27
 3418 0095 19       		.uleb128 0x19
 3419 0096 01       		.uleb128 0x1
 3420 0097 13       		.uleb128 0x13
 3421 0098 00       		.byte	0
 3422 0099 00       		.byte	0
 3423 009a 0D       		.uleb128 0xd
 3424 009b 05       		.uleb128 0x5
 3425 009c 00       		.byte	0
 3426 009d 49       		.uleb128 0x49
 3427 009e 13       		.uleb128 0x13
 3428 009f 00       		.byte	0
 3429 00a0 00       		.byte	0
 3430 00a1 0E       		.uleb128 0xe
 3431 00a2 0F       		.uleb128 0xf
 3432 00a3 00       		.byte	0
 3433 00a4 0B       		.uleb128 0xb
 3434 00a5 0B       		.uleb128 0xb
 3435 00a6 00       		.byte	0
 3436 00a7 00       		.byte	0
 3437 00a8 0F       		.uleb128 0xf
 3438 00a9 13       		.uleb128 0x13
 3439 00aa 01       		.byte	0x1
 3440 00ab 03       		.uleb128 0x3
 3441 00ac 0E       		.uleb128 0xe
 3442 00ad 0B       		.uleb128 0xb
 3443 00ae 05       		.uleb128 0x5
 3444 00af 3A       		.uleb128 0x3a
 3445 00b0 0B       		.uleb128 0xb
 3446 00b1 3B       		.uleb128 0x3b
 3447 00b2 05       		.uleb128 0x5
 3448 00b3 01       		.uleb128 0x1
 3449 00b4 13       		.uleb128 0x13
 3450 00b5 00       		.byte	0
 3451 00b6 00       		.byte	0
 3452 00b7 10       		.uleb128 0x10
 3453 00b8 01       		.uleb128 0x1
 3454 00b9 01       		.byte	0x1
 3455 00ba 49       		.uleb128 0x49
 3456 00bb 13       		.uleb128 0x13
 3457 00bc 01       		.uleb128 0x1
 3458 00bd 13       		.uleb128 0x13
 3459 00be 00       		.byte	0
 3460 00bf 00       		.byte	0
 3461 00c0 11       		.uleb128 0x11
 3462 00c1 21       		.uleb128 0x21
 3463 00c2 00       		.byte	0
 3464 00c3 49       		.uleb128 0x49
 3465 00c4 13       		.uleb128 0x13
 3466 00c5 2F       		.uleb128 0x2f
 3467 00c6 0B       		.uleb128 0xb
 3468 00c7 00       		.byte	0
 3469 00c8 00       		.byte	0
 3470 00c9 12       		.uleb128 0x12
 3471 00ca 13       		.uleb128 0x13
 3472 00cb 01       		.byte	0x1
ARM GAS  /tmp/cc481lMf.s 			page 62


 3473 00cc 0B       		.uleb128 0xb
 3474 00cd 0B       		.uleb128 0xb
 3475 00ce 3A       		.uleb128 0x3a
 3476 00cf 0B       		.uleb128 0xb
 3477 00d0 3B       		.uleb128 0x3b
 3478 00d1 05       		.uleb128 0x5
 3479 00d2 01       		.uleb128 0x1
 3480 00d3 13       		.uleb128 0x13
 3481 00d4 00       		.byte	0
 3482 00d5 00       		.byte	0
 3483 00d6 13       		.uleb128 0x13
 3484 00d7 16       		.uleb128 0x16
 3485 00d8 00       		.byte	0
 3486 00d9 03       		.uleb128 0x3
 3487 00da 0E       		.uleb128 0xe
 3488 00db 3A       		.uleb128 0x3a
 3489 00dc 0B       		.uleb128 0xb
 3490 00dd 3B       		.uleb128 0x3b
 3491 00de 05       		.uleb128 0x5
 3492 00df 49       		.uleb128 0x49
 3493 00e0 13       		.uleb128 0x13
 3494 00e1 00       		.byte	0
 3495 00e2 00       		.byte	0
 3496 00e3 14       		.uleb128 0x14
 3497 00e4 0D       		.uleb128 0xd
 3498 00e5 00       		.byte	0
 3499 00e6 03       		.uleb128 0x3
 3500 00e7 08       		.uleb128 0x8
 3501 00e8 3A       		.uleb128 0x3a
 3502 00e9 0B       		.uleb128 0xb
 3503 00ea 3B       		.uleb128 0x3b
 3504 00eb 0B       		.uleb128 0xb
 3505 00ec 49       		.uleb128 0x49
 3506 00ed 13       		.uleb128 0x13
 3507 00ee 38       		.uleb128 0x38
 3508 00ef 0B       		.uleb128 0xb
 3509 00f0 00       		.byte	0
 3510 00f1 00       		.byte	0
 3511 00f2 15       		.uleb128 0x15
 3512 00f3 13       		.uleb128 0x13
 3513 00f4 01       		.byte	0x1
 3514 00f5 0B       		.uleb128 0xb
 3515 00f6 0B       		.uleb128 0xb
 3516 00f7 3A       		.uleb128 0x3a
 3517 00f8 0B       		.uleb128 0xb
 3518 00f9 3B       		.uleb128 0x3b
 3519 00fa 0B       		.uleb128 0xb
 3520 00fb 01       		.uleb128 0x1
 3521 00fc 13       		.uleb128 0x13
 3522 00fd 00       		.byte	0
 3523 00fe 00       		.byte	0
 3524 00ff 16       		.uleb128 0x16
 3525 0100 17       		.uleb128 0x17
 3526 0101 01       		.byte	0x1
 3527 0102 0B       		.uleb128 0xb
 3528 0103 0B       		.uleb128 0xb
 3529 0104 3A       		.uleb128 0x3a
ARM GAS  /tmp/cc481lMf.s 			page 63


 3530 0105 0B       		.uleb128 0xb
 3531 0106 3B       		.uleb128 0x3b
 3532 0107 0B       		.uleb128 0xb
 3533 0108 01       		.uleb128 0x1
 3534 0109 13       		.uleb128 0x13
 3535 010a 00       		.byte	0
 3536 010b 00       		.byte	0
 3537 010c 17       		.uleb128 0x17
 3538 010d 0D       		.uleb128 0xd
 3539 010e 00       		.byte	0
 3540 010f 03       		.uleb128 0x3
 3541 0110 0E       		.uleb128 0xe
 3542 0111 3A       		.uleb128 0x3a
 3543 0112 0B       		.uleb128 0xb
 3544 0113 3B       		.uleb128 0x3b
 3545 0114 05       		.uleb128 0x5
 3546 0115 49       		.uleb128 0x49
 3547 0116 13       		.uleb128 0x13
 3548 0117 00       		.byte	0
 3549 0118 00       		.byte	0
 3550 0119 18       		.uleb128 0x18
 3551 011a 26       		.uleb128 0x26
 3552 011b 00       		.byte	0
 3553 011c 49       		.uleb128 0x49
 3554 011d 13       		.uleb128 0x13
 3555 011e 00       		.byte	0
 3556 011f 00       		.byte	0
 3557 0120 19       		.uleb128 0x19
 3558 0121 15       		.uleb128 0x15
 3559 0122 01       		.byte	0x1
 3560 0123 27       		.uleb128 0x27
 3561 0124 19       		.uleb128 0x19
 3562 0125 49       		.uleb128 0x49
 3563 0126 13       		.uleb128 0x13
 3564 0127 01       		.uleb128 0x1
 3565 0128 13       		.uleb128 0x13
 3566 0129 00       		.byte	0
 3567 012a 00       		.byte	0
 3568 012b 1A       		.uleb128 0x1a
 3569 012c 04       		.uleb128 0x4
 3570 012d 01       		.byte	0x1
 3571 012e 0B       		.uleb128 0xb
 3572 012f 0B       		.uleb128 0xb
 3573 0130 49       		.uleb128 0x49
 3574 0131 13       		.uleb128 0x13
 3575 0132 3A       		.uleb128 0x3a
 3576 0133 0B       		.uleb128 0xb
 3577 0134 3B       		.uleb128 0x3b
 3578 0135 0B       		.uleb128 0xb
 3579 0136 01       		.uleb128 0x1
 3580 0137 13       		.uleb128 0x13
 3581 0138 00       		.byte	0
 3582 0139 00       		.byte	0
 3583 013a 1B       		.uleb128 0x1b
 3584 013b 28       		.uleb128 0x28
 3585 013c 00       		.byte	0
 3586 013d 03       		.uleb128 0x3
ARM GAS  /tmp/cc481lMf.s 			page 64


 3587 013e 0E       		.uleb128 0xe
 3588 013f 1C       		.uleb128 0x1c
 3589 0140 0B       		.uleb128 0xb
 3590 0141 00       		.byte	0
 3591 0142 00       		.byte	0
 3592 0143 1C       		.uleb128 0x1c
 3593 0144 2E       		.uleb128 0x2e
 3594 0145 01       		.byte	0x1
 3595 0146 03       		.uleb128 0x3
 3596 0147 0E       		.uleb128 0xe
 3597 0148 3A       		.uleb128 0x3a
 3598 0149 0B       		.uleb128 0xb
 3599 014a 3B       		.uleb128 0x3b
 3600 014b 05       		.uleb128 0x5
 3601 014c 27       		.uleb128 0x27
 3602 014d 19       		.uleb128 0x19
 3603 014e 20       		.uleb128 0x20
 3604 014f 0B       		.uleb128 0xb
 3605 0150 01       		.uleb128 0x1
 3606 0151 13       		.uleb128 0x13
 3607 0152 00       		.byte	0
 3608 0153 00       		.byte	0
 3609 0154 1D       		.uleb128 0x1d
 3610 0155 05       		.uleb128 0x5
 3611 0156 00       		.byte	0
 3612 0157 03       		.uleb128 0x3
 3613 0158 0E       		.uleb128 0xe
 3614 0159 3A       		.uleb128 0x3a
 3615 015a 0B       		.uleb128 0xb
 3616 015b 3B       		.uleb128 0x3b
 3617 015c 05       		.uleb128 0x5
 3618 015d 49       		.uleb128 0x49
 3619 015e 13       		.uleb128 0x13
 3620 015f 00       		.byte	0
 3621 0160 00       		.byte	0
 3622 0161 1E       		.uleb128 0x1e
 3623 0162 2E       		.uleb128 0x2e
 3624 0163 00       		.byte	0
 3625 0164 03       		.uleb128 0x3
 3626 0165 0E       		.uleb128 0xe
 3627 0166 3A       		.uleb128 0x3a
 3628 0167 0B       		.uleb128 0xb
 3629 0168 3B       		.uleb128 0x3b
 3630 0169 05       		.uleb128 0x5
 3631 016a 27       		.uleb128 0x27
 3632 016b 19       		.uleb128 0x19
 3633 016c 20       		.uleb128 0x20
 3634 016d 0B       		.uleb128 0xb
 3635 016e 00       		.byte	0
 3636 016f 00       		.byte	0
 3637 0170 1F       		.uleb128 0x1f
 3638 0171 2E       		.uleb128 0x2e
 3639 0172 01       		.byte	0x1
 3640 0173 03       		.uleb128 0x3
 3641 0174 0E       		.uleb128 0xe
 3642 0175 3A       		.uleb128 0x3a
 3643 0176 0B       		.uleb128 0xb
ARM GAS  /tmp/cc481lMf.s 			page 65


 3644 0177 3B       		.uleb128 0x3b
 3645 0178 0B       		.uleb128 0xb
 3646 0179 27       		.uleb128 0x27
 3647 017a 19       		.uleb128 0x19
 3648 017b 20       		.uleb128 0x20
 3649 017c 0B       		.uleb128 0xb
 3650 017d 01       		.uleb128 0x1
 3651 017e 13       		.uleb128 0x13
 3652 017f 00       		.byte	0
 3653 0180 00       		.byte	0
 3654 0181 20       		.uleb128 0x20
 3655 0182 05       		.uleb128 0x5
 3656 0183 00       		.byte	0
 3657 0184 03       		.uleb128 0x3
 3658 0185 08       		.uleb128 0x8
 3659 0186 3A       		.uleb128 0x3a
 3660 0187 0B       		.uleb128 0xb
 3661 0188 3B       		.uleb128 0x3b
 3662 0189 0B       		.uleb128 0xb
 3663 018a 49       		.uleb128 0x49
 3664 018b 13       		.uleb128 0x13
 3665 018c 00       		.byte	0
 3666 018d 00       		.byte	0
 3667 018e 21       		.uleb128 0x21
 3668 018f 05       		.uleb128 0x5
 3669 0190 00       		.byte	0
 3670 0191 03       		.uleb128 0x3
 3671 0192 0E       		.uleb128 0xe
 3672 0193 3A       		.uleb128 0x3a
 3673 0194 0B       		.uleb128 0xb
 3674 0195 3B       		.uleb128 0x3b
 3675 0196 0B       		.uleb128 0xb
 3676 0197 49       		.uleb128 0x49
 3677 0198 13       		.uleb128 0x13
 3678 0199 00       		.byte	0
 3679 019a 00       		.byte	0
 3680 019b 22       		.uleb128 0x22
 3681 019c 34       		.uleb128 0x34
 3682 019d 00       		.byte	0
 3683 019e 03       		.uleb128 0x3
 3684 019f 08       		.uleb128 0x8
 3685 01a0 3A       		.uleb128 0x3a
 3686 01a1 0B       		.uleb128 0xb
 3687 01a2 3B       		.uleb128 0x3b
 3688 01a3 0B       		.uleb128 0xb
 3689 01a4 49       		.uleb128 0x49
 3690 01a5 13       		.uleb128 0x13
 3691 01a6 00       		.byte	0
 3692 01a7 00       		.byte	0
 3693 01a8 23       		.uleb128 0x23
 3694 01a9 05       		.uleb128 0x5
 3695 01aa 00       		.byte	0
 3696 01ab 03       		.uleb128 0x3
 3697 01ac 08       		.uleb128 0x8
 3698 01ad 3A       		.uleb128 0x3a
 3699 01ae 0B       		.uleb128 0xb
 3700 01af 3B       		.uleb128 0x3b
ARM GAS  /tmp/cc481lMf.s 			page 66


 3701 01b0 05       		.uleb128 0x5
 3702 01b1 49       		.uleb128 0x49
 3703 01b2 13       		.uleb128 0x13
 3704 01b3 00       		.byte	0
 3705 01b4 00       		.byte	0
 3706 01b5 24       		.uleb128 0x24
 3707 01b6 2E       		.uleb128 0x2e
 3708 01b7 01       		.byte	0x1
 3709 01b8 03       		.uleb128 0x3
 3710 01b9 0E       		.uleb128 0xe
 3711 01ba 3A       		.uleb128 0x3a
 3712 01bb 0B       		.uleb128 0xb
 3713 01bc 3B       		.uleb128 0x3b
 3714 01bd 05       		.uleb128 0x5
 3715 01be 27       		.uleb128 0x27
 3716 01bf 19       		.uleb128 0x19
 3717 01c0 49       		.uleb128 0x49
 3718 01c1 13       		.uleb128 0x13
 3719 01c2 20       		.uleb128 0x20
 3720 01c3 0B       		.uleb128 0xb
 3721 01c4 01       		.uleb128 0x1
 3722 01c5 13       		.uleb128 0x13
 3723 01c6 00       		.byte	0
 3724 01c7 00       		.byte	0
 3725 01c8 25       		.uleb128 0x25
 3726 01c9 0B       		.uleb128 0xb
 3727 01ca 01       		.byte	0x1
 3728 01cb 01       		.uleb128 0x1
 3729 01cc 13       		.uleb128 0x13
 3730 01cd 00       		.byte	0
 3731 01ce 00       		.byte	0
 3732 01cf 26       		.uleb128 0x26
 3733 01d0 0B       		.uleb128 0xb
 3734 01d1 01       		.byte	0x1
 3735 01d2 00       		.byte	0
 3736 01d3 00       		.byte	0
 3737 01d4 27       		.uleb128 0x27
 3738 01d5 2E       		.uleb128 0x2e
 3739 01d6 01       		.byte	0x1
 3740 01d7 03       		.uleb128 0x3
 3741 01d8 0E       		.uleb128 0xe
 3742 01d9 3A       		.uleb128 0x3a
 3743 01da 0B       		.uleb128 0xb
 3744 01db 3B       		.uleb128 0x3b
 3745 01dc 0B       		.uleb128 0xb
 3746 01dd 27       		.uleb128 0x27
 3747 01de 19       		.uleb128 0x19
 3748 01df 11       		.uleb128 0x11
 3749 01e0 01       		.uleb128 0x1
 3750 01e1 12       		.uleb128 0x12
 3751 01e2 06       		.uleb128 0x6
 3752 01e3 40       		.uleb128 0x40
 3753 01e4 18       		.uleb128 0x18
 3754 01e5 9742     		.uleb128 0x2117
 3755 01e7 19       		.uleb128 0x19
 3756 01e8 01       		.uleb128 0x1
 3757 01e9 13       		.uleb128 0x13
ARM GAS  /tmp/cc481lMf.s 			page 67


 3758 01ea 00       		.byte	0
 3759 01eb 00       		.byte	0
 3760 01ec 28       		.uleb128 0x28
 3761 01ed 05       		.uleb128 0x5
 3762 01ee 00       		.byte	0
 3763 01ef 03       		.uleb128 0x3
 3764 01f0 08       		.uleb128 0x8
 3765 01f1 3A       		.uleb128 0x3a
 3766 01f2 0B       		.uleb128 0xb
 3767 01f3 3B       		.uleb128 0x3b
 3768 01f4 0B       		.uleb128 0xb
 3769 01f5 49       		.uleb128 0x49
 3770 01f6 13       		.uleb128 0x13
 3771 01f7 02       		.uleb128 0x2
 3772 01f8 18       		.uleb128 0x18
 3773 01f9 00       		.byte	0
 3774 01fa 00       		.byte	0
 3775 01fb 29       		.uleb128 0x29
 3776 01fc 2E       		.uleb128 0x2e
 3777 01fd 01       		.byte	0x1
 3778 01fe 3F       		.uleb128 0x3f
 3779 01ff 19       		.uleb128 0x19
 3780 0200 03       		.uleb128 0x3
 3781 0201 0E       		.uleb128 0xe
 3782 0202 3A       		.uleb128 0x3a
 3783 0203 0B       		.uleb128 0xb
 3784 0204 3B       		.uleb128 0x3b
 3785 0205 05       		.uleb128 0x5
 3786 0206 27       		.uleb128 0x27
 3787 0207 19       		.uleb128 0x19
 3788 0208 11       		.uleb128 0x11
 3789 0209 01       		.uleb128 0x1
 3790 020a 12       		.uleb128 0x12
 3791 020b 06       		.uleb128 0x6
 3792 020c 40       		.uleb128 0x40
 3793 020d 18       		.uleb128 0x18
 3794 020e 9742     		.uleb128 0x2117
 3795 0210 19       		.uleb128 0x19
 3796 0211 01       		.uleb128 0x1
 3797 0212 13       		.uleb128 0x13
 3798 0213 00       		.byte	0
 3799 0214 00       		.byte	0
 3800 0215 2A       		.uleb128 0x2a
 3801 0216 1D       		.uleb128 0x1d
 3802 0217 01       		.byte	0x1
 3803 0218 31       		.uleb128 0x31
 3804 0219 13       		.uleb128 0x13
 3805 021a 52       		.uleb128 0x52
 3806 021b 01       		.uleb128 0x1
 3807 021c 55       		.uleb128 0x55
 3808 021d 17       		.uleb128 0x17
 3809 021e 58       		.uleb128 0x58
 3810 021f 0B       		.uleb128 0xb
 3811 0220 59       		.uleb128 0x59
 3812 0221 05       		.uleb128 0x5
 3813 0222 01       		.uleb128 0x1
 3814 0223 13       		.uleb128 0x13
ARM GAS  /tmp/cc481lMf.s 			page 68


 3815 0224 00       		.byte	0
 3816 0225 00       		.byte	0
 3817 0226 2B       		.uleb128 0x2b
 3818 0227 05       		.uleb128 0x5
 3819 0228 00       		.byte	0
 3820 0229 31       		.uleb128 0x31
 3821 022a 13       		.uleb128 0x13
 3822 022b 02       		.uleb128 0x2
 3823 022c 18       		.uleb128 0x18
 3824 022d 00       		.byte	0
 3825 022e 00       		.byte	0
 3826 022f 2C       		.uleb128 0x2c
 3827 0230 0B       		.uleb128 0xb
 3828 0231 01       		.byte	0x1
 3829 0232 55       		.uleb128 0x55
 3830 0233 17       		.uleb128 0x17
 3831 0234 00       		.byte	0
 3832 0235 00       		.byte	0
 3833 0236 2D       		.uleb128 0x2d
 3834 0237 34       		.uleb128 0x34
 3835 0238 00       		.byte	0
 3836 0239 31       		.uleb128 0x31
 3837 023a 13       		.uleb128 0x13
 3838 023b 02       		.uleb128 0x2
 3839 023c 17       		.uleb128 0x17
 3840 023d 00       		.byte	0
 3841 023e 00       		.byte	0
 3842 023f 2E       		.uleb128 0x2e
 3843 0240 1D       		.uleb128 0x1d
 3844 0241 01       		.byte	0x1
 3845 0242 31       		.uleb128 0x31
 3846 0243 13       		.uleb128 0x13
 3847 0244 11       		.uleb128 0x11
 3848 0245 01       		.uleb128 0x1
 3849 0246 12       		.uleb128 0x12
 3850 0247 06       		.uleb128 0x6
 3851 0248 58       		.uleb128 0x58
 3852 0249 0B       		.uleb128 0xb
 3853 024a 59       		.uleb128 0x59
 3854 024b 0B       		.uleb128 0xb
 3855 024c 01       		.uleb128 0x1
 3856 024d 13       		.uleb128 0x13
 3857 024e 00       		.byte	0
 3858 024f 00       		.byte	0
 3859 0250 2F       		.uleb128 0x2f
 3860 0251 1D       		.uleb128 0x1d
 3861 0252 01       		.byte	0x1
 3862 0253 31       		.uleb128 0x31
 3863 0254 13       		.uleb128 0x13
 3864 0255 11       		.uleb128 0x11
 3865 0256 01       		.uleb128 0x1
 3866 0257 12       		.uleb128 0x12
 3867 0258 06       		.uleb128 0x6
 3868 0259 58       		.uleb128 0x58
 3869 025a 0B       		.uleb128 0xb
 3870 025b 59       		.uleb128 0x59
 3871 025c 05       		.uleb128 0x5
ARM GAS  /tmp/cc481lMf.s 			page 69


 3872 025d 00       		.byte	0
 3873 025e 00       		.byte	0
 3874 025f 30       		.uleb128 0x30
 3875 0260 05       		.uleb128 0x5
 3876 0261 00       		.byte	0
 3877 0262 31       		.uleb128 0x31
 3878 0263 13       		.uleb128 0x13
 3879 0264 02       		.uleb128 0x2
 3880 0265 17       		.uleb128 0x17
 3881 0266 00       		.byte	0
 3882 0267 00       		.byte	0
 3883 0268 31       		.uleb128 0x31
 3884 0269 0B       		.uleb128 0xb
 3885 026a 01       		.byte	0x1
 3886 026b 55       		.uleb128 0x55
 3887 026c 17       		.uleb128 0x17
 3888 026d 01       		.uleb128 0x1
 3889 026e 13       		.uleb128 0x13
 3890 026f 00       		.byte	0
 3891 0270 00       		.byte	0
 3892 0271 32       		.uleb128 0x32
 3893 0272 0B       		.uleb128 0xb
 3894 0273 01       		.byte	0x1
 3895 0274 11       		.uleb128 0x11
 3896 0275 01       		.uleb128 0x1
 3897 0276 12       		.uleb128 0x12
 3898 0277 06       		.uleb128 0x6
 3899 0278 00       		.byte	0
 3900 0279 00       		.byte	0
 3901 027a 33       		.uleb128 0x33
 3902 027b 1D       		.uleb128 0x1d
 3903 027c 01       		.byte	0x1
 3904 027d 31       		.uleb128 0x31
 3905 027e 13       		.uleb128 0x13
 3906 027f 11       		.uleb128 0x11
 3907 0280 01       		.uleb128 0x1
 3908 0281 12       		.uleb128 0x12
 3909 0282 06       		.uleb128 0x6
 3910 0283 58       		.uleb128 0x58
 3911 0284 0B       		.uleb128 0xb
 3912 0285 59       		.uleb128 0x59
 3913 0286 0B       		.uleb128 0xb
 3914 0287 00       		.byte	0
 3915 0288 00       		.byte	0
 3916 0289 34       		.uleb128 0x34
 3917 028a 898201   		.uleb128 0x4109
 3918 028d 01       		.byte	0x1
 3919 028e 11       		.uleb128 0x11
 3920 028f 01       		.uleb128 0x1
 3921 0290 31       		.uleb128 0x31
 3922 0291 13       		.uleb128 0x13
 3923 0292 00       		.byte	0
 3924 0293 00       		.byte	0
 3925 0294 35       		.uleb128 0x35
 3926 0295 8A8201   		.uleb128 0x410a
 3927 0298 00       		.byte	0
 3928 0299 02       		.uleb128 0x2
ARM GAS  /tmp/cc481lMf.s 			page 70


 3929 029a 18       		.uleb128 0x18
 3930 029b 9142     		.uleb128 0x2111
 3931 029d 18       		.uleb128 0x18
 3932 029e 00       		.byte	0
 3933 029f 00       		.byte	0
 3934 02a0 36       		.uleb128 0x36
 3935 02a1 1D       		.uleb128 0x1d
 3936 02a2 01       		.byte	0x1
 3937 02a3 31       		.uleb128 0x31
 3938 02a4 13       		.uleb128 0x13
 3939 02a5 52       		.uleb128 0x52
 3940 02a6 01       		.uleb128 0x1
 3941 02a7 55       		.uleb128 0x55
 3942 02a8 17       		.uleb128 0x17
 3943 02a9 58       		.uleb128 0x58
 3944 02aa 0B       		.uleb128 0xb
 3945 02ab 59       		.uleb128 0x59
 3946 02ac 0B       		.uleb128 0xb
 3947 02ad 01       		.uleb128 0x1
 3948 02ae 13       		.uleb128 0x13
 3949 02af 00       		.byte	0
 3950 02b0 00       		.byte	0
 3951 02b1 37       		.uleb128 0x37
 3952 02b2 1D       		.uleb128 0x1d
 3953 02b3 01       		.byte	0x1
 3954 02b4 31       		.uleb128 0x31
 3955 02b5 13       		.uleb128 0x13
 3956 02b6 52       		.uleb128 0x52
 3957 02b7 01       		.uleb128 0x1
 3958 02b8 55       		.uleb128 0x55
 3959 02b9 17       		.uleb128 0x17
 3960 02ba 58       		.uleb128 0x58
 3961 02bb 0B       		.uleb128 0xb
 3962 02bc 59       		.uleb128 0x59
 3963 02bd 05       		.uleb128 0x5
 3964 02be 00       		.byte	0
 3965 02bf 00       		.byte	0
 3966 02c0 38       		.uleb128 0x38
 3967 02c1 05       		.uleb128 0x5
 3968 02c2 00       		.byte	0
 3969 02c3 31       		.uleb128 0x31
 3970 02c4 13       		.uleb128 0x13
 3971 02c5 1C       		.uleb128 0x1c
 3972 02c6 0B       		.uleb128 0xb
 3973 02c7 00       		.byte	0
 3974 02c8 00       		.byte	0
 3975 02c9 39       		.uleb128 0x39
 3976 02ca 898201   		.uleb128 0x4109
 3977 02cd 00       		.byte	0
 3978 02ce 11       		.uleb128 0x11
 3979 02cf 01       		.uleb128 0x1
 3980 02d0 9542     		.uleb128 0x2115
 3981 02d2 19       		.uleb128 0x19
 3982 02d3 31       		.uleb128 0x31
 3983 02d4 13       		.uleb128 0x13
 3984 02d5 00       		.byte	0
 3985 02d6 00       		.byte	0
ARM GAS  /tmp/cc481lMf.s 			page 71


 3986 02d7 3A       		.uleb128 0x3a
 3987 02d8 05       		.uleb128 0x5
 3988 02d9 00       		.byte	0
 3989 02da 03       		.uleb128 0x3
 3990 02db 08       		.uleb128 0x8
 3991 02dc 3A       		.uleb128 0x3a
 3992 02dd 0B       		.uleb128 0xb
 3993 02de 3B       		.uleb128 0x3b
 3994 02df 05       		.uleb128 0x5
 3995 02e0 49       		.uleb128 0x49
 3996 02e1 13       		.uleb128 0x13
 3997 02e2 02       		.uleb128 0x2
 3998 02e3 17       		.uleb128 0x17
 3999 02e4 00       		.byte	0
 4000 02e5 00       		.byte	0
 4001 02e6 3B       		.uleb128 0x3b
 4002 02e7 05       		.uleb128 0x5
 4003 02e8 00       		.byte	0
 4004 02e9 03       		.uleb128 0x3
 4005 02ea 0E       		.uleb128 0xe
 4006 02eb 3A       		.uleb128 0x3a
 4007 02ec 0B       		.uleb128 0xb
 4008 02ed 3B       		.uleb128 0x3b
 4009 02ee 05       		.uleb128 0x5
 4010 02ef 49       		.uleb128 0x49
 4011 02f0 13       		.uleb128 0x13
 4012 02f1 02       		.uleb128 0x2
 4013 02f2 17       		.uleb128 0x17
 4014 02f3 00       		.byte	0
 4015 02f4 00       		.byte	0
 4016 02f5 3C       		.uleb128 0x3c
 4017 02f6 898201   		.uleb128 0x4109
 4018 02f9 01       		.byte	0x1
 4019 02fa 11       		.uleb128 0x11
 4020 02fb 01       		.uleb128 0x1
 4021 02fc 9542     		.uleb128 0x2115
 4022 02fe 19       		.uleb128 0x19
 4023 02ff 31       		.uleb128 0x31
 4024 0300 13       		.uleb128 0x13
 4025 0301 00       		.byte	0
 4026 0302 00       		.byte	0
 4027 0303 3D       		.uleb128 0x3d
 4028 0304 34       		.uleb128 0x34
 4029 0305 00       		.byte	0
 4030 0306 03       		.uleb128 0x3
 4031 0307 0E       		.uleb128 0xe
 4032 0308 3A       		.uleb128 0x3a
 4033 0309 0B       		.uleb128 0xb
 4034 030a 3B       		.uleb128 0x3b
 4035 030b 0B       		.uleb128 0xb
 4036 030c 49       		.uleb128 0x49
 4037 030d 13       		.uleb128 0x13
 4038 030e 02       		.uleb128 0x2
 4039 030f 18       		.uleb128 0x18
 4040 0310 00       		.byte	0
 4041 0311 00       		.byte	0
 4042 0312 3E       		.uleb128 0x3e
ARM GAS  /tmp/cc481lMf.s 			page 72


 4043 0313 34       		.uleb128 0x34
 4044 0314 00       		.byte	0
 4045 0315 03       		.uleb128 0x3
 4046 0316 0E       		.uleb128 0xe
 4047 0317 3A       		.uleb128 0x3a
 4048 0318 0B       		.uleb128 0xb
 4049 0319 3B       		.uleb128 0x3b
 4050 031a 05       		.uleb128 0x5
 4051 031b 49       		.uleb128 0x49
 4052 031c 13       		.uleb128 0x13
 4053 031d 3F       		.uleb128 0x3f
 4054 031e 19       		.uleb128 0x19
 4055 031f 3C       		.uleb128 0x3c
 4056 0320 19       		.uleb128 0x19
 4057 0321 00       		.byte	0
 4058 0322 00       		.byte	0
 4059 0323 3F       		.uleb128 0x3f
 4060 0324 34       		.uleb128 0x34
 4061 0325 00       		.byte	0
 4062 0326 03       		.uleb128 0x3
 4063 0327 08       		.uleb128 0x8
 4064 0328 3A       		.uleb128 0x3a
 4065 0329 0B       		.uleb128 0xb
 4066 032a 3B       		.uleb128 0x3b
 4067 032b 05       		.uleb128 0x5
 4068 032c 49       		.uleb128 0x49
 4069 032d 13       		.uleb128 0x13
 4070 032e 3F       		.uleb128 0x3f
 4071 032f 19       		.uleb128 0x19
 4072 0330 3C       		.uleb128 0x3c
 4073 0331 19       		.uleb128 0x19
 4074 0332 00       		.byte	0
 4075 0333 00       		.byte	0
 4076 0334 40       		.uleb128 0x40
 4077 0335 34       		.uleb128 0x34
 4078 0336 00       		.byte	0
 4079 0337 03       		.uleb128 0x3
 4080 0338 08       		.uleb128 0x8
 4081 0339 3A       		.uleb128 0x3a
 4082 033a 0B       		.uleb128 0xb
 4083 033b 3B       		.uleb128 0x3b
 4084 033c 0B       		.uleb128 0xb
 4085 033d 49       		.uleb128 0x49
 4086 033e 13       		.uleb128 0x13
 4087 033f 3F       		.uleb128 0x3f
 4088 0340 19       		.uleb128 0x19
 4089 0341 02       		.uleb128 0x2
 4090 0342 18       		.uleb128 0x18
 4091 0343 00       		.byte	0
 4092 0344 00       		.byte	0
 4093 0345 41       		.uleb128 0x41
 4094 0346 2E       		.uleb128 0x2e
 4095 0347 00       		.byte	0
 4096 0348 3F       		.uleb128 0x3f
 4097 0349 19       		.uleb128 0x19
 4098 034a 3C       		.uleb128 0x3c
 4099 034b 19       		.uleb128 0x19
ARM GAS  /tmp/cc481lMf.s 			page 73


 4100 034c 6E       		.uleb128 0x6e
 4101 034d 0E       		.uleb128 0xe
 4102 034e 03       		.uleb128 0x3
 4103 034f 0E       		.uleb128 0xe
 4104 0350 3A       		.uleb128 0x3a
 4105 0351 0B       		.uleb128 0xb
 4106 0352 3B       		.uleb128 0x3b
 4107 0353 0B       		.uleb128 0xb
 4108 0354 00       		.byte	0
 4109 0355 00       		.byte	0
 4110 0356 42       		.uleb128 0x42
 4111 0357 2E       		.uleb128 0x2e
 4112 0358 00       		.byte	0
 4113 0359 3F       		.uleb128 0x3f
 4114 035a 19       		.uleb128 0x19
 4115 035b 3C       		.uleb128 0x3c
 4116 035c 19       		.uleb128 0x19
 4117 035d 6E       		.uleb128 0x6e
 4118 035e 0E       		.uleb128 0xe
 4119 035f 03       		.uleb128 0x3
 4120 0360 0E       		.uleb128 0xe
 4121 0361 3A       		.uleb128 0x3a
 4122 0362 0B       		.uleb128 0xb
 4123 0363 3B       		.uleb128 0x3b
 4124 0364 05       		.uleb128 0x5
 4125 0365 00       		.byte	0
 4126 0366 00       		.byte	0
 4127 0367 00       		.byte	0
 4128              		.section	.debug_loc,"",%progbits
 4129              	.Ldebug_loc0:
 4130              	.LLST0:
 4131 0000 06000000 		.4byte	.LVL2
 4132 0004 AC000000 		.4byte	.LVL26
 4133 0008 0100     		.2byte	0x1
 4134 000a 55       		.byte	0x55
 4135 000b B0000000 		.4byte	.LVL27
 4136 000f 1C010000 		.4byte	.LFE265
 4137 0013 0100     		.2byte	0x1
 4138 0015 55       		.byte	0x55
 4139 0016 00000000 		.4byte	0
 4140 001a 00000000 		.4byte	0
 4141              	.LLST1:
 4142 001e 08000000 		.4byte	.LVL3
 4143 0022 AC000000 		.4byte	.LVL26
 4144 0026 0100     		.2byte	0x1
 4145 0028 57       		.byte	0x57
 4146 0029 B0000000 		.4byte	.LVL27
 4147 002d 1C010000 		.4byte	.LFE265
 4148 0031 0100     		.2byte	0x1
 4149 0033 57       		.byte	0x57
 4150 0034 00000000 		.4byte	0
 4151 0038 00000000 		.4byte	0
 4152              	.LLST2:
 4153 003c 0E000000 		.4byte	.LVL4
 4154 0040 26000000 		.4byte	.LVL7
 4155 0044 0100     		.2byte	0x1
 4156 0046 54       		.byte	0x54
ARM GAS  /tmp/cc481lMf.s 			page 74


 4157 0047 28000000 		.4byte	.LVL8
 4158 004b 6A000000 		.4byte	.LVL19
 4159 004f 0100     		.2byte	0x1
 4160 0051 54       		.byte	0x54
 4161 0052 6C000000 		.4byte	.LVL20
 4162 0056 AC000000 		.4byte	.LVL26
 4163 005a 0100     		.2byte	0x1
 4164 005c 54       		.byte	0x54
 4165 005d B0000000 		.4byte	.LVL27
 4166 0061 1C010000 		.4byte	.LFE265
 4167 0065 0100     		.2byte	0x1
 4168 0067 54       		.byte	0x54
 4169 0068 00000000 		.4byte	0
 4170 006c 00000000 		.4byte	0
 4171              	.LLST3:
 4172 0070 10000000 		.4byte	.LVL5
 4173 0074 B0000000 		.4byte	.LVL27
 4174 0078 0300     		.2byte	0x3
 4175 007a 08       		.byte	0x8
 4176 007b 20       		.byte	0x20
 4177 007c 9F       		.byte	0x9f
 4178 007d CE000000 		.4byte	.LVL31
 4179 0081 1C010000 		.4byte	.LFE265
 4180 0085 0300     		.2byte	0x3
 4181 0087 08       		.byte	0x8
 4182 0088 20       		.byte	0x20
 4183 0089 9F       		.byte	0x9f
 4184 008a 00000000 		.4byte	0
 4185 008e 00000000 		.4byte	0
 4186              	.LLST4:
 4187 0092 22000000 		.4byte	.LVL6
 4188 0096 2E000000 		.4byte	.LVL9
 4189 009a 0100     		.2byte	0x1
 4190 009c 51       		.byte	0x51
 4191 009d 5E000000 		.4byte	.LVL16
 4192 00a1 67000000 		.4byte	.LVL18-1
 4193 00a5 0100     		.2byte	0x1
 4194 00a7 51       		.byte	0x51
 4195 00a8 00000000 		.4byte	0
 4196 00ac 00000000 		.4byte	0
 4197              	.LLST5:
 4198 00b0 32000000 		.4byte	.LVL10
 4199 00b4 60000000 		.4byte	.LVL17
 4200 00b8 0600     		.2byte	0x6
 4201 00ba 03       		.byte	0x3
 4202 00bb 00000000 		.4byte	SD2
 4203 00bf 9F       		.byte	0x9f
 4204 00c0 00000000 		.4byte	0
 4205 00c4 00000000 		.4byte	0
 4206              	.LLST6:
 4207 00c8 32000000 		.4byte	.LVL10
 4208 00cc 60000000 		.4byte	.LVL17
 4209 00d0 0100     		.2byte	0x1
 4210 00d2 54       		.byte	0x54
 4211 00d3 00000000 		.4byte	0
 4212 00d7 00000000 		.4byte	0
 4213              	.LLST7:
ARM GAS  /tmp/cc481lMf.s 			page 75


 4214 00db 32000000 		.4byte	.LVL10
 4215 00df 3C000000 		.4byte	.LVL11
 4216 00e3 0200     		.2byte	0x2
 4217 00e5 30       		.byte	0x30
 4218 00e6 9F       		.byte	0x9f
 4219 00e7 3C000000 		.4byte	.LVL11
 4220 00eb 59000000 		.4byte	.LVL15-1
 4221 00ef 0100     		.2byte	0x1
 4222 00f1 51       		.byte	0x51
 4223 00f2 00000000 		.4byte	0
 4224 00f6 00000000 		.4byte	0
 4225              	.LLST8:
 4226 00fa 54000000 		.4byte	.LVL14
 4227 00fe 59000000 		.4byte	.LVL15-1
 4228 0102 0100     		.2byte	0x1
 4229 0104 51       		.byte	0x51
 4230 0105 00000000 		.4byte	0
 4231 0109 00000000 		.4byte	0
 4232              	.LLST9:
 4233 010d 54000000 		.4byte	.LVL14
 4234 0111 60000000 		.4byte	.LVL17
 4235 0115 0600     		.2byte	0x6
 4236 0117 03       		.byte	0x3
 4237 0118 04000000 		.4byte	SD2+4
 4238 011c 9F       		.byte	0x9f
 4239 011d 00000000 		.4byte	0
 4240 0121 00000000 		.4byte	0
 4241              	.LLST10:
 4242 0125 72000000 		.4byte	.LVL21
 4243 0129 B0000000 		.4byte	.LVL27
 4244 012d 0200     		.2byte	0x2
 4245 012f 30       		.byte	0x30
 4246 0130 9F       		.byte	0x9f
 4247 0131 CE000000 		.4byte	.LVL31
 4248 0135 1C010000 		.4byte	.LFE265
 4249 0139 0200     		.2byte	0x2
 4250 013b 30       		.byte	0x30
 4251 013c 9F       		.byte	0x9f
 4252 013d 00000000 		.4byte	0
 4253 0141 00000000 		.4byte	0
 4254              	.LLST11:
 4255 0145 84000000 		.4byte	.LVL22
 4256 0149 A8000000 		.4byte	.LVL25
 4257 014d 0300     		.2byte	0x3
 4258 014f 08       		.byte	0x8
 4259 0150 20       		.byte	0x20
 4260 0151 9F       		.byte	0x9f
 4261 0152 E8000000 		.4byte	.LVL34
 4262 0156 F8000000 		.4byte	.LVL37
 4263 015a 0300     		.2byte	0x3
 4264 015c 08       		.byte	0x8
 4265 015d 20       		.byte	0x20
 4266 015e 9F       		.byte	0x9f
 4267 015f 00000000 		.4byte	0
 4268 0163 00000000 		.4byte	0
 4269              	.LLST12:
 4270 0167 8A000000 		.4byte	.LVL23
ARM GAS  /tmp/cc481lMf.s 			page 76


 4271 016b A8000000 		.4byte	.LVL25
 4272 016f 0600     		.2byte	0x6
 4273 0171 03       		.byte	0x3
 4274 0172 30000000 		.4byte	SD2+48
 4275 0176 9F       		.byte	0x9f
 4276 0177 E8000000 		.4byte	.LVL34
 4277 017b F8000000 		.4byte	.LVL37
 4278 017f 0600     		.2byte	0x6
 4279 0181 03       		.byte	0x3
 4280 0182 30000000 		.4byte	SD2+48
 4281 0186 9F       		.byte	0x9f
 4282 0187 00000000 		.4byte	0
 4283 018b 00000000 		.4byte	0
 4284              	.LLST13:
 4285 018f A4000000 		.4byte	.LVL24
 4286 0193 A8000000 		.4byte	.LVL25
 4287 0197 0200     		.2byte	0x2
 4288 0199 30       		.byte	0x30
 4289 019a 9F       		.byte	0x9f
 4290 019b 00000000 		.4byte	0
 4291 019f 00000000 		.4byte	0
 4292              	.LLST14:
 4293 01a3 B0000000 		.4byte	.LVL27
 4294 01a7 CE000000 		.4byte	.LVL31
 4295 01ab 0300     		.2byte	0x3
 4296 01ad 08       		.byte	0x8
 4297 01ae 20       		.byte	0x20
 4298 01af 9F       		.byte	0x9f
 4299 01b0 00000000 		.4byte	0
 4300 01b4 00000000 		.4byte	0
 4301              	.LLST15:
 4302 01b8 B6000000 		.4byte	.LVL28
 4303 01bc CE000000 		.4byte	.LVL31
 4304 01c0 0400     		.2byte	0x4
 4305 01c2 0A       		.byte	0xa
 4306 01c3 0002     		.2byte	0x200
 4307 01c5 9F       		.byte	0x9f
 4308 01c6 00000000 		.4byte	0
 4309 01ca 00000000 		.4byte	0
 4310              	.LLST16:
 4311 01ce B6000000 		.4byte	.LVL28
 4312 01d2 CE000000 		.4byte	.LVL31
 4313 01d6 0600     		.2byte	0x6
 4314 01d8 03       		.byte	0x3
 4315 01d9 04000000 		.4byte	SD2+4
 4316 01dd 9F       		.byte	0x9f
 4317 01de 00000000 		.4byte	0
 4318 01e2 00000000 		.4byte	0
 4319              	.LLST17:
 4320 01e6 C6000000 		.4byte	.LVL30
 4321 01ea CE000000 		.4byte	.LVL31
 4322 01ee 0200     		.2byte	0x2
 4323 01f0 30       		.byte	0x30
 4324 01f1 9F       		.byte	0x9f
 4325 01f2 00000000 		.4byte	0
 4326 01f6 00000000 		.4byte	0
 4327              	.LLST18:
ARM GAS  /tmp/cc481lMf.s 			page 77


 4328 01fa DA000000 		.4byte	.LVL32
 4329 01fe E0000000 		.4byte	.LVL33
 4330 0202 0100     		.2byte	0x1
 4331 0204 50       		.byte	0x50
 4332 0205 F8000000 		.4byte	.LVL37
 4333 0209 FC000000 		.4byte	.LVL38
 4334 020d 0100     		.2byte	0x1
 4335 020f 50       		.byte	0x50
 4336 0210 00000000 		.4byte	0
 4337 0214 00000000 		.4byte	0
 4338              	.LLST19:
 4339 0218 CE000000 		.4byte	.LVL31
 4340 021c E8000000 		.4byte	.LVL34
 4341 0220 0300     		.2byte	0x3
 4342 0222 08       		.byte	0x8
 4343 0223 20       		.byte	0x20
 4344 0224 9F       		.byte	0x9f
 4345 0225 F8000000 		.4byte	.LVL37
 4346 0229 1C010000 		.4byte	.LFE265
 4347 022d 0300     		.2byte	0x3
 4348 022f 08       		.byte	0x8
 4349 0230 20       		.byte	0x20
 4350 0231 9F       		.byte	0x9f
 4351 0232 00000000 		.4byte	0
 4352 0236 00000000 		.4byte	0
 4353              	.LLST20:
 4354 023a E0000000 		.4byte	.LVL33
 4355 023e E8000000 		.4byte	.LVL34
 4356 0242 0200     		.2byte	0x2
 4357 0244 30       		.byte	0x30
 4358 0245 9F       		.byte	0x9f
 4359 0246 00000000 		.4byte	0
 4360 024a 00000000 		.4byte	0
 4361              	.LLST21:
 4362 024e EE000000 		.4byte	.LVL35
 4363 0252 F8000000 		.4byte	.LVL37
 4364 0256 0200     		.2byte	0x2
 4365 0258 40       		.byte	0x40
 4366 0259 9F       		.byte	0x9f
 4367 025a 00000000 		.4byte	0
 4368 025e 00000000 		.4byte	0
 4369              	.LLST22:
 4370 0262 EE000000 		.4byte	.LVL35
 4371 0266 F8000000 		.4byte	.LVL37
 4372 026a 0600     		.2byte	0x6
 4373 026c 03       		.byte	0x3
 4374 026d 04000000 		.4byte	SD2+4
 4375 0271 9F       		.byte	0x9f
 4376 0272 00000000 		.4byte	0
 4377 0276 00000000 		.4byte	0
 4378              	.LLST23:
 4379 027a 00000000 		.4byte	.LVL41
 4380 027e 12000000 		.4byte	.LVL43
 4381 0282 0100     		.2byte	0x1
 4382 0284 50       		.byte	0x50
 4383 0285 12000000 		.4byte	.LVL43
 4384 0289 58000000 		.4byte	.LVL47
ARM GAS  /tmp/cc481lMf.s 			page 78


 4385 028d 0100     		.2byte	0x1
 4386 028f 55       		.byte	0x55
 4387 0290 58000000 		.4byte	.LVL47
 4388 0294 6C000000 		.4byte	.LVL48
 4389 0298 0100     		.2byte	0x1
 4390 029a 50       		.byte	0x50
 4391 029b 6C000000 		.4byte	.LVL48
 4392 029f 98000000 		.4byte	.LFE267
 4393 02a3 0100     		.2byte	0x1
 4394 02a5 55       		.byte	0x55
 4395 02a6 00000000 		.4byte	0
 4396 02aa 00000000 		.4byte	0
 4397              	.LLST24:
 4398 02ae 00000000 		.4byte	.LVL41
 4399 02b2 0C000000 		.4byte	.LVL42
 4400 02b6 0100     		.2byte	0x1
 4401 02b8 51       		.byte	0x51
 4402 02b9 0C000000 		.4byte	.LVL42
 4403 02bd 4A000000 		.4byte	.LVL45
 4404 02c1 0100     		.2byte	0x1
 4405 02c3 54       		.byte	0x54
 4406 02c4 4A000000 		.4byte	.LVL45
 4407 02c8 58000000 		.4byte	.LVL47
 4408 02cc 1300     		.2byte	0x13
 4409 02ce F3       		.byte	0xf3
 4410 02cf 01       		.uleb128 0x1
 4411 02d0 51       		.byte	0x51
 4412 02d1 03       		.byte	0x3
 4413 02d2 00000000 		.4byte	.LANCHOR1
 4414 02d6 F3       		.byte	0xf3
 4415 02d7 01       		.uleb128 0x1
 4416 02d8 51       		.byte	0x51
 4417 02d9 30       		.byte	0x30
 4418 02da 2E       		.byte	0x2e
 4419 02db 28       		.byte	0x28
 4420 02dc 0100     		.2byte	0x1
 4421 02de 16       		.byte	0x16
 4422 02df 13       		.byte	0x13
 4423 02e0 9F       		.byte	0x9f
 4424 02e1 58000000 		.4byte	.LVL47
 4425 02e5 98000000 		.4byte	.LFE267
 4426 02e9 0100     		.2byte	0x1
 4427 02eb 54       		.byte	0x54
 4428 02ec 00000000 		.4byte	0
 4429 02f0 00000000 		.4byte	0
 4430              	.LLST25:
 4431 02f4 14000000 		.4byte	.LVL44
 4432 02f8 58000000 		.4byte	.LVL47
 4433 02fc 0100     		.2byte	0x1
 4434 02fe 55       		.byte	0x55
 4435 02ff 72000000 		.4byte	.LVL50
 4436 0303 98000000 		.4byte	.LFE267
 4437 0307 0100     		.2byte	0x1
 4438 0309 55       		.byte	0x55
 4439 030a 00000000 		.4byte	0
 4440 030e 00000000 		.4byte	0
 4441              	.LLST26:
ARM GAS  /tmp/cc481lMf.s 			page 79


 4442 0312 14000000 		.4byte	.LVL44
 4443 0316 4A000000 		.4byte	.LVL45
 4444 031a 0100     		.2byte	0x1
 4445 031c 54       		.byte	0x54
 4446 031d 4A000000 		.4byte	.LVL45
 4447 0321 58000000 		.4byte	.LVL47
 4448 0325 1300     		.2byte	0x13
 4449 0327 F3       		.byte	0xf3
 4450 0328 01       		.uleb128 0x1
 4451 0329 51       		.byte	0x51
 4452 032a 03       		.byte	0x3
 4453 032b 00000000 		.4byte	.LANCHOR1
 4454 032f F3       		.byte	0xf3
 4455 0330 01       		.uleb128 0x1
 4456 0331 51       		.byte	0x51
 4457 0332 30       		.byte	0x30
 4458 0333 2E       		.byte	0x2e
 4459 0334 28       		.byte	0x28
 4460 0335 0100     		.2byte	0x1
 4461 0337 16       		.byte	0x16
 4462 0338 13       		.byte	0x13
 4463 0339 9F       		.byte	0x9f
 4464 033a 72000000 		.4byte	.LVL50
 4465 033e 98000000 		.4byte	.LFE267
 4466 0342 0100     		.2byte	0x1
 4467 0344 54       		.byte	0x54
 4468 0345 00000000 		.4byte	0
 4469 0349 00000000 		.4byte	0
 4470              	.LLST27:
 4471 034d 14000000 		.4byte	.LVL44
 4472 0351 56000000 		.4byte	.LVL46
 4473 0355 0100     		.2byte	0x1
 4474 0357 53       		.byte	0x53
 4475 0358 56000000 		.4byte	.LVL46
 4476 035c 58000000 		.4byte	.LVL47
 4477 0360 0300     		.2byte	0x3
 4478 0362 75       		.byte	0x75
 4479 0363 F400     		.sleb128 116
 4480 0365 72000000 		.4byte	.LVL50
 4481 0369 98000000 		.4byte	.LFE267
 4482 036d 0100     		.2byte	0x1
 4483 036f 53       		.byte	0x53
 4484 0370 00000000 		.4byte	0
 4485 0374 00000000 		.4byte	0
 4486              	.LLST28:
 4487 0378 00000000 		.4byte	.LVL51
 4488 037c 24000000 		.4byte	.LVL54
 4489 0380 0100     		.2byte	0x1
 4490 0382 50       		.byte	0x50
 4491 0383 24000000 		.4byte	.LVL54
 4492 0387 30000000 		.4byte	.LFE268
 4493 038b 0400     		.2byte	0x4
 4494 038d F3       		.byte	0xf3
 4495 038e 01       		.uleb128 0x1
 4496 038f 50       		.byte	0x50
 4497 0390 9F       		.byte	0x9f
 4498 0391 00000000 		.4byte	0
ARM GAS  /tmp/cc481lMf.s 			page 80


 4499 0395 00000000 		.4byte	0
 4500              	.LLST29:
 4501 0399 0C000000 		.4byte	.LVL52
 4502 039d 1C000000 		.4byte	.LVL53
 4503 03a1 0100     		.2byte	0x1
 4504 03a3 53       		.byte	0x53
 4505 03a4 1C000000 		.4byte	.LVL53
 4506 03a8 24000000 		.4byte	.LVL54
 4507 03ac 0300     		.2byte	0x3
 4508 03ae 70       		.byte	0x70
 4509 03af F400     		.sleb128 116
 4510 03b1 24000000 		.4byte	.LVL54
 4511 03b5 27000000 		.4byte	.LVL55-1
 4512 03b9 0500     		.2byte	0x5
 4513 03bb F3       		.byte	0xf3
 4514 03bc 01       		.uleb128 0x1
 4515 03bd 50       		.byte	0x50
 4516 03be 23       		.byte	0x23
 4517 03bf 74       		.uleb128 0x74
 4518 03c0 00000000 		.4byte	0
 4519 03c4 00000000 		.4byte	0
 4520              		.section	.debug_aranges,"",%progbits
 4521 0000 3C000000 		.4byte	0x3c
 4522 0004 0200     		.2byte	0x2
 4523 0006 00000000 		.4byte	.Ldebug_info0
 4524 000a 04       		.byte	0x4
 4525 000b 00       		.byte	0
 4526 000c 0000     		.2byte	0
 4527 000e 0000     		.2byte	0
 4528 0010 00000000 		.4byte	.LFB264
 4529 0014 10000000 		.4byte	.LFE264-.LFB264
 4530 0018 00000000 		.4byte	.LFB265
 4531 001c 1C010000 		.4byte	.LFE265-.LFB265
 4532 0020 00000000 		.4byte	.LFB266
 4533 0024 20000000 		.4byte	.LFE266-.LFB266
 4534 0028 00000000 		.4byte	.LFB267
 4535 002c 98000000 		.4byte	.LFE267-.LFB267
 4536 0030 00000000 		.4byte	.LFB268
 4537 0034 30000000 		.4byte	.LFE268-.LFB268
 4538 0038 00000000 		.4byte	0
 4539 003c 00000000 		.4byte	0
 4540              		.section	.debug_ranges,"",%progbits
 4541              	.Ldebug_ranges0:
 4542 0000 02000000 		.4byte	.LBB232
 4543 0004 A8000000 		.4byte	.LBE232
 4544 0008 B0000000 		.4byte	.LBB307
 4545 000c 1C010000 		.4byte	.LBE307
 4546 0010 00000000 		.4byte	0
 4547 0014 00000000 		.4byte	0
 4548 0018 1E000000 		.4byte	.LBB240
 4549 001c 28000000 		.4byte	.LBE240
 4550 0020 2E000000 		.4byte	.LBB245
 4551 0024 6C000000 		.4byte	.LBE245
 4552 0028 00000000 		.4byte	0
 4553 002c 00000000 		.4byte	0
 4554 0030 8A000000 		.4byte	.LBB258
 4555 0034 94000000 		.4byte	.LBE258
ARM GAS  /tmp/cc481lMf.s 			page 81


 4556 0038 E8000000 		.4byte	.LBB302
 4557 003c EE000000 		.4byte	.LBE302
 4558 0040 00000000 		.4byte	0
 4559 0044 00000000 		.4byte	0
 4560 0048 A0000000 		.4byte	.LBB261
 4561 004c A2000000 		.4byte	.LBE261
 4562 0050 A4000000 		.4byte	.LBB272
 4563 0054 A8000000 		.4byte	.LBE272
 4564 0058 00000000 		.4byte	0
 4565 005c 00000000 		.4byte	0
 4566 0060 CE000000 		.4byte	.LBB287
 4567 0064 E8000000 		.4byte	.LBE287
 4568 0068 F8000000 		.4byte	.LBB305
 4569 006c 1C010000 		.4byte	.LBE305
 4570 0070 00000000 		.4byte	0
 4571 0074 00000000 		.4byte	0
 4572 0078 14000000 		.4byte	.LBB308
 4573 007c 58000000 		.4byte	.LBE308
 4574 0080 72000000 		.4byte	.LBB311
 4575 0084 98000000 		.4byte	.LBE311
 4576 0088 00000000 		.4byte	0
 4577 008c 00000000 		.4byte	0
 4578 0090 0C000000 		.4byte	.LBB312
 4579 0094 0E000000 		.4byte	.LBE312
 4580 0098 10000000 		.4byte	.LBB315
 4581 009c 16000000 		.4byte	.LBE315
 4582 00a0 00000000 		.4byte	0
 4583 00a4 00000000 		.4byte	0
 4584 00a8 00000000 		.4byte	.LFB264
 4585 00ac 10000000 		.4byte	.LFE264
 4586 00b0 00000000 		.4byte	.LFB265
 4587 00b4 1C010000 		.4byte	.LFE265
 4588 00b8 00000000 		.4byte	.LFB266
 4589 00bc 20000000 		.4byte	.LFE266
 4590 00c0 00000000 		.4byte	.LFB267
 4591 00c4 98000000 		.4byte	.LFE267
 4592 00c8 00000000 		.4byte	.LFB268
 4593 00cc 30000000 		.4byte	.LFE268
 4594 00d0 00000000 		.4byte	0
 4595 00d4 00000000 		.4byte	0
 4596              		.section	.debug_line,"",%progbits
 4597              	.Ldebug_line0:
 4598 0000 DE030000 		.section	.debug_str,"MS",%progbits,1
 4598      02009702 
 4598      00000201 
 4598      FB0E0D00 
 4598      01010101 
 4599              	.LASF4:
 4600 0000 73697A65 		.ascii	"size_t\000"
 4600      5F7400
 4601              	.LASF83:
 4602 0007 73697A65 		.ascii	"sizetype\000"
 4602      74797065 
 4602      00
 4603              	.LASF124:
 4604 0010 77747365 		.ascii	"wtsemp\000"
 4604      6D7000
ARM GAS  /tmp/cc481lMf.s 			page 82


 4605              	.LASF30:
 4606 0017 73797374 		.ascii	"systime_t\000"
 4606      696D655F 
 4606      7400
 4607              	.LASF110:
 4608 0021 504C4C49 		.ascii	"PLLI2SCFGR\000"
 4608      32534346 
 4608      475200
 4609              	.LASF35:
 4610 002c 705F6374 		.ascii	"p_ctx\000"
 4610      7800
 4611              	.LASF25:
 4612 0032 74707269 		.ascii	"tprio_t\000"
 4612      6F5F7400 
 4613              	.LASF43:
 4614 003a 705F6D73 		.ascii	"p_msgqueue\000"
 4614      67717565 
 4614      756500
 4615              	.LASF59:
 4616 0045 725F6374 		.ascii	"r_ctx\000"
 4616      7800
 4617              	.LASF18:
 4618 004b 696E7433 		.ascii	"int32_t\000"
 4618      325F7400 
 4619              	.LASF171:
 4620 0053 53657269 		.ascii	"SerialConfig\000"
 4620      616C436F 
 4620      6E666967 
 4620      00
 4621              	.LASF177:
 4622 0060 77726974 		.ascii	"writet\000"
 4622      657400
 4623              	.LASF63:
 4624 0067 76746675 		.ascii	"vtfunc_t\000"
 4624      6E635F74 
 4624      00
 4625              	.LASF72:
 4626 0070 63685F76 		.ascii	"ch_virtual_timers_list\000"
 4626      69727475 
 4626      616C5F74 
 4626      696D6572 
 4626      735F6C69 
 4627              	.LASF173:
 4628 0087 77726974 		.ascii	"write\000"
 4628      6500
 4629              	.LASF141:
 4630 008d 656C5F66 		.ascii	"el_flags\000"
 4630      6C616773 
 4630      00
 4631              	.LASF188:
 4632 0096 636F6E66 		.ascii	"config\000"
 4632      696700
 4633              	.LASF166:
 4634 009d 73746174 		.ascii	"state\000"
 4634      6500
 4635              	.LASF175:
 4636 00a3 70757474 		.ascii	"putt\000"
ARM GAS  /tmp/cc481lMf.s 			page 83


 4636      00
 4637              	.LASF195:
 4638 00a8 73657276 		.ascii	"serve_interrupt\000"
 4638      655F696E 
 4638      74657272 
 4638      75707400 
 4639              	.LASF192:
 4640 00b8 6F73616C 		.ascii	"osalSysLockFromISR\000"
 4640      5379734C 
 4640      6F636B46 
 4640      726F6D49 
 4640      535200
 4641              	.LASF194:
 4642 00cb 7365745F 		.ascii	"set_error\000"
 4642      6572726F 
 4642      7200
 4643              	.LASF132:
 4644 00d5 6D5F6F77 		.ascii	"m_owner\000"
 4644      6E657200 
 4645              	.LASF70:
 4646 00dd 76745F70 		.ascii	"vt_par\000"
 4646      617200
 4647              	.LASF121:
 4648 00e4 65786974 		.ascii	"exitcode\000"
 4648      636F6465 
 4648      00
 4649              	.LASF5:
 4650 00ed 5F5F7569 		.ascii	"__uint8_t\000"
 4650      6E74385F 
 4650      7400
 4651              	.LASF151:
 4652 00f7 715F746F 		.ascii	"q_top\000"
 4652      7000
 4653              	.LASF101:
 4654 00fd 41484232 		.ascii	"AHB2LPENR\000"
 4654      4C50454E 
 4654      5200
 4655              	.LASF178:
 4656 0107 72656164 		.ascii	"readt\000"
 4656      7400
 4657              	.LASF198:
 4658 010d 73645F6C 		.ascii	"sd_lld_start\000"
 4658      6C645F73 
 4658      74617274 
 4658      00
 4659              	.LASF150:
 4660 011a 715F6275 		.ascii	"q_buffer\000"
 4660      66666572 
 4660      00
 4661              	.LASF154:
 4662 0123 715F6E6F 		.ascii	"q_notify\000"
 4662      74696679 
 4662      00
 4663              	.LASF205:
 4664 012c 73644F62 		.ascii	"sdObjectInit\000"
 4664      6A656374 
 4664      496E6974 
ARM GAS  /tmp/cc481lMf.s 			page 84


 4664      00
 4665              	.LASF36:
 4666 0139 705F6E65 		.ascii	"p_newer\000"
 4666      77657200 
 4667              	.LASF11:
 4668 0141 6C6F6E67 		.ascii	"long int\000"
 4668      20696E74 
 4668      00
 4669              	.LASF32:
 4670 014a 705F6E65 		.ascii	"p_next\000"
 4670      787400
 4671              	.LASF208:
 4672 0151 474E5520 		.ascii	"GNU C11 5.2.0 -mcpu=cortex-m4 -mfloat-abi=hard -mfp"
 4672      43313120 
 4672      352E322E 
 4672      30202D6D 
 4672      6370753D 
 4673 0184 753D6670 		.ascii	"u=fpv4-sp-d16 -mno-thumb-interwork -mthumb -ggdb -O"
 4673      76342D73 
 4673      702D6431 
 4673      36202D6D 
 4673      6E6F2D74 
 4674 01b7 32202D66 		.ascii	"2 -fomit-frame-pointer -falign-functions=16 -ffunct"
 4674      6F6D6974 
 4674      2D667261 
 4674      6D652D70 
 4674      6F696E74 
 4675 01ea 696F6E2D 		.ascii	"ion-sections -fdata-sections -fno-common -fsingle-p"
 4675      73656374 
 4675      696F6E73 
 4675      202D6664 
 4675      6174612D 
 4676 021d 72656369 		.ascii	"recision-constant\000"
 4676      73696F6E 
 4676      2D636F6E 
 4676      7374616E 
 4676      7400
 4677              	.LASF153:
 4678 022f 715F7264 		.ascii	"q_rdptr\000"
 4678      70747200 
 4679              	.LASF33:
 4680 0237 705F7072 		.ascii	"p_prev\000"
 4680      657600
 4681              	.LASF213:
 4682 023e 64656661 		.ascii	"default_config\000"
 4682      756C745F 
 4682      636F6E66 
 4682      696700
 4683              	.LASF183:
 4684 024d 63685379 		.ascii	"chSysLockFromISR\000"
 4684      734C6F63 
 4684      6B46726F 
 4684      6D495352 
 4684      00
 4685              	.LASF23:
 4686 025e 74737461 		.ascii	"tstate_t\000"
 4686      74655F74 
ARM GAS  /tmp/cc481lMf.s 			page 85


 4686      00
 4687              	.LASF53:
 4688 0267 74687265 		.ascii	"threads_queue_t\000"
 4688      6164735F 
 4688      71756575 
 4688      655F7400 
 4689              	.LASF46:
 4690 0277 705F6D74 		.ascii	"p_mtxlist\000"
 4690      786C6973 
 4690      7400
 4691              	.LASF168:
 4692 0281 6F717565 		.ascii	"oqueue\000"
 4692      756500
 4693              	.LASF114:
 4694 0288 72656761 		.ascii	"regarm_t\000"
 4694      726D5F74 
 4694      00
 4695              	.LASF98:
 4696 0291 41504232 		.ascii	"APB2ENR\000"
 4696      454E5200 
 4697              	.LASF147:
 4698 0299 696F5F71 		.ascii	"io_queue\000"
 4698      75657565 
 4698      00
 4699              	.LASF100:
 4700 02a2 41484231 		.ascii	"AHB1LPENR\000"
 4700      4C50454E 
 4700      5200
 4701              	.LASF169:
 4702 02ac 75736172 		.ascii	"usart\000"
 4702      7400
 4703              	.LASF155:
 4704 02b2 715F6C69 		.ascii	"q_link\000"
 4704      6E6B00
 4705              	.LASF3:
 4706 02b9 7369676E 		.ascii	"signed char\000"
 4706      65642063 
 4706      68617200 
 4707              	.LASF126:
 4708 02c5 65776D61 		.ascii	"ewmask\000"
 4708      736B00
 4709              	.LASF16:
 4710 02cc 75696E74 		.ascii	"uint8_t\000"
 4710      385F7400 
 4711              	.LASF209:
 4712 02d4 2E2E2F2E 		.ascii	"../../os/hal/ports/STM32/LLD/USARTv1/serial_lld.c\000"
 4712      2E2F6F73 
 4712      2F68616C 
 4712      2F706F72 
 4712      74732F53 
 4713              	.LASF27:
 4714 0306 6576656E 		.ascii	"eventmask_t\000"
 4714      746D6173 
 4714      6B5F7400 
 4715              	.LASF116:
 4716 0312 636F6E74 		.ascii	"context\000"
 4716      65787400 
ARM GAS  /tmp/cc481lMf.s 			page 86


 4717              	.LASF123:
 4718 031a 77747472 		.ascii	"wttrp\000"
 4718      7000
 4719              	.LASF184:
 4720 0320 63685379 		.ascii	"chSysUnlockFromISR\000"
 4720      73556E6C 
 4720      6F636B46 
 4720      726F6D49 
 4720      535200
 4721              	.LASF89:
 4722 0333 52455345 		.ascii	"RESERVED0\000"
 4722      52564544 
 4722      3000
 4723              	.LASF92:
 4724 033d 52455345 		.ascii	"RESERVED1\000"
 4724      52564544 
 4724      3100
 4725              	.LASF6:
 4726 0347 756E7369 		.ascii	"unsigned char\000"
 4726      676E6564 
 4726      20636861 
 4726      7200
 4727              	.LASF99:
 4728 0355 52455345 		.ascii	"RESERVED3\000"
 4728      52564544 
 4728      3300
 4729              	.LASF103:
 4730 035f 52455345 		.ascii	"RESERVED4\000"
 4730      52564544 
 4730      3400
 4731              	.LASF106:
 4732 0369 52455345 		.ascii	"RESERVED5\000"
 4732      52564544 
 4732      3500
 4733              	.LASF108:
 4734 0373 52455345 		.ascii	"RESERVED6\000"
 4734      52564544 
 4734      3600
 4735              	.LASF76:
 4736 037d 70616E69 		.ascii	"panic_msg\000"
 4736      635F6D73 
 4736      6700
 4737              	.LASF60:
 4738 0387 725F6E65 		.ascii	"r_newer\000"
 4738      77657200 
 4739              	.LASF74:
 4740 038f 73797374 		.ascii	"system_debug_t\000"
 4740      656D5F64 
 4740      65627567 
 4740      5F7400
 4741              	.LASF160:
 4742 039e 53445F55 		.ascii	"SD_UNINIT\000"
 4742      4E494E49 
 4742      5400
 4743              	.LASF159:
 4744 03a8 5F426F6F 		.ascii	"_Bool\000"
 4744      6C00
ARM GAS  /tmp/cc481lMf.s 			page 87


 4745              	.LASF96:
 4746 03ae 52455345 		.ascii	"RESERVED2\000"
 4746      52564544 
 4746      3200
 4747              	.LASF190:
 4748 03b8 666C6167 		.ascii	"flags\000"
 4748      7300
 4749              	.LASF134:
 4750 03be 63686172 		.ascii	"char\000"
 4750      00
 4751              	.LASF86:
 4752 03c3 41484231 		.ascii	"AHB1RSTR\000"
 4752      52535452 
 4752      00
 4753              	.LASF34:
 4754 03cc 705F7072 		.ascii	"p_prio\000"
 4754      696F00
 4755              	.LASF8:
 4756 03d3 5F5F7569 		.ascii	"__uint16_t\000"
 4756      6E743136 
 4756      5F7400
 4757              	.LASF94:
 4758 03de 41484232 		.ascii	"AHB2ENR\000"
 4758      454E5200 
 4759              	.LASF122:
 4760 03e6 77746F62 		.ascii	"wtobjp\000"
 4760      6A7000
 4761              	.LASF176:
 4762 03ed 67657474 		.ascii	"gett\000"
 4762      00
 4763              	.LASF115:
 4764 03f2 73746B61 		.ascii	"stkalign_t\000"
 4764      6C69676E 
 4764      5F7400
 4765              	.LASF113:
 4766 03fd 55534152 		.ascii	"USART_TypeDef\000"
 4766      545F5479 
 4766      70654465 
 4766      6600
 4767              	.LASF136:
 4768 040b 6576656E 		.ascii	"event_listener_t\000"
 4768      745F6C69 
 4768      7374656E 
 4768      65725F74 
 4768      00
 4769              	.LASF107:
 4770 041c 42444352 		.ascii	"BDCR\000"
 4770      00
 4771              	.LASF29:
 4772 0421 636E745F 		.ascii	"cnt_t\000"
 4772      7400
 4773              	.LASF69:
 4774 0427 76745F66 		.ascii	"vt_func\000"
 4774      756E6300 
 4775              	.LASF210:
 4776 042f 2F686F6D 		.ascii	"/home/sssilvar/Documents/embebidos/ChibiOS/iflab/pr"
 4776      652F7373 
ARM GAS  /tmp/cc481lMf.s 			page 88


 4776      73696C76 
 4776      61722F44 
 4776      6F63756D 
 4777 0462 6F6A6563 		.ascii	"ojects/ADC_LCD\000"
 4777      74732F41 
 4777      44435F4C 
 4777      434400
 4778              	.LASF170:
 4779 0471 73706565 		.ascii	"speed\000"
 4779      6400
 4780              	.LASF45:
 4781 0477 705F6570 		.ascii	"p_epending\000"
 4781      656E6469 
 4781      6E6700
 4782              	.LASF125:
 4783 0482 77746D74 		.ascii	"wtmtxp\000"
 4783      787000
 4784              	.LASF56:
 4785 0489 63685F72 		.ascii	"ch_ready_list\000"
 4785      65616479 
 4785      5F6C6973 
 4785      7400
 4786              	.LASF85:
 4787 0497 43464752 		.ascii	"CFGR\000"
 4787      00
 4788              	.LASF191:
 4789 049c 6F73616C 		.ascii	"osalSysUnlockFromISR\000"
 4789      53797355 
 4789      6E6C6F63 
 4789      6B46726F 
 4789      6D495352 
 4790              	.LASF144:
 4791 04b1 65735F6E 		.ascii	"es_next\000"
 4791      65787400 
 4792              	.LASF149:
 4793 04b9 715F636F 		.ascii	"q_counter\000"
 4793      756E7465 
 4793      7200
 4794              	.LASF14:
 4795 04c3 5F5F7569 		.ascii	"__uint64_t\000"
 4795      6E743634 
 4795      5F7400
 4796              	.LASF13:
 4797 04ce 6C6F6E67 		.ascii	"long unsigned int\000"
 4797      20756E73 
 4797      69676E65 
 4797      6420696E 
 4797      7400
 4798              	.LASF127:
 4799 04e0 63685F73 		.ascii	"ch_semaphore\000"
 4799      656D6170 
 4799      686F7265 
 4799      00
 4800              	.LASF51:
 4801 04ed 63685F74 		.ascii	"ch_thread\000"
 4801      68726561 
 4801      6400
ARM GAS  /tmp/cc481lMf.s 			page 89


 4802              	.LASF71:
 4803 04f7 76697274 		.ascii	"virtual_timers_list_t\000"
 4803      75616C5F 
 4803      74696D65 
 4803      72735F6C 
 4803      6973745F 
 4804              	.LASF138:
 4805 050d 656C5F6E 		.ascii	"el_next\000"
 4805      65787400 
 4806              	.LASF64:
 4807 0515 76697274 		.ascii	"virtual_timer_t\000"
 4807      75616C5F 
 4807      74696D65 
 4807      725F7400 
 4808              	.LASF55:
 4809 0525 72656164 		.ascii	"ready_list_t\000"
 4809      795F6C69 
 4809      73745F74 
 4809      00
 4810              	.LASF152:
 4811 0532 715F7772 		.ascii	"q_wrptr\000"
 4811      70747200 
 4812              	.LASF172:
 4813 053a 53657269 		.ascii	"SerialDriverVMT\000"
 4813      616C4472 
 4813      69766572 
 4813      564D5400 
 4814              	.LASF193:
 4815 054a 75736172 		.ascii	"usart_deinit\000"
 4815      745F6465 
 4815      696E6974 
 4815      00
 4816              	.LASF52:
 4817 0557 63685F74 		.ascii	"ch_threads_list\000"
 4817      68726561 
 4817      64735F6C 
 4817      69737400 
 4818              	.LASF197:
 4819 0567 73645F6C 		.ascii	"sd_lld_init\000"
 4819      6C645F69 
 4819      6E697400 
 4820              	.LASF84:
 4821 0573 504C4C43 		.ascii	"PLLCFGR\000"
 4821      46475200 
 4822              	.LASF12:
 4823 057b 5F5F7569 		.ascii	"__uint32_t\000"
 4823      6E743332 
 4823      5F7400
 4824              	.LASF202:
 4825 0586 7364496E 		.ascii	"sdIncomingDataI\000"
 4825      636F6D69 
 4825      6E674461 
 4825      74614900 
 4826              	.LASF1:
 4827 0596 6C6F6E67 		.ascii	"long long int\000"
 4827      206C6F6E 
 4827      6720696E 
ARM GAS  /tmp/cc481lMf.s 			page 90


 4827      7400
 4828              	.LASF131:
 4829 05a4 6D5F7175 		.ascii	"m_queue\000"
 4829      65756500 
 4830              	.LASF181:
 4831 05ac 706F7274 		.ascii	"port_lock_from_isr\000"
 4831      5F6C6F63 
 4831      6B5F6672 
 4831      6F6D5F69 
 4831      737200
 4832              	.LASF109:
 4833 05bf 53534347 		.ascii	"SSCGR\000"
 4833      5200
 4834              	.LASF66:
 4835 05c5 76745F6E 		.ascii	"vt_next\000"
 4835      65787400 
 4836              	.LASF67:
 4837 05cd 76745F70 		.ascii	"vt_prev\000"
 4837      72657600 
 4838              	.LASF112:
 4839 05d5 47545052 		.ascii	"GTPR\000"
 4839      00
 4840              	.LASF91:
 4841 05da 41504232 		.ascii	"APB2RSTR\000"
 4841      52535452 
 4841      00
 4842              	.LASF145:
 4843 05e3 6576656E 		.ascii	"event_source_t\000"
 4843      745F736F 
 4843      75726365 
 4843      5F7400
 4844              	.LASF211:
 4845 05f2 63684F51 		.ascii	"chOQIsEmptyI\000"
 4845      4973456D 
 4845      70747949 
 4845      00
 4846              	.LASF200:
 4847 05ff 49544D5F 		.ascii	"ITM_RxBuffer\000"
 4847      52784275 
 4847      66666572 
 4847      00
 4848              	.LASF180:
 4849 060c 706F7274 		.ascii	"port_unlock\000"
 4849      5F756E6C 
 4849      6F636B00 
 4850              	.LASF105:
 4851 0618 41504232 		.ascii	"APB2LPENR\000"
 4851      4C50454E 
 4851      5200
 4852              	.LASF156:
 4853 0622 716E6F74 		.ascii	"qnotify_t\000"
 4853      6966795F 
 4853      7400
 4854              	.LASF42:
 4855 062c 705F7761 		.ascii	"p_waiting\000"
 4855      6974696E 
 4855      6700
ARM GAS  /tmp/cc481lMf.s 			page 91


 4856              	.LASF165:
 4857 0636 6576656E 		.ascii	"event\000"
 4857      7400
 4858              	.LASF40:
 4859 063c 705F666C 		.ascii	"p_flags\000"
 4859      61677300 
 4860              	.LASF174:
 4861 0644 72656164 		.ascii	"read\000"
 4861      00
 4862              	.LASF82:
 4863 0649 69646C65 		.ascii	"idle_thread_wa\000"
 4863      5F746872 
 4863      6561645F 
 4863      776100
 4864              	.LASF0:
 4865 0658 756E7369 		.ascii	"unsigned int\000"
 4865      676E6564 
 4865      20696E74 
 4865      00
 4866              	.LASF21:
 4867 0665 7274636E 		.ascii	"rtcnt_t\000"
 4867      745F7400 
 4868              	.LASF48:
 4869 066d 705F6D70 		.ascii	"p_mpool\000"
 4869      6F6F6C00 
 4870              	.LASF41:
 4871 0675 705F7265 		.ascii	"p_refs\000"
 4871      667300
 4872              	.LASF203:
 4873 067c 63684F51 		.ascii	"chOQGetI\000"
 4873      47657449 
 4873      00
 4874              	.LASF142:
 4875 0685 656C5F77 		.ascii	"el_wflags\000"
 4875      666C6167 
 4875      7300
 4876              	.LASF140:
 4877 068f 656C5F65 		.ascii	"el_events\000"
 4877      76656E74 
 4877      7300
 4878              	.LASF204:
 4879 0699 5F706F72 		.ascii	"_port_irq_epilogue\000"
 4879      745F6972 
 4879      715F6570 
 4879      696C6F67 
 4879      756500
 4880              	.LASF118:
 4881 06ac 6F666673 		.ascii	"offset\000"
 4881      657400
 4882              	.LASF104:
 4883 06b3 41504231 		.ascii	"APB1LPENR\000"
 4883      4C50454E 
 4883      5200
 4884              	.LASF201:
 4885 06bd 63684576 		.ascii	"chEvtBroadcastFlagsI\000"
 4885      7442726F 
 4885      61646361 
ARM GAS  /tmp/cc481lMf.s 			page 92


 4885      7374466C 
 4885      61677349 
 4886              	.LASF88:
 4887 06d2 41484233 		.ascii	"AHB3RSTR\000"
 4887      52535452 
 4887      00
 4888              	.LASF31:
 4889 06db 74687265 		.ascii	"thread_t\000"
 4889      61645F74 
 4889      00
 4890              	.LASF2:
 4891 06e4 6C6F6E67 		.ascii	"long double\000"
 4891      20646F75 
 4891      626C6500 
 4892              	.LASF207:
 4893 06f0 6E766963 		.ascii	"nvicDisableVector\000"
 4893      44697361 
 4893      626C6556 
 4893      6563746F 
 4893      7200
 4894              	.LASF49:
 4895 0702 74687265 		.ascii	"thread_reference_t\000"
 4895      61645F72 
 4895      65666572 
 4895      656E6365 
 4895      5F7400
 4896              	.LASF47:
 4897 0715 705F7265 		.ascii	"p_realprio\000"
 4897      616C7072 
 4897      696F00
 4898              	.LASF117:
 4899 0720 706F7274 		.ascii	"port_intctx\000"
 4899      5F696E74 
 4899      63747800 
 4900              	.LASF182:
 4901 072c 706F7274 		.ascii	"port_unlock_from_isr\000"
 4901      5F756E6C 
 4901      6F636B5F 
 4901      66726F6D 
 4901      5F697372 
 4902              	.LASF68:
 4903 0741 76745F64 		.ascii	"vt_delta\000"
 4903      656C7461 
 4903      00
 4904              	.LASF90:
 4905 074a 41504231 		.ascii	"APB1RSTR\000"
 4905      52535452 
 4905      00
 4906              	.LASF186:
 4907 0753 75736172 		.ascii	"usart_init\000"
 4907      745F696E 
 4907      697400
 4908              	.LASF65:
 4909 075e 63685F76 		.ascii	"ch_virtual_timer\000"
 4909      69727475 
 4909      616C5F74 
 4909      696D6572 
ARM GAS  /tmp/cc481lMf.s 			page 93


 4909      00
 4910              	.LASF97:
 4911 076f 41504231 		.ascii	"APB1ENR\000"
 4911      454E5200 
 4912              	.LASF129:
 4913 0777 735F636E 		.ascii	"s_cnt\000"
 4913      7400
 4914              	.LASF15:
 4915 077d 6C6F6E67 		.ascii	"long long unsigned int\000"
 4915      206C6F6E 
 4915      6720756E 
 4915      7369676E 
 4915      65642069 
 4916              	.LASF37:
 4917 0794 705F6F6C 		.ascii	"p_older\000"
 4917      64657200 
 4918              	.LASF17:
 4919 079c 75696E74 		.ascii	"uint16_t\000"
 4919      31365F74 
 4919      00
 4920              	.LASF26:
 4921 07a5 6D73675F 		.ascii	"msg_t\000"
 4921      7400
 4922              	.LASF54:
 4923 07ab 63685F74 		.ascii	"ch_threads_queue\000"
 4923      68726561 
 4923      64735F71 
 4923      75657565 
 4923      00
 4924              	.LASF28:
 4925 07bc 6576656E 		.ascii	"eventflags_t\000"
 4925      74666C61 
 4925      67735F74 
 4925      00
 4926              	.LASF187:
 4927 07c9 76616C75 		.ascii	"value\000"
 4927      6500
 4928              	.LASF62:
 4929 07cf 725F6375 		.ascii	"r_current\000"
 4929      7272656E 
 4929      7400
 4930              	.LASF81:
 4931 07d9 6D61696E 		.ascii	"mainthread\000"
 4931      74687265 
 4931      616400
 4932              	.LASF102:
 4933 07e4 41484233 		.ascii	"AHB3LPENR\000"
 4933      4C50454E 
 4933      5200
 4934              	.LASF185:
 4935 07ee 5F5F7365 		.ascii	"__set_BASEPRI\000"
 4935      745F4241 
 4935      53455052 
 4935      4900
 4936              	.LASF57:
 4937 07fc 725F7175 		.ascii	"r_queue\000"
 4937      65756500 
ARM GAS  /tmp/cc481lMf.s 			page 94


 4938              	.LASF164:
 4939 0804 53657269 		.ascii	"SerialDriver\000"
 4939      616C4472 
 4939      69766572 
 4939      00
 4940              	.LASF148:
 4941 0811 715F7761 		.ascii	"q_waiting\000"
 4941      6974696E 
 4941      6700
 4942              	.LASF79:
 4943 081b 726C6973 		.ascii	"rlist\000"
 4943      7400
 4944              	.LASF22:
 4945 0821 746D6F64 		.ascii	"tmode_t\000"
 4945      655F7400 
 4946              	.LASF163:
 4947 0829 73647374 		.ascii	"sdstate_t\000"
 4947      6174655F 
 4947      7400
 4948              	.LASF93:
 4949 0833 41484231 		.ascii	"AHB1ENR\000"
 4949      454E5200 
 4950              	.LASF162:
 4951 083b 53445F52 		.ascii	"SD_READY\000"
 4951      45414459 
 4951      00
 4952              	.LASF95:
 4953 0844 41484233 		.ascii	"AHB3ENR\000"
 4953      454E5200 
 4954              	.LASF61:
 4955 084c 725F6F6C 		.ascii	"r_older\000"
 4955      64657200 
 4956              	.LASF119:
 4957 0854 746D5F63 		.ascii	"tm_calibration_t\000"
 4957      616C6962 
 4957      72617469 
 4957      6F6E5F74 
 4957      00
 4958              	.LASF87:
 4959 0865 41484232 		.ascii	"AHB2RSTR\000"
 4959      52535452 
 4959      00
 4960              	.LASF179:
 4961 086e 706F7274 		.ascii	"port_lock\000"
 4961      5F6C6F63 
 4961      6B00
 4962              	.LASF128:
 4963 0878 735F7175 		.ascii	"s_queue\000"
 4963      65756500 
 4964              	.LASF212:
 4965 0880 6E6F7469 		.ascii	"notify2\000"
 4965      66793200 
 4966              	.LASF111:
 4967 0888 5243435F 		.ascii	"RCC_TypeDef\000"
 4967      54797065 
 4967      44656600 
 4968              	.LASF7:
ARM GAS  /tmp/cc481lMf.s 			page 95


 4969 0894 73686F72 		.ascii	"short int\000"
 4969      7420696E 
 4969      7400
 4970              	.LASF143:
 4971 089e 6576656E 		.ascii	"event_source\000"
 4971      745F736F 
 4971      75726365 
 4971      00
 4972              	.LASF20:
 4973 08ab 75696E74 		.ascii	"uint64_t\000"
 4973      36345F74 
 4973      00
 4974              	.LASF130:
 4975 08b4 63685F6D 		.ascii	"ch_mutex\000"
 4975      75746578 
 4975      00
 4976              	.LASF167:
 4977 08bd 69717565 		.ascii	"iqueue\000"
 4977      756500
 4978              	.LASF58:
 4979 08c4 725F7072 		.ascii	"r_prio\000"
 4979      696F00
 4980              	.LASF75:
 4981 08cb 63685F73 		.ascii	"ch_system_debug\000"
 4981      79737465 
 4981      6D5F6465 
 4981      62756700 
 4982              	.LASF146:
 4983 08db 696F5F71 		.ascii	"io_queue_t\000"
 4983      75657565 
 4983      5F7400
 4984              	.LASF80:
 4985 08e6 76746C69 		.ascii	"vtlist\000"
 4985      737400
 4986              	.LASF135:
 4987 08ed 6D757465 		.ascii	"mutex_t\000"
 4987      785F7400 
 4988              	.LASF24:
 4989 08f5 74726566 		.ascii	"trefs_t\000"
 4989      735F7400 
 4990              	.LASF50:
 4991 08fd 74687265 		.ascii	"threads_list_t\000"
 4991      6164735F 
 4991      6C697374 
 4991      5F7400
 4992              	.LASF78:
 4993 090c 63685F73 		.ascii	"ch_system\000"
 4993      79737465 
 4993      6D00
 4994              	.LASF206:
 4995 0916 6E766963 		.ascii	"nvicEnableVector\000"
 4995      456E6162 
 4995      6C655665 
 4995      63746F72 
 4995      00
 4996              	.LASF19:
 4997 0927 75696E74 		.ascii	"uint32_t\000"
ARM GAS  /tmp/cc481lMf.s 			page 96


 4997      33325F74 
 4997      00
 4998              	.LASF157:
 4999 0930 696E7075 		.ascii	"input_queue_t\000"
 4999      745F7175 
 4999      6575655F 
 4999      7400
 5000              	.LASF189:
 5001 093e 6F73616C 		.ascii	"osalEventBroadcastFlagsI\000"
 5001      4576656E 
 5001      7442726F 
 5001      61646361 
 5001      7374466C 
 5002              	.LASF137:
 5003 0957 6576656E 		.ascii	"event_listener\000"
 5003      745F6C69 
 5003      7374656E 
 5003      657200
 5004              	.LASF120:
 5005 0966 7264796D 		.ascii	"rdymsg\000"
 5005      736700
 5006              	.LASF73:
 5007 096d 76745F6C 		.ascii	"vt_lasttime\000"
 5007      61737474 
 5007      696D6500 
 5008              	.LASF9:
 5009 0979 73686F72 		.ascii	"short unsigned int\000"
 5009      7420756E 
 5009      7369676E 
 5009      65642069 
 5009      6E7400
 5010              	.LASF199:
 5011 098c 73645F6C 		.ascii	"sd_lld_stop\000"
 5011      6C645F73 
 5011      746F7000 
 5012              	.LASF77:
 5013 0998 63685F73 		.ascii	"ch_system_t\000"
 5013      79737465 
 5013      6D5F7400 
 5014              	.LASF158:
 5015 09a4 6F757470 		.ascii	"output_queue_t\000"
 5015      75745F71 
 5015      75657565 
 5015      5F7400
 5016              	.LASF10:
 5017 09b3 5F5F696E 		.ascii	"__int32_t\000"
 5017      7433325F 
 5017      7400
 5018              	.LASF161:
 5019 09bd 53445F53 		.ascii	"SD_STOP\000"
 5019      544F5000 
 5020              	.LASF196:
 5021 09c5 56656374 		.ascii	"VectorD8\000"
 5021      6F724438 
 5021      00
 5022              	.LASF38:
 5023 09ce 705F6E61 		.ascii	"p_name\000"
ARM GAS  /tmp/cc481lMf.s 			page 97


 5023      6D6500
 5024              	.LASF133:
 5025 09d5 6D5F6E65 		.ascii	"m_next\000"
 5025      787400
 5026              	.LASF44:
 5027 09dc 705F6D73 		.ascii	"p_msg\000"
 5027      6700
 5028              	.LASF139:
 5029 09e2 656C5F6C 		.ascii	"el_listener\000"
 5029      69737465 
 5029      6E657200 
 5030              	.LASF39:
 5031 09ee 705F7374 		.ascii	"p_state\000"
 5031      61746500 
 5032              		.ident	"GCC: (Fedora 5.2.0-2.fc22) 5.2.0"
ARM GAS  /tmp/cc481lMf.s 			page 98


DEFINED SYMBOLS
                            *ABS*:0000000000000000 serial_lld.c
     /tmp/cc481lMf.s:22     .text.notify2:0000000000000000 $t
     /tmp/cc481lMf.s:27     .text.notify2:0000000000000000 notify2
     /tmp/cc481lMf.s:45     .text.notify2:000000000000000c $d
     /tmp/cc481lMf.s:50     .text.VectorD8:0000000000000000 $t
     /tmp/cc481lMf.s:56     .text.VectorD8:0000000000000000 VectorD8
     /tmp/cc481lMf.s:484    .text.VectorD8:0000000000000110 $d
     /tmp/cc481lMf.s:494    .text.sd_lld_init:0000000000000000 $t
     /tmp/cc481lMf.s:500    .text.sd_lld_init:0000000000000000 sd_lld_init
     /tmp/cc481lMf.s:524    .text.sd_lld_init:0000000000000014 $d
     /tmp/cc481lMf.s:531    .text.sd_lld_start:0000000000000000 $t
     /tmp/cc481lMf.s:537    .text.sd_lld_start:0000000000000000 sd_lld_start
     /tmp/cc481lMf.s:654    .text.sd_lld_start:0000000000000080 $d
     /tmp/cc481lMf.s:666    .text.sd_lld_stop:0000000000000000 $t
     /tmp/cc481lMf.s:672    .text.sd_lld_stop:0000000000000000 sd_lld_stop
     /tmp/cc481lMf.s:726    .text.sd_lld_stop:0000000000000028 $d
     /tmp/cc481lMf.s:748    .bss.SD2:0000000000000000 SD2
     /tmp/cc481lMf.s:733    .rodata.default_config:0000000000000000 $d
     /tmp/cc481lMf.s:737    .rodata.default_config:0000000000000000 default_config
     /tmp/cc481lMf.s:744    .bss.SD2:0000000000000000 $d
                     .debug_frame:0000000000000010 $d
     /tmp/cc481lMf.s:493    .text.VectorD8:000000000000011c $t
     /tmp/cc481lMf.s:665    .text.sd_lld_start:0000000000000098 $t

UNDEFINED SYMBOLS
chEvtBroadcastFlagsI
sdIncomingDataI
_port_irq_epilogue
chOQGetI
sdObjectInit
nvicEnableVector
nvicDisableVector
