ARM GAS  /tmp/cc481lMf.s 			page 1


   1              		.syntax unified
   2              		.cpu cortex-m4
   3              		.eabi_attribute 27, 1
   4              		.eabi_attribute 28, 1
   5              		.fpu fpv4-sp-d16
   6              		.eabi_attribute 20, 1
   7              		.eabi_attribute 21, 1
   8              		.eabi_attribute 23, 3
   9              		.eabi_attribute 24, 1
  10              		.eabi_attribute 25, 1
  11              		.eabi_attribute 26, 1
  12              		.eabi_attribute 30, 2
  13              		.eabi_attribute 34, 1
  14              		.eabi_attribute 18, 4
  15              		.thumb
  16              		.syntax unified
  17              		.file	"serial_lld.c"
  18              		.text
  19              	.Ltext0:
  20              		.cfi_sections	.debug_frame
  21              		.section	.text.notify2,"ax",%progbits
  22              		.align	2
  23              		.p2align 4,,15
  24              		.thumb
  25              		.thumb_func
  26              		.type	notify2, %function
  27              	notify2:
  28              	.LFB264:
  29              		.file 1 "../../os/hal/ports/STM32/LLD/USARTv1/serial_lld.c"
  30              		.loc 1 216 0
  31              		.cfi_startproc
  32              		@ args = 0, pretend = 0, frame = 0
  33              		@ frame_needed = 0, uses_anonymous_args = 0
  34              		@ link register save eliminated.
  35              	.LVL0:
  36              		.loc 1 219 0
  37 0000 024A     		ldr	r2, .L2
  38 0002 D368     		ldr	r3, [r2, #12]
  39 0004 43F08003 		orr	r3, r3, #128
  40 0008 D360     		str	r3, [r2, #12]
  41 000a 7047     		bx	lr
  42              	.L3:
  43              		.align	2
  44              	.L2:
  45 000c 00440040 		.word	1073759232
  46              		.cfi_endproc
  47              	.LFE264:
  48              		.size	notify2, .-notify2
  49              		.section	.text.VectorD8,"ax",%progbits
  50              		.align	2
  51              		.p2align 4,,15
  52              		.global	VectorD8
  53              		.thumb
  54              		.thumb_func
  55              		.type	VectorD8, %function
  56              	VectorD8:
  57              	.LFB265:
ARM GAS  /tmp/cc481lMf.s 			page 2


  58              		.loc 1 287 0
  59              		.cfi_startproc
  60              		@ args = 0, pretend = 0, frame = 0
  61              		@ frame_needed = 0, uses_anonymous_args = 0
  62              	.LVL1:
  63 0000 F8B5     		push	{r3, r4, r5, r6, r7, lr}
  64              		.cfi_def_cfa_offset 24
  65              		.cfi_offset 3, -24
  66              		.cfi_offset 4, -20
  67              		.cfi_offset 5, -16
  68              		.cfi_offset 6, -12
  69              		.cfi_offset 7, -8
  70              		.cfi_offset 14, -4
  71              	.LBB232:
  72              	.LBB233:
  73              		.loc 1 154 0
  74 0002 434E     		ldr	r6, .L59
  75 0004 756F     		ldr	r5, [r6, #116]
  76              	.LVL2:
  77              		.loc 1 155 0
  78 0006 EF68     		ldr	r7, [r5, #12]
  79              	.LVL3:
  80              		.loc 1 156 0
  81 0008 2B68     		ldr	r3, [r5]
  82              		.loc 1 159 0
  83 000a DA05     		lsls	r2, r3, #23
  84              		.loc 1 156 0
  85 000c 9CB2     		uxth	r4, r3
  86              	.LVL4:
  87              		.loc 1 159 0
  88 000e 4FD4     		bmi	.L54
  89              	.L5:
  90              	.LVL5:
  91              	.LBB234:
  92              	.LBB235:
  93              	.LBB236:
  94              	.LBB237:
  95              	.LBB238:
  96              	.LBB239:
  97              		.file 2 "../../os/ext/CMSIS/include/core_cmFunc.h"
  98              		.loc 2 546 0
  99 0010 2023     		movs	r3, #32
 100              		.syntax unified
 101              	@ 546 "../../os/ext/CMSIS/include/core_cmFunc.h" 1
 102 0012 83F31188 		MSR basepri, r3
 103              	@ 0 "" 2
 104              		.thumb
 105              		.syntax unified
 106              	.LBE239:
 107              	.LBE238:
 108              	.LBE237:
 109              	.LBE236:
 110              	.LBE235:
 111              	.LBE234:
 112              		.loc 1 168 0
 113 0016 14F02F0F 		tst	r4, #47
 114 001a 08D1     		bne	.L13
ARM GAS  /tmp/cc481lMf.s 			page 3


 115 001c 29E0     		b	.L6
 116              	.L7:
 117              	.LBB240:
 118              		.loc 1 176 0
 119 001e A006     		lsls	r0, r4, #26
 120              		.loc 1 175 0
 121 0020 6968     		ldr	r1, [r5, #4]
 122              	.LVL6:
 123              		.loc 1 176 0
 124 0022 1DD4     		bmi	.L55
 125              	.L12:
 126              		.loc 1 178 0
 127 0024 2C68     		ldr	r4, [r5]
 128              	.LVL7:
 129 0026 A4B2     		uxth	r4, r4
 130              	.LVL8:
 131              	.LBE240:
 132              		.loc 1 168 0
 133 0028 14F02F0F 		tst	r4, #47
 134 002c 21D0     		beq	.L6
 135              	.LVL9:
 136              	.L13:
 137              	.LBB245:
 138              		.loc 1 173 0
 139 002e 2307     		lsls	r3, r4, #28
 140 0030 F5D0     		beq	.L7
 141              	.LVL10:
 142              	.LBB241:
 143              	.LBB242:
 144              		.loc 1 138 0
 145 0032 14F0080F 		tst	r4, #8
 146 0036 0CBF     		ite	eq
 147 0038 0021     		moveq	r1, #0
 148 003a 8021     		movne	r1, #128
 149              	.LVL11:
 150              		.loc 1 139 0
 151 003c E007     		lsls	r0, r4, #31
 152              		.loc 1 140 0
 153 003e 48BF     		it	mi
 154 0040 41F02001 		orrmi	r1, r1, #32
 155              	.LVL12:
 156              		.loc 1 141 0
 157 0044 A207     		lsls	r2, r4, #30
 158              		.loc 1 142 0
 159 0046 48BF     		it	mi
 160 0048 41F04001 		orrmi	r1, r1, #64
 161              	.LVL13:
 162              		.loc 1 143 0
 163 004c 6307     		lsls	r3, r4, #29
 164              		.loc 1 144 0
 165 004e 48BF     		it	mi
 166 0050 41F48071 		orrmi	r1, r1, #256
 167              	.LVL14:
 168              	.LBB243:
 169              	.LBB244:
 170              		.file 3 "../../os/hal/osal/rt/osal.h"
 171              		.loc 3 798 0
ARM GAS  /tmp/cc481lMf.s 			page 4


 172 0054 2F48     		ldr	r0, .L59+4
 173 0056 FFF7FEFF 		bl	chEvtBroadcastFlagsI
 174              	.LVL15:
 175              	.LBE244:
 176              	.LBE243:
 177              	.LBE242:
 178              	.LBE241:
 179              		.loc 1 176 0
 180 005a A006     		lsls	r0, r4, #26
 181              		.loc 1 175 0
 182 005c 6968     		ldr	r1, [r5, #4]
 183              	.LVL16:
 184              		.loc 1 176 0
 185 005e E1D5     		bpl	.L12
 186              	.LVL17:
 187              	.L55:
 188              		.loc 1 177 0
 189 0060 C9B2     		uxtb	r1, r1
 190 0062 2B48     		ldr	r0, .L59
 191 0064 FFF7FEFF 		bl	sdIncomingDataI
 192              	.LVL18:
 193              		.loc 1 178 0
 194 0068 2C68     		ldr	r4, [r5]
 195              	.LVL19:
 196 006a A4B2     		uxth	r4, r4
 197              	.LVL20:
 198              	.LBE245:
 199              		.loc 1 168 0
 200 006c 14F02F0F 		tst	r4, #47
 201 0070 DDD1     		bne	.L13
 202              	.L6:
 203              	.LVL21:
 204              	.LBB246:
 205              	.LBB247:
 206              	.LBB248:
 207              	.LBB249:
 208              	.LBB250:
 209              	.LBB251:
 210              		.loc 2 546 0
 211 0072 0023     		movs	r3, #0
 212              		.syntax unified
 213              	@ 546 "../../os/ext/CMSIS/include/core_cmFunc.h" 1
 214 0074 83F31188 		MSR basepri, r3
 215              	@ 0 "" 2
 216              		.thumb
 217              		.syntax unified
 218              	.LBE251:
 219              	.LBE250:
 220              	.LBE249:
 221              	.LBE248:
 222              	.LBE247:
 223              	.LBE246:
 224              		.loc 1 183 0
 225 0078 3906     		lsls	r1, r7, #24
 226 007a 01D5     		bpl	.L14
 227 007c 2206     		lsls	r2, r4, #24
 228 007e 26D4     		bmi	.L56
ARM GAS  /tmp/cc481lMf.s 			page 5


 229              	.L14:
 230              		.loc 1 197 0
 231 0080 6306     		lsls	r3, r4, #25
 232 0082 11D5     		bpl	.L17
 233              	.LVL22:
 234              	.LBB252:
 235              	.LBB253:
 236              	.LBB254:
 237              	.LBB255:
 238              	.LBB256:
 239              	.LBB257:
 240              		.loc 2 546 0
 241 0084 2023     		movs	r3, #32
 242              		.syntax unified
 243              	@ 546 "../../os/ext/CMSIS/include/core_cmFunc.h" 1
 244 0086 83F31188 		MSR basepri, r3
 245              	@ 0 "" 2
 246              	.LVL23:
 247              		.thumb
 248              		.syntax unified
 249              	.LBE257:
 250              	.LBE256:
 251              	.LBE255:
 252              	.LBE254:
 253              	.LBE253:
 254              	.LBE252:
 255              	.LBB258:
 256              	.LBB259:
 257              		.file 4 "../../os/rt/include/chqueues.h"
 258              		.loc 4 390 0
 259 008a 726C     		ldr	r2, [r6, #68]
 260 008c B36C     		ldr	r3, [r6, #72]
 261 008e 2048     		ldr	r0, .L59
 262 0090 9A42     		cmp	r2, r3
 263 0092 29D0     		beq	.L57
 264              	.L18:
 265              	.LBE259:
 266              	.LBE258:
 267              		.loc 1 201 0
 268 0094 4FF6BF73 		movw	r3, #65471
 269 0098 3B40     		ands	r3, r3, r7
 270              		.loc 1 202 0
 271 009a 6FF04002 		mvn	r2, #64
 272              		.loc 1 201 0
 273 009e EB60     		str	r3, [r5, #12]
 274              	.LBB261:
 275              	.LBB262:
 276              	.LBB263:
 277              	.LBB264:
 278              	.LBB265:
 279              	.LBB266:
 280              		.loc 2 546 0
 281 00a0 0023     		movs	r3, #0
 282              	.LBE266:
 283              	.LBE265:
 284              	.LBE264:
 285              	.LBE263:
ARM GAS  /tmp/cc481lMf.s 			page 6


 286              	.LBE262:
 287              	.LBE261:
 288              		.loc 1 202 0
 289 00a2 2A60     		str	r2, [r5]
 290              	.LVL24:
 291              	.LBB272:
 292              	.LBB271:
 293              	.LBB270:
 294              	.LBB269:
 295              	.LBB268:
 296              	.LBB267:
 297              		.loc 2 546 0
 298              		.syntax unified
 299              	@ 546 "../../os/ext/CMSIS/include/core_cmFunc.h" 1
 300 00a4 83F31188 		MSR basepri, r3
 301              	@ 0 "" 2
 302              	.LVL25:
 303              		.thumb
 304              		.syntax unified
 305              	.L17:
 306              	.LBE267:
 307              	.LBE268:
 308              	.LBE269:
 309              	.LBE270:
 310              	.LBE271:
 311              	.LBE272:
 312              	.LBE233:
 313              	.LBE232:
 314              		.loc 1 294 0
 315 00a8 BDE8F840 		pop	{r3, r4, r5, r6, r7, lr}
 316              		.cfi_remember_state
 317              		.cfi_restore 14
 318              		.cfi_restore 7
 319              		.cfi_restore 6
 320              		.cfi_restore 5
 321              		.cfi_restore 4
 322              		.cfi_restore 3
 323              		.cfi_def_cfa_offset 0
 324              	.LVL26:
 325              		.loc 1 293 0
 326 00ac FFF7FEBF 		b	_port_irq_epilogue
 327              	.LVL27:
 328              	.L54:
 329              		.cfi_restore_state
 330              	.LBB307:
 331              	.LBB306:
 332              	.LBB273:
 333              	.LBB274:
 334              	.LBB275:
 335              	.LBB276:
 336              	.LBB277:
 337              	.LBB278:
 338              		.loc 2 546 0
 339 00b0 2023     		movs	r3, #32
 340              		.syntax unified
 341              	@ 546 "../../os/ext/CMSIS/include/core_cmFunc.h" 1
 342 00b2 83F31188 		MSR basepri, r3
ARM GAS  /tmp/cc481lMf.s 			page 7


 343              	@ 0 "" 2
 344              	.LVL28:
 345              		.thumb
 346              		.syntax unified
 347              	.LBE278:
 348              	.LBE277:
 349              	.LBE276:
 350              	.LBE275:
 351              	.LBE274:
 352              	.LBE273:
 353              	.LBB279:
 354              	.LBB280:
 355              		.loc 3 798 0
 356 00b6 4FF40071 		mov	r1, #512
 357 00ba 301D     		adds	r0, r6, #4
 358 00bc FFF7FEFF 		bl	chEvtBroadcastFlagsI
 359              	.LVL29:
 360              	.LBE280:
 361              	.LBE279:
 362              		.loc 1 162 0
 363 00c0 6FF48073 		mvn	r3, #256
 364 00c4 2B60     		str	r3, [r5]
 365              	.LVL30:
 366              	.LBB281:
 367              	.LBB282:
 368              	.LBB283:
 369              	.LBB284:
 370              	.LBB285:
 371              	.LBB286:
 372              		.loc 2 546 0
 373 00c6 0023     		movs	r3, #0
 374              		.syntax unified
 375              	@ 546 "../../os/ext/CMSIS/include/core_cmFunc.h" 1
 376 00c8 83F31188 		MSR basepri, r3
 377              	@ 0 "" 2
 378              		.thumb
 379              		.syntax unified
 380 00cc A0E7     		b	.L5
 381              	.LVL31:
 382              	.L56:
 383              	.LBE286:
 384              	.LBE285:
 385              	.LBE284:
 386              	.LBE283:
 387              	.LBE282:
 388              	.LBE281:
 389              	.LBB287:
 390              	.LBB288:
 391              	.LBB289:
 392              	.LBB290:
 393              	.LBB291:
 394              	.LBB292:
 395              	.LBB293:
 396 00ce 2023     		movs	r3, #32
 397              		.syntax unified
 398              	@ 546 "../../os/ext/CMSIS/include/core_cmFunc.h" 1
 399 00d0 83F31188 		MSR basepri, r3
ARM GAS  /tmp/cc481lMf.s 			page 8


 400              	@ 0 "" 2
 401              		.thumb
 402              		.syntax unified
 403              	.LBE293:
 404              	.LBE292:
 405              	.LBE291:
 406              	.LBE290:
 407              	.LBE289:
 408              	.LBE288:
 409              		.loc 1 186 0
 410 00d4 1048     		ldr	r0, .L59+8
 411 00d6 FFF7FEFF 		bl	chOQGetI
 412              	.LVL32:
 413              		.loc 1 187 0
 414 00da 0028     		cmp	r0, #0
 415 00dc 0CDB     		blt	.L58
 416              		.loc 1 192 0
 417 00de 6860     		str	r0, [r5, #4]
 418              	.LVL33:
 419              	.L16:
 420              	.LBB294:
 421              	.LBB295:
 422              	.LBB296:
 423              	.LBB297:
 424              	.LBB298:
 425              	.LBB299:
 426              		.loc 2 546 0
 427 00e0 0023     		movs	r3, #0
 428              		.syntax unified
 429              	@ 546 "../../os/ext/CMSIS/include/core_cmFunc.h" 1
 430 00e2 83F31188 		MSR basepri, r3
 431              	@ 0 "" 2
 432              		.thumb
 433              		.syntax unified
 434 00e6 CBE7     		b	.L14
 435              	.LVL34:
 436              	.L57:
 437              	.LBE299:
 438              	.LBE298:
 439              	.LBE297:
 440              	.LBE296:
 441              	.LBE295:
 442              	.LBE294:
 443              	.LBE287:
 444              	.LBB302:
 445              	.LBB260:
 446              		.loc 4 390 0
 447 00e8 836B     		ldr	r3, [r0, #56]
 448 00ea 002B     		cmp	r3, #0
 449 00ec D2D0     		beq	.L18
 450              	.LVL35:
 451              	.LBE260:
 452              	.LBE302:
 453              	.LBB303:
 454              	.LBB304:
 455              		.loc 3 798 0
 456 00ee 0430     		adds	r0, r0, #4
ARM GAS  /tmp/cc481lMf.s 			page 9


 457 00f0 1021     		movs	r1, #16
 458 00f2 FFF7FEFF 		bl	chEvtBroadcastFlagsI
 459              	.LVL36:
 460 00f6 CDE7     		b	.L18
 461              	.LVL37:
 462              	.L58:
 463              	.LBE304:
 464              	.LBE303:
 465              	.LBB305:
 466              	.LBB300:
 467              	.LBB301:
 468 00f8 0821     		movs	r1, #8
 469 00fa 0648     		ldr	r0, .L59+4
 470              	.LVL38:
 471 00fc FFF7FEFF 		bl	chEvtBroadcastFlagsI
 472              	.LVL39:
 473              	.LBE301:
 474              	.LBE300:
 475              		.loc 1 189 0
 476 0100 4FF63F73 		movw	r3, #65343
 477 0104 3B40     		ands	r3, r3, r7
 478 0106 43F04003 		orr	r3, r3, #64
 479 010a EB60     		str	r3, [r5, #12]
 480 010c E8E7     		b	.L16
 481              	.L60:
 482 010e 00BF     		.align	2
 483              	.L59:
 484 0110 00000000 		.word	.LANCHOR0
 485 0114 04000000 		.word	.LANCHOR0+4
 486 0118 30000000 		.word	.LANCHOR0+48
 487              	.LBE305:
 488              	.LBE306:
 489              	.LBE307:
 490              		.cfi_endproc
 491              	.LFE265:
 492              		.size	VectorD8, .-VectorD8
 493 011c AFF30080 		.section	.text.sd_lld_init,"ax",%progbits
 494              		.align	2
 495              		.p2align 4,,15
 496              		.global	sd_lld_init
 497              		.thumb
 498              		.thumb_func
 499              		.type	sd_lld_init, %function
 500              	sd_lld_init:
 501              	.LFB266:
 502              		.loc 1 382 0
 503              		.cfi_startproc
 504              		@ args = 0, pretend = 0, frame = 0
 505              		@ frame_needed = 0, uses_anonymous_args = 0
 506 0000 10B5     		push	{r4, lr}
 507              		.cfi_def_cfa_offset 8
 508              		.cfi_offset 4, -8
 509              		.cfi_offset 14, -4
 510              		.loc 1 390 0
 511 0002 044C     		ldr	r4, .L63
 512 0004 044A     		ldr	r2, .L63+4
 513 0006 2046     		mov	r0, r4
ARM GAS  /tmp/cc481lMf.s 			page 10


 514 0008 0021     		movs	r1, #0
 515 000a FFF7FEFF 		bl	sdObjectInit
 516              	.LVL40:
 517              		.loc 1 391 0
 518 000e 034B     		ldr	r3, .L63+8
 519 0010 6367     		str	r3, [r4, #116]
 520 0012 10BD     		pop	{r4, pc}
 521              	.L64:
 522              		.align	2
 523              	.L63:
 524 0014 00000000 		.word	.LANCHOR0
 525 0018 00000000 		.word	notify2
 526 001c 00440040 		.word	1073759232
 527              		.cfi_endproc
 528              	.LFE266:
 529              		.size	sd_lld_init, .-sd_lld_init
 530              		.section	.text.sd_lld_start,"ax",%progbits
 531              		.align	2
 532              		.p2align 4,,15
 533              		.global	sd_lld_start
 534              		.thumb
 535              		.thumb_func
 536              		.type	sd_lld_start, %function
 537              	sd_lld_start:
 538              	.LFB267:
 539              		.loc 1 425 0
 540              		.cfi_startproc
 541              		@ args = 0, pretend = 0, frame = 0
 542              		@ frame_needed = 0, uses_anonymous_args = 0
 543              	.LVL41:
 544 0000 38B5     		push	{r3, r4, r5, lr}
 545              		.cfi_def_cfa_offset 16
 546              		.cfi_offset 3, -16
 547              		.cfi_offset 4, -12
 548              		.cfi_offset 5, -8
 549              		.cfi_offset 14, -4
 550              		.loc 1 428 0
 551 0002 1F4C     		ldr	r4, .L73
 552              		.loc 1 430 0
 553 0004 037A     		ldrb	r3, [r0, #8]	@ zero_extendqisi2
 554              		.loc 1 428 0
 555 0006 0029     		cmp	r1, #0
 556 0008 18BF     		it	ne
 557 000a 0C46     		movne	r4, r1
 558              	.LVL42:
 559              		.loc 1 430 0
 560 000c 012B     		cmp	r3, #1
 561              		.loc 1 425 0
 562 000e 0546     		mov	r5, r0
 563              		.loc 1 430 0
 564 0010 22D0     		beq	.L72
 565              	.LVL43:
 566              	.L67:
 567 0012 6B6F     		ldr	r3, [r5, #116]
 568              	.LVL44:
 569              	.LBB308:
 570              	.LBB309:
ARM GAS  /tmp/cc481lMf.s 			page 11


 571              		.loc 1 96 0
 572 0014 1B4A     		ldr	r2, .L73+4
 573 0016 9342     		cmp	r3, r2
 574 0018 2BD0     		beq	.L68
 575 001a 02F58062 		add	r2, r2, #1024
 576 001e 9342     		cmp	r3, r2
 577 0020 27D0     		beq	.L68
 578              		.loc 1 102 0
 579 0022 2168     		ldr	r1, [r4]
 580 0024 184A     		ldr	r2, .L73+8
 581 0026 B2FBF1F2 		udiv	r2, r2, r1
 582 002a 9A60     		str	r2, [r3, #8]
 583              	.L70:
 584              		.loc 1 108 0
 585 002c A288     		ldrh	r2, [r4, #4]
 586              		.loc 1 105 0
 587 002e E088     		ldrh	r0, [r4, #6]
 588              		.loc 1 106 0
 589 0030 2189     		ldrh	r1, [r4, #8]
 590              		.loc 1 108 0
 591 0032 42F40452 		orr	r2, r2, #8448
 592              		.loc 1 105 0
 593 0036 40F04000 		orr	r0, r0, #64
 594              		.loc 1 108 0
 595 003a 42F02C02 		orr	r2, r2, #44
 596              		.loc 1 106 0
 597 003e 41F00101 		orr	r1, r1, #1
 598              		.loc 1 108 0
 599 0042 92B2     		uxth	r2, r2
 600              		.loc 1 105 0
 601 0044 80B2     		uxth	r0, r0
 602              		.loc 1 106 0
 603 0046 89B2     		uxth	r1, r1
 604              		.loc 1 110 0
 605 0048 0024     		movs	r4, #0
 606              	.LVL45:
 607              		.loc 1 105 0
 608 004a 1861     		str	r0, [r3, #16]
 609              		.loc 1 106 0
 610 004c 5961     		str	r1, [r3, #20]
 611              		.loc 1 107 0
 612 004e DA60     		str	r2, [r3, #12]
 613              		.loc 1 110 0
 614 0050 1C60     		str	r4, [r3]
 615              		.loc 1 111 0
 616 0052 1A68     		ldr	r2, [r3]
 617              		.loc 1 112 0
 618 0054 5B68     		ldr	r3, [r3, #4]
 619              	.LVL46:
 620 0056 38BD     		pop	{r3, r4, r5, pc}
 621              	.LVL47:
 622              	.L72:
 623              	.LBE309:
 624              	.LBE308:
 625              		.loc 1 438 0
 626 0058 0C4B     		ldr	r3, .L73+12
 627 005a 9842     		cmp	r0, r3
ARM GAS  /tmp/cc481lMf.s 			page 12


 628 005c D9D1     		bne	.L67
 629              		.loc 1 439 0
 630 005e 0C4A     		ldr	r2, .L73+16
 631 0060 136C     		ldr	r3, [r2, #64]
 632 0062 43F40033 		orr	r3, r3, #131072
 633 0066 1364     		str	r3, [r2, #64]
 634              		.loc 1 440 0
 635 0068 0C21     		movs	r1, #12
 636 006a 2620     		movs	r0, #38
 637              	.LVL48:
 638 006c FFF7FEFF 		bl	nvicEnableVector
 639              	.LVL49:
 640 0070 CFE7     		b	.L67
 641              	.LVL50:
 642              	.L68:
 643              	.LBB311:
 644              	.LBB310:
 645              		.loc 1 100 0
 646 0072 2168     		ldr	r1, [r4]
 647 0074 074A     		ldr	r2, .L73+20
 648 0076 B2FBF1F2 		udiv	r2, r2, r1
 649 007a 9A60     		str	r2, [r3, #8]
 650 007c D6E7     		b	.L70
 651              	.L74:
 652 007e 00BF     		.align	2
 653              	.L73:
 654 0080 00000000 		.word	.LANCHOR1
 655 0084 00100140 		.word	1073811456
 656 0088 80DE8002 		.word	42000000
 657 008c 00000000 		.word	.LANCHOR0
 658 0090 00380240 		.word	1073887232
 659 0094 00BD0105 		.word	84000000
 660              	.LBE310:
 661              	.LBE311:
 662              		.cfi_endproc
 663              	.LFE267:
 664              		.size	sd_lld_start, .-sd_lld_start
 665 0098 AFF30080 		.section	.text.sd_lld_stop,"ax",%progbits
 665      AFF30080 
 666              		.align	2
 667              		.p2align 4,,15
 668              		.global	sd_lld_stop
 669              		.thumb
 670              		.thumb_func
 671              		.type	sd_lld_stop, %function
 672              	sd_lld_stop:
 673              	.LFB268:
 674              		.loc 1 480 0
 675              		.cfi_startproc
 676              		@ args = 0, pretend = 0, frame = 0
 677              		@ frame_needed = 0, uses_anonymous_args = 0
 678              		@ link register save eliminated.
 679              	.LVL51:
 680              		.loc 1 482 0
 681 0000 037A     		ldrb	r3, [r0, #8]	@ zero_extendqisi2
 682 0002 022B     		cmp	r3, #2
 683 0004 00D0     		beq	.L79
ARM GAS  /tmp/cc481lMf.s 			page 13


 684              	.L75:
 685 0006 7047     		bx	lr
 686              	.L79:
 687              		.loc 1 492 0
 688 0008 0749     		ldr	r1, .L80
 689              		.loc 1 483 0
 690 000a 436F     		ldr	r3, [r0, #116]
 691              	.LVL52:
 692              	.LBB312:
 693              	.LBB313:
 694              		.loc 1 123 0
 695 000c 0022     		movs	r2, #0
 696              	.LBE313:
 697              	.LBE312:
 698              		.loc 1 492 0
 699 000e 8842     		cmp	r0, r1
 700              	.LBB315:
 701              	.LBB314:
 702              		.loc 1 123 0
 703 0010 DA60     		str	r2, [r3, #12]
 704              		.loc 1 124 0
 705 0012 1A61     		str	r2, [r3, #16]
 706              		.loc 1 125 0
 707 0014 5A61     		str	r2, [r3, #20]
 708              	.LBE314:
 709              	.LBE315:
 710              		.loc 1 492 0
 711 0016 F6D1     		bne	.L75
 712              		.loc 1 493 0
 713 0018 044A     		ldr	r2, .L80+4
 714 001a 136C     		ldr	r3, [r2, #64]
 715              	.LVL53:
 716 001c 23F40033 		bic	r3, r3, #131072
 717 0020 1364     		str	r3, [r2, #64]
 718              		.loc 1 494 0
 719 0022 2620     		movs	r0, #38
 720              	.LVL54:
 721 0024 FFF7FEBF 		b	nvicDisableVector
 722              	.LVL55:
 723              	.L81:
 724              		.align	2
 725              	.L80:
 726 0028 00000000 		.word	.LANCHOR0
 727 002c 00380240 		.word	1073887232
 728              		.cfi_endproc
 729              	.LFE268:
 730              		.size	sd_lld_stop, .-sd_lld_stop
 731              		.global	SD2
 732              		.section	.rodata.default_config,"a",%progbits
 733              		.align	2
 734              		.set	.LANCHOR1,. + 0
 735              		.type	default_config, %object
 736              		.size	default_config, 12
 737              	default_config:
 738 0000 00960000 		.word	38400
 739 0004 0000     		.short	0
 740 0006 0040     		.short	16384
ARM GAS  /tmp/cc481lMf.s 			page 14


 741 0008 0000     		.short	0
 742 000a 0000     		.space	2
 743              		.section	.bss.SD2,"aw",%nobits
 744              		.align	2
 745              		.set	.LANCHOR0,. + 0
 746              		.type	SD2, %object
 747              		.size	SD2, 120
 748              	SD2:
 749 0000 00000000 		.space	120
 749      00000000 
 749      00000000 
 749      00000000 
 749      00000000 
 750              		.text
 751              	.Letext0:
 752              		.file 5 "/usr/lib/gcc/arm-none-eabi/5.2.0/include/stddef.h"
 753              		.file 6 "/usr/arm-none-eabi/include/machine/_default_types.h"
 754              		.file 7 "/usr/arm-none-eabi/include/stdint.h"
 755              		.file 8 "../../os/rt/ports/ARMCMx/compilers/GCC/chtypes.h"
 756              		.file 9 "../../os/rt/include/chsystypes.h"
 757              		.file 10 "../../os/rt/include/chschd.h"
 758              		.file 11 "../../os/ext/CMSIS/ST/stm32f401xc.h"
 759              		.file 12 "../../os/rt/ports/ARMCMx/chcore.h"
 760              		.file 13 "../../os/rt/ports/ARMCMx/chcore_v7m.h"
 761              		.file 14 "../../os/rt/include/chtm.h"
 762              		.file 15 "../../os/rt/include/chsem.h"
 763              		.file 16 "../../os/rt/include/chmtx.h"
 764              		.file 17 "../../os/rt/include/chevents.h"
 765              		.file 18 "../../os/hal/include/serial.h"
 766              		.file 19 "../../os/hal/ports/STM32/LLD/USARTv1/serial_lld.h"
 767              		.file 20 "../../os/rt/include/chsys.h"
 768              		.file 21 "../../os/hal/ports/common/ARMCMx/nvic.h"
 769              		.file 22 "../../os/ext/CMSIS/include/core_cm4.h"