ARM GAS  /tmp/ccHeQsf7.s 			page 1


   1              		.syntax unified
   2              		.cpu cortex-m4
   3              		.eabi_attribute 27, 1
   4              		.eabi_attribute 28, 1
   5              		.fpu fpv4-sp-d16
   6              		.eabi_attribute 20, 1
   7              		.eabi_attribute 21, 1
   8              		.eabi_attribute 23, 3
   9              		.eabi_attribute 24, 1
  10              		.eabi_attribute 25, 1
  11              		.eabi_attribute 26, 1
  12              		.eabi_attribute 30, 2
  13              		.eabi_attribute 34, 1
  14              		.eabi_attribute 18, 4
  15              		.thumb
  16              		.syntax unified
  17              		.file	"st_lld.c"
  18              		.text
  19              	.Ltext0:
  20              		.cfi_sections	.debug_frame
  21              		.section	.text.VectorB0,"ax",%progbits
  22              		.align	2
  23              		.p2align 4,,15
  24              		.global	VectorB0
  25              		.thumb
  26              		.thumb_func
  27              		.type	VectorB0, %function
  28              	VectorB0:
  29              	.LFB260:
  30              		.file 1 "../../os/hal/ports/STM32/LLD/TIMv1/st_lld.c"
  31              		.loc 1 173 0
  32              		.cfi_startproc
  33              		@ args = 0, pretend = 0, frame = 0
  34              		@ frame_needed = 0, uses_anonymous_args = 0
  35              		.loc 1 180 0
  36 0000 4FF08043 		mov	r3, #1073741824
  37 0004 1A69     		ldr	r2, [r3, #16]
  38 0006 9207     		lsls	r2, r2, #30
  39 0008 01D4     		bmi	.L9
  40              		.loc 1 188 0
  41 000a FFF7FEBF 		b	_port_irq_epilogue
  42              	.LVL0:
  43              	.L9:
  44              		.loc 1 173 0
  45 000e 10B5     		push	{r4, lr}
  46              		.cfi_def_cfa_offset 8
  47              		.cfi_offset 4, -8
  48              		.cfi_offset 14, -4
  49              		.loc 1 181 0
  50 0010 0024     		movs	r4, #0
  51 0012 1C61     		str	r4, [r3, #16]
  52              	.LVL1:
  53              	.LBB52:
  54              	.LBB53:
  55              	.LBB54:
  56              	.LBB55:
  57              	.LBB56:
ARM GAS  /tmp/ccHeQsf7.s 			page 2


  58              	.LBB57:
  59              		.file 2 "../../os/ext/CMSIS/include/core_cmFunc.h"
  60              		.loc 2 546 0
  61 0014 2023     		movs	r3, #32
  62              		.syntax unified
  63              	@ 546 "../../os/ext/CMSIS/include/core_cmFunc.h" 1
  64 0016 83F31188 		MSR basepri, r3
  65              	@ 0 "" 2
  66              		.thumb
  67              		.syntax unified
  68              	.LBE57:
  69              	.LBE56:
  70              	.LBE55:
  71              	.LBE54:
  72              	.LBE53:
  73              	.LBE52:
  74              	.LBB58:
  75              	.LBB59:
  76              		.file 3 "../../os/hal/osal/rt/osal.h"
  77              		.loc 3 539 0
  78 001a FFF7FEFF 		bl	chSysTimerHandlerI
  79              	.LVL2:
  80              	.LBE59:
  81              	.LBE58:
  82              	.LBB60:
  83              	.LBB61:
  84              	.LBB62:
  85              	.LBB63:
  86              	.LBB64:
  87              	.LBB65:
  88              		.loc 2 546 0
  89              		.syntax unified
  90              	@ 546 "../../os/ext/CMSIS/include/core_cmFunc.h" 1
  91 001e 84F31188 		MSR basepri, r4
  92              	@ 0 "" 2
  93              		.thumb
  94              		.syntax unified
  95              	.LBE65:
  96              	.LBE64:
  97              	.LBE63:
  98              	.LBE62:
  99              	.LBE61:
 100              	.LBE60:
 101              		.loc 1 189 0
 102 0022 BDE81040 		pop	{r4, lr}
 103              		.cfi_restore 14
 104              		.cfi_restore 4
 105              		.cfi_def_cfa_offset 0
 106              		.loc 1 188 0
 107 0026 FFF7FEBF 		b	_port_irq_epilogue
 108              	.LVL3:
 109              		.cfi_endproc
 110              	.LFE260:
 111              		.size	VectorB0, .-VectorB0
 112 002a 00BFAFF3 		.section	.text.st_lld_init,"ax",%progbits
 112      0080
 113              		.align	2
ARM GAS  /tmp/ccHeQsf7.s 			page 3


 114              		.p2align 4,,15
 115              		.global	st_lld_init
 116              		.thumb
 117              		.thumb_func
 118              		.type	st_lld_init, %function
 119              	st_lld_init:
 120              	.LFB261:
 121              		.loc 1 201 0
 122              		.cfi_startproc
 123              		@ args = 0, pretend = 0, frame = 0
 124              		@ frame_needed = 0, uses_anonymous_args = 0
 125              		@ link register save eliminated.
 126              		.loc 1 207 0
 127 0000 0F4A     		ldr	r2, .L12
 128              		.loc 1 210 0
 129 0002 1048     		ldr	r0, .L12+4
 130              		.loc 1 207 0
 131 0004 136C     		ldr	r3, [r2, #64]
 132              		.loc 1 201 0
 133 0006 70B4     		push	{r4, r5, r6}
 134              		.cfi_def_cfa_offset 12
 135              		.cfi_offset 4, -12
 136              		.cfi_offset 5, -8
 137              		.cfi_offset 6, -4
 138              		.loc 1 207 0
 139 0008 43F00103 		orr	r3, r3, #1
 140 000c 1364     		str	r3, [r2, #64]
 141              		.loc 1 210 0
 142 000e 8168     		ldr	r1, [r0, #8]
 143              		.loc 1 213 0
 144 0010 4FF08043 		mov	r3, #1073741824
 145              		.loc 1 215 0
 146 0014 0022     		movs	r2, #0
 147              		.loc 1 219 0
 148 0016 0124     		movs	r4, #1
 149              		.loc 1 210 0
 150 0018 41F00101 		orr	r1, r1, #1
 151              		.loc 1 213 0
 152 001c 42F2CF06 		movw	r6, #8399
 153              		.loc 1 214 0
 154 0020 4FF0FF35 		mov	r5, #-1
 155              		.loc 1 210 0
 156 0024 8160     		str	r1, [r0, #8]
 157              		.loc 1 213 0
 158 0026 9E62     		str	r6, [r3, #40]
 159              		.loc 1 223 0
 160 0028 0821     		movs	r1, #8
 161              		.loc 1 214 0
 162 002a DD62     		str	r5, [r3, #44]
 163              		.loc 1 223 0
 164 002c 1C20     		movs	r0, #28
 165              		.loc 1 215 0
 166 002e 9A61     		str	r2, [r3, #24]
 167              		.loc 1 216 0
 168 0030 5A63     		str	r2, [r3, #52]
 169              		.loc 1 217 0
 170 0032 DA60     		str	r2, [r3, #12]
ARM GAS  /tmp/ccHeQsf7.s 			page 4


 171              		.loc 1 218 0
 172 0034 5A60     		str	r2, [r3, #4]
 173              		.loc 1 219 0
 174 0036 5C61     		str	r4, [r3, #20]
 175              		.loc 1 220 0
 176 0038 1C60     		str	r4, [r3]
 177              		.loc 1 238 0
 178 003a 70BC     		pop	{r4, r5, r6}
 179              		.cfi_restore 6
 180              		.cfi_restore 5
 181              		.cfi_restore 4
 182              		.cfi_def_cfa_offset 0
 183              		.loc 1 223 0
 184 003c FFF7FEBF 		b	nvicEnableVector
 185              	.LVL4:
 186              	.L13:
 187              		.align	2
 188              	.L12:
 189 0040 00380240 		.word	1073887232
 190 0044 002004E0 		.word	-536600576
 191              		.cfi_endproc
 192              	.LFE261:
 193              		.size	st_lld_init, .-st_lld_init
 194 0048 AFF30080 		.text
 194      AFF30080 
 195              	.Letext0:
 196              		.file 4 "/usr/arm-none-eabi/include/machine/_default_types.h"
 197              		.file 5 "/usr/arm-none-eabi/include/stdint.h"
 198              		.file 6 "../../os/rt/ports/ARMCMx/compilers/GCC/chtypes.h"
 199              		.file 7 "../../os/rt/include/chsystypes.h"
 200              		.file 8 "../../os/rt/include/chschd.h"
 201              		.file 9 "../../os/ext/CMSIS/ST/stm32f401xc.h"
 202              		.file 10 "../../os/rt/ports/ARMCMx/chcore.h"
 203              		.file 11 "../../os/rt/ports/ARMCMx/chcore_v7m.h"
 204              		.file 12 "../../os/hal/ports/STM32/LLD/TIMv1/stm32_tim.h"
 205              		.file 13 "../../os/rt/include/chtm.h"
 206              		.file 14 "../../os/rt/include/chsem.h"
 207              		.file 15 "../../os/rt/include/chmtx.h"
 208              		.file 16 "../../os/rt/include/chsys.h"
 209              		.file 17 "../../os/hal/ports/common/ARMCMx/nvic.h"
 210              		.file 18 "../../os/ext/CMSIS/include/core_cm4.h"