ARM GAS  /tmp/ccVKrcSE.s 			page 1


   1              		.syntax unified
   2              		.cpu cortex-m4
   3              		.eabi_attribute 27, 1
   4              		.eabi_attribute 28, 1
   5              		.fpu fpv4-sp-d16
   6              		.eabi_attribute 20, 1
   7              		.eabi_attribute 21, 1
   8              		.eabi_attribute 23, 3
   9              		.eabi_attribute 24, 1
  10              		.eabi_attribute 25, 1
  11              		.eabi_attribute 26, 1
  12              		.eabi_attribute 30, 2
  13              		.eabi_attribute 34, 1
  14              		.eabi_attribute 18, 4
  15              		.thumb
  16              		.syntax unified
  17              		.file	"testqueues.c"
  18              		.text
  19              	.Ltext0:
  20              		.cfi_sections	.debug_frame
  21              		.section	.text.notify,"ax",%progbits
  22              		.align	2
  23              		.p2align 4,,15
  24              		.thumb
  25              		.thumb_func
  26              		.type	notify, %function
  27              	notify:
  28              	.LFB229:
  29              		.file 1 "../../test/rt/testqueues.c"
  30              		.loc 1 57 0
  31              		.cfi_startproc
  32              		@ args = 0, pretend = 0, frame = 0
  33              		@ frame_needed = 0, uses_anonymous_args = 0
  34              		@ link register save eliminated.
  35              	.LVL0:
  36 0000 7047     		bx	lr
  37              		.cfi_endproc
  38              	.LFE229:
  39              		.size	notify, .-notify
  40 0002 00BFAFF3 		.section	.text.thread1,"ax",%progbits
  40      0080AFF3 
  40      0080AFF3 
  40      0080
  41              		.align	2
  42              		.p2align 4,,15
  43              		.thumb
  44              		.thumb_func
  45              		.type	thread1, %function
  46              	thread1:
  47              	.LFB231:
  48              		.loc 1 83 0
  49              		.cfi_startproc
  50              		@ args = 0, pretend = 0, frame = 0
  51              		@ frame_needed = 0, uses_anonymous_args = 0
  52              		@ link register save eliminated.
  53              	.LVL1:
  54              		.loc 1 86 0
ARM GAS  /tmp/ccVKrcSE.s 			page 2


  55 0000 4FF4FA61 		mov	r1, #2000
  56 0004 0148     		ldr	r0, .L3
  57              	.LVL2:
  58 0006 FFF7FEBF 		b	chIQGetTimeout
  59              	.LVL3:
  60              	.L4:
  61 000a 00BF     		.align	2
  62              	.L3:
  63 000c 00000000 		.word	.LANCHOR0
  64              		.cfi_endproc
  65              	.LFE231:
  66              		.size	thread1, .-thread1
  67              		.section	.text.queues1_setup,"ax",%progbits
  68              		.align	2
  69              		.p2align 4,,15
  70              		.thumb
  71              		.thumb_func
  72              		.type	queues1_setup, %function
  73              	queues1_setup:
  74              	.LFB230:
  75              		.loc 1 78 0
  76              		.cfi_startproc
  77              		@ args = 0, pretend = 0, frame = 0
  78              		@ frame_needed = 0, uses_anonymous_args = 0
  79 0000 00B5     		push	{lr}
  80              		.cfi_def_cfa_offset 4
  81              		.cfi_offset 14, -4
  82              		.loc 1 80 0
  83 0002 064A     		ldr	r2, .L7
  84 0004 064B     		ldr	r3, .L7+4
  85 0006 1168     		ldr	r1, [r2]
  86 0008 0648     		ldr	r0, .L7+8
  87              		.loc 1 78 0
  88 000a 83B0     		sub	sp, sp, #12
  89              		.cfi_def_cfa_offset 16
  90              		.loc 1 80 0
  91 000c 0022     		movs	r2, #0
  92 000e 0092     		str	r2, [sp]
  93 0010 0422     		movs	r2, #4
  94 0012 FFF7FEFF 		bl	chIQObjectInit
  95              	.LVL4:
  96              		.loc 1 81 0
  97 0016 03B0     		add	sp, sp, #12
  98              		.cfi_def_cfa_offset 4
  99              		@ sp needed
 100 0018 5DF804FB 		ldr	pc, [sp], #4
 101              	.L8:
 102              		.align	2
 103              	.L7:
 104 001c 00000000 		.word	wa
 105 0020 00000000 		.word	notify
 106 0024 00000000 		.word	.LANCHOR0
 107              		.cfi_endproc
 108              	.LFE230:
 109              		.size	queues1_setup, .-queues1_setup
 110 0028 AFF30080 		.section	.text.thread2,"ax",%progbits
 110      AFF30080 
ARM GAS  /tmp/ccVKrcSE.s 			page 3


 111              		.align	2
 112              		.p2align 4,,15
 113              		.thumb
 114              		.thumb_func
 115              		.type	thread2, %function
 116              	thread2:
 117              	.LFB234:
 118              		.loc 1 169 0
 119              		.cfi_startproc
 120              		@ args = 0, pretend = 0, frame = 0
 121              		@ frame_needed = 0, uses_anonymous_args = 0
 122              		@ link register save eliminated.
 123              	.LVL5:
 124              		.loc 1 172 0
 125 0000 4FF4FA62 		mov	r2, #2000
 126 0004 0021     		movs	r1, #0
 127 0006 0148     		ldr	r0, .L10
 128              	.LVL6:
 129 0008 FFF7FEBF 		b	chOQPutTimeout
 130              	.LVL7:
 131              	.L11:
 132              		.align	2
 133              	.L10:
 134 000c 00000000 		.word	.LANCHOR1
 135              		.cfi_endproc
 136              	.LFE234:
 137              		.size	thread2, .-thread2
 138              		.section	.text.queues2_setup,"ax",%progbits
 139              		.align	2
 140              		.p2align 4,,15
 141              		.thumb
 142              		.thumb_func
 143              		.type	queues2_setup, %function
 144              	queues2_setup:
 145              	.LFB233:
 146              		.loc 1 164 0
 147              		.cfi_startproc
 148              		@ args = 0, pretend = 0, frame = 0
 149              		@ frame_needed = 0, uses_anonymous_args = 0
 150 0000 00B5     		push	{lr}
 151              		.cfi_def_cfa_offset 4
 152              		.cfi_offset 14, -4
 153              		.loc 1 166 0
 154 0002 064A     		ldr	r2, .L14
 155 0004 064B     		ldr	r3, .L14+4
 156 0006 1168     		ldr	r1, [r2]
 157 0008 0648     		ldr	r0, .L14+8
 158              		.loc 1 164 0
 159 000a 83B0     		sub	sp, sp, #12
 160              		.cfi_def_cfa_offset 16
 161              		.loc 1 166 0
 162 000c 0022     		movs	r2, #0
 163 000e 0092     		str	r2, [sp]
 164 0010 0422     		movs	r2, #4
 165 0012 FFF7FEFF 		bl	chOQObjectInit
 166              	.LVL8:
 167              		.loc 1 167 0
ARM GAS  /tmp/ccVKrcSE.s 			page 4


 168 0016 03B0     		add	sp, sp, #12
 169              		.cfi_def_cfa_offset 4
 170              		@ sp needed
 171 0018 5DF804FB 		ldr	pc, [sp], #4
 172              	.L15:
 173              		.align	2
 174              	.L14:
 175 001c 00000000 		.word	wa
 176 0020 00000000 		.word	notify
 177 0024 00000000 		.word	.LANCHOR1
 178              		.cfi_endproc
 179              	.LFE233:
 180              		.size	queues2_setup, .-queues2_setup
 181 0028 AFF30080 		.section	.text.queues1_execute,"ax",%progbits
 181      AFF30080 
 182              		.align	2
 183              		.p2align 4,,15
 184              		.thumb
 185              		.thumb_func
 186              		.type	queues1_execute, %function
 187              	queues1_execute:
 188              	.LFB232:
 189              		.loc 1 89 0
 190              		.cfi_startproc
 191              		@ args = 0, pretend = 0, frame = 0
 192              		@ frame_needed = 0, uses_anonymous_args = 0
 193              	.LVL9:
 194 0000 2DE9F041 		push	{r4, r5, r6, r7, r8, lr}
 195              		.cfi_def_cfa_offset 24
 196              		.cfi_offset 4, -24
 197              		.cfi_offset 5, -20
 198              		.cfi_offset 6, -16
 199              		.cfi_offset 7, -12
 200              		.cfi_offset 8, -8
 201              		.cfi_offset 14, -4
 202              	.LBB882:
 203              	.LBB883:
 204              	.LBB884:
 205              	.LBB885:
 206              		.file 2 "../../os/ext/CMSIS/include/core_cmFunc.h"
 207              		.loc 2 546 0
 208 0004 2024     		movs	r4, #32
 209              	.LBE885:
 210              	.LBE884:
 211              	.LBE883:
 212              	.LBE882:
 213              		.loc 1 89 0
 214 0006 82B0     		sub	sp, sp, #8
 215              		.cfi_def_cfa_offset 32
 216              	.LBB889:
 217              	.LBB888:
 218              	.LBB887:
 219              	.LBB886:
 220              		.loc 2 546 0
 221              		.syntax unified
 222              	@ 546 "../../os/ext/CMSIS/include/core_cmFunc.h" 1
 223 0008 84F31188 		MSR basepri, r4
ARM GAS  /tmp/ccVKrcSE.s 			page 5


 224              	@ 0 "" 2
 225              	.LVL10:
 226              		.thumb
 227              		.syntax unified
 228 000c 904B     		ldr	r3, .L45
 229              	.LBE886:
 230              	.LBE887:
 231              	.LBE888:
 232              	.LBE889:
 233              		.loc 1 94 0
 234 000e 9968     		ldr	r1, [r3, #8]
 235 0010 B1FA81F1 		clz	r1, r1
 236 0014 4909     		lsrs	r1, r1, #5
 237 0016 0120     		movs	r0, #1
 238 0018 FFF7FEFF 		bl	_test_assert
 239              	.LVL11:
 240 001c F0B9     		cbnz	r0, .L39
 241 001e 0646     		mov	r6, r0
 242              	.LVL12:
 243              	.LBB890:
 244              	.LBB891:
 245              	.LBB892:
 246              	.LBB893:
 247              	.LBB894:
 248              		.loc 2 546 0
 249              		.syntax unified
 250              	@ 546 "../../os/ext/CMSIS/include/core_cmFunc.h" 1
 251 0020 80F31188 		MSR basepri, r0
 252              	@ 0 "" 2
 253              	.LVL13:
 254              		.thumb
 255              		.syntax unified
 256              	.LBE894:
 257              	.LBE893:
 258              	.LBE892:
 259              	.LBE891:
 260              	.LBE890:
 261              	.LBB895:
 262              	.LBB896:
 263              	.LBB897:
 264              	.LBB898:
 265              		.syntax unified
 266              	@ 546 "../../os/ext/CMSIS/include/core_cmFunc.h" 1
 267 0024 84F31188 		MSR basepri, r4
 268              	@ 0 "" 2
 269              	.LVL14:
 270              		.thumb
 271              		.syntax unified
 272 0028 4124     		movs	r4, #65
 273              	.LVL15:
 274              	.L19:
 275              	.LBE898:
 276              	.LBE897:
 277              	.LBE896:
 278              	.LBE895:
 279              		.loc 1 99 0 discriminator 3
 280 002a 894D     		ldr	r5, .L45
ARM GAS  /tmp/ccVKrcSE.s 			page 6


 281 002c 2146     		mov	r1, r4
 282 002e 0134     		adds	r4, r4, #1
 283 0030 2846     		mov	r0, r5
 284 0032 E4B2     		uxtb	r4, r4
 285 0034 FFF7FEFF 		bl	chIQPutI
 286              	.LVL16:
 287              		.loc 1 98 0 discriminator 3
 288 0038 452C     		cmp	r4, #69
 289 003a F6D1     		bne	.L19
 290              	.LVL17:
 291              	.LBB899:
 292              	.LBB900:
 293              	.LBB901:
 294              	.LBB902:
 295              	.LBB903:
 296              		.loc 2 546 0
 297 003c 0023     		movs	r3, #0
 298              		.syntax unified
 299              	@ 546 "../../os/ext/CMSIS/include/core_cmFunc.h" 1
 300 003e 83F31188 		MSR basepri, r3
 301              	@ 0 "" 2
 302              	.LVL18:
 303              		.thumb
 304              		.syntax unified
 305              	.LBE903:
 306              	.LBE902:
 307              	.LBE901:
 308              	.LBE900:
 309              	.LBE899:
 310              	.LBB904:
 311              	.LBB905:
 312              	.LBB906:
 313              	.LBB907:
 314 0042 2023     		movs	r3, #32
 315              		.syntax unified
 316              	@ 546 "../../os/ext/CMSIS/include/core_cmFunc.h" 1
 317 0044 83F31188 		MSR basepri, r3
 318              	@ 0 "" 2
 319              	.LVL19:
 320              		.thumb
 321              		.syntax unified
 322              	.LBE907:
 323              	.LBE906:
 324              	.LBE905:
 325              	.LBE904:
 326              	.LBB908:
 327              	.LBB909:
 328              		.file 3 "../../os/rt/include/chqueues.h"
 329              		.loc 3 324 0
 330 0048 6A69     		ldr	r2, [r5, #20]
 331 004a AB69     		ldr	r3, [r5, #24]
 332 004c 9A42     		cmp	r2, r3
 333 004e 3AD0     		beq	.L42
 334              	.L20:
 335              	.LBE909:
 336              	.LBE908:
 337              		.loc 1 101 0
ARM GAS  /tmp/ccVKrcSE.s 			page 7


 338 0050 3146     		mov	r1, r6
 339 0052 0220     		movs	r0, #2
 340 0054 FFF7FEFF 		bl	_test_assert
 341              	.LVL20:
 342 0058 0446     		mov	r4, r0
 343 005a 28B1     		cbz	r0, .L21
 344              	.LVL21:
 345              	.L39:
 346              	.LBB911:
 347              	.LBB912:
 348              	.LBB913:
 349              	.LBB914:
 350              	.LBB915:
 351              		.loc 2 546 0
 352 005c 0023     		movs	r3, #0
 353              		.syntax unified
 354              	@ 546 "../../os/ext/CMSIS/include/core_cmFunc.h" 1
 355 005e 83F31188 		MSR basepri, r3
 356              	@ 0 "" 2
 357              	.LVL22:
 358              		.thumb
 359              		.syntax unified
 360              	.L16:
 361              	.LBE915:
 362              	.LBE914:
 363              	.LBE913:
 364              	.LBE912:
 365              	.LBE911:
 366              		.loc 1 146 0
 367 0062 02B0     		add	sp, sp, #8
 368              		.cfi_remember_state
 369              		.cfi_def_cfa_offset 24
 370              		@ sp needed
 371 0064 BDE8F081 		pop	{r4, r5, r6, r7, r8, pc}
 372              	.LVL23:
 373              	.L21:
 374              		.cfi_restore_state
 375              	.LBB916:
 376              	.LBB917:
 377              	.LBB918:
 378              	.LBB919:
 379              	.LBB920:
 380              	.LBB921:
 381              	.LBB922:
 382              		.loc 2 546 0
 383              		.syntax unified
 384              	@ 546 "../../os/ext/CMSIS/include/core_cmFunc.h" 1
 385 0068 80F31188 		MSR basepri, r0
 386              	@ 0 "" 2
 387              	.LVL24:
 388              		.thumb
 389              		.syntax unified
 390              	.LBE922:
 391              	.LBE921:
 392              	.LBE920:
 393              	.LBE919:
 394              	.LBE918:
ARM GAS  /tmp/ccVKrcSE.s 			page 8


 395              	.LBB923:
 396              	.LBB924:
 397              	.LBB925:
 398              	.LBB926:
 399 006c 2023     		movs	r3, #32
 400              		.syntax unified
 401              	@ 546 "../../os/ext/CMSIS/include/core_cmFunc.h" 1
 402 006e 83F31188 		MSR basepri, r3
 403              	@ 0 "" 2
 404              		.thumb
 405              		.syntax unified
 406              	.LBE926:
 407              	.LBE925:
 408              	.LBE924:
 409              	.LBE923:
 410              		.loc 1 102 0
 411 0072 7748     		ldr	r0, .L45
 412 0074 2146     		mov	r1, r4
 413 0076 FFF7FEFF 		bl	chIQPutI
 414              	.LVL25:
 415 007a 0430     		adds	r0, r0, #4
 416 007c 14BF     		ite	ne
 417 007e 0021     		movne	r1, #0
 418 0080 0121     		moveq	r1, #1
 419 0082 0320     		movs	r0, #3
 420 0084 FFF7FEFF 		bl	_test_assert
 421              	.LVL26:
 422 0088 C0B9     		cbnz	r0, .L40
 423              	.LVL27:
 424              	.LBB927:
 425              	.LBB928:
 426              	.LBB929:
 427              	.LBB930:
 428              	.LBB931:
 429              		.loc 2 546 0
 430              		.syntax unified
 431              	@ 546 "../../os/ext/CMSIS/include/core_cmFunc.h" 1
 432 008a 80F31188 		MSR basepri, r0
 433              	@ 0 "" 2
 434              	.LVL28:
 435              		.thumb
 436              		.syntax unified
 437 008e 0424     		movs	r4, #4
 438              	.LVL29:
 439              	.L23:
 440              	.LBE931:
 441              	.LBE930:
 442              	.LBE929:
 443              	.LBE928:
 444              	.LBE927:
 445              	.LBB932:
 446              	.LBB933:
 447              		.loc 3 341 0
 448 0090 6F4D     		ldr	r5, .L45
 449 0092 4FF0FF31 		mov	r1, #-1
 450 0096 2846     		mov	r0, r5
 451 0098 FFF7FEFF 		bl	chIQGetTimeout
ARM GAS  /tmp/ccVKrcSE.s 			page 9


 452              	.LVL30:
 453              	.LBE933:
 454              	.LBE932:
 455              		.loc 1 106 0
 456 009c C0B2     		uxtb	r0, r0
 457 009e FFF7FEFF 		bl	test_emit_token
 458              	.LVL31:
 459              		.loc 1 105 0
 460 00a2 013C     		subs	r4, r4, #1
 461              	.LVL32:
 462 00a4 F4D1     		bne	.L23
 463              	.LVL33:
 464              	.LBB934:
 465              	.LBB935:
 466              	.LBB936:
 467              	.LBB937:
 468              		.loc 2 546 0
 469 00a6 2026     		movs	r6, #32
 470              		.syntax unified
 471              	@ 546 "../../os/ext/CMSIS/include/core_cmFunc.h" 1
 472 00a8 86F31188 		MSR basepri, r6
 473              	@ 0 "" 2
 474              	.LVL34:
 475              		.thumb
 476              		.syntax unified
 477              	.LBE937:
 478              	.LBE936:
 479              	.LBE935:
 480              	.LBE934:
 481              		.loc 1 107 0
 482 00ac A968     		ldr	r1, [r5, #8]
 483 00ae B1FA81F1 		clz	r1, r1
 484 00b2 4909     		lsrs	r1, r1, #5
 485 00b4 0420     		movs	r0, #4
 486 00b6 FFF7FEFF 		bl	_test_assert
 487              	.LVL35:
 488 00ba 48B1     		cbz	r0, .L43
 489              	.LVL36:
 490              	.L40:
 491              	.LBB938:
 492              	.LBB939:
 493              	.LBB940:
 494              	.LBB941:
 495              	.LBB942:
 496              		.loc 2 546 0
 497              		.syntax unified
 498              	@ 546 "../../os/ext/CMSIS/include/core_cmFunc.h" 1
 499 00bc 84F31188 		MSR basepri, r4
 500              	@ 0 "" 2
 501              		.thumb
 502              		.syntax unified
 503              	.LBE942:
 504              	.LBE941:
 505              	.LBE940:
 506              	.LBE939:
 507              	.LBE938:
 508              	.LBE917:
ARM GAS  /tmp/ccVKrcSE.s 			page 10


 509              	.LBE916:
 510              		.loc 1 146 0
 511 00c0 02B0     		add	sp, sp, #8
 512              		.cfi_remember_state
 513              		.cfi_def_cfa_offset 24
 514              		@ sp needed
 515 00c2 BDE8F081 		pop	{r4, r5, r6, r7, r8, pc}
 516              	.LVL37:
 517              	.L42:
 518              		.cfi_restore_state
 519              	.LBB1024:
 520              	.LBB910:
 521              		.loc 3 324 0
 522 00c6 AE68     		ldr	r6, [r5, #8]
 523 00c8 0036     		adds	r6, r6, #0
 524 00ca 18BF     		it	ne
 525 00cc 0126     		movne	r6, #1
 526 00ce BFE7     		b	.L20
 527              	.LVL38:
 528              	.L43:
 529              	.LBE910:
 530              	.LBE1024:
 531              	.LBB1025:
 532              	.LBB1022:
 533              	.LBB943:
 534              	.LBB944:
 535              	.LBB945:
 536              	.LBB946:
 537              	.LBB947:
 538              		.loc 2 546 0
 539              		.syntax unified
 540              	@ 546 "../../os/ext/CMSIS/include/core_cmFunc.h" 1
 541 00d0 84F31188 		MSR basepri, r4
 542              	@ 0 "" 2
 543              		.thumb
 544              		.syntax unified
 545              	.LBE947:
 546              	.LBE946:
 547              	.LBE945:
 548              	.LBE944:
 549              	.LBE943:
 550              		.loc 1 108 0
 551 00d4 5F49     		ldr	r1, .L45+4
 552 00d6 0520     		movs	r0, #5
 553 00d8 FFF7FEFF 		bl	_test_assert_sequence
 554              	.LVL39:
 555 00dc 0028     		cmp	r0, #0
 556 00de C0D1     		bne	.L16
 557              	.LVL40:
 558              	.LBB948:
 559              	.LBB949:
 560              	.LBB950:
 561              	.LBB951:
 562              		.loc 2 546 0
 563              		.syntax unified
 564              	@ 546 "../../os/ext/CMSIS/include/core_cmFunc.h" 1
 565 00e0 86F31188 		MSR basepri, r6
ARM GAS  /tmp/ccVKrcSE.s 			page 11


 566              	@ 0 "" 2
 567              	.LVL41:
 568              		.thumb
 569              		.syntax unified
 570 00e4 4124     		movs	r4, #65
 571              	.LVL42:
 572              	.L26:
 573              	.LBE951:
 574              	.LBE950:
 575              	.LBE949:
 576              	.LBE948:
 577              		.loc 1 113 0
 578 00e6 5A4D     		ldr	r5, .L45
 579 00e8 2146     		mov	r1, r4
 580 00ea 0134     		adds	r4, r4, #1
 581 00ec 2846     		mov	r0, r5
 582 00ee E4B2     		uxtb	r4, r4
 583 00f0 FFF7FEFF 		bl	chIQPutI
 584              	.LVL43:
 585              		.loc 1 112 0
 586 00f4 452C     		cmp	r4, #69
 587 00f6 F6D1     		bne	.L26
 588              	.LVL44:
 589              	.LBB952:
 590              	.LBB953:
 591              	.LBB954:
 592              	.LBB955:
 593              	.LBB956:
 594              		.loc 2 546 0
 595 00f8 0023     		movs	r3, #0
 596              		.syntax unified
 597              	@ 546 "../../os/ext/CMSIS/include/core_cmFunc.h" 1
 598 00fa 83F31188 		MSR basepri, r3
 599              	@ 0 "" 2
 600              		.thumb
 601              		.syntax unified
 602              	.LBE956:
 603              	.LBE955:
 604              	.LBE954:
 605              	.LBE953:
 606              	.LBE952:
 607              		.loc 1 117 0
 608 00fe 564E     		ldr	r6, .L45+8
 609 0100 0822     		movs	r2, #8
 610 0102 7168     		ldr	r1, [r6, #4]
 611 0104 2846     		mov	r0, r5
 612 0106 FFF7FEFF 		bl	chIQReadTimeout
 613              	.LVL45:
 614              		.loc 1 118 0
 615 010a A0F10401 		sub	r1, r0, #4
 616 010e B1FA81F1 		clz	r1, r1
 617 0112 4909     		lsrs	r1, r1, #5
 618 0114 0620     		movs	r0, #6
 619              	.LVL46:
 620 0116 FFF7FEFF 		bl	_test_assert
 621              	.LVL47:
 622 011a 0446     		mov	r4, r0
ARM GAS  /tmp/ccVKrcSE.s 			page 12


 623 011c 0028     		cmp	r0, #0
 624 011e A0D1     		bne	.L16
 625              	.LVL48:
 626              	.LBB957:
 627              	.LBB958:
 628              	.LBB959:
 629              	.LBB960:
 630              		.loc 2 546 0
 631 0120 2027     		movs	r7, #32
 632              		.syntax unified
 633              	@ 546 "../../os/ext/CMSIS/include/core_cmFunc.h" 1
 634 0122 87F31188 		MSR basepri, r7
 635              	@ 0 "" 2
 636              	.LVL49:
 637              		.thumb
 638              		.syntax unified
 639              	.LBE960:
 640              	.LBE959:
 641              	.LBE958:
 642              	.LBE957:
 643              		.loc 1 119 0
 644 0126 A968     		ldr	r1, [r5, #8]
 645 0128 B1FA81F1 		clz	r1, r1
 646 012c 4909     		lsrs	r1, r1, #5
 647 012e 0720     		movs	r0, #7
 648 0130 FFF7FEFF 		bl	_test_assert
 649              	.LVL50:
 650 0134 0028     		cmp	r0, #0
 651 0136 C1D1     		bne	.L40
 652              	.LVL51:
 653              	.LBB961:
 654              	.LBB962:
 655              	.LBB963:
 656              	.LBB964:
 657              	.LBB965:
 658              		.loc 2 546 0
 659              		.syntax unified
 660              	@ 546 "../../os/ext/CMSIS/include/core_cmFunc.h" 1
 661 0138 80F31188 		MSR basepri, r0
 662              	@ 0 "" 2
 663              	.LVL52:
 664              		.thumb
 665              		.syntax unified
 666              	.LBE965:
 667              	.LBE964:
 668              	.LBE963:
 669              	.LBE962:
 670              	.LBE961:
 671              	.LBB966:
 672              	.LBB967:
 673              	.LBB968:
 674              	.LBB969:
 675              		.syntax unified
 676              	@ 546 "../../os/ext/CMSIS/include/core_cmFunc.h" 1
 677 013c 87F31188 		MSR basepri, r7
 678              	@ 0 "" 2
 679              	.LVL53:
ARM GAS  /tmp/ccVKrcSE.s 			page 13


 680              		.thumb
 681              		.syntax unified
 682 0140 4124     		movs	r4, #65
 683              	.LVL54:
 684              	.L29:
 685              	.LBE969:
 686              	.LBE968:
 687              	.LBE967:
 688              	.LBE966:
 689              		.loc 1 124 0
 690 0142 434D     		ldr	r5, .L45
 691 0144 2146     		mov	r1, r4
 692 0146 0134     		adds	r4, r4, #1
 693 0148 2846     		mov	r0, r5
 694 014a E4B2     		uxtb	r4, r4
 695 014c FFF7FEFF 		bl	chIQPutI
 696              	.LVL55:
 697              		.loc 1 123 0
 698 0150 452C     		cmp	r4, #69
 699 0152 F6D1     		bne	.L29
 700              	.LVL56:
 701              	.LBB970:
 702              	.LBB971:
 703              	.LBB972:
 704              	.LBB973:
 705              	.LBB974:
 706              		.loc 2 546 0
 707 0154 0023     		movs	r3, #0
 708              		.syntax unified
 709              	@ 546 "../../os/ext/CMSIS/include/core_cmFunc.h" 1
 710 0156 83F31188 		MSR basepri, r3
 711              	@ 0 "" 2
 712              		.thumb
 713              		.syntax unified
 714              	.LBE974:
 715              	.LBE973:
 716              	.LBE972:
 717              	.LBE971:
 718              	.LBE970:
 719              		.loc 1 128 0
 720 015a 7468     		ldr	r4, [r6, #4]
 721 015c DFF8F880 		ldr	r8, .L45+8
 722 0160 2146     		mov	r1, r4
 723 0162 2846     		mov	r0, r5
 724 0164 0222     		movs	r2, #2
 725 0166 FFF7FEFF 		bl	chIQReadTimeout
 726              	.LVL57:
 727              		.loc 1 129 0
 728 016a A0F10201 		sub	r1, r0, #2
 729 016e B1FA81F1 		clz	r1, r1
 730 0172 4909     		lsrs	r1, r1, #5
 731 0174 0820     		movs	r0, #8
 732              	.LVL58:
 733 0176 FFF7FEFF 		bl	_test_assert
 734              	.LVL59:
 735 017a 0028     		cmp	r0, #0
 736 017c 7FF471AF 		bne	.L16
ARM GAS  /tmp/ccVKrcSE.s 			page 14


 737              		.loc 1 130 0
 738 0180 0346     		mov	r3, r0
 739 0182 2146     		mov	r1, r4
 740 0184 0222     		movs	r2, #2
 741 0186 2846     		mov	r0, r5
 742 0188 FFF7FEFF 		bl	chIQReadTimeout
 743              	.LVL60:
 744              		.loc 1 131 0
 745 018c A0F10201 		sub	r1, r0, #2
 746 0190 B1FA81F1 		clz	r1, r1
 747 0194 4909     		lsrs	r1, r1, #5
 748 0196 0920     		movs	r0, #9
 749              	.LVL61:
 750 0198 FFF7FEFF 		bl	_test_assert
 751              	.LVL62:
 752 019c 0646     		mov	r6, r0
 753 019e 0028     		cmp	r0, #0
 754 01a0 7FF45FAF 		bne	.L16
 755              	.LVL63:
 756              	.LBB975:
 757              	.LBB976:
 758              	.LBB977:
 759              	.LBB978:
 760              		.loc 2 546 0
 761 01a4 2027     		movs	r7, #32
 762              		.syntax unified
 763              	@ 546 "../../os/ext/CMSIS/include/core_cmFunc.h" 1
 764 01a6 87F31188 		MSR basepri, r7
 765              	@ 0 "" 2
 766              	.LVL64:
 767              		.thumb
 768              		.syntax unified
 769              	.LBE978:
 770              	.LBE977:
 771              	.LBE976:
 772              	.LBE975:
 773              		.loc 1 132 0
 774 01aa A968     		ldr	r1, [r5, #8]
 775 01ac B1FA81F1 		clz	r1, r1
 776 01b0 4909     		lsrs	r1, r1, #5
 777 01b2 0A20     		movs	r0, #10
 778 01b4 FFF7FEFF 		bl	_test_assert
 779              	.LVL65:
 780 01b8 0446     		mov	r4, r0
 781 01ba 10B1     		cbz	r0, .L44
 782              	.L38:
 783              	.LVL66:
 784              	.LBB979:
 785              	.LBB980:
 786              	.LBB981:
 787              	.LBB982:
 788              	.LBB983:
 789              		.loc 2 546 0
 790              		.syntax unified
 791              	@ 546 "../../os/ext/CMSIS/include/core_cmFunc.h" 1
 792 01bc 86F31188 		MSR basepri, r6
 793              	@ 0 "" 2
ARM GAS  /tmp/ccVKrcSE.s 			page 15


 794              		.thumb
 795              		.syntax unified
 796 01c0 4FE7     		b	.L16
 797              	.LVL67:
 798              	.L44:
 799              	.LBE983:
 800              	.LBE982:
 801              	.LBE981:
 802              	.LBE980:
 803              	.LBE979:
 804              	.LBB984:
 805              	.LBB985:
 806              	.LBB986:
 807              	.LBB987:
 808              	.LBB988:
 809              		.syntax unified
 810              	@ 546 "../../os/ext/CMSIS/include/core_cmFunc.h" 1
 811 01c2 80F31188 		MSR basepri, r0
 812              	@ 0 "" 2
 813              	.LVL68:
 814              		.thumb
 815              		.syntax unified
 816              	.LBE988:
 817              	.LBE987:
 818              	.LBE986:
 819              	.LBE985:
 820              	.LBE984:
 821              	.LBB989:
 822              	.LBB990:
 823              	.LBB991:
 824              	.LBB992:
 825              		.syntax unified
 826              	@ 546 "../../os/ext/CMSIS/include/core_cmFunc.h" 1
 827 01c6 87F31188 		MSR basepri, r7
 828              	@ 0 "" 2
 829              		.thumb
 830              		.syntax unified
 831              	.LBE992:
 832              	.LBE991:
 833              	.LBE990:
 834              	.LBE989:
 835              		.loc 1 136 0
 836 01ca 0146     		mov	r1, r0
 837 01cc 2846     		mov	r0, r5
 838 01ce FFF7FEFF 		bl	chIQPutI
 839              	.LVL69:
 840              		.loc 1 137 0
 841 01d2 2846     		mov	r0, r5
 842 01d4 FFF7FEFF 		bl	chIQResetI
 843              	.LVL70:
 844              	.LBB993:
 845              	.LBB994:
 846              	.LBB995:
 847              	.LBB996:
 848              	.LBB997:
 849              		.loc 2 546 0
 850              		.syntax unified
ARM GAS  /tmp/ccVKrcSE.s 			page 16


 851              	@ 546 "../../os/ext/CMSIS/include/core_cmFunc.h" 1
 852 01d8 84F31188 		MSR basepri, r4
 853              	@ 0 "" 2
 854              	.LVL71:
 855              		.thumb
 856              		.syntax unified
 857              	.LBE997:
 858              	.LBE996:
 859              	.LBE995:
 860              	.LBE994:
 861              	.LBE993:
 862              	.LBB998:
 863              	.LBB999:
 864              	.LBB1000:
 865              	.LBB1001:
 866              		.syntax unified
 867              	@ 546 "../../os/ext/CMSIS/include/core_cmFunc.h" 1
 868 01dc 87F31188 		MSR basepri, r7
 869              	@ 0 "" 2
 870              	.LVL72:
 871              		.thumb
 872              		.syntax unified
 873              	.LBE1001:
 874              	.LBE1000:
 875              	.LBE999:
 876              	.LBE998:
 877              		.loc 1 139 0
 878 01e0 A968     		ldr	r1, [r5, #8]
 879 01e2 B1FA81F1 		clz	r1, r1
 880 01e6 4909     		lsrs	r1, r1, #5
 881 01e8 0B20     		movs	r0, #11
 882 01ea FFF7FEFF 		bl	_test_assert
 883              	.LVL73:
 884 01ee 0646     		mov	r6, r0
 885 01f0 0028     		cmp	r0, #0
 886 01f2 7FF463AF 		bne	.L40
 887              	.LVL74:
 888              	.LBB1002:
 889              	.LBB1003:
 890              	.LBB1004:
 891              	.LBB1005:
 892              	.LBB1006:
 893              		.loc 2 546 0
 894              		.syntax unified
 895              	@ 546 "../../os/ext/CMSIS/include/core_cmFunc.h" 1
 896 01f6 80F31188 		MSR basepri, r0
 897              	@ 0 "" 2
 898              		.thumb
 899              		.syntax unified
 900              	.LBE1006:
 901              	.LBE1005:
 902              	.LBE1004:
 903              	.LBE1003:
 904              	.LBE1002:
 905              	.LBB1007:
 906              	.LBB1008:
 907              	.LBB1009:
ARM GAS  /tmp/ccVKrcSE.s 			page 17


 908              	.LBB1010:
 909              		.file 4 "../../os/rt/include/chthreads.h"
 910              		.loc 4 176 0
 911 01fa 184B     		ldr	r3, .L45+12
 912              	.LBE1010:
 913              	.LBE1009:
 914              	.LBE1008:
 915              	.LBE1007:
 916              		.loc 1 140 0
 917 01fc D8F80000 		ldr	r0, [r8]
 918              	.LBB1012:
 919              	.LBB1011:
 920              		.loc 4 189 0
 921 0200 9A69     		ldr	r2, [r3, #24]
 922              	.LBE1011:
 923              	.LBE1012:
 924              		.loc 1 140 0
 925 0202 174B     		ldr	r3, .L45+16
 926 0204 9268     		ldr	r2, [r2, #8]
 927 0206 0096     		str	r6, [sp]
 928 0208 0132     		adds	r2, r2, #1
 929 020a 4FF4E871 		mov	r1, #464
 930 020e FFF7FEFF 		bl	chThdCreateStatic
 931              	.LVL75:
 932 0212 144B     		ldr	r3, .L45+20
 933 0214 1860     		str	r0, [r3]
 934              	.LVL76:
 935              	.LBB1013:
 936              	.LBB1014:
 937              	.LBB1015:
 938              	.LBB1016:
 939              		.loc 2 546 0
 940              		.syntax unified
 941              	@ 546 "../../os/ext/CMSIS/include/core_cmFunc.h" 1
 942 0216 87F31188 		MSR basepri, r7
 943              	@ 0 "" 2
 944              	.LVL77:
 945              		.thumb
 946              		.syntax unified
 947              	.LBE1016:
 948              	.LBE1015:
 949              	.LBE1014:
 950              	.LBE1013:
 951              		.loc 1 141 0
 952 021a A968     		ldr	r1, [r5, #8]
 953 021c B1FA81F1 		clz	r1, r1
 954 0220 4909     		lsrs	r1, r1, #5
 955 0222 0C20     		movs	r0, #12
 956 0224 FFF7FEFF 		bl	_test_assert
 957              	.LVL78:
 958 0228 0028     		cmp	r0, #0
 959 022a C7D1     		bne	.L38
 960              	.LVL79:
 961              	.LBB1017:
 962              	.LBB1018:
 963              	.LBB1019:
 964              	.LBB1020:
ARM GAS  /tmp/ccVKrcSE.s 			page 18


 965              	.LBB1021:
 966              		.loc 2 546 0
 967              		.syntax unified
 968              	@ 546 "../../os/ext/CMSIS/include/core_cmFunc.h" 1
 969 022c 80F31188 		MSR basepri, r0
 970              	@ 0 "" 2
 971              		.thumb
 972              		.syntax unified
 973              	.LBE1021:
 974              	.LBE1020:
 975              	.LBE1019:
 976              	.LBE1018:
 977              	.LBE1017:
 978              		.loc 1 142 0
 979 0230 FFF7FEFF 		bl	test_wait_threads
 980              	.LVL80:
 981              		.loc 1 145 0
 982 0234 2846     		mov	r0, r5
 983 0236 0A21     		movs	r1, #10
 984 0238 FFF7FEFF 		bl	chIQGetTimeout
 985              	.LVL81:
 986 023c 431C     		adds	r3, r0, #1
 987 023e 5942     		rsbs	r1, r3, #0
 988 0240 5941     		adcs	r1, r1, r3
 989 0242 0D20     		movs	r0, #13
 990              	.LBE1022:
 991              	.LBE1025:
 992              		.loc 1 146 0
 993 0244 02B0     		add	sp, sp, #8
 994              		.cfi_def_cfa_offset 24
 995              		@ sp needed
 996 0246 BDE8F041 		pop	{r4, r5, r6, r7, r8, lr}
 997              		.cfi_restore 14
 998              		.cfi_restore 8
 999              		.cfi_restore 7
 1000              		.cfi_restore 6
 1001              		.cfi_restore 5
 1002              		.cfi_restore 4
 1003              		.cfi_def_cfa_offset 0
 1004              	.LBB1026:
 1005              	.LBB1023:
 1006              		.loc 1 145 0
 1007 024a FFF7FEBF 		b	_test_assert
 1008              	.LVL82:
 1009              	.L46:
 1010 024e 00BF     		.align	2
 1011              	.L45:
 1012 0250 00000000 		.word	.LANCHOR0
 1013 0254 00000000 		.word	.LC0
 1014 0258 00000000 		.word	wa
 1015 025c 00000000 		.word	ch
 1016 0260 00000000 		.word	thread1
 1017 0264 00000000 		.word	threads
 1018              	.LBE1023:
 1019              	.LBE1026:
 1020              		.cfi_endproc
 1021              	.LFE232:
ARM GAS  /tmp/ccVKrcSE.s 			page 19


 1022              		.size	queues1_execute, .-queues1_execute
 1023 0268 AFF30080 		.section	.text.queues2_execute,"ax",%progbits
 1023      AFF30080 
 1024              		.align	2
 1025              		.p2align 4,,15
 1026              		.thumb
 1027              		.thumb_func
 1028              		.type	queues2_execute, %function
 1029              	queues2_execute:
 1030              	.LFB235:
 1031              		.loc 1 175 0
 1032              		.cfi_startproc
 1033              		@ args = 0, pretend = 0, frame = 0
 1034              		@ frame_needed = 0, uses_anonymous_args = 0
 1035              	.LVL83:
 1036 0000 2DE9F043 		push	{r4, r5, r6, r7, r8, r9, lr}
 1037              		.cfi_def_cfa_offset 28
 1038              		.cfi_offset 4, -28
 1039              		.cfi_offset 5, -24
 1040              		.cfi_offset 6, -20
 1041              		.cfi_offset 7, -16
 1042              		.cfi_offset 8, -12
 1043              		.cfi_offset 9, -8
 1044              		.cfi_offset 14, -4
 1045              	.LBB1209:
 1046              	.LBB1210:
 1047              	.LBB1211:
 1048              	.LBB1212:
 1049              		.loc 2 546 0
 1050 0004 2023     		movs	r3, #32
 1051              	.LBE1212:
 1052              	.LBE1211:
 1053              	.LBE1210:
 1054              	.LBE1209:
 1055              		.loc 1 175 0
 1056 0006 83B0     		sub	sp, sp, #12
 1057              		.cfi_def_cfa_offset 40
 1058              	.LBB1216:
 1059              	.LBB1215:
 1060              	.LBB1214:
 1061              	.LBB1213:
 1062              		.loc 2 546 0
 1063              		.syntax unified
 1064              	@ 546 "../../os/ext/CMSIS/include/core_cmFunc.h" 1
 1065 0008 83F31188 		MSR basepri, r3
 1066              	@ 0 "" 2
 1067              	.LVL84:
 1068              		.thumb
 1069              		.syntax unified
 1070              	.LBE1213:
 1071              	.LBE1214:
 1072              	.LBE1215:
 1073              	.LBE1216:
 1074              	.LBB1217:
 1075              	.LBB1218:
 1076              		.loc 3 390 0
 1077 000c 854B     		ldr	r3, .L72
ARM GAS  /tmp/ccVKrcSE.s 			page 20


 1078 000e 9969     		ldr	r1, [r3, #24]
 1079 0010 5A69     		ldr	r2, [r3, #20]
 1080 0012 9142     		cmp	r1, r2
 1081 0014 5DD0     		beq	.L69
 1082 0016 0021     		movs	r1, #0
 1083              	.L48:
 1084              	.LBE1218:
 1085              	.LBE1217:
 1086              		.loc 1 180 0
 1087 0018 0120     		movs	r0, #1
 1088 001a FFF7FEFF 		bl	_test_assert
 1089              	.LVL85:
 1090 001e B8BB     		cbnz	r0, .L68
 1091              	.LVL86:
 1092              	.LBB1220:
 1093              	.LBB1221:
 1094              	.LBB1222:
 1095              	.LBB1223:
 1096              	.LBB1224:
 1097              		.loc 2 546 0
 1098              		.syntax unified
 1099              	@ 546 "../../os/ext/CMSIS/include/core_cmFunc.h" 1
 1100 0020 80F31188 		MSR basepri, r0
 1101              	@ 0 "" 2
 1102              	.LVL87:
 1103              		.thumb
 1104              		.syntax unified
 1105 0024 4124     		movs	r4, #65
 1106              	.LVL88:
 1107              	.L51:
 1108              	.LBE1224:
 1109              	.LBE1223:
 1110              	.LBE1222:
 1111              	.LBE1221:
 1112              	.LBE1220:
 1113              	.LBB1225:
 1114              	.LBB1226:
 1115              		.loc 3 426 0 discriminator 3
 1116 0026 7F4D     		ldr	r5, .L72
 1117 0028 2146     		mov	r1, r4
 1118 002a 0134     		adds	r4, r4, #1
 1119              	.LVL89:
 1120 002c 4FF0FF32 		mov	r2, #-1
 1121 0030 2846     		mov	r0, r5
 1122 0032 E4B2     		uxtb	r4, r4
 1123 0034 FFF7FEFF 		bl	chOQPutTimeout
 1124              	.LVL90:
 1125              	.LBE1226:
 1126              	.LBE1225:
 1127              		.loc 1 183 0 discriminator 3
 1128 0038 452C     		cmp	r4, #69
 1129 003a F4D1     		bne	.L51
 1130              	.LVL91:
 1131              	.LBB1227:
 1132              	.LBB1228:
 1133              	.LBB1229:
 1134              	.LBB1230:
ARM GAS  /tmp/ccVKrcSE.s 			page 21


 1135              		.loc 2 546 0
 1136 003c 2026     		movs	r6, #32
 1137              		.syntax unified
 1138              	@ 546 "../../os/ext/CMSIS/include/core_cmFunc.h" 1
 1139 003e 86F31188 		MSR basepri, r6
 1140              	@ 0 "" 2
 1141              	.LVL92:
 1142              		.thumb
 1143              		.syntax unified
 1144              	.LBE1230:
 1145              	.LBE1229:
 1146              	.LBE1228:
 1147              	.LBE1227:
 1148              		.loc 1 185 0
 1149 0042 A968     		ldr	r1, [r5, #8]
 1150 0044 B1FA81F1 		clz	r1, r1
 1151 0048 4909     		lsrs	r1, r1, #5
 1152 004a 0220     		movs	r0, #2
 1153 004c FFF7FEFF 		bl	_test_assert
 1154              	.LVL93:
 1155 0050 0746     		mov	r7, r0
 1156 0052 E8B9     		cbnz	r0, .L68
 1157              	.LVL94:
 1158              	.LBB1231:
 1159              	.LBB1232:
 1160              	.LBB1233:
 1161              	.LBB1234:
 1162              	.LBB1235:
 1163              	.LBB1236:
 1164              	.LBB1237:
 1165              		.loc 2 546 0
 1166              		.syntax unified
 1167              	@ 546 "../../os/ext/CMSIS/include/core_cmFunc.h" 1
 1168 0054 80F31188 		MSR basepri, r0
 1169              	@ 0 "" 2
 1170              	.LVL95:
 1171              		.thumb
 1172              		.syntax unified
 1173 0058 0424     		movs	r4, #4
 1174              	.LBE1237:
 1175              	.LBE1236:
 1176              	.LBE1235:
 1177              	.LBE1234:
 1178              	.LBE1233:
 1179              	.LBB1238:
 1180              	.LBB1239:
 1181              	.LBB1240:
 1182              	.LBB1241:
 1183              	.LBB1242:
 1184              	.LBB1243:
 1185 005a 8146     		mov	r9, r0
 1186              	.LVL96:
 1187              	.L53:
 1188              	.LBE1243:
 1189              	.LBE1242:
 1190              	.LBE1241:
 1191              	.LBE1240:
ARM GAS  /tmp/ccVKrcSE.s 			page 22


 1192              	.LBE1239:
 1193              	.LBB1248:
 1194              	.LBB1249:
 1195              	.LBB1250:
 1196              	.LBB1251:
 1197 005c 4FF02008 		mov	r8, #32
 1198              		.syntax unified
 1199              	@ 546 "../../os/ext/CMSIS/include/core_cmFunc.h" 1
 1200 0060 86F31188 		MSR basepri, r6
 1201              	@ 0 "" 2
 1202              		.thumb
 1203              		.syntax unified
 1204              	.LBE1251:
 1205              	.LBE1250:
 1206              	.LBE1249:
 1207              	.LBE1248:
 1208              		.loc 1 192 0
 1209 0064 6F4D     		ldr	r5, .L72
 1210 0066 2846     		mov	r0, r5
 1211 0068 FFF7FEFF 		bl	chOQGetI
 1212              	.LVL97:
 1213              	.LBB1252:
 1214              	.LBB1247:
 1215              	.LBB1246:
 1216              	.LBB1245:
 1217              	.LBB1244:
 1218              		.loc 2 546 0
 1219              		.syntax unified
 1220              	@ 546 "../../os/ext/CMSIS/include/core_cmFunc.h" 1
 1221 006c 89F31188 		MSR basepri, r9
 1222              	@ 0 "" 2
 1223              		.thumb
 1224              		.syntax unified
 1225              	.LBE1244:
 1226              	.LBE1245:
 1227              	.LBE1246:
 1228              	.LBE1247:
 1229              	.LBE1252:
 1230              		.loc 1 194 0
 1231 0070 C0B2     		uxtb	r0, r0
 1232 0072 FFF7FEFF 		bl	test_emit_token
 1233              	.LVL98:
 1234              	.LBE1238:
 1235              		.loc 1 188 0
 1236 0076 013C     		subs	r4, r4, #1
 1237              	.LVL99:
 1238 0078 F0D1     		bne	.L53
 1239              	.LVL100:
 1240              	.LBB1253:
 1241              	.LBB1254:
 1242              	.LBB1255:
 1243              	.LBB1256:
 1244              		.loc 2 546 0
 1245              		.syntax unified
 1246              	@ 546 "../../os/ext/CMSIS/include/core_cmFunc.h" 1
 1247 007a 88F31188 		MSR basepri, r8
 1248              	@ 0 "" 2
ARM GAS  /tmp/ccVKrcSE.s 			page 23


 1249              	.LVL101:
 1250              		.thumb
 1251              		.syntax unified
 1252              	.LBE1256:
 1253              	.LBE1255:
 1254              	.LBE1254:
 1255              	.LBE1253:
 1256              	.LBB1257:
 1257              	.LBB1258:
 1258              		.loc 3 390 0
 1259 007e 6A69     		ldr	r2, [r5, #20]
 1260 0080 AB69     		ldr	r3, [r5, #24]
 1261 0082 9A42     		cmp	r2, r3
 1262 0084 2AD0     		beq	.L70
 1263              	.L54:
 1264              	.LBE1258:
 1265              	.LBE1257:
 1266              		.loc 1 196 0
 1267 0086 3946     		mov	r1, r7
 1268 0088 0320     		movs	r0, #3
 1269 008a FFF7FEFF 		bl	_test_assert
 1270              	.LVL102:
 1271 008e 28B1     		cbz	r0, .L71
 1272              	.LVL103:
 1273              	.L68:
 1274              	.LBB1260:
 1275              	.LBB1261:
 1276              	.LBB1262:
 1277              	.LBB1263:
 1278              	.LBB1264:
 1279              		.loc 2 546 0
 1280 0090 0023     		movs	r3, #0
 1281              		.syntax unified
 1282              	@ 546 "../../os/ext/CMSIS/include/core_cmFunc.h" 1
 1283 0092 83F31188 		MSR basepri, r3
 1284              	@ 0 "" 2
 1285              	.LVL104:
 1286              		.thumb
 1287              		.syntax unified
 1288              	.L47:
 1289              	.LBE1264:
 1290              	.LBE1263:
 1291              	.LBE1262:
 1292              	.LBE1261:
 1293              	.LBE1260:
 1294              	.LBE1232:
 1295              	.LBE1231:
 1296              		.loc 1 223 0
 1297 0096 03B0     		add	sp, sp, #12
 1298              		.cfi_remember_state
 1299              		.cfi_def_cfa_offset 28
 1300              		@ sp needed
 1301 0098 BDE8F083 		pop	{r4, r5, r6, r7, r8, r9, pc}
 1302              	.LVL105:
 1303              	.L71:
 1304              		.cfi_restore_state
 1305              	.LBB1354:
ARM GAS  /tmp/ccVKrcSE.s 			page 24


 1306              	.LBB1351:
 1307              	.LBB1265:
 1308              	.LBB1266:
 1309              	.LBB1267:
 1310              	.LBB1268:
 1311              	.LBB1269:
 1312              		.loc 2 546 0
 1313              		.syntax unified
 1314              	@ 546 "../../os/ext/CMSIS/include/core_cmFunc.h" 1
 1315 009c 80F31188 		MSR basepri, r0
 1316              	@ 0 "" 2
 1317              		.thumb
 1318              		.syntax unified
 1319              	.LBE1269:
 1320              	.LBE1268:
 1321              	.LBE1267:
 1322              	.LBE1266:
 1323              	.LBE1265:
 1324              		.loc 1 197 0
 1325 00a0 6149     		ldr	r1, .L72+4
 1326 00a2 0420     		movs	r0, #4
 1327 00a4 FFF7FEFF 		bl	_test_assert_sequence
 1328              	.LVL106:
 1329 00a8 0446     		mov	r4, r0
 1330              	.LVL107:
 1331 00aa 0028     		cmp	r0, #0
 1332 00ac F3D1     		bne	.L47
 1333              	.LVL108:
 1334              	.LBB1270:
 1335              	.LBB1271:
 1336              	.LBB1272:
 1337              	.LBB1273:
 1338              		.loc 2 546 0
 1339 00ae 2026     		movs	r6, #32
 1340              		.syntax unified
 1341              	@ 546 "../../os/ext/CMSIS/include/core_cmFunc.h" 1
 1342 00b0 86F31188 		MSR basepri, r6
 1343              	@ 0 "" 2
 1344              		.thumb
 1345              		.syntax unified
 1346              	.LBE1273:
 1347              	.LBE1272:
 1348              	.LBE1271:
 1349              	.LBE1270:
 1350              		.loc 1 198 0
 1351 00b4 5B4D     		ldr	r5, .L72
 1352 00b6 2846     		mov	r0, r5
 1353 00b8 FFF7FEFF 		bl	chOQGetI
 1354              	.LVL109:
 1355 00bc 0330     		adds	r0, r0, #3
 1356 00be 14BF     		ite	ne
 1357 00c0 0021     		movne	r1, #0
 1358 00c2 0121     		moveq	r1, #1
 1359 00c4 0520     		movs	r0, #5
 1360 00c6 FFF7FEFF 		bl	_test_assert
 1361              	.LVL110:
 1362 00ca 60B1     		cbz	r0, .L57
ARM GAS  /tmp/ccVKrcSE.s 			page 25


 1363              	.LVL111:
 1364              	.LBB1274:
 1365              	.LBB1275:
 1366              	.LBB1276:
 1367              	.LBB1277:
 1368              	.LBB1278:
 1369              		.loc 2 546 0
 1370              		.syntax unified
 1371              	@ 546 "../../os/ext/CMSIS/include/core_cmFunc.h" 1
 1372 00cc 84F31188 		MSR basepri, r4
 1373              	@ 0 "" 2
 1374              		.thumb
 1375              		.syntax unified
 1376 00d0 E1E7     		b	.L47
 1377              	.LVL112:
 1378              	.L69:
 1379              	.LBE1278:
 1380              	.LBE1277:
 1381              	.LBE1276:
 1382              	.LBE1275:
 1383              	.LBE1274:
 1384              	.LBE1351:
 1385              	.LBE1354:
 1386              	.LBB1355:
 1387              	.LBB1219:
 1388              		.loc 3 390 0
 1389 00d2 9968     		ldr	r1, [r3, #8]
 1390 00d4 0031     		adds	r1, r1, #0
 1391 00d6 18BF     		it	ne
 1392 00d8 0121     		movne	r1, #1
 1393 00da 9DE7     		b	.L48
 1394              	.LVL113:
 1395              	.L70:
 1396              	.LBE1219:
 1397              	.LBE1355:
 1398              	.LBB1356:
 1399              	.LBB1352:
 1400              	.LBB1279:
 1401              	.LBB1259:
 1402 00dc AF68     		ldr	r7, [r5, #8]
 1403 00de 0037     		adds	r7, r7, #0
 1404 00e0 18BF     		it	ne
 1405 00e2 0127     		movne	r7, #1
 1406 00e4 CFE7     		b	.L54
 1407              	.LVL114:
 1408              	.L57:
 1409              	.LBE1259:
 1410              	.LBE1279:
 1411              	.LBB1280:
 1412              	.LBB1281:
 1413              	.LBB1282:
 1414              	.LBB1283:
 1415              	.LBB1284:
 1416              		.loc 2 546 0
 1417              		.syntax unified
 1418              	@ 546 "../../os/ext/CMSIS/include/core_cmFunc.h" 1
 1419 00e6 80F31188 		MSR basepri, r0
ARM GAS  /tmp/ccVKrcSE.s 			page 26


 1420              	@ 0 "" 2
 1421              		.thumb
 1422              		.syntax unified
 1423              	.LBE1284:
 1424              	.LBE1283:
 1425              	.LBE1282:
 1426              	.LBE1281:
 1427              	.LBE1280:
 1428              		.loc 1 201 0
 1429 00ea 504F     		ldr	r7, .L72+8
 1430 00ec 7C68     		ldr	r4, [r7, #4]
 1431 00ee 0346     		mov	r3, r0
 1432 00f0 2146     		mov	r1, r4
 1433 00f2 0822     		movs	r2, #8
 1434 00f4 2846     		mov	r0, r5
 1435 00f6 FFF7FEFF 		bl	chOQWriteTimeout
 1436              	.LVL115:
 1437              		.loc 1 202 0
 1438 00fa A0F10401 		sub	r1, r0, #4
 1439 00fe B1FA81F1 		clz	r1, r1
 1440 0102 4909     		lsrs	r1, r1, #5
 1441 0104 0620     		movs	r0, #6
 1442              	.LVL116:
 1443 0106 FFF7FEFF 		bl	_test_assert
 1444              	.LVL117:
 1445 010a 8046     		mov	r8, r0
 1446 010c 0028     		cmp	r0, #0
 1447 010e C2D1     		bne	.L47
 1448              	.LVL118:
 1449              	.LBB1285:
 1450              	.LBB1286:
 1451              	.LBB1287:
 1452              	.LBB1288:
 1453              		.loc 2 546 0
 1454              		.syntax unified
 1455              	@ 546 "../../os/ext/CMSIS/include/core_cmFunc.h" 1
 1456 0110 86F31188 		MSR basepri, r6
 1457              	@ 0 "" 2
 1458              	.LVL119:
 1459              		.thumb
 1460              		.syntax unified
 1461              	.LBE1288:
 1462              	.LBE1287:
 1463              	.LBE1286:
 1464              	.LBE1285:
 1465              		.loc 1 203 0
 1466 0114 A968     		ldr	r1, [r5, #8]
 1467 0116 B1FA81F1 		clz	r1, r1
 1468 011a 4909     		lsrs	r1, r1, #5
 1469 011c 0720     		movs	r0, #7
 1470 011e FFF7FEFF 		bl	_test_assert
 1471              	.LVL120:
 1472 0122 8146     		mov	r9, r0
 1473 0124 10B1     		cbz	r0, .L59
 1474              	.LVL121:
 1475              	.LBB1289:
 1476              	.LBB1290:
ARM GAS  /tmp/ccVKrcSE.s 			page 27


 1477              	.LBB1291:
 1478              	.LBB1292:
 1479              	.LBB1293:
 1480              		.loc 2 546 0
 1481              		.syntax unified
 1482              	@ 546 "../../os/ext/CMSIS/include/core_cmFunc.h" 1
 1483 0126 88F31188 		MSR basepri, r8
 1484              	@ 0 "" 2
 1485              		.thumb
 1486              		.syntax unified
 1487 012a B4E7     		b	.L47
 1488              	.LVL122:
 1489              	.L59:
 1490              	.LBE1293:
 1491              	.LBE1292:
 1492              	.LBE1291:
 1493              	.LBE1290:
 1494              	.LBE1289:
 1495              	.LBB1294:
 1496              	.LBB1295:
 1497              	.LBB1296:
 1498              	.LBB1297:
 1499              	.LBB1298:
 1500              		.syntax unified
 1501              	@ 546 "../../os/ext/CMSIS/include/core_cmFunc.h" 1
 1502 012c 80F31188 		MSR basepri, r0
 1503              	@ 0 "" 2
 1504              		.thumb
 1505              		.syntax unified
 1506              	.LBE1298:
 1507              	.LBE1297:
 1508              	.LBE1296:
 1509              	.LBE1295:
 1510              	.LBE1294:
 1511              	.LBB1299:
 1512              	.LBB1300:
 1513              	.LBB1301:
 1514              	.LBB1302:
 1515              		.loc 4 176 0
 1516 0130 3F4B     		ldr	r3, .L72+12
 1517              	.LBE1302:
 1518              	.LBE1301:
 1519              	.LBE1300:
 1520              	.LBE1299:
 1521              		.loc 1 204 0
 1522 0132 3868     		ldr	r0, [r7]
 1523              	.LBB1304:
 1524              	.LBB1303:
 1525              		.loc 4 189 0
 1526 0134 9A69     		ldr	r2, [r3, #24]
 1527              	.LBE1303:
 1528              	.LBE1304:
 1529              		.loc 1 204 0
 1530 0136 3F4B     		ldr	r3, .L72+16
 1531 0138 9268     		ldr	r2, [r2, #8]
 1532 013a CDF80090 		str	r9, [sp]
 1533 013e 0132     		adds	r2, r2, #1
ARM GAS  /tmp/ccVKrcSE.s 			page 28


 1534 0140 4FF4E871 		mov	r1, #464
 1535 0144 FFF7FEFF 		bl	chThdCreateStatic
 1536              	.LVL123:
 1537 0148 3B4B     		ldr	r3, .L72+20
 1538 014a 1860     		str	r0, [r3]
 1539              	.LVL124:
 1540              	.LBB1305:
 1541              	.LBB1306:
 1542              	.LBB1307:
 1543              	.LBB1308:
 1544              		.loc 2 546 0
 1545              		.syntax unified
 1546              	@ 546 "../../os/ext/CMSIS/include/core_cmFunc.h" 1
 1547 014c 86F31188 		MSR basepri, r6
 1548              	@ 0 "" 2
 1549              	.LVL125:
 1550              		.thumb
 1551              		.syntax unified
 1552              	.LBE1308:
 1553              	.LBE1307:
 1554              	.LBE1306:
 1555              	.LBE1305:
 1556              		.loc 1 205 0
 1557 0150 E968     		ldr	r1, [r5, #12]
 1558 0152 2B69     		ldr	r3, [r5, #16]
 1559 0154 AA68     		ldr	r2, [r5, #8]
 1560 0156 5B1A     		subs	r3, r3, r1
 1561 0158 991A     		subs	r1, r3, r2
 1562 015a A1F10401 		sub	r1, #4
 1563 015e B1FA81F1 		clz	r1, r1
 1564 0162 4909     		lsrs	r1, r1, #5
 1565 0164 0820     		movs	r0, #8
 1566 0166 FFF7FEFF 		bl	_test_assert
 1567              	.LVL126:
 1568 016a 0746     		mov	r7, r0
 1569 016c 10B1     		cbz	r0, .L60
 1570              	.LVL127:
 1571              	.LBB1309:
 1572              	.LBB1310:
 1573              	.LBB1311:
 1574              	.LBB1312:
 1575              	.LBB1313:
 1576              		.loc 2 546 0
 1577              		.syntax unified
 1578              	@ 546 "../../os/ext/CMSIS/include/core_cmFunc.h" 1
 1579 016e 89F31188 		MSR basepri, r9
 1580              	@ 0 "" 2
 1581              		.thumb
 1582              		.syntax unified
 1583 0172 90E7     		b	.L47
 1584              	.LVL128:
 1585              	.L60:
 1586              	.LBE1313:
 1587              	.LBE1312:
 1588              	.LBE1311:
 1589              	.LBE1310:
 1590              	.LBE1309:
ARM GAS  /tmp/ccVKrcSE.s 			page 29


 1591              	.LBB1314:
 1592              	.LBB1315:
 1593              	.LBB1316:
 1594              	.LBB1317:
 1595              	.LBB1318:
 1596              		.syntax unified
 1597              	@ 546 "../../os/ext/CMSIS/include/core_cmFunc.h" 1
 1598 0174 80F31188 		MSR basepri, r0
 1599              	@ 0 "" 2
 1600              		.thumb
 1601              		.syntax unified
 1602              	.LBE1318:
 1603              	.LBE1317:
 1604              	.LBE1316:
 1605              	.LBE1315:
 1606              	.LBE1314:
 1607              		.loc 1 206 0
 1608 0178 FFF7FEFF 		bl	test_wait_threads
 1609              	.LVL129:
 1610              	.LBB1319:
 1611              	.LBB1320:
 1612              	.LBB1321:
 1613              	.LBB1322:
 1614              		.loc 2 546 0
 1615              		.syntax unified
 1616              	@ 546 "../../os/ext/CMSIS/include/core_cmFunc.h" 1
 1617 017c 86F31188 		MSR basepri, r6
 1618              	@ 0 "" 2
 1619              		.thumb
 1620              		.syntax unified
 1621              	.LBE1322:
 1622              	.LBE1321:
 1623              	.LBE1320:
 1624              	.LBE1319:
 1625              		.loc 1 210 0
 1626 0180 2846     		mov	r0, r5
 1627 0182 FFF7FEFF 		bl	chOQResetI
 1628              	.LVL130:
 1629              	.LBB1323:
 1630              	.LBB1324:
 1631              	.LBB1325:
 1632              	.LBB1326:
 1633              	.LBB1327:
 1634              		.loc 2 546 0
 1635              		.syntax unified
 1636              	@ 546 "../../os/ext/CMSIS/include/core_cmFunc.h" 1
 1637 0186 87F31188 		MSR basepri, r7
 1638              	@ 0 "" 2
 1639              	.LVL131:
 1640              		.thumb
 1641              		.syntax unified
 1642              	.LBE1327:
 1643              	.LBE1326:
 1644              	.LBE1325:
 1645              	.LBE1324:
 1646              	.LBE1323:
 1647              	.LBB1328:
ARM GAS  /tmp/ccVKrcSE.s 			page 30


 1648              	.LBB1329:
 1649              	.LBB1330:
 1650              	.LBB1331:
 1651              		.syntax unified
 1652              	@ 546 "../../os/ext/CMSIS/include/core_cmFunc.h" 1
 1653 018a 86F31188 		MSR basepri, r6
 1654              	@ 0 "" 2
 1655              	.LVL132:
 1656              		.thumb
 1657              		.syntax unified
 1658              	.LBE1331:
 1659              	.LBE1330:
 1660              	.LBE1329:
 1661              	.LBE1328:
 1662              		.loc 1 212 0
 1663 018e 05F10801 		add	r1, r5, #8
 1664 0192 0EC9     		ldmia	r1, {r1, r2, r3}
 1665 0194 9B1A     		subs	r3, r3, r2
 1666 0196 591A     		subs	r1, r3, r1
 1667 0198 B1FA81F1 		clz	r1, r1
 1668 019c 4909     		lsrs	r1, r1, #5
 1669 019e 0920     		movs	r0, #9
 1670 01a0 FFF7FEFF 		bl	_test_assert
 1671              	.LVL133:
 1672 01a4 0346     		mov	r3, r0
 1673 01a6 10B1     		cbz	r0, .L61
 1674              	.LVL134:
 1675              	.LBB1332:
 1676              	.LBB1333:
 1677              	.LBB1334:
 1678              	.LBB1335:
 1679              	.LBB1336:
 1680              		.loc 2 546 0
 1681              		.syntax unified
 1682              	@ 546 "../../os/ext/CMSIS/include/core_cmFunc.h" 1
 1683 01a8 87F31188 		MSR basepri, r7
 1684              	@ 0 "" 2
 1685              		.thumb
 1686              		.syntax unified
 1687 01ac 73E7     		b	.L47
 1688              	.LVL135:
 1689              	.L61:
 1690              	.LBE1336:
 1691              	.LBE1335:
 1692              	.LBE1334:
 1693              	.LBE1333:
 1694              	.LBE1332:
 1695              	.LBB1337:
 1696              	.LBB1338:
 1697              	.LBB1339:
 1698              	.LBB1340:
 1699              	.LBB1341:
 1700              		.syntax unified
 1701              	@ 546 "../../os/ext/CMSIS/include/core_cmFunc.h" 1
 1702 01ae 80F31188 		MSR basepri, r0
 1703              	@ 0 "" 2
 1704              		.thumb
ARM GAS  /tmp/ccVKrcSE.s 			page 31


 1705              		.syntax unified
 1706              	.LBE1341:
 1707              	.LBE1340:
 1708              	.LBE1339:
 1709              	.LBE1338:
 1710              	.LBE1337:
 1711              		.loc 1 215 0
 1712 01b2 0222     		movs	r2, #2
 1713 01b4 2146     		mov	r1, r4
 1714 01b6 2846     		mov	r0, r5
 1715 01b8 FFF7FEFF 		bl	chOQWriteTimeout
 1716              	.LVL136:
 1717              		.loc 1 216 0
 1718 01bc 0238     		subs	r0, r0, #2
 1719              	.LVL137:
 1720 01be 4142     		rsbs	r1, r0, #0
 1721 01c0 4141     		adcs	r1, r1, r0
 1722 01c2 0A20     		movs	r0, #10
 1723              	.LVL138:
 1724 01c4 FFF7FEFF 		bl	_test_assert
 1725              	.LVL139:
 1726 01c8 0346     		mov	r3, r0
 1727 01ca 0028     		cmp	r0, #0
 1728 01cc 7FF463AF 		bne	.L47
 1729              		.loc 1 217 0
 1730 01d0 2146     		mov	r1, r4
 1731 01d2 0222     		movs	r2, #2
 1732 01d4 2846     		mov	r0, r5
 1733 01d6 FFF7FEFF 		bl	chOQWriteTimeout
 1734              	.LVL140:
 1735              		.loc 1 218 0
 1736 01da 821E     		subs	r2, r0, #2
 1737 01dc 5142     		rsbs	r1, r2, #0
 1738 01de 5141     		adcs	r1, r1, r2
 1739 01e0 0B20     		movs	r0, #11
 1740              	.LVL141:
 1741 01e2 FFF7FEFF 		bl	_test_assert
 1742              	.LVL142:
 1743 01e6 0028     		cmp	r0, #0
 1744 01e8 7FF455AF 		bne	.L47
 1745              	.LVL143:
 1746              	.LBB1342:
 1747              	.LBB1343:
 1748              	.LBB1344:
 1749              	.LBB1345:
 1750              		.loc 2 546 0
 1751              		.syntax unified
 1752              	@ 546 "../../os/ext/CMSIS/include/core_cmFunc.h" 1
 1753 01ec 86F31188 		MSR basepri, r6
 1754              	@ 0 "" 2
 1755              	.LVL144:
 1756              		.thumb
 1757              		.syntax unified
 1758              	.LBE1345:
 1759              	.LBE1344:
 1760              	.LBE1343:
 1761              	.LBE1342:
ARM GAS  /tmp/ccVKrcSE.s 			page 32


 1762              		.loc 1 219 0
 1763 01f0 A968     		ldr	r1, [r5, #8]
 1764 01f2 B1FA81F1 		clz	r1, r1
 1765 01f6 4909     		lsrs	r1, r1, #5
 1766 01f8 0C20     		movs	r0, #12
 1767 01fa FFF7FEFF 		bl	_test_assert
 1768              	.LVL145:
 1769 01fe 0028     		cmp	r0, #0
 1770 0200 7FF446AF 		bne	.L68
 1771              	.LVL146:
 1772              	.LBB1346:
 1773              	.LBB1347:
 1774              	.LBB1348:
 1775              	.LBB1349:
 1776              	.LBB1350:
 1777              		.loc 2 546 0
 1778 0204 0021     		movs	r1, #0
 1779              		.syntax unified
 1780              	@ 546 "../../os/ext/CMSIS/include/core_cmFunc.h" 1
 1781 0206 81F31188 		MSR basepri, r1
 1782              	@ 0 "" 2
 1783              		.thumb
 1784              		.syntax unified
 1785              	.LBE1350:
 1786              	.LBE1349:
 1787              	.LBE1348:
 1788              	.LBE1347:
 1789              	.LBE1346:
 1790              		.loc 1 222 0
 1791 020a 0A22     		movs	r2, #10
 1792 020c 0548     		ldr	r0, .L72
 1793 020e FFF7FEFF 		bl	chOQPutTimeout
 1794              	.LVL147:
 1795 0212 431C     		adds	r3, r0, #1
 1796 0214 5942     		rsbs	r1, r3, #0
 1797 0216 5941     		adcs	r1, r1, r3
 1798 0218 0D20     		movs	r0, #13
 1799              	.LBE1352:
 1800              	.LBE1356:
 1801              		.loc 1 223 0
 1802 021a 03B0     		add	sp, sp, #12
 1803              		.cfi_def_cfa_offset 28
 1804              		@ sp needed
 1805 021c BDE8F043 		pop	{r4, r5, r6, r7, r8, r9, lr}
 1806              		.cfi_restore 14
 1807              		.cfi_restore 9
 1808              		.cfi_restore 8
 1809              		.cfi_restore 7
 1810              		.cfi_restore 6
 1811              		.cfi_restore 5
 1812              		.cfi_restore 4
 1813              		.cfi_def_cfa_offset 0
 1814              	.LBB1357:
 1815              	.LBB1353:
 1816              		.loc 1 222 0
 1817 0220 FFF7FEBF 		b	_test_assert
 1818              	.LVL148:
ARM GAS  /tmp/ccVKrcSE.s 			page 33


 1819              	.L73:
 1820              		.align	2
 1821              	.L72:
 1822 0224 00000000 		.word	.LANCHOR1
 1823 0228 00000000 		.word	.LC0
 1824 022c 00000000 		.word	wa
 1825 0230 00000000 		.word	ch
 1826 0234 00000000 		.word	thread2
 1827 0238 00000000 		.word	threads
 1828              	.LBE1353:
 1829              	.LBE1357:
 1830              		.cfi_endproc
 1831              	.LFE235:
 1832              		.size	queues2_execute, .-queues2_execute
 1833              		.global	patternqueues
 1834              		.global	testqueues2
 1835              		.global	testqueues1
 1836 023c AFF30080 		.section	.rodata.patternqueues,"a",%progbits
 1837              		.align	2
 1838              		.type	patternqueues, %object
 1839              		.size	patternqueues, 12
 1840              	patternqueues:
 1841 0000 00000000 		.word	testqueues1
 1842 0004 00000000 		.word	testqueues2
 1843 0008 00000000 		.word	0
 1844              		.section	.rodata.testqueues2,"a",%progbits
 1845              		.align	2
 1846              		.type	testqueues2, %object
 1847              		.size	testqueues2, 16
 1848              	testqueues2:
 1849 0000 08000000 		.word	.LC1
 1850 0004 00000000 		.word	queues2_setup
 1851 0008 00000000 		.word	0
 1852 000c 00000000 		.word	queues2_execute
 1853              		.section	.rodata.str1.4,"aMS",%progbits,1
 1854              		.align	2
 1855              	.LC0:
 1856 0000 41424344 		.ascii	"ABCD\000"
 1856      00
 1857 0005 000000   		.space	3
 1858              	.LC1:
 1859 0008 51756575 		.ascii	"Queues, output queues\000"
 1859      65732C20 
 1859      6F757470 
 1859      75742071 
 1859      75657565 
 1860 001e 0000     		.space	2
 1861              	.LC2:
 1862 0020 51756575 		.ascii	"Queues, input queues\000"
 1862      65732C20 
 1862      696E7075 
 1862      74207175 
 1862      65756573 
 1863 0035 000000   		.section	.rodata.testqueues1,"a",%progbits
 1864              		.align	2
 1865              		.type	testqueues1, %object
 1866              		.size	testqueues1, 16
ARM GAS  /tmp/ccVKrcSE.s 			page 34


 1867              	testqueues1:
 1868 0000 20000000 		.word	.LC2
 1869 0004 00000000 		.word	queues1_setup
 1870 0008 00000000 		.word	0
 1871 000c 00000000 		.word	queues1_execute
 1872              		.section	.data.oq,"aw",%progbits
 1873              		.align	2
 1874              		.set	.LANCHOR1,. + 0
 1875              		.type	oq, %object
 1876              		.size	oq, 36
 1877              	oq:
 1878 0000 00000000 		.word	oq
 1879 0004 00000000 		.word	oq
 1880 0008 04000000 		.word	4
 1881 000c D0010000 		.word	test+464
 1882 0010 D4010000 		.word	test+468
 1883 0014 D0010000 		.word	test+464
 1884 0018 D0010000 		.word	test+464
 1885 001c 00000000 		.word	notify
 1886 0020 00000000 		.word	0
 1887              		.section	.data.iq,"aw",%progbits
 1888              		.align	2
 1889              		.set	.LANCHOR0,. + 0
 1890              		.type	iq, %object
 1891              		.size	iq, 36
 1892              	iq:
 1893 0000 00000000 		.word	iq
 1894 0004 00000000 		.word	iq
 1895 0008 00000000 		.word	0
 1896 000c 00000000 		.word	test
 1897 0010 04000000 		.word	test+4
 1898 0014 00000000 		.word	test
 1899 0018 00000000 		.word	test
 1900 001c 00000000 		.word	notify
 1901 0020 00000000 		.word	0
 1902              		.text
 1903              	.Letext0:
 1904              		.file 5 "/usr/lib/gcc/arm-none-eabi/5.2.0/include/stddef.h"
 1905              		.file 6 "/usr/arm-none-eabi/include/machine/_default_types.h"
 1906              		.file 7 "/usr/arm-none-eabi/include/stdint.h"
 1907              		.file 8 "../../os/rt/ports/ARMCMx/compilers/GCC/chtypes.h"
 1908              		.file 9 "../../os/rt/include/chsystypes.h"
 1909              		.file 10 "../../os/rt/include/chschd.h"
 1910              		.file 11 "../../os/rt/ports/ARMCMx/chcore.h"
 1911              		.file 12 "../../os/rt/ports/ARMCMx/chcore_v7m.h"
 1912              		.file 13 "../../os/rt/include/chtm.h"
 1913              		.file 14 "../../os/rt/include/chsem.h"
 1914              		.file 15 "../../os/rt/include/chmtx.h"
 1915              		.file 16 "../../test/rt/test.h"
 1916              		.file 17 "../../os/rt/include/chsys.h"
 1917              		.file 18 "../../os/ext/CMSIS/include/core_cm4.h"