ARM GAS  /tmp/ccsh2sNw.s 			page 1


   1              		.syntax unified
   2              		.cpu cortex-m4
   3              		.eabi_attribute 27, 1
   4              		.eabi_attribute 28, 1
   5              		.fpu fpv4-sp-d16
   6              		.eabi_attribute 20, 1
   7              		.eabi_attribute 21, 1
   8              		.eabi_attribute 23, 3
   9              		.eabi_attribute 24, 1
  10              		.eabi_attribute 25, 1
  11              		.eabi_attribute 26, 1
  12              		.eabi_attribute 30, 2
  13              		.eabi_attribute 34, 1
  14              		.eabi_attribute 18, 4
  15              		.thumb
  16              		.syntax unified
  17              		.file	"testdyn.c"
  18              		.text
  19              	.Ltext0:
  20              		.cfi_sections	.debug_frame
  21              		.section	.text.dyn1_execute,"ax",%progbits
  22              		.align	2
  23              		.p2align 4,,15
  24              		.thumb
  25              		.thumb_func
  26              		.type	dyn1_execute, %function
  27              	dyn1_execute:
  28              	.LFB231:
  29              		.file 1 "../../test/rt/testdyn.c"
  30              		.loc 1 82 0
  31              		.cfi_startproc
  32              		@ args = 0, pretend = 0, frame = 8
  33              		@ frame_needed = 0, uses_anonymous_args = 0
  34 0000 70B5     		push	{r4, r5, r6, lr}
  35              		.cfi_def_cfa_offset 16
  36              		.cfi_offset 4, -16
  37              		.cfi_offset 5, -12
  38              		.cfi_offset 6, -8
  39              		.cfi_offset 14, -4
  40              	.LBB16:
  41              	.LBB17:
  42              	.LBB18:
  43              	.LBB19:
  44              		.file 2 "../../os/rt/include/chthreads.h"
  45              		.loc 2 176 0
  46 0002 344B     		ldr	r3, .L13
  47              	.LBE19:
  48              	.LBE18:
  49              	.LBE17:
  50              	.LBE16:
  51              		.loc 1 87 0
  52 0004 3448     		ldr	r0, .L13+4
  53              	.LBB22:
  54              	.LBB20:
  55              		.loc 2 189 0
  56 0006 9B69     		ldr	r3, [r3, #24]
  57              	.LBE20:
ARM GAS  /tmp/ccsh2sNw.s 			page 2


  58              	.LBE22:
  59              		.loc 1 89 0
  60 0008 344C     		ldr	r4, .L13+8
  61              	.LBB23:
  62              	.LBB21:
  63              		.loc 2 189 0
  64 000a 9D68     		ldr	r5, [r3, #8]
  65              	.LBE21:
  66              	.LBE23:
  67              		.loc 1 82 0
  68 000c 84B0     		sub	sp, sp, #16
  69              		.cfi_def_cfa_offset 32
  70              		.loc 1 87 0
  71 000e 03A9     		add	r1, sp, #12
  72 0010 FFF7FEFF 		bl	chHeapStatus
  73              	.LVL0:
  74              		.loc 1 89 0
  75 0014 324B     		ldr	r3, .L13+12
  76 0016 0093     		str	r3, [sp]
  77 0018 6A1E     		subs	r2, r5, #1
  78 001a 324B     		ldr	r3, .L13+16
  79 001c 2E48     		ldr	r0, .L13+4
  80 001e 4FF4E871 		mov	r1, #464
  81 0022 FFF7FEFF 		bl	chThdCreateFromHeap
  82              	.LVL1:
  83              		.loc 1 92 0
  84 0026 304B     		ldr	r3, .L13+20
  85              		.loc 1 89 0
  86 0028 2060     		str	r0, [r4]
  87              		.loc 1 92 0
  88 002a AA1E     		subs	r2, r5, #2
  89 002c 0093     		str	r3, [sp]
  90 002e 4FF4E871 		mov	r1, #464
  91 0032 2C4B     		ldr	r3, .L13+16
  92 0034 2848     		ldr	r0, .L13+4
  93 0036 FFF7FEFF 		bl	chThdCreateFromHeap
  94              	.LVL2:
  95              		.loc 1 96 0
  96 003a 02A9     		add	r1, sp, #8
  97              		.loc 1 92 0
  98 003c 6060     		str	r0, [r4, #4]
  99              		.loc 1 96 0
 100 003e 2648     		ldr	r0, .L13+4
 101 0040 FFF7FEFF 		bl	chHeapStatus
 102              	.LVL3:
 103              		.loc 1 97 0
 104 0044 0299     		ldr	r1, [sp, #8]
 105 0046 2448     		ldr	r0, .L13+4
 106 0048 FFF7FEFF 		bl	chHeapAlloc
 107              	.LVL4:
 108              		.loc 1 98 0
 109 004c 274B     		ldr	r3, .L13+24
 110 004e 0093     		str	r3, [sp]
 111 0050 4FF4E871 		mov	r1, #464
 112              		.loc 1 97 0
 113 0054 0646     		mov	r6, r0
 114              	.LVL5:
ARM GAS  /tmp/ccsh2sNw.s 			page 3


 115              		.loc 1 98 0
 116 0056 EA1E     		subs	r2, r5, #3
 117 0058 224B     		ldr	r3, .L13+16
 118 005a 1F48     		ldr	r0, .L13+4
 119              	.LVL6:
 120 005c FFF7FEFF 		bl	chThdCreateFromHeap
 121              	.LVL7:
 122 0060 A060     		str	r0, [r4, #8]
 123              		.loc 1 101 0
 124 0062 3046     		mov	r0, r6
 125 0064 FFF7FEFF 		bl	chHeapFree
 126              	.LVL8:
 127              		.loc 1 103 0
 128 0068 2168     		ldr	r1, [r4]
 129 006a 21B1     		cbz	r1, .L2
 130              		.loc 1 103 0 is_stmt 0 discriminator 1
 131 006c 6168     		ldr	r1, [r4, #4]
 132 006e 11B1     		cbz	r1, .L2
 133              		.loc 1 103 0 discriminator 3
 134 0070 A168     		ldr	r1, [r4, #8]
 135 0072 31B3     		cbz	r1, .L11
 136 0074 0021     		movs	r1, #0
 137              	.L2:
 138              		.loc 1 103 0 discriminator 12
 139 0076 0120     		movs	r0, #1
 140 0078 FFF7FEFF 		bl	_test_assert
 141              	.LVL9:
 142 007c 08B1     		cbz	r0, .L12
 143              	.L1:
 144              		.loc 1 117 0 is_stmt 1
 145 007e 04B0     		add	sp, sp, #16
 146              		.cfi_remember_state
 147              		.cfi_def_cfa_offset 16
 148              		@ sp needed
 149 0080 70BD     		pop	{r4, r5, r6, pc}
 150              	.LVL10:
 151              	.L12:
 152              		.cfi_restore_state
 153              		.loc 1 111 0
 154 0082 FFF7FEFF 		bl	test_wait_threads
 155              	.LVL11:
 156              		.loc 1 112 0
 157 0086 1A49     		ldr	r1, .L13+28
 158 0088 0220     		movs	r0, #2
 159 008a FFF7FEFF 		bl	_test_assert_sequence
 160              	.LVL12:
 161 008e 0028     		cmp	r0, #0
 162 0090 F5D1     		bne	.L1
 163              		.loc 1 115 0
 164 0092 02A9     		add	r1, sp, #8
 165 0094 1048     		ldr	r0, .L13+4
 166 0096 FFF7FEFF 		bl	chHeapStatus
 167              	.LVL13:
 168 009a A0F10101 		sub	r1, r0, #1
 169 009e B1FA81F1 		clz	r1, r1
 170 00a2 4909     		lsrs	r1, r1, #5
 171 00a4 0320     		movs	r0, #3
ARM GAS  /tmp/ccsh2sNw.s 			page 4


 172 00a6 FFF7FEFF 		bl	_test_assert
 173              	.LVL14:
 174 00aa 0028     		cmp	r0, #0
 175 00ac E7D1     		bne	.L1
 176              		.loc 1 116 0
 177 00ae 0299     		ldr	r1, [sp, #8]
 178 00b0 039B     		ldr	r3, [sp, #12]
 179 00b2 C91A     		subs	r1, r1, r3
 180 00b4 B1FA81F1 		clz	r1, r1
 181 00b8 4909     		lsrs	r1, r1, #5
 182 00ba 0420     		movs	r0, #4
 183 00bc FFF7FEFF 		bl	_test_assert
 184              	.LVL15:
 185 00c0 DDE7     		b	.L1
 186              	.L11:
 187              		.loc 1 103 0 discriminator 5
 188 00c2 E368     		ldr	r3, [r4, #12]
 189 00c4 002B     		cmp	r3, #0
 190 00c6 D6D1     		bne	.L2
 191              		.loc 1 103 0 is_stmt 0 discriminator 7
 192 00c8 2169     		ldr	r1, [r4, #16]
 193 00ca B1FA81F1 		clz	r1, r1
 194 00ce 4909     		lsrs	r1, r1, #5
 195 00d0 D1E7     		b	.L2
 196              	.L14:
 197 00d2 00BF     		.align	2
 198              	.L13:
 199 00d4 00000000 		.word	ch
 200 00d8 00000000 		.word	.LANCHOR0
 201 00dc 00000000 		.word	threads
 202 00e0 00000000 		.word	.LC0
 203 00e4 00000000 		.word	thread
 204 00e8 04000000 		.word	.LC1
 205 00ec 08000000 		.word	.LC2
 206 00f0 0C000000 		.word	.LC3
 207              		.cfi_endproc
 208              	.LFE231:
 209              		.size	dyn1_execute, .-dyn1_execute
 210 00f4 AFF30080 		.section	.text.thread,"ax",%progbits
 210      AFF30080 
 210      AFF30080 
 211              		.align	2
 212              		.p2align 4,,15
 213              		.thumb
 214              		.thumb_func
 215              		.type	thread, %function
 216              	thread:
 217              	.LFB229:
 218              		.loc 1 71 0 is_stmt 1
 219              		.cfi_startproc
 220              		@ args = 0, pretend = 0, frame = 0
 221              		@ frame_needed = 0, uses_anonymous_args = 0
 222              		@ link register save eliminated.
 223              	.LVL16:
 224              		.loc 1 73 0
 225 0000 0078     		ldrb	r0, [r0]	@ zero_extendqisi2
 226              	.LVL17:
ARM GAS  /tmp/ccsh2sNw.s 			page 5


 227 0002 FFF7FEBF 		b	test_emit_token
 228              	.LVL18:
 229              		.cfi_endproc
 230              	.LFE229:
 231              		.size	thread, .-thread
 232 0006 00BFAFF3 		.section	.text.dyn3_setup,"ax",%progbits
 232      0080AFF3 
 232      0080
 233              		.align	2
 234              		.p2align 4,,15
 235              		.thumb
 236              		.thumb_func
 237              		.type	dyn3_setup, %function
 238              	dyn3_setup:
 239              	.LFB235:
 240              		.loc 1 204 0
 241              		.cfi_startproc
 242              		@ args = 0, pretend = 0, frame = 0
 243              		@ frame_needed = 0, uses_anonymous_args = 0
 244              		@ link register save eliminated.
 245              		.loc 1 206 0
 246 0000 4FF41162 		mov	r2, #2320
 247 0004 0149     		ldr	r1, .L17
 248 0006 0248     		ldr	r0, .L17+4
 249 0008 FFF7FEBF 		b	chHeapObjectInit
 250              	.LVL19:
 251              	.L18:
 252              		.align	2
 253              	.L17:
 254 000c 00000000 		.word	test
 255 0010 00000000 		.word	.LANCHOR0
 256              		.cfi_endproc
 257              	.LFE235:
 258              		.size	dyn3_setup, .-dyn3_setup
 259 0014 AFF30080 		.section	.text.dyn1_setup,"ax",%progbits
 259      AFF30080 
 259      AFF30080 
 260              		.align	2
 261              		.p2align 4,,15
 262              		.thumb
 263              		.thumb_func
 264              		.type	dyn1_setup, %function
 265              	dyn1_setup:
 266              	.LFB238:
 267              		.cfi_startproc
 268              		@ args = 0, pretend = 0, frame = 0
 269              		@ frame_needed = 0, uses_anonymous_args = 0
 270              		@ link register save eliminated.
 271 0000 FFF7FEBF 		b	dyn3_setup
 272              		.cfi_endproc
 273              	.LFE238:
 274              		.size	dyn1_setup, .-dyn1_setup
 275 0004 AFF30080 		.section	.text.dyn2_execute,"ax",%progbits
 275      AFF30080 
 275      AFF30080 
 276              		.align	2
 277              		.p2align 4,,15
ARM GAS  /tmp/ccsh2sNw.s 			page 6


 278              		.thumb
 279              		.thumb_func
 280              		.type	dyn2_execute, %function
 281              	dyn2_execute:
 282              	.LFB233:
 283              		.loc 1 143 0
 284              		.cfi_startproc
 285              		@ args = 0, pretend = 0, frame = 0
 286              		@ frame_needed = 0, uses_anonymous_args = 0
 287              	.LBB24:
 288              	.LBB25:
 289              	.LBB26:
 290              	.LBB27:
 291              		.loc 2 176 0
 292 0000 314B     		ldr	r3, .L35
 293              	.LBE27:
 294              	.LBE26:
 295              		.loc 2 189 0
 296 0002 9B69     		ldr	r3, [r3, #24]
 297              	.LBE25:
 298              	.LBE24:
 299              		.loc 1 143 0
 300 0004 70B5     		push	{r4, r5, r6, lr}
 301              		.cfi_def_cfa_offset 16
 302              		.cfi_offset 4, -16
 303              		.cfi_offset 5, -12
 304              		.cfi_offset 6, -8
 305              		.cfi_offset 14, -4
 306 0006 314C     		ldr	r4, .L35+4
 307              	.LBB29:
 308              	.LBB28:
 309              		.loc 2 189 0
 310 0008 9D68     		ldr	r5, [r3, #8]
 311              	.LVL20:
 312 000a 04F11006 		add	r6, r4, #16
 313              	.LVL21:
 314              	.L21:
 315              	.LBE28:
 316              	.LBE29:
 317              		.loc 1 149 0 discriminator 3
 318 000e 54F8041B 		ldr	r1, [r4], #4
 319 0012 2F48     		ldr	r0, .L35+8
 320 0014 FFF7FEFF 		bl	chPoolFree
 321              	.LVL22:
 322              		.loc 1 148 0 discriminator 3
 323 0018 A642     		cmp	r6, r4
 324 001a F8D1     		bne	.L21
 325              		.loc 1 152 0
 326 001c 2D4B     		ldr	r3, .L35+12
 327 001e 2E4A     		ldr	r2, .L35+16
 328 0020 2B48     		ldr	r0, .L35+8
 329 0022 2E4C     		ldr	r4, .L35+20
 330 0024 691E     		subs	r1, r5, #1
 331 0026 FFF7FEFF 		bl	chThdCreateFromMemoryPool
 332              	.LVL23:
 333              		.loc 1 153 0
 334 002a 2D4B     		ldr	r3, .L35+24
ARM GAS  /tmp/ccsh2sNw.s 			page 7


 335              		.loc 1 152 0
 336 002c 2060     		str	r0, [r4]
 337              		.loc 1 153 0
 338 002e 2A4A     		ldr	r2, .L35+16
 339 0030 2748     		ldr	r0, .L35+8
 340 0032 A91E     		subs	r1, r5, #2
 341 0034 FFF7FEFF 		bl	chThdCreateFromMemoryPool
 342              	.LVL24:
 343              		.loc 1 154 0
 344 0038 2A4B     		ldr	r3, .L35+28
 345              		.loc 1 153 0
 346 003a 6060     		str	r0, [r4, #4]
 347              		.loc 1 154 0
 348 003c 264A     		ldr	r2, .L35+16
 349 003e 2448     		ldr	r0, .L35+8
 350 0040 E91E     		subs	r1, r5, #3
 351 0042 FFF7FEFF 		bl	chThdCreateFromMemoryPool
 352              	.LVL25:
 353              		.loc 1 155 0
 354 0046 284B     		ldr	r3, .L35+32
 355              		.loc 1 154 0
 356 0048 A060     		str	r0, [r4, #8]
 357              		.loc 1 155 0
 358 004a 234A     		ldr	r2, .L35+16
 359 004c 2048     		ldr	r0, .L35+8
 360 004e 291F     		subs	r1, r5, #4
 361 0050 FFF7FEFF 		bl	chThdCreateFromMemoryPool
 362              	.LVL26:
 363              		.loc 1 156 0
 364 0054 691F     		subs	r1, r5, #5
 365              		.loc 1 155 0
 366 0056 E060     		str	r0, [r4, #12]
 367              		.loc 1 156 0
 368 0058 244B     		ldr	r3, .L35+36
 369 005a 1F4A     		ldr	r2, .L35+16
 370 005c 1C48     		ldr	r0, .L35+8
 371 005e FFF7FEFF 		bl	chThdCreateFromMemoryPool
 372              	.LVL27:
 373              		.loc 1 158 0
 374 0062 2168     		ldr	r1, [r4]
 375              		.loc 1 156 0
 376 0064 2061     		str	r0, [r4, #16]
 377              		.loc 1 158 0
 378 0066 41B1     		cbz	r1, .L22
 379              		.loc 1 158 0 is_stmt 0 discriminator 1
 380 0068 6168     		ldr	r1, [r4, #4]
 381 006a 31B1     		cbz	r1, .L22
 382              		.loc 1 158 0 discriminator 3
 383 006c A168     		ldr	r1, [r4, #8]
 384 006e 21B1     		cbz	r1, .L22
 385              		.loc 1 158 0 discriminator 5
 386 0070 E168     		ldr	r1, [r4, #12]
 387 0072 11B1     		cbz	r1, .L22
 388              		.loc 1 158 0 discriminator 7
 389 0074 B0FA80F1 		clz	r1, r0
 390 0078 4909     		lsrs	r1, r1, #5
 391              	.L22:
ARM GAS  /tmp/ccsh2sNw.s 			page 8


 392              		.loc 1 158 0 discriminator 12
 393 007a 0120     		movs	r0, #1
 394 007c FFF7FEFF 		bl	_test_assert
 395              	.LVL28:
 396 0080 00B1     		cbz	r0, .L34
 397              	.L20:
 398 0082 70BD     		pop	{r4, r5, r6, pc}
 399              	.L34:
 400              		.loc 1 166 0 is_stmt 1
 401 0084 FFF7FEFF 		bl	test_wait_threads
 402              	.LVL29:
 403              		.loc 1 167 0
 404 0088 1949     		ldr	r1, .L35+40
 405 008a 0220     		movs	r0, #2
 406 008c FFF7FEFF 		bl	_test_assert_sequence
 407              	.LVL30:
 408 0090 0028     		cmp	r0, #0
 409 0092 F6D1     		bne	.L20
 410 0094 0424     		movs	r4, #4
 411              	.L26:
 412              	.LVL31:
 413              		.loc 1 171 0
 414 0096 0E48     		ldr	r0, .L35+8
 415 0098 FFF7FEFF 		bl	chPoolAlloc
 416              	.LVL32:
 417 009c 011C     		adds	r1, r0, #0
 418 009e 18BF     		it	ne
 419 00a0 0121     		movne	r1, #1
 420 00a2 0320     		movs	r0, #3
 421 00a4 FFF7FEFF 		bl	_test_assert
 422              	.LVL33:
 423 00a8 0028     		cmp	r0, #0
 424 00aa EAD1     		bne	.L20
 425              		.loc 1 170 0 discriminator 2
 426 00ac 013C     		subs	r4, r4, #1
 427              	.LVL34:
 428 00ae F2D1     		bne	.L26
 429              		.loc 1 172 0
 430 00b0 0748     		ldr	r0, .L35+8
 431 00b2 FFF7FEFF 		bl	chPoolAlloc
 432              	.LVL35:
 433 00b6 B0FA80F1 		clz	r1, r0
 434 00ba 4909     		lsrs	r1, r1, #5
 435 00bc 0420     		movs	r0, #4
 436              		.loc 1 173 0
 437 00be BDE87040 		pop	{r4, r5, r6, lr}
 438              		.cfi_restore 14
 439              		.cfi_restore 6
 440              		.cfi_restore 5
 441              		.cfi_restore 4
 442              		.cfi_def_cfa_offset 0
 443              	.LVL36:
 444              		.loc 1 172 0
 445 00c2 FFF7FEBF 		b	_test_assert
 446              	.LVL37:
 447              	.L36:
 448 00c6 00BF     		.align	2
ARM GAS  /tmp/ccsh2sNw.s 			page 9


 449              	.L35:
 450 00c8 00000000 		.word	ch
 451 00cc 00000000 		.word	wa
 452 00d0 00000000 		.word	.LANCHOR1
 453 00d4 00000000 		.word	.LC0
 454 00d8 00000000 		.word	thread
 455 00dc 00000000 		.word	threads
 456 00e0 04000000 		.word	.LC1
 457 00e4 08000000 		.word	.LC2
 458 00e8 10000000 		.word	.LC4
 459 00ec 14000000 		.word	.LC5
 460 00f0 18000000 		.word	.LC6
 461              		.cfi_endproc
 462              	.LFE233:
 463              		.size	dyn2_execute, .-dyn2_execute
 464 00f4 AFF30080 		.section	.text.dyn2_setup,"ax",%progbits
 464      AFF30080 
 464      AFF30080 
 465              		.align	2
 466              		.p2align 4,,15
 467              		.thumb
 468              		.thumb_func
 469              		.type	dyn2_setup, %function
 470              	dyn2_setup:
 471              	.LFB232:
 472              		.loc 1 138 0
 473              		.cfi_startproc
 474              		@ args = 0, pretend = 0, frame = 0
 475              		@ frame_needed = 0, uses_anonymous_args = 0
 476              		@ link register save eliminated.
 477              		.loc 1 140 0
 478 0000 0022     		movs	r2, #0
 479 0002 4FF4E871 		mov	r1, #464
 480 0006 0148     		ldr	r0, .L38
 481 0008 FFF7FEBF 		b	chPoolObjectInit
 482              	.LVL38:
 483              	.L39:
 484              		.align	2
 485              	.L38:
 486 000c 00000000 		.word	.LANCHOR1
 487              		.cfi_endproc
 488              	.LFE232:
 489              		.size	dyn2_setup, .-dyn2_setup
 490              		.section	.text.regfind,"ax",%progbits
 491              		.align	2
 492              		.p2align 4,,15
 493              		.thumb
 494              		.thumb_func
 495              		.type	regfind, %function
 496              	regfind:
 497              	.LFB234:
 498              		.loc 1 192 0
 499              		.cfi_startproc
 500              		@ args = 0, pretend = 0, frame = 0
 501              		@ frame_needed = 0, uses_anonymous_args = 0
 502              	.LVL39:
 503 0000 38B5     		push	{r3, r4, r5, lr}
ARM GAS  /tmp/ccsh2sNw.s 			page 10


 504              		.cfi_def_cfa_offset 16
 505              		.cfi_offset 3, -16
 506              		.cfi_offset 4, -12
 507              		.cfi_offset 5, -8
 508              		.cfi_offset 14, -4
 509              		.loc 1 192 0
 510 0002 0546     		mov	r5, r0
 511              		.loc 1 196 0
 512 0004 FFF7FEFF 		bl	chRegFirstThread
 513              	.LVL40:
 514              		.loc 1 194 0
 515 0008 0024     		movs	r4, #0
 516              		.loc 1 196 0
 517 000a 0346     		mov	r3, r0
 518              	.LVL41:
 519              	.L41:
 520              		.loc 1 199 0 discriminator 1
 521 000c 1846     		mov	r0, r3
 522 000e AB42     		cmp	r3, r5
 523 0010 08BF     		it	eq
 524 0012 44F00104 		orreq	r4, r4, #1
 525              	.LVL42:
 526 0016 FFF7FEFF 		bl	chRegNextThread
 527              	.LVL43:
 528              		.loc 1 200 0 discriminator 1
 529 001a 0346     		mov	r3, r0
 530 001c 0028     		cmp	r0, #0
 531 001e F5D1     		bne	.L41
 532              		.loc 1 202 0
 533 0020 2046     		mov	r0, r4
 534              	.LVL44:
 535 0022 38BD     		pop	{r3, r4, r5, pc}
 536              		.cfi_endproc
 537              	.LFE234:
 538              		.size	regfind, .-regfind
 539 0024 AFF30080 		.section	.text.dyn3_execute,"ax",%progbits
 539      AFF30080 
 539      AFF30080 
 540              		.align	2
 541              		.p2align 4,,15
 542              		.thumb
 543              		.thumb_func
 544              		.type	dyn3_execute, %function
 545              	dyn3_execute:
 546              	.LFB236:
 547              		.loc 1 209 0
 548              		.cfi_startproc
 549              		@ args = 0, pretend = 0, frame = 0
 550              		@ frame_needed = 0, uses_anonymous_args = 0
 551 0000 10B5     		push	{r4, lr}
 552              		.cfi_def_cfa_offset 8
 553              		.cfi_offset 4, -8
 554              		.cfi_offset 14, -4
 555              	.LBB30:
 556              	.LBB31:
 557              	.LBB32:
 558              	.LBB33:
ARM GAS  /tmp/ccsh2sNw.s 			page 11


 559              		.loc 2 176 0
 560 0002 484B     		ldr	r3, .L50
 561              	.LBE33:
 562              	.LBE32:
 563              	.LBE31:
 564              	.LBE30:
 565              		.loc 1 214 0
 566 0004 4849     		ldr	r1, .L50+4
 567              	.LBB35:
 568              	.LBB34:
 569              		.loc 2 189 0
 570 0006 9A69     		ldr	r2, [r3, #24]
 571              	.LBE34:
 572              	.LBE35:
 573              		.loc 1 214 0
 574 0008 4848     		ldr	r0, .L50+8
 575 000a 9268     		ldr	r2, [r2, #8]
 576 000c 484B     		ldr	r3, .L50+12
 577              		.loc 1 209 0
 578 000e 82B0     		sub	sp, sp, #8
 579              		.cfi_def_cfa_offset 16
 580              		.loc 1 214 0
 581 0010 013A     		subs	r2, r2, #1
 582 0012 0091     		str	r1, [sp]
 583 0014 4FF4E871 		mov	r1, #464
 584 0018 FFF7FEFF 		bl	chThdCreateFromHeap
 585              	.LVL45:
 586 001c 0446     		mov	r4, r0
 587              	.LVL46:
 588              		.loc 1 215 0
 589 001e 0120     		movs	r0, #1
 590              	.LVL47:
 591 0020 A17F     		ldrb	r1, [r4, #30]	@ zero_extendqisi2
 592 0022 091A     		subs	r1, r1, r0
 593 0024 B1FA81F1 		clz	r1, r1
 594 0028 4909     		lsrs	r1, r1, #5
 595 002a FFF7FEFF 		bl	_test_assert
 596              	.LVL48:
 597 002e 08B1     		cbz	r0, .L49
 598              	.L44:
 599              		.loc 1 237 0
 600 0030 02B0     		add	sp, sp, #8
 601              		.cfi_remember_state
 602              		.cfi_def_cfa_offset 8
 603              		@ sp needed
 604 0032 10BD     		pop	{r4, pc}
 605              	.LVL49:
 606              	.L49:
 607              		.cfi_restore_state
 608              		.loc 1 216 0
 609 0034 2046     		mov	r0, r4
 610 0036 FFF7FEFF 		bl	chThdAddRef
 611              	.LVL50:
 612              		.loc 1 217 0
 613 003a A17F     		ldrb	r1, [r4, #30]	@ zero_extendqisi2
 614 003c 0220     		movs	r0, #2
 615 003e 091A     		subs	r1, r1, r0
ARM GAS  /tmp/ccsh2sNw.s 			page 12


 616 0040 B1FA81F1 		clz	r1, r1
 617 0044 4909     		lsrs	r1, r1, #5
 618 0046 FFF7FEFF 		bl	_test_assert
 619              	.LVL51:
 620 004a 0028     		cmp	r0, #0
 621 004c F0D1     		bne	.L44
 622              		.loc 1 218 0
 623 004e 2046     		mov	r0, r4
 624 0050 FFF7FEFF 		bl	chThdRelease
 625              	.LVL52:
 626              		.loc 1 219 0
 627 0054 A17F     		ldrb	r1, [r4, #30]	@ zero_extendqisi2
 628 0056 A1F10101 		sub	r1, #1
 629 005a B1FA81F1 		clz	r1, r1
 630 005e 0320     		movs	r0, #3
 631 0060 4909     		lsrs	r1, r1, #5
 632 0062 FFF7FEFF 		bl	_test_assert
 633              	.LVL53:
 634 0066 0028     		cmp	r0, #0
 635 0068 E2D1     		bne	.L44
 636              		.loc 1 222 0
 637 006a 2046     		mov	r0, r4
 638 006c FFF7FEFF 		bl	regfind
 639              	.LVL54:
 640 0070 0146     		mov	r1, r0
 641 0072 0420     		movs	r0, #4
 642 0074 FFF7FEFF 		bl	_test_assert
 643              	.LVL55:
 644 0078 0028     		cmp	r0, #0
 645 007a D9D1     		bne	.L44
 646              		.loc 1 223 0
 647 007c 2046     		mov	r0, r4
 648 007e FFF7FEFF 		bl	regfind
 649              	.LVL56:
 650 0082 0146     		mov	r1, r0
 651 0084 0520     		movs	r0, #5
 652 0086 FFF7FEFF 		bl	_test_assert
 653              	.LVL57:
 654 008a 0028     		cmp	r0, #0
 655 008c D0D1     		bne	.L44
 656              		.loc 1 226 0
 657 008e 2046     		mov	r0, r4
 658 0090 FFF7FEFF 		bl	chThdRelease
 659              	.LVL58:
 660              		.loc 1 227 0
 661 0094 A17F     		ldrb	r1, [r4, #30]	@ zero_extendqisi2
 662 0096 B1FA81F1 		clz	r1, r1
 663 009a 4909     		lsrs	r1, r1, #5
 664 009c 0620     		movs	r0, #6
 665 009e FFF7FEFF 		bl	_test_assert
 666              	.LVL59:
 667 00a2 0028     		cmp	r0, #0
 668 00a4 C4D1     		bne	.L44
 669              		.loc 1 228 0
 670 00a6 217F     		ldrb	r1, [r4, #28]	@ zero_extendqisi2
 671 00a8 B1FA81F1 		clz	r1, r1
 672 00ac 4909     		lsrs	r1, r1, #5
ARM GAS  /tmp/ccsh2sNw.s 			page 13


 673 00ae 0720     		movs	r0, #7
 674 00b0 FFF7FEFF 		bl	_test_assert
 675              	.LVL60:
 676 00b4 0028     		cmp	r0, #0
 677 00b6 BBD1     		bne	.L44
 678              		.loc 1 229 0
 679 00b8 2046     		mov	r0, r4
 680 00ba FFF7FEFF 		bl	regfind
 681              	.LVL61:
 682 00be 0146     		mov	r1, r0
 683 00c0 0820     		movs	r0, #8
 684 00c2 FFF7FEFF 		bl	_test_assert
 685              	.LVL62:
 686 00c6 0028     		cmp	r0, #0
 687 00c8 B2D1     		bne	.L44
 688              		.loc 1 230 0
 689 00ca 2046     		mov	r0, r4
 690 00cc FFF7FEFF 		bl	regfind
 691              	.LVL63:
 692 00d0 0146     		mov	r1, r0
 693 00d2 0920     		movs	r0, #9
 694 00d4 FFF7FEFF 		bl	_test_assert
 695              	.LVL64:
 696 00d8 0028     		cmp	r0, #0
 697 00da A9D1     		bne	.L44
 698              		.loc 1 231 0
 699 00dc 4FF4FA70 		mov	r0, #500
 700 00e0 FFF7FEFF 		bl	chThdSleep
 701              	.LVL65:
 702              		.loc 1 232 0
 703 00e4 217F     		ldrb	r1, [r4, #28]	@ zero_extendqisi2
 704 00e6 A1F10F03 		sub	r3, r1, #15
 705 00ea 5942     		rsbs	r1, r3, #0
 706 00ec 5941     		adcs	r1, r1, r3
 707 00ee 0A20     		movs	r0, #10
 708 00f0 FFF7FEFF 		bl	_test_assert
 709              	.LVL66:
 710 00f4 0028     		cmp	r0, #0
 711 00f6 9BD1     		bne	.L44
 712              		.loc 1 235 0
 713 00f8 2046     		mov	r0, r4
 714 00fa FFF7FEFF 		bl	regfind
 715              	.LVL67:
 716 00fe 0146     		mov	r1, r0
 717 0100 0B20     		movs	r0, #11
 718 0102 FFF7FEFF 		bl	_test_assert
 719              	.LVL68:
 720 0106 0028     		cmp	r0, #0
 721 0108 92D1     		bne	.L44
 722              		.loc 1 236 0
 723 010a 2046     		mov	r0, r4
 724 010c FFF7FEFF 		bl	regfind
 725              	.LVL69:
 726 0110 80F00101 		eor	r1, r0, #1
 727 0114 C9B2     		uxtb	r1, r1
 728 0116 0C20     		movs	r0, #12
 729              		.loc 1 237 0
ARM GAS  /tmp/ccsh2sNw.s 			page 14


 730 0118 02B0     		add	sp, sp, #8
 731              		.cfi_def_cfa_offset 8
 732              		@ sp needed
 733 011a BDE81040 		pop	{r4, lr}
 734              		.cfi_restore 14
 735              		.cfi_restore 4
 736              		.cfi_def_cfa_offset 0
 737              	.LVL70:
 738              		.loc 1 236 0
 739 011e FFF7FEBF 		b	_test_assert
 740              	.LVL71:
 741              	.L51:
 742 0122 00BF     		.align	2
 743              	.L50:
 744 0124 00000000 		.word	ch
 745 0128 00000000 		.word	.LC0
 746 012c 00000000 		.word	.LANCHOR0
 747 0130 00000000 		.word	thread
 748              		.cfi_endproc
 749              	.LFE236:
 750              		.size	dyn3_execute, .-dyn3_execute
 751              		.global	patterndyn
 752              		.global	testdyn3
 753              		.global	testdyn2
 754              		.global	testdyn1
 755 0134 AFF30080 		.section	.rodata.testdyn1,"a",%progbits
 755      AFF30080 
 755      AFF30080 
 756              		.align	2
 757              		.type	testdyn1, %object
 758              		.size	testdyn1, 16
 759              	testdyn1:
 760 0000 78000000 		.word	.LC9
 761 0004 00000000 		.word	dyn1_setup
 762 0008 00000000 		.word	0
 763 000c 00000000 		.word	dyn1_execute
 764              		.section	.rodata.testdyn2,"a",%progbits
 765              		.align	2
 766              		.type	testdyn2, %object
 767              		.size	testdyn2, 16
 768              	testdyn2:
 769 0000 48000000 		.word	.LC8
 770 0004 00000000 		.word	dyn2_setup
 771 0008 00000000 		.word	0
 772 000c 00000000 		.word	dyn2_execute
 773              		.section	.rodata.testdyn3,"a",%progbits
 774              		.align	2
 775              		.type	testdyn3, %object
 776              		.size	testdyn3, 16
 777              	testdyn3:
 778 0000 20000000 		.word	.LC7
 779 0004 00000000 		.word	dyn3_setup
 780 0008 00000000 		.word	0
 781 000c 00000000 		.word	dyn3_execute
 782              		.section	.bss.mp1,"aw",%nobits
 783              		.align	2
 784              		.set	.LANCHOR1,. + 0
ARM GAS  /tmp/ccsh2sNw.s 			page 15


 785              		.type	mp1, %object
 786              		.size	mp1, 12
 787              	mp1:
 788 0000 00000000 		.space	12
 788      00000000 
 788      00000000 
 789              		.section	.rodata.str1.4,"aMS",%progbits,1
 790              		.align	2
 791              	.LC0:
 792 0000 4100     		.ascii	"A\000"
 793 0002 0000     		.space	2
 794              	.LC1:
 795 0004 4200     		.ascii	"B\000"
 796 0006 0000     		.space	2
 797              	.LC2:
 798 0008 4300     		.ascii	"C\000"
 799 000a 0000     		.space	2
 800              	.LC3:
 801 000c 414200   		.ascii	"AB\000"
 802 000f 00       		.space	1
 803              	.LC4:
 804 0010 4400     		.ascii	"D\000"
 805 0012 0000     		.space	2
 806              	.LC5:
 807 0014 4500     		.ascii	"E\000"
 808 0016 0000     		.space	2
 809              	.LC6:
 810 0018 41424344 		.ascii	"ABCD\000"
 810      00
 811 001d 000000   		.space	3
 812              	.LC7:
 813 0020 44796E61 		.ascii	"Dynamic APIs, registry and references\000"
 813      6D696320 
 813      41504973 
 813      2C207265 
 813      67697374 
 814 0046 0000     		.space	2
 815              	.LC8:
 816 0048 44796E61 		.ascii	"Dynamic APIs, threads creation from memory pool\000"
 816      6D696320 
 816      41504973 
 816      2C207468 
 816      72656164 
 817              	.LC9:
 818 0078 44796E61 		.ascii	"Dynamic APIs, threads creation from heap\000"
 818      6D696320 
 818      41504973 
 818      2C207468 
 818      72656164 
 819 00a1 000000   		.section	.rodata.patterndyn,"a",%progbits
 820              		.align	2
 821              		.type	patterndyn, %object
 822              		.size	patterndyn, 16
 823              	patterndyn:
 824 0000 00000000 		.word	testdyn1
 825 0004 00000000 		.word	testdyn2
 826 0008 00000000 		.word	testdyn3
ARM GAS  /tmp/ccsh2sNw.s 			page 16


 827 000c 00000000 		.word	0
 828              		.section	.bss.heap1,"aw",%nobits
 829              		.align	3
 830              		.set	.LANCHOR0,. + 0
 831              		.type	heap1, %object
 832              		.size	heap1, 32
 833              	heap1:
 834 0000 00000000 		.space	32
 834      00000000 
 834      00000000 
 834      00000000 
 834      00000000 
 835              		.text
 836              	.Letext0:
 837              		.file 3 "/usr/lib/gcc/arm-none-eabi/5.2.0/include/stddef.h"
 838              		.file 4 "/usr/arm-none-eabi/include/machine/_default_types.h"
 839              		.file 5 "/usr/arm-none-eabi/include/stdint.h"
 840              		.file 6 "../../os/rt/ports/ARMCMx/compilers/GCC/chtypes.h"
 841              		.file 7 "../../os/rt/include/chsystypes.h"
 842              		.file 8 "../../os/rt/include/chschd.h"
 843              		.file 9 "../../os/rt/ports/ARMCMx/chcore.h"
 844              		.file 10 "../../os/rt/ports/ARMCMx/chcore_v7m.h"
 845              		.file 11 "../../os/rt/include/chtm.h"
 846              		.file 12 "../../os/rt/include/chsem.h"
 847              		.file 13 "../../os/rt/include/chmtx.h"
 848              		.file 14 "../../os/rt/include/chmemcore.h"
 849              		.file 15 "../../os/rt/include/chheap.h"
 850              		.file 16 "../../os/rt/include/chmempools.h"
 851              		.file 17 "../../test/rt/test.h"
 852              		.file 18 "../../os/ext/CMSIS/include/core_cm4.h"
 853              		.file 19 "../../os/rt/include/chdynamic.h"
 854              		.file 20 "../../os/rt/include/chregistry.h"