ARM GAS  /tmp/cclutRqE.s 			page 1


   1              		.syntax unified
   2              		.cpu cortex-m4
   3              		.eabi_attribute 27, 1
   4              		.eabi_attribute 28, 1
   5              		.fpu fpv4-sp-d16
   6              		.eabi_attribute 20, 1
   7              		.eabi_attribute 21, 1
   8              		.eabi_attribute 23, 3
   9              		.eabi_attribute 24, 1
  10              		.eabi_attribute 25, 1
  11              		.eabi_attribute 26, 1
  12              		.eabi_attribute 30, 2
  13              		.eabi_attribute 34, 1
  14              		.eabi_attribute 18, 4
  15              		.thumb
  16              		.syntax unified
  17              		.file	"chmempools.c"
  18              		.text
  19              	.Ltext0:
  20              		.cfi_sections	.debug_frame
  21              		.section	.text.chPoolObjectInit,"ax",%progbits
  22              		.align	2
  23              		.p2align 4,,15
  24              		.global	chPoolObjectInit
  25              		.thumb
  26              		.thumb_func
  27              		.type	chPoolObjectInit, %function
  28              	chPoolObjectInit:
  29              	.LFB229:
  30              		.file 1 "../../os/rt/src/chmempools.c"
  31              		.loc 1 75 0
  32              		.cfi_startproc
  33              		@ args = 0, pretend = 0, frame = 0
  34              		@ frame_needed = 0, uses_anonymous_args = 0
  35              		@ link register save eliminated.
  36              	.LVL0:
  37              		.loc 1 79 0
  38 0000 0023     		movs	r3, #0
  39              		.loc 1 80 0
  40 0002 4160     		str	r1, [r0, #4]
  41              		.loc 1 81 0
  42 0004 8260     		str	r2, [r0, #8]
  43              		.loc 1 79 0
  44 0006 0360     		str	r3, [r0]
  45 0008 7047     		bx	lr
  46              		.cfi_endproc
  47              	.LFE229:
  48              		.size	chPoolObjectInit, .-chPoolObjectInit
  49 000a 00BFAFF3 		.section	.text.chPoolLoadArray,"ax",%progbits
  49      0080
  50              		.align	2
  51              		.p2align 4,,15
  52              		.global	chPoolLoadArray
  53              		.thumb
  54              		.thumb_func
  55              		.type	chPoolLoadArray, %function
  56              	chPoolLoadArray:
ARM GAS  /tmp/cclutRqE.s 			page 2


  57              	.LFB230:
  58              		.loc 1 97 0
  59              		.cfi_startproc
  60              		@ args = 0, pretend = 0, frame = 0
  61              		@ frame_needed = 0, uses_anonymous_args = 0
  62              		@ link register save eliminated.
  63              	.LVL1:
  64              		.loc 1 101 0
  65 0000 72B1     		cbz	r2, .L9
  66              		.loc 1 97 0
  67 0002 30B4     		push	{r4, r5}
  68              		.cfi_def_cfa_offset 8
  69              		.cfi_offset 4, -8
  70              		.cfi_offset 5, -4
  71              	.LBB77:
  72              	.LBB78:
  73              	.LBB79:
  74              	.LBB80:
  75              	.LBB81:
  76              	.LBB82:
  77              		.file 2 "../../os/ext/CMSIS/include/core_cmFunc.h"
  78              		.loc 2 546 0
  79 0004 2025     		movs	r5, #32
  80              	.LBE82:
  81              	.LBE81:
  82              	.LBE80:
  83              	.LBE79:
  84              	.LBB86:
  85              	.LBB87:
  86              	.LBB88:
  87              	.LBB89:
  88              	.LBB90:
  89 0006 0024     		movs	r4, #0
  90              	.LVL2:
  91              	.L4:
  92              	.LBE90:
  93              	.LBE89:
  94              	.LBE88:
  95              	.LBE87:
  96              	.LBE86:
  97              	.LBB95:
  98              	.LBB85:
  99              	.LBB84:
 100              	.LBB83:
 101              		.syntax unified
 102              	@ 546 "../../os/ext/CMSIS/include/core_cmFunc.h" 1
 103 0008 85F31188 		MSR basepri, r5
 104              	@ 0 "" 2
 105              	.LVL3:
 106              		.thumb
 107              		.syntax unified
 108              	.LBE83:
 109              	.LBE84:
 110              	.LBE85:
 111              	.LBE95:
 112              	.LBB96:
 113              	.LBB97:
ARM GAS  /tmp/cclutRqE.s 			page 3


 114              		.loc 1 177 0
 115 000c 0368     		ldr	r3, [r0]
 116 000e 0B60     		str	r3, [r1]
 117              		.loc 1 178 0
 118 0010 0160     		str	r1, [r0]
 119              	.LVL4:
 120              	.LBE97:
 121              	.LBE96:
 122              	.LBB98:
 123              	.LBB94:
 124              	.LBB93:
 125              	.LBB92:
 126              	.LBB91:
 127              		.loc 2 546 0
 128              		.syntax unified
 129              	@ 546 "../../os/ext/CMSIS/include/core_cmFunc.h" 1
 130 0012 84F31188 		MSR basepri, r4
 131              	@ 0 "" 2
 132              		.thumb
 133              		.syntax unified
 134              	.LBE91:
 135              	.LBE92:
 136              	.LBE93:
 137              	.LBE94:
 138              	.LBE98:
 139              	.LBE78:
 140              	.LBE77:
 141              		.loc 1 104 0
 142 0016 4368     		ldr	r3, [r0, #4]
 143              		.loc 1 101 0
 144 0018 013A     		subs	r2, r2, #1
 145              	.LVL5:
 146              		.loc 1 104 0
 147 001a 1944     		add	r1, r1, r3
 148              	.LVL6:
 149              		.loc 1 101 0
 150 001c F4D1     		bne	.L4
 151              		.loc 1 108 0
 152 001e 30BC     		pop	{r4, r5}
 153              		.cfi_restore 5
 154              		.cfi_restore 4
 155              		.cfi_def_cfa_offset 0
 156              	.LVL7:
 157              	.L9:
 158 0020 7047     		bx	lr
 159              		.cfi_endproc
 160              	.LFE230:
 161              		.size	chPoolLoadArray, .-chPoolLoadArray
 162 0022 00BFAFF3 		.section	.text.chPoolAllocI,"ax",%progbits
 162      0080AFF3 
 162      0080AFF3 
 162      0080
 163              		.align	2
 164              		.p2align 4,,15
 165              		.global	chPoolAllocI
 166              		.thumb
 167              		.thumb_func
ARM GAS  /tmp/cclutRqE.s 			page 4


 168              		.type	chPoolAllocI, %function
 169              	chPoolAllocI:
 170              	.LFB231:
 171              		.loc 1 120 0
 172              		.cfi_startproc
 173              		@ args = 0, pretend = 0, frame = 0
 174              		@ frame_needed = 0, uses_anonymous_args = 0
 175              		@ link register save eliminated.
 176              	.LVL8:
 177              		.loc 1 126 0
 178 0000 0368     		ldr	r3, [r0]
 179              	.LVL9:
 180              		.loc 1 128 0
 181 0002 1BB1     		cbz	r3, .L12
 182              		.loc 1 129 0
 183 0004 1A68     		ldr	r2, [r3]
 184 0006 0260     		str	r2, [r0]
 185              	.L13:
 186              		.loc 1 137 0
 187 0008 1846     		mov	r0, r3
 188              	.LVL10:
 189 000a 7047     		bx	lr
 190              	.LVL11:
 191              	.L12:
 192              		.loc 1 131 0
 193 000c 8268     		ldr	r2, [r0, #8]
 194 000e 002A     		cmp	r2, #0
 195 0010 FAD0     		beq	.L13
 196              		.loc 1 132 0
 197 0012 4068     		ldr	r0, [r0, #4]
 198              	.LVL12:
 199 0014 1047     		bx	r2
 200              	.LVL13:
 201              		.cfi_endproc
 202              	.LFE231:
 203              		.size	chPoolAllocI, .-chPoolAllocI
 204 0016 00BFAFF3 		.section	.text.chPoolAlloc,"ax",%progbits
 204      0080AFF3 
 204      0080
 205              		.align	2
 206              		.p2align 4,,15
 207              		.global	chPoolAlloc
 208              		.thumb
 209              		.thumb_func
 210              		.type	chPoolAlloc, %function
 211              	chPoolAlloc:
 212              	.LFB232:
 213              		.loc 1 149 0
 214              		.cfi_startproc
 215              		@ args = 0, pretend = 0, frame = 0
 216              		@ frame_needed = 0, uses_anonymous_args = 0
 217              	.LVL14:
 218 0000 08B5     		push	{r3, lr}
 219              		.cfi_def_cfa_offset 8
 220              		.cfi_offset 3, -8
 221              		.cfi_offset 14, -4
 222              	.LBB99:
ARM GAS  /tmp/cclutRqE.s 			page 5


 223              	.LBB100:
 224              	.LBB101:
 225              	.LBB102:
 226              		.loc 2 546 0
 227 0002 2022     		movs	r2, #32
 228              	.LBE102:
 229              	.LBE101:
 230              	.LBE100:
 231              	.LBE99:
 232              		.loc 1 149 0
 233 0004 0346     		mov	r3, r0
 234              	.LBB106:
 235              	.LBB105:
 236              	.LBB104:
 237              	.LBB103:
 238              		.loc 2 546 0
 239              		.syntax unified
 240              	@ 546 "../../os/ext/CMSIS/include/core_cmFunc.h" 1
 241 0006 82F31188 		MSR basepri, r2
 242              	@ 0 "" 2
 243              	.LVL15:
 244              		.thumb
 245              		.syntax unified
 246              	.LBE103:
 247              	.LBE104:
 248              	.LBE105:
 249              	.LBE106:
 250              	.LBB107:
 251              	.LBB108:
 252              		.loc 1 126 0
 253 000a 0068     		ldr	r0, [r0]
 254              	.LVL16:
 255              		.loc 1 128 0
 256 000c 28B1     		cbz	r0, .L18
 257              		.loc 1 129 0
 258 000e 0268     		ldr	r2, [r0]
 259 0010 1A60     		str	r2, [r3]
 260              	.L19:
 261              	.LVL17:
 262              	.LBE108:
 263              	.LBE107:
 264              	.LBB110:
 265              	.LBB111:
 266              	.LBB112:
 267              	.LBB113:
 268              	.LBB114:
 269              		.loc 2 546 0
 270 0012 0023     		movs	r3, #0
 271              	.LVL18:
 272              		.syntax unified
 273              	@ 546 "../../os/ext/CMSIS/include/core_cmFunc.h" 1
 274 0014 83F31188 		MSR basepri, r3
 275              	@ 0 "" 2
 276              		.thumb
 277              		.syntax unified
 278              	.LBE114:
 279              	.LBE113:
ARM GAS  /tmp/cclutRqE.s 			page 6


 280              	.LBE112:
 281              	.LBE111:
 282              	.LBE110:
 283              		.loc 1 157 0
 284 0018 08BD     		pop	{r3, pc}
 285              	.LVL19:
 286              	.L18:
 287              	.LBB119:
 288              	.LBB109:
 289              		.loc 1 131 0
 290 001a 9A68     		ldr	r2, [r3, #8]
 291 001c 002A     		cmp	r2, #0
 292 001e F8D0     		beq	.L19
 293              		.loc 1 132 0
 294 0020 5868     		ldr	r0, [r3, #4]
 295              	.LVL20:
 296 0022 9047     		blx	r2
 297              	.LVL21:
 298              	.LBE109:
 299              	.LBE119:
 300              	.LBB120:
 301              	.LBB118:
 302              	.LBB117:
 303              	.LBB116:
 304              	.LBB115:
 305              		.loc 2 546 0
 306 0024 0023     		movs	r3, #0
 307              		.syntax unified
 308              	@ 546 "../../os/ext/CMSIS/include/core_cmFunc.h" 1
 309 0026 83F31188 		MSR basepri, r3
 310              	@ 0 "" 2
 311              		.thumb
 312              		.syntax unified
 313              	.LBE115:
 314              	.LBE116:
 315              	.LBE117:
 316              	.LBE118:
 317              	.LBE120:
 318              		.loc 1 157 0
 319 002a 08BD     		pop	{r3, pc}
 320              		.cfi_endproc
 321              	.LFE232:
 322              		.size	chPoolAlloc, .-chPoolAlloc
 323 002c AFF30080 		.section	.text.chPoolFreeI,"ax",%progbits
 324              		.align	2
 325              		.p2align 4,,15
 326              		.global	chPoolFreeI
 327              		.thumb
 328              		.thumb_func
 329              		.type	chPoolFreeI, %function
 330              	chPoolFreeI:
 331              	.LFB233:
 332              		.loc 1 171 0
 333              		.cfi_startproc
 334              		@ args = 0, pretend = 0, frame = 0
 335              		@ frame_needed = 0, uses_anonymous_args = 0
 336              		@ link register save eliminated.
ARM GAS  /tmp/cclutRqE.s 			page 7


 337              	.LVL22:
 338              		.loc 1 177 0
 339 0000 0368     		ldr	r3, [r0]
 340 0002 0B60     		str	r3, [r1]
 341              		.loc 1 178 0
 342 0004 0160     		str	r1, [r0]
 343 0006 7047     		bx	lr
 344              		.cfi_endproc
 345              	.LFE233:
 346              		.size	chPoolFreeI, .-chPoolFreeI
 347 0008 AFF30080 		.section	.text.chPoolFree,"ax",%progbits
 347      AFF30080 
 348              		.align	2
 349              		.p2align 4,,15
 350              		.global	chPoolFree
 351              		.thumb
 352              		.thumb_func
 353              		.type	chPoolFree, %function
 354              	chPoolFree:
 355              	.LFB234:
 356              		.loc 1 193 0
 357              		.cfi_startproc
 358              		@ args = 0, pretend = 0, frame = 0
 359              		@ frame_needed = 0, uses_anonymous_args = 0
 360              		@ link register save eliminated.
 361              	.LVL23:
 362              	.LBB121:
 363              	.LBB122:
 364              	.LBB123:
 365              	.LBB124:
 366              		.loc 2 546 0
 367 0000 2023     		movs	r3, #32
 368              		.syntax unified
 369              	@ 546 "../../os/ext/CMSIS/include/core_cmFunc.h" 1
 370 0002 83F31188 		MSR basepri, r3
 371              	@ 0 "" 2
 372              	.LVL24:
 373              		.thumb
 374              		.syntax unified
 375              	.LBE124:
 376              	.LBE123:
 377              	.LBE122:
 378              	.LBE121:
 379              	.LBB125:
 380              	.LBB126:
 381              		.loc 1 177 0
 382 0006 0368     		ldr	r3, [r0]
 383 0008 0B60     		str	r3, [r1]
 384              	.LBE126:
 385              	.LBE125:
 386              	.LBB128:
 387              	.LBB129:
 388              	.LBB130:
 389              	.LBB131:
 390              	.LBB132:
 391              		.loc 2 546 0
 392 000a 0023     		movs	r3, #0
ARM GAS  /tmp/cclutRqE.s 			page 8


 393              	.LBE132:
 394              	.LBE131:
 395              	.LBE130:
 396              	.LBE129:
 397              	.LBE128:
 398              	.LBB137:
 399              	.LBB127:
 400              		.loc 1 178 0
 401 000c 0160     		str	r1, [r0]
 402              	.LVL25:
 403              	.LBE127:
 404              	.LBE137:
 405              	.LBB138:
 406              	.LBB136:
 407              	.LBB135:
 408              	.LBB134:
 409              	.LBB133:
 410              		.loc 2 546 0
 411              		.syntax unified
 412              	@ 546 "../../os/ext/CMSIS/include/core_cmFunc.h" 1
 413 000e 83F31188 		MSR basepri, r3
 414              	@ 0 "" 2
 415              		.thumb
 416              		.syntax unified
 417 0012 7047     		bx	lr
 418              	.LBE133:
 419              	.LBE134:
 420              	.LBE135:
 421              	.LBE136:
 422              	.LBE138:
 423              		.cfi_endproc
 424              	.LFE234:
 425              		.size	chPoolFree, .-chPoolFree
 426 0014 AFF30080 		.text
 426      AFF30080 
 426      AFF30080 
 427              	.Letext0:
 428              		.file 3 "/usr/lib/gcc/arm-none-eabi/5.2.0/include/stddef.h"
 429              		.file 4 "/usr/arm-none-eabi/include/machine/_default_types.h"
 430              		.file 5 "/usr/arm-none-eabi/include/stdint.h"
 431              		.file 6 "../../os/rt/ports/ARMCMx/compilers/GCC/chtypes.h"
 432              		.file 7 "../../os/rt/include/chsystypes.h"
 433              		.file 8 "../../os/rt/include/chschd.h"
 434              		.file 9 "../../os/rt/ports/ARMCMx/chcore.h"
 435              		.file 10 "../../os/rt/ports/ARMCMx/chcore_v7m.h"
 436              		.file 11 "../../os/rt/include/chtm.h"
 437              		.file 12 "../../os/rt/include/chsem.h"
 438              		.file 13 "../../os/rt/include/chmtx.h"
 439              		.file 14 "../../os/rt/include/chmemcore.h"
 440              		.file 15 "../../os/rt/include/chmempools.h"
 441              		.file 16 "../../os/rt/include/chsys.h"
 442              		.file 17 "../../os/ext/CMSIS/include/core_cm4.h"