ARM GAS  /tmp/ccoxl707.s 			page 1


   1              		.syntax unified
   2              		.cpu cortex-m4
   3              		.eabi_attribute 27, 1
   4              		.eabi_attribute 28, 1
   5              		.fpu fpv4-sp-d16
   6              		.eabi_attribute 20, 1
   7              		.eabi_attribute 21, 1
   8              		.eabi_attribute 23, 3
   9              		.eabi_attribute 24, 1
  10              		.eabi_attribute 25, 1
  11              		.eabi_attribute 26, 1
  12              		.eabi_attribute 30, 2
  13              		.eabi_attribute 34, 1
  14              		.eabi_attribute 18, 4
  15              		.thumb
  16              		.syntax unified
  17              		.file	"main.c"
  18              		.text
  19              	.Ltext0:
  20              		.cfi_sections	.debug_frame
  21              		.section	.text.Thread1,"ax",%progbits
  22              		.align	2
  23              		.p2align 4,,15
  24              		.thumb
  25              		.thumb_func
  26              		.type	Thread1, %function
  27              	Thread1:
  28              	.LFB260:
  29              		.file 1 "main.c"
  30              		.loc 1 26 0
  31              		.cfi_startproc
  32              		@ Volatile: function does not return.
  33              		@ args = 0, pretend = 0, frame = 0
  34              		@ frame_needed = 0, uses_anonymous_args = 0
  35              	.LVL0:
  36 0000 08B5     		push	{r3, lr}
  37              		.cfi_def_cfa_offset 8
  38              		.cfi_offset 3, -8
  39              		.cfi_offset 14, -4
  40              	.LBB4:
  41              	.LBB5:
  42              		.file 2 "../../os/rt/include/chregistry.h"
  43              		.loc 2 135 0
  44 0002 094B     		ldr	r3, .L5
  45 0004 094A     		ldr	r2, .L5+4
  46 0006 9B69     		ldr	r3, [r3, #24]
  47              	.LBE5:
  48              	.LBE4:
  49              		.loc 1 31 0
  50 0008 094C     		ldr	r4, .L5+8
  51              	.LBB7:
  52              	.LBB6:
  53              		.loc 2 135 0
  54 000a 9A61     		str	r2, [r3, #24]
  55              	.LBE6:
  56              	.LBE7:
  57              		.loc 1 31 0
ARM GAS  /tmp/ccoxl707.s 			page 2


  58 000c 4FF40055 		mov	r5, #8192
  59 0010 2E46     		mov	r6, r5	@ movhi
  60              	.LVL1:
  61              	.L2:
  62              		.loc 1 31 0 is_stmt 0 discriminator 1
  63 0012 2683     		strh	r6, [r4, #24]	@ movhi
  64              		.loc 1 32 0 is_stmt 1 discriminator 1
  65 0014 42F21070 		movw	r0, #10000
  66 0018 FFF7FEFF 		bl	chThdSleep
  67              	.LVL2:
  68              		.loc 1 33 0 discriminator 1
  69 001c 6583     		strh	r5, [r4, #26]	@ movhi
  70              		.loc 1 34 0 discriminator 1
  71 001e 42F21070 		movw	r0, #10000
  72 0022 FFF7FEFF 		bl	chThdSleep
  73              	.LVL3:
  74 0026 F4E7     		b	.L2
  75              	.L6:
  76              		.align	2
  77              	.L5:
  78 0028 00000000 		.word	ch
  79 002c 00000000 		.word	.LC0
  80 0030 00080240 		.word	1073874944
  81              		.cfi_endproc
  82              	.LFE260:
  83              		.size	Thread1, .-Thread1
  84 0034 AFF30080 		.section	.text.startup.main,"ax",%progbits
  84      AFF30080 
  84      AFF30080 
  85              		.align	2
  86              		.p2align 4,,15
  87              		.global	main
  88              		.thumb
  89              		.thumb_func
  90              		.type	main, %function
  91              	main:
  92              	.LFB261:
  93              		.loc 1 41 0
  94              		.cfi_startproc
  95              		@ Volatile: function does not return.
  96              		@ args = 0, pretend = 0, frame = 0
  97              		@ frame_needed = 0, uses_anonymous_args = 0
  98 0000 00B5     		push	{lr}
  99              		.cfi_def_cfa_offset 4
 100              		.cfi_offset 14, -4
 101              		.loc 1 73 0
 102 0002 184C     		ldr	r4, .L14
 103              		.loc 1 41 0
 104 0004 83B0     		sub	sp, sp, #12
 105              		.cfi_def_cfa_offset 16
 106              		.loc 1 50 0
 107 0006 FFF7FEFF 		bl	halInit
 108              	.LVL4:
 109              		.loc 1 51 0
 110 000a FFF7FEFF 		bl	chSysInit
 111              	.LVL5:
 112              		.loc 1 57 0
ARM GAS  /tmp/ccoxl707.s 			page 3


 113 000e 0021     		movs	r1, #0
 114 0010 1548     		ldr	r0, .L14+4
 115 0012 FFF7FEFF 		bl	sdStart
 116              	.LVL6:
 117              		.loc 1 58 0
 118 0016 2046     		mov	r0, r4
 119 0018 40F28232 		movw	r2, #898
 120 001c 0421     		movs	r1, #4
 121 001e FFF7FEFF 		bl	_pal_lld_setgroupmode
 122              	.LVL7:
 123              		.loc 1 59 0
 124 0022 2046     		mov	r0, r4
 125 0024 40F28232 		movw	r2, #898
 126 0028 0821     		movs	r1, #8
 127 002a FFF7FEFF 		bl	_pal_lld_setgroupmode
 128              	.LVL8:
 129              		.loc 1 61 0
 130 002e 0122     		movs	r2, #1
 131 0030 4FF40051 		mov	r1, #8192
 132 0034 0D48     		ldr	r0, .L14+8
 133 0036 FFF7FEFF 		bl	_pal_lld_setgroupmode
 134              	.LVL9:
 135              		.loc 1 66 0
 136 003a 0023     		movs	r3, #0
 137 003c 0093     		str	r3, [sp]
 138 003e 4022     		movs	r2, #64
 139 0040 0B4B     		ldr	r3, .L14+12
 140 0042 0C48     		ldr	r0, .L14+16
 141 0044 4FF4E871 		mov	r1, #464
 142 0048 FFF7FEFF 		bl	chThdCreateStatic
 143              	.LVL10:
 144 004c 03E0     		b	.L9
 145              	.L8:
 146              		.loc 1 75 0
 147 004e 41F28830 		movw	r0, #5000
 148 0052 FFF7FEFF 		bl	chThdSleep
 149              	.LVL11:
 150              	.L9:
 151              		.loc 1 73 0
 152 0056 2369     		ldr	r3, [r4, #16]
 153 0058 DB07     		lsls	r3, r3, #31
 154 005a F8D5     		bpl	.L8
 155              		.loc 1 74 0
 156 005c 0248     		ldr	r0, .L14+4
 157 005e FFF7FEFF 		bl	TestThread
 158              	.LVL12:
 159 0062 F4E7     		b	.L8
 160              	.L15:
 161              		.align	2
 162              	.L14:
 163 0064 00000240 		.word	1073872896
 164 0068 00000000 		.word	SD2
 165 006c 00080240 		.word	1073874944
 166 0070 00000000 		.word	Thread1
 167 0074 00000000 		.word	.LANCHOR0
 168              		.cfi_endproc
 169              	.LFE261:
ARM GAS  /tmp/ccoxl707.s 			page 4


 170              		.size	main, .-main
 171 0078 AFF30080 		.section	.bss.waThread1,"aw",%nobits
 171      AFF30080 
 172              		.align	3
 173              		.set	.LANCHOR0,. + 0
 174              		.type	waThread1, %object
 175              		.size	waThread1, 464
 176              	waThread1:
 177 0000 00000000 		.space	464
 177      00000000 
 177      00000000 
 177      00000000 
 177      00000000 
 178              		.section	.rodata.str1.4,"aMS",%progbits,1
 179              		.align	2
 180              	.LC0:
 181 0000 626C696E 		.ascii	"blinker\000"
 181      6B657200 
 182              		.text
 183              	.Letext0:
 184              		.file 3 "/usr/lib/gcc/arm-none-eabi/5.2.0/include/stddef.h"
 185              		.file 4 "/usr/arm-none-eabi/include/machine/_default_types.h"
 186              		.file 5 "/usr/arm-none-eabi/include/stdint.h"
 187              		.file 6 "../../os/rt/ports/ARMCMx/compilers/GCC/chtypes.h"
 188              		.file 7 "../../os/rt/include/chsystypes.h"
 189              		.file 8 "../../os/rt/include/chschd.h"
 190              		.file 9 "../../os/ext/CMSIS/ST/stm32f401xc.h"
 191              		.file 10 "../../os/rt/ports/ARMCMx/chcore.h"
 192              		.file 11 "../../os/rt/ports/ARMCMx/chcore_v7m.h"
 193              		.file 12 "../../os/rt/include/chtm.h"
 194              		.file 13 "../../os/rt/include/chsem.h"
 195              		.file 14 "../../os/rt/include/chmtx.h"
 196              		.file 15 "../../os/rt/include/chevents.h"
 197              		.file 16 "../../os/rt/include/chqueues.h"
 198              		.file 17 "../../os/hal/ports/STM32/LLD/GPIOv2/pal_lld.h"
 199              		.file 18 "../../os/hal/include/serial.h"
 200              		.file 19 "../../os/hal/ports/STM32/LLD/USARTv1/serial_lld.h"
 201              		.file 20 "../../os/rt/include/chthreads.h"
 202              		.file 21 "../../os/hal/include/hal.h"
 203              		.file 22 "../../os/rt/include/chsys.h"
 204              		.file 23 "../../test/rt/test.h"
 205              		.file 24 "../../os/ext/CMSIS/include/core_cm4.h"