ARM GAS  /tmp/cc3WS41z.s 			page 1


   1              		.syntax unified
   2              		.cpu cortex-m4
   3              		.eabi_attribute 27, 1
   4              		.eabi_attribute 28, 1
   5              		.fpu fpv4-sp-d16
   6              		.eabi_attribute 20, 1
   7              		.eabi_attribute 21, 1
   8              		.eabi_attribute 23, 3
   9              		.eabi_attribute 24, 1
  10              		.eabi_attribute 25, 1
  11              		.eabi_attribute 26, 1
  12              		.eabi_attribute 30, 2
  13              		.eabi_attribute 34, 1
  14              		.eabi_attribute 18, 4
  15              		.thumb
  16              		.syntax unified
  17              		.file	"pal_lld.c"
  18              		.text
  19              	.Ltext0:
  20              		.cfi_sections	.debug_frame
  21              		.section	.text._pal_lld_init,"ax",%progbits
  22              		.align	2
  23              		.p2align 4,,15
  24              		.global	_pal_lld_init
  25              		.thumb
  26              		.thumb_func
  27              		.type	_pal_lld_init, %function
  28              	_pal_lld_init:
  29              	.LFB261:
  30              		.file 1 "../../os/hal/ports/STM32/LLD/GPIOv2/pal_lld.c"
  31              		.loc 1 92 0
  32              		.cfi_startproc
  33              		@ args = 0, pretend = 0, frame = 0
  34              		@ frame_needed = 0, uses_anonymous_args = 0
  35              		@ link register save eliminated.
  36              	.LVL0:
  37 0000 F0B4     		push	{r4, r5, r6, r7}
  38              		.cfi_def_cfa_offset 16
  39              		.cfi_offset 4, -16
  40              		.cfi_offset 5, -12
  41              		.cfi_offset 6, -8
  42              		.cfi_offset 7, -4
  43              		.loc 1 105 0
  44 0002 3A4E     		ldr	r6, .L3
  45              	.LBB14:
  46              	.LBB15:
  47              		.loc 1 67 0
  48 0004 3A4D     		ldr	r5, .L3+4
  49              	.LBE15:
  50              	.LBE14:
  51              		.loc 1 105 0
  52 0006 376B     		ldr	r7, [r6, #48]
  53              	.LBB17:
  54              	.LBB18:
  55              		.loc 1 67 0
  56 0008 3A4C     		ldr	r4, .L3+8
  57              	.LBE18:
ARM GAS  /tmp/cc3WS41z.s 			page 2


  58              	.LBE17:
  59              	.LBB20:
  60              	.LBB21:
  61 000a 3B49     		ldr	r1, .L3+12
  62              	.LBE21:
  63              	.LBE20:
  64              	.LBB23:
  65              	.LBB24:
  66 000c 3B4A     		ldr	r2, .L3+16
  67              	.LBE24:
  68              	.LBE23:
  69              	.LBB26:
  70              	.LBB27:
  71 000e 3C4B     		ldr	r3, .L3+20
  72              	.LBE27:
  73              	.LBE26:
  74              		.loc 1 105 0
  75 0010 47F01F07 		orr	r7, r7, #31
  76 0014 3763     		str	r7, [r6, #48]
  77              		.loc 1 106 0
  78 0016 376D     		ldr	r7, [r6, #80]
  79 0018 47F01F07 		orr	r7, r7, #31
  80 001c 3765     		str	r7, [r6, #80]
  81              	.LVL1:
  82              	.LBB29:
  83              	.LBB16:
  84              		.loc 1 67 0
  85 001e 4668     		ldr	r6, [r0, #4]
  86 0020 6E60     		str	r6, [r5, #4]
  87              		.loc 1 68 0
  88 0022 8668     		ldr	r6, [r0, #8]
  89 0024 AE60     		str	r6, [r5, #8]
  90              		.loc 1 69 0
  91 0026 C668     		ldr	r6, [r0, #12]
  92 0028 EE60     		str	r6, [r5, #12]
  93              		.loc 1 70 0
  94 002a 0669     		ldr	r6, [r0, #16]
  95 002c 6E61     		str	r6, [r5, #20]
  96              		.loc 1 71 0
  97 002e 4669     		ldr	r6, [r0, #20]
  98 0030 2E62     		str	r6, [r5, #32]
  99              		.loc 1 72 0
 100 0032 8669     		ldr	r6, [r0, #24]
 101 0034 6E62     		str	r6, [r5, #36]
 102              		.loc 1 73 0
 103 0036 0668     		ldr	r6, [r0]
 104 0038 2E60     		str	r6, [r5]
 105              	.LVL2:
 106              	.LBE16:
 107              	.LBE29:
 108              	.LBB30:
 109              	.LBB19:
 110              		.loc 1 67 0
 111 003a 056A     		ldr	r5, [r0, #32]
 112 003c 6560     		str	r5, [r4, #4]
 113              		.loc 1 68 0
 114 003e 456A     		ldr	r5, [r0, #36]
ARM GAS  /tmp/cc3WS41z.s 			page 3


 115 0040 A560     		str	r5, [r4, #8]
 116              		.loc 1 69 0
 117 0042 856A     		ldr	r5, [r0, #40]
 118 0044 E560     		str	r5, [r4, #12]
 119              		.loc 1 70 0
 120 0046 C56A     		ldr	r5, [r0, #44]
 121 0048 6561     		str	r5, [r4, #20]
 122              		.loc 1 71 0
 123 004a 056B     		ldr	r5, [r0, #48]
 124 004c 2562     		str	r5, [r4, #32]
 125              		.loc 1 72 0
 126 004e 456B     		ldr	r5, [r0, #52]
 127 0050 6562     		str	r5, [r4, #36]
 128              		.loc 1 73 0
 129 0052 C569     		ldr	r5, [r0, #28]
 130 0054 2560     		str	r5, [r4]
 131              	.LVL3:
 132              	.LBE19:
 133              	.LBE30:
 134              	.LBB31:
 135              	.LBB22:
 136              		.loc 1 67 0
 137 0056 C46B     		ldr	r4, [r0, #60]
 138 0058 4C60     		str	r4, [r1, #4]
 139              		.loc 1 68 0
 140 005a 046C     		ldr	r4, [r0, #64]
 141 005c 8C60     		str	r4, [r1, #8]
 142              		.loc 1 69 0
 143 005e 446C     		ldr	r4, [r0, #68]
 144 0060 CC60     		str	r4, [r1, #12]
 145              		.loc 1 70 0
 146 0062 846C     		ldr	r4, [r0, #72]
 147 0064 4C61     		str	r4, [r1, #20]
 148              		.loc 1 71 0
 149 0066 C46C     		ldr	r4, [r0, #76]
 150 0068 0C62     		str	r4, [r1, #32]
 151              		.loc 1 72 0
 152 006a 046D     		ldr	r4, [r0, #80]
 153 006c 4C62     		str	r4, [r1, #36]
 154              		.loc 1 73 0
 155 006e 846B     		ldr	r4, [r0, #56]
 156 0070 0C60     		str	r4, [r1]
 157              	.LVL4:
 158              	.LBE22:
 159              	.LBE31:
 160              	.LBB32:
 161              	.LBB25:
 162              		.loc 1 67 0
 163 0072 816D     		ldr	r1, [r0, #88]
 164 0074 5160     		str	r1, [r2, #4]
 165              		.loc 1 68 0
 166 0076 C16D     		ldr	r1, [r0, #92]
 167 0078 9160     		str	r1, [r2, #8]
 168              		.loc 1 69 0
 169 007a 016E     		ldr	r1, [r0, #96]
 170 007c D160     		str	r1, [r2, #12]
 171              		.loc 1 70 0
ARM GAS  /tmp/cc3WS41z.s 			page 4


 172 007e 416E     		ldr	r1, [r0, #100]
 173 0080 5161     		str	r1, [r2, #20]
 174              		.loc 1 71 0
 175 0082 816E     		ldr	r1, [r0, #104]
 176 0084 1162     		str	r1, [r2, #32]
 177              		.loc 1 72 0
 178 0086 C16E     		ldr	r1, [r0, #108]
 179 0088 5162     		str	r1, [r2, #36]
 180              		.loc 1 73 0
 181 008a 416D     		ldr	r1, [r0, #84]
 182 008c 1160     		str	r1, [r2]
 183              	.LVL5:
 184              	.LBE25:
 185              	.LBE32:
 186              	.LBB33:
 187              	.LBB28:
 188              		.loc 1 67 0
 189 008e 426F     		ldr	r2, [r0, #116]
 190 0090 5A60     		str	r2, [r3, #4]
 191              		.loc 1 68 0
 192 0092 826F     		ldr	r2, [r0, #120]
 193 0094 9A60     		str	r2, [r3, #8]
 194              		.loc 1 69 0
 195 0096 C26F     		ldr	r2, [r0, #124]
 196 0098 DA60     		str	r2, [r3, #12]
 197              		.loc 1 70 0
 198 009a D0F88020 		ldr	r2, [r0, #128]
 199 009e 5A61     		str	r2, [r3, #20]
 200              		.loc 1 71 0
 201 00a0 D0F88420 		ldr	r2, [r0, #132]
 202 00a4 1A62     		str	r2, [r3, #32]
 203              		.loc 1 72 0
 204 00a6 D0F88820 		ldr	r2, [r0, #136]
 205 00aa 5A62     		str	r2, [r3, #36]
 206              		.loc 1 73 0
 207 00ac 026F     		ldr	r2, [r0, #112]
 208 00ae 1A60     		str	r2, [r3]
 209              	.LVL6:
 210              	.LBE28:
 211              	.LBE33:
 212              	.LBB34:
 213              	.LBB35:
 214              		.loc 1 67 0
 215 00b0 D0F89020 		ldr	r2, [r0, #144]
 216 00b4 C3F8042C 		str	r2, [r3, #3076]
 217              		.loc 1 68 0
 218 00b8 D0F89420 		ldr	r2, [r0, #148]
 219 00bc C3F8082C 		str	r2, [r3, #3080]
 220              		.loc 1 69 0
 221 00c0 D0F89820 		ldr	r2, [r0, #152]
 222 00c4 C3F80C2C 		str	r2, [r3, #3084]
 223              		.loc 1 70 0
 224 00c8 D0F89C20 		ldr	r2, [r0, #156]
 225 00cc C3F8142C 		str	r2, [r3, #3092]
 226              		.loc 1 71 0
 227 00d0 D0F8A020 		ldr	r2, [r0, #160]
 228 00d4 C3F8202C 		str	r2, [r3, #3104]
ARM GAS  /tmp/cc3WS41z.s 			page 5


 229              		.loc 1 72 0
 230 00d8 D0F8A420 		ldr	r2, [r0, #164]
 231 00dc C3F8242C 		str	r2, [r3, #3108]
 232              		.loc 1 73 0
 233 00e0 D0F88C20 		ldr	r2, [r0, #140]
 234 00e4 C3F8002C 		str	r2, [r3, #3072]
 235              	.LBE35:
 236              	.LBE34:
 237              		.loc 1 139 0
 238 00e8 F0BC     		pop	{r4, r5, r6, r7}
 239              		.cfi_restore 7
 240              		.cfi_restore 6
 241              		.cfi_restore 5
 242              		.cfi_restore 4
 243              		.cfi_def_cfa_offset 0
 244 00ea 7047     		bx	lr
 245              	.L4:
 246              		.align	2
 247              	.L3:
 248 00ec 00380240 		.word	1073887232
 249 00f0 00000240 		.word	1073872896
 250 00f4 00040240 		.word	1073873920
 251 00f8 00080240 		.word	1073874944
 252 00fc 000C0240 		.word	1073875968
 253 0100 00100240 		.word	1073876992
 254              		.cfi_endproc
 255              	.LFE261:
 256              		.size	_pal_lld_init, .-_pal_lld_init
 257 0104 AFF30080 		.section	.text._pal_lld_setgroupmode,"ax",%progbits
 257      AFF30080 
 257      AFF30080 
 258              		.align	2
 259              		.p2align 4,,15
 260              		.global	_pal_lld_setgroupmode
 261              		.thumb
 262              		.thumb_func
 263              		.type	_pal_lld_setgroupmode, %function
 264              	_pal_lld_setgroupmode:
 265              	.LFB262:
 266              		.loc 1 157 0
 267              		.cfi_startproc
 268              		@ args = 0, pretend = 0, frame = 0
 269              		@ frame_needed = 0, uses_anonymous_args = 0
 270              	.LVL7:
 271 0000 2DE9F04F 		push	{r4, r5, r6, r7, r8, r9, r10, fp, lr}
 272              		.cfi_def_cfa_offset 36
 273              		.cfi_offset 4, -36
 274              		.cfi_offset 5, -32
 275              		.cfi_offset 6, -28
 276              		.cfi_offset 7, -24
 277              		.cfi_offset 8, -20
 278              		.cfi_offset 9, -16
 279              		.cfi_offset 10, -12
 280              		.cfi_offset 11, -8
 281              		.cfi_offset 14, -4
 282              	.LBB36:
 283              		.loc 1 170 0
ARM GAS  /tmp/cc3WS41z.s 			page 6


 284 0004 4FF00F0C 		mov	ip, #15
 285              	.LBE36:
 286              		.loc 1 159 0
 287 0008 02F0030E 		and	lr, r2, #3
 288              	.LVL8:
 289              		.loc 1 160 0
 290 000c C2F38007 		ubfx	r7, r2, #2, #1
 291              	.LVL9:
 292              		.loc 1 161 0
 293 0010 C2F3C106 		ubfx	r6, r2, #3, #2
 294              	.LVL10:
 295              		.loc 1 162 0
 296 0014 C2F34115 		ubfx	r5, r2, #5, #2
 297              	.LVL11:
 298              		.loc 1 164 0
 299 0018 0024     		movs	r4, #0
 300              		.loc 1 163 0
 301 001a C2F3C312 		ubfx	r2, r2, #7, #4
 302              	.LVL12:
 303              	.LBB37:
 304              		.loc 1 176 0
 305 001e 4FF00109 		mov	r9, #1
 306              		.loc 1 178 0
 307 0022 4FF00308 		mov	r8, #3
 308 0026 30E0     		b	.L10
 309              	.LVL13:
 310              	.L16:
 311              		.loc 1 172 0
 312 0028 D0F820B0 		ldr	fp, [r0, #32]
 313 002c 2BEA0303 		bic	r3, fp, r3
 314              	.LVL14:
 315 0030 43EA0A03 		orr	r3, r3, r10
 316 0034 0362     		str	r3, [r0, #32]
 317              	.L8:
 318              	.LVL15:
 319              		.loc 1 176 0
 320 0036 4368     		ldr	r3, [r0, #4]
 321 0038 09FA04FA 		lsl	r10, r9, r4
 322              	.LVL16:
 323 003c 23EA0A03 		bic	r3, r3, r10
 324 0040 3B43     		orrs	r3, r3, r7
 325 0042 4360     		str	r3, [r0, #4]
 326              	.LVL17:
 327              		.loc 1 178 0
 328 0044 6300     		lsls	r3, r4, #1
 329 0046 D0F808A0 		ldr	r10, [r0, #8]
 330 004a 08FA03F3 		lsl	r3, r8, r3
 331 004e DB43     		mvns	r3, r3
 332 0050 0AEA030A 		and	r10, r10, r3
 333 0054 4AEA060A 		orr	r10, r10, r6
 334 0058 C0F808A0 		str	r10, [r0, #8]
 335              		.loc 1 179 0
 336 005c D0F80CA0 		ldr	r10, [r0, #12]
 337 0060 03EA0A0A 		and	r10, r3, r10
 338 0064 4AEA050A 		orr	r10, r10, r5
 339 0068 C0F80CA0 		str	r10, [r0, #12]
 340              		.loc 1 180 0
ARM GAS  /tmp/cc3WS41z.s 			page 7


 341 006c D0F800A0 		ldr	r10, [r0]
 342 0070 03EA0A03 		and	r3, r3, r10
 343 0074 43EA0E03 		orr	r3, r3, lr
 344 0078 0360     		str	r3, [r0]
 345              	.LVL18:
 346              	.L6:
 347              	.LBE37:
 348              		.loc 1 183 0
 349 007a 4908     		lsrs	r1, r1, #1
 350              	.LVL19:
 351 007c 19D0     		beq	.L5
 352              		.loc 1 185 0
 353 007e 7F00     		lsls	r7, r7, #1
 354              	.LVL20:
 355              		.loc 1 186 0
 356 0080 B600     		lsls	r6, r6, #2
 357              	.LVL21:
 358              		.loc 1 187 0
 359 0082 AD00     		lsls	r5, r5, #2
 360              	.LVL22:
 361              		.loc 1 188 0
 362 0084 4FEA8E0E 		lsl	lr, lr, #2
 363              	.LVL23:
 364              		.loc 1 189 0
 365 0088 0134     		adds	r4, r4, #1
 366              	.LVL24:
 367              	.L10:
 368              	.LBB38:
 369              		.loc 1 169 0
 370 008a 04F00703 		and	r3, r4, #7
 371 008e 9B00     		lsls	r3, r3, #2
 372              	.LBE38:
 373              		.loc 1 166 0
 374 0090 11F0010F 		tst	r1, #1
 375              	.LBB39:
 376              		.loc 1 169 0
 377 0094 02FA03FA 		lsl	r10, r2, r3
 378              	.LVL25:
 379              		.loc 1 170 0
 380 0098 0CFA03F3 		lsl	r3, ip, r3
 381              	.LVL26:
 382              	.LBE39:
 383              		.loc 1 166 0
 384 009c EDD0     		beq	.L6
 385              	.LBB40:
 386              		.loc 1 171 0
 387 009e 072C     		cmp	r4, #7
 388 00a0 C2D9     		bls	.L16
 389              		.loc 1 174 0
 390 00a2 D0F824B0 		ldr	fp, [r0, #36]
 391 00a6 2BEA0303 		bic	r3, fp, r3
 392              	.LVL27:
 393 00aa 43EA0A03 		orr	r3, r3, r10
 394 00ae 4362     		str	r3, [r0, #36]
 395 00b0 C1E7     		b	.L8
 396              	.LVL28:
 397              	.L5:
ARM GAS  /tmp/cc3WS41z.s 			page 8


 398 00b2 BDE8F08F 		pop	{r4, r5, r6, r7, r8, r9, r10, fp, pc}
 399              	.LBE40:
 400              		.cfi_endproc
 401              	.LFE262:
 402              		.size	_pal_lld_setgroupmode, .-_pal_lld_setgroupmode
 403 00b6 00BFAFF3 		.text
 403      0080AFF3 
 403      0080
 404              	.Letext0:
 405              		.file 2 "/usr/arm-none-eabi/include/machine/_default_types.h"
 406              		.file 3 "/usr/arm-none-eabi/include/stdint.h"
 407              		.file 4 "../../os/rt/ports/ARMCMx/compilers/GCC/chtypes.h"
 408              		.file 5 "../../os/rt/include/chsystypes.h"
 409              		.file 6 "../../os/rt/include/chschd.h"
 410              		.file 7 "../../os/ext/CMSIS/ST/stm32f401xc.h"
 411              		.file 8 "../../os/rt/ports/ARMCMx/chcore.h"
 412              		.file 9 "../../os/rt/ports/ARMCMx/chcore_v7m.h"
 413              		.file 10 "../../os/rt/include/chtm.h"
 414              		.file 11 "../../os/rt/include/chsem.h"
 415              		.file 12 "../../os/rt/include/chmtx.h"
 416              		.file 13 "../../os/hal/ports/STM32/LLD/GPIOv2/pal_lld.h"
 417              		.file 14 "../../os/ext/CMSIS/include/core_cm4.h"