ARM GAS  /tmp/cc3WS41z.s 			page 1


   1              		.syntax unified
   2              		.cpu cortex-m4
   3              		.eabi_attribute 27, 1
   4              		.eabi_attribute 28, 1
   5              		.fpu fpv4-sp-d16
   6              		.eabi_attribute 20, 1
   7              		.eabi_attribute 21, 1
   8              		.eabi_attribute 23, 3
   9              		.eabi_attribute 24, 1
  10              		.eabi_attribute 25, 1
  11              		.eabi_attribute 26, 1
  12              		.eabi_attribute 30, 2
  13              		.eabi_attribute 34, 1
  14              		.eabi_attribute 18, 4
  15              		.thumb
  16              		.syntax unified
  17              		.file	"pal_lld.c"
  18              		.text
  19              	.Ltext0:
  20              		.cfi_sections	.debug_frame
  21              		.section	.text._pal_lld_init,"ax",%progbits
  22              		.align	2
  23              		.p2align 4,,15
  24              		.global	_pal_lld_init
  25              		.thumb
  26              		.thumb_func
  27              		.type	_pal_lld_init, %function
  28              	_pal_lld_init:
  29              	.LFB261:
  30              		.file 1 "../../os/hal/ports/STM32/LLD/GPIOv2/pal_lld.c"
  31              		.loc 1 92 0
  32              		.cfi_startproc
  33              		@ args = 0, pretend = 0, frame = 0
  34              		@ frame_needed = 0, uses_anonymous_args = 0
  35              		@ link register save eliminated.
  36              	.LVL0:
  37 0000 F0B4     		push	{r4, r5, r6, r7}
  38              		.cfi_def_cfa_offset 16
  39              		.cfi_offset 4, -16
  40              		.cfi_offset 5, -12
  41              		.cfi_offset 6, -8
  42              		.cfi_offset 7, -4
  43              		.loc 1 105 0
  44 0002 3A4E     		ldr	r6, .L3
  45              	.LBB14:
  46              	.LBB15:
  47              		.loc 1 67 0
  48 0004 3A4D     		ldr	r5, .L3+4
  49              	.LBE15:
  50              	.LBE14:
  51              		.loc 1 105 0
  52 0006 376B     		ldr	r7, [r6, #48]
  53              	.LBB17:
  54              	.LBB18:
  55              		.loc 1 67 0
  56 0008 3A4C     		ldr	r4, .L3+8
  57              	.LBE18:
ARM GAS  /tmp/cc3WS41z.s 			page 2


  58              	.LBE17:
  59              	.LBB20:
  60              	.LBB21:
  61 000a 3B49     		ldr	r1, .L3+12
  62              	.LBE21:
  63              	.LBE20:
  64              	.LBB23:
  65              	.LBB24:
  66 000c 3B4A     		ldr	r2, .L3+16
  67              	.LBE24:
  68              	.LBE23:
  69              	.LBB26:
  70              	.LBB27:
  71 000e 3C4B     		ldr	r3, .L3+20
  72              	.LBE27:
  73              	.LBE26:
  74              		.loc 1 105 0
  75 0010 47F01F07 		orr	r7, r7, #31
  76 0014 3763     		str	r7, [r6, #48]
  77              		.loc 1 106 0
  78 0016 376D     		ldr	r7, [r6, #80]
  79 0018 47F01F07 		orr	r7, r7, #31
  80 001c 3765     		str	r7, [r6, #80]
  81              	.LVL1:
  82              	.LBB29:
  83              	.LBB16:
  84              		.loc 1 67 0
  85 001e 4668     		ldr	r6, [r0, #4]
  86 0020 6E60     		str	r6, [r5, #4]
  87              		.loc 1 68 0
  88 0022 8668     		ldr	r6, [r0, #8]
  89 0024 AE60     		str	r6, [r5, #8]
  90              		.loc 1 69 0
  91 0026 C668     		ldr	r6, [r0, #12]
  92 0028 EE60     		str	r6, [r5, #12]
  93              		.loc 1 70 0
  94 002a 0669     		ldr	r6, [r0, #16]
  95 002c 6E61     		str	r6, [r5, #20]
  96              		.loc 1 71 0
  97 002e 4669     		ldr	r6, [r0, #20]
  98 0030 2E62     		str	r6, [r5, #32]
  99              		.loc 1 72 0
 100 0032 8669     		ldr	r6, [r0, #24]
 101 0034 6E62     		str	r6, [r5, #36]
 102              		.loc 1 73 0
 103 0036 0668     		ldr	r6, [r0]
 104 0038 2E60     		str	r6, [r5]
 105              	.LVL2:
 106              	.LBE16:
 107              	.LBE29:
 108              	.LBB30:
 109              	.LBB19:
 110              		.loc 1 67 0
 111 003a 056A     		ldr	r5, [r0, #32]
 112 003c 6560     		str	r5, [r4, #4]
 113              		.loc 1 68 0
 114 003e 456A     		ldr	r5, [r0, #36]
ARM GAS  /tmp/cc3WS41z.s 			page 3


 115 0040 A560     		str	r5, [r4, #8]
 116              		.loc 1 69 0
 117 0042 856A     		ldr	r5, [r0, #40]
 118 0044 E560     		str	r5, [r4, #12]
 119              		.loc 1 70 0
 120 0046 C56A     		ldr	r5, [r0, #44]
 121 0048 6561     		str	r5, [r4, #20]
 122              		.loc 1 71 0
 123 004a 056B     		ldr	r5, [r0, #48]
 124 004c 2562     		str	r5, [r4, #32]
 125              		.loc 1 72 0
 126 004e 456B     		ldr	r5, [r0, #52]
 127 0050 6562     		str	r5, [r4, #36]
 128              		.loc 1 73 0
 129 0052 C569     		ldr	r5, [r0, #28]
 130 0054 2560     		str	r5, [r4]
 131              	.LVL3:
 132              	.LBE19:
 133              	.LBE30:
 134              	.LBB31:
 135              	.LBB22:
 136              		.loc 1 67 0
 137 0056 C46B     		ldr	r4, [r0, #60]
 138 0058 4C60     		str	r4, [r1, #4]
 139              		.loc 1 68 0
 140 005a 046C     		ldr	r4, [r0, #64]
 141 005c 8C60     		str	r4, [r1, #8]
 142              		.loc 1 69 0
 143 005e 446C     		ldr	r4, [r0, #68]
 144 0060 CC60     		str	r4, [r1, #12]
 145              		.loc 1 70 0
 146 0062 846C     		ldr	r4, [r0, #72]
 147 0064 4C61     		str	r4, [r1, #20]
 148              		.loc 1 71 0
 149 0066 C46C     		ldr	r4, [r0, #76]
 150 0068 0C62     		str	r4, [r1, #32]
 151              		.loc 1 72 0
 152 006a 046D     		ldr	r4, [r0, #80]
 153 006c 4C62     		str	r4, [r1, #36]
 154              		.loc 1 73 0
 155 006e 846B     		ldr	r4, [r0, #56]
 156 0070 0C60     		str	r4, [r1]
 157              	.LVL4:
 158              	.LBE22:
 159              	.LBE31:
 160              	.LBB32:
 161              	.LBB25:
 162              		.loc 1 67 0
 163 0072 816D     		ldr	r1, [r0, #88]
 164 0074 5160     		str	r1, [r2, #4]
 165              		.loc 1 68 0
 166 0076 C16D     		ldr	r1, [r0, #92]
 167 0078 9160     		str	r1, [r2, #8]
 168              		.loc 1 69 0
 169 007a 016E     		ldr	r1, [r0, #96]
 170 007c D160     		str	r1, [r2, #12]
 171              		.loc 1 70 0
ARM GAS  /tmp/cc3WS41z.s 			page 4


 172 007e 416E     		ldr	r1, [r0, #100]
 173 0080 5161     		str	r1, [r2, #20]
 174              		.loc 1 71 0
 175 0082 816E     		ldr	r1, [r0, #104]
 176 0084 1162     		str	r1, [r2, #32]
 177              		.loc 1 72 0
 178 0086 C16E     		ldr	r1, [r0, #108]
 179 0088 5162     		str	r1, [r2, #36]
 180              		.loc 1 73 0
 181 008a 416D     		ldr	r1, [r0, #84]
 182 008c 1160     		str	r1, [r2]
 183              	.LVL5:
 184              	.LBE25:
 185              	.LBE32:
 186              	.LBB33:
 187              	.LBB28:
 188              		.loc 1 67 0
 189 008e 426F     		ldr	r2, [r0, #116]
 190 0090 5A60     		str	r2, [r3, #4]
 191              		.loc 1 68 0
 192 0092 826F     		ldr	r2, [r0, #120]
 193 0094 9A60     		str	r2, [r3, #8]
 194              		.loc 1 69 0
 195 0096 C26F     		ldr	r2, [r0, #124]
 196 0098 DA60     		str	r2, [r3, #12]
 197              		.loc 1 70 0
 198 009a D0F88020 		ldr	r2, [r0, #128]
 199 009e 5A61     		str	r2, [r3, #20]
 200              		.loc 1 71 0
 201 00a0 D0F88420 		ldr	r2, [r0, #132]
 202 00a4 1A62     		str	r2, [r3, #32]
 203              		.loc 1 72 0
 204 00a6 D0F88820 		ldr	r2, [r0, #136]
 205 00aa 5A62     		str	r2, [r3, #36]
 206              		.loc 1 73 0
 207 00ac 026F     		ldr	r2, [r0, #112]
 208 00ae 1A60     		str	r2, [r3]
 209              	.LVL6:
 210              	.LBE28:
 211              	.LBE33:
 212              	.LBB34:
 213              	.LBB35:
 214              		.loc 1 67 0
 215 00b0 D0F89020 		ldr	r2, [r0, #144]
 216 00b4 C3F8042C 		str	r2, [r3, #3076]
 217              		.loc 1 68 0
 218 00b8 D0F89420 		ldr	r2, [r0, #148]
 219 00bc C3F8082C 		str	r2, [r3, #3080]
 220              		.loc 1 69 0
 221 00c0 D0F89820 		ldr	r2, [r0, #152]
 222 00c4 C3F80C2C 		str	r2, [r3, #3084]
 223              		.loc 1 70 0
 224 00c8 D0F89C20 		ldr	r2, [r0, #156]
 225 00cc C3F8142C 		str	r2, [r3, #3092]
 226              		.loc 1 71 0
 227 00d0 D0F8A020 		ldr	r2, [r0, #160]
 228 00d4 C3F8202C 		str	r2, [r3, #3104]
ARM GAS  /tmp/cc3WS41z.s 			page 5


 229              		.loc 1 72 0
 230 00d8 D0F8A420 		ldr	r2, [r0, #164]
 231 00dc C3F8242C 		str	r2, [r3, #3108]
 232              		.loc 1 73 0
 233 00e0 D0F88C20 		ldr	r2, [r0, #140]
 234 00e4 C3F8002C 		str	r2, [r3, #3072]
 235              	.LBE35:
 236              	.LBE34:
 237              		.loc 1 139 0
 238 00e8 F0BC     		pop	{r4, r5, r6, r7}
 239              		.cfi_restore 7
 240              		.cfi_restore 6
 241              		.cfi_restore 5
 242              		.cfi_restore 4
 243              		.cfi_def_cfa_offset 0
 244 00ea 7047     		bx	lr
 245              	.L4:
 246              		.align	2
 247              	.L3:
 248 00ec 00380240 		.word	1073887232
 249 00f0 00000240 		.word	1073872896
 250 00f4 00040240 		.word	1073873920
 251 00f8 00080240 		.word	1073874944
 252 00fc 000C0240 		.word	1073875968
 253 0100 00100240 		.word	1073876992
 254              		.cfi_endproc
 255              	.LFE261:
 256              		.size	_pal_lld_init, .-_pal_lld_init
 257 0104 AFF30080 		.section	.text._pal_lld_setgroupmode,"ax",%progbits
 257      AFF30080 
 257      AFF30080 
 258              		.align	2
 259              		.p2align 4,,15
 260              		.global	_pal_lld_setgroupmode
 261              		.thumb
 262              		.thumb_func
 263              		.type	_pal_lld_setgroupmode, %function
 264              	_pal_lld_setgroupmode:
 265              	.LFB262:
 266              		.loc 1 157 0
 267              		.cfi_startproc
 268              		@ args = 0, pretend = 0, frame = 0
 269              		@ frame_needed = 0, uses_anonymous_args = 0
 270              	.LVL7:
 271 0000 2DE9F04F 		push	{r4, r5, r6, r7, r8, r9, r10, fp, lr}
 272              		.cfi_def_cfa_offset 36
 273              		.cfi_offset 4, -36
 274              		.cfi_offset 5, -32
 275              		.cfi_offset 6, -28
 276              		.cfi_offset 7, -24
 277              		.cfi_offset 8, -20
 278              		.cfi_offset 9, -16
 279              		.cfi_offset 10, -12
 280              		.cfi_offset 11, -8
 281              		.cfi_offset 14, -4
 282              	.LBB36:
 283              		.loc 1 170 0
ARM GAS  /tmp/cc3WS41z.s 			page 6


 284 0004 4FF00F0C 		mov	ip, #15
 285              	.LBE36:
 286              		.loc 1 159 0
 287 0008 02F0030E 		and	lr, r2, #3
 288              	.LVL8:
 289              		.loc 1 160 0
 290 000c C2F38007 		ubfx	r7, r2, #2, #1
 291              	.LVL9:
 292              		.loc 1 161 0
 293 0010 C2F3C106 		ubfx	r6, r2, #3, #2
 294              	.LVL10:
 295              		.loc 1 162 0
 296 0014 C2F34115 		ubfx	r5, r2, #5, #2
 297              	.LVL11:
 298              		.loc 1 164 0
 299 0018 0024     		movs	r4, #0
 300              		.loc 1 163 0
 301 001a C2F3C312 		ubfx	r2, r2, #7, #4
 302              	.LVL12:
 303              	.LBB37:
 304              		.loc 1 176 0
 305 001e 4FF00109 		mov	r9, #1
 306              		.loc 1 178 0
 307 0022 4FF00308 		mov	r8, #3
 308 0026 30E0     		b	.L10
 309              	.LVL13:
 310              	.L16:
 311              		.loc 1 172 0
 312 0028 D0F820B0 		ldr	fp, [r0, #32]
 313 002c 2BEA0303 		bic	r3, fp, r3
 314              	.LVL14:
 315 0030 43EA0A03 		orr	r3, r3, r10
 316 0034 0362     		str	r3, [r0, #32]
 317              	.L8:
 318              	.LVL15:
 319              		.loc 1 176 0
 320 0036 4368     		ldr	r3, [r0, #4]
 321 0038 09FA04FA 		lsl	r10, r9, r4
 322              	.LVL16:
 323 003c 23EA0A03 		bic	r3, r3, r10
 324 0040 3B43     		orrs	r3, r3, r7
 325 0042 4360     		str	r3, [r0, #4]
 326              	.LVL17:
 327              		.loc 1 178 0
 328 0044 6300     		lsls	r3, r4, #1
 329 0046 D0F808A0 		ldr	r10, [r0, #8]
 330 004a 08FA03F3 		lsl	r3, r8, r3
 331 004e DB43     		mvns	r3, r3
 332 0050 0AEA030A 		and	r10, r10, r3
 333 0054 4AEA060A 		orr	r10, r10, r6
 334 0058 C0F808A0 		str	r10, [r0, #8]
 335              		.loc 1 179 0
 336 005c D0F80CA0 		ldr	r10, [r0, #12]
 337 0060 03EA0A0A 		and	r10, r3, r10
 338 0064 4AEA050A 		orr	r10, r10, r5
 339 0068 C0F80CA0 		str	r10, [r0, #12]
 340              		.loc 1 180 0
ARM GAS  /tmp/cc3WS41z.s 			page 7


 341 006c D0F800A0 		ldr	r10, [r0]
 342 0070 03EA0A03 		and	r3, r3, r10
 343 0074 43EA0E03 		orr	r3, r3, lr
 344 0078 0360     		str	r3, [r0]
 345              	.LVL18:
 346              	.L6:
 347              	.LBE37:
 348              		.loc 1 183 0
 349 007a 4908     		lsrs	r1, r1, #1
 350              	.LVL19:
 351 007c 19D0     		beq	.L5
 352              		.loc 1 185 0
 353 007e 7F00     		lsls	r7, r7, #1
 354              	.LVL20:
 355              		.loc 1 186 0
 356 0080 B600     		lsls	r6, r6, #2
 357              	.LVL21:
 358              		.loc 1 187 0
 359 0082 AD00     		lsls	r5, r5, #2
 360              	.LVL22:
 361              		.loc 1 188 0
 362 0084 4FEA8E0E 		lsl	lr, lr, #2
 363              	.LVL23:
 364              		.loc 1 189 0
 365 0088 0134     		adds	r4, r4, #1
 366              	.LVL24:
 367              	.L10:
 368              	.LBB38:
 369              		.loc 1 169 0
 370 008a 04F00703 		and	r3, r4, #7
 371 008e 9B00     		lsls	r3, r3, #2
 372              	.LBE38:
 373              		.loc 1 166 0
 374 0090 11F0010F 		tst	r1, #1
 375              	.LBB39:
 376              		.loc 1 169 0
 377 0094 02FA03FA 		lsl	r10, r2, r3
 378              	.LVL25:
 379              		.loc 1 170 0
 380 0098 0CFA03F3 		lsl	r3, ip, r3
 381              	.LVL26:
 382              	.LBE39:
 383              		.loc 1 166 0
 384 009c EDD0     		beq	.L6
 385              	.LBB40:
 386              		.loc 1 171 0
 387 009e 072C     		cmp	r4, #7
 388 00a0 C2D9     		bls	.L16
 389              		.loc 1 174 0
 390 00a2 D0F824B0 		ldr	fp, [r0, #36]
 391 00a6 2BEA0303 		bic	r3, fp, r3
 392              	.LVL27:
 393 00aa 43EA0A03 		orr	r3, r3, r10
 394 00ae 4362     		str	r3, [r0, #36]
 395 00b0 C1E7     		b	.L8
 396              	.LVL28:
 397              	.L5:
ARM GAS  /tmp/cc3WS41z.s 			page 8


 398 00b2 BDE8F08F 		pop	{r4, r5, r6, r7, r8, r9, r10, fp, pc}
 399              	.LBE40:
 400              		.cfi_endproc
 401              	.LFE262:
 402              		.size	_pal_lld_setgroupmode, .-_pal_lld_setgroupmode
 403 00b6 00BFAFF3 		.text
 403      0080AFF3 
 403      0080
 404              	.Letext0:
 405              		.file 2 "/usr/arm-none-eabi/include/machine/_default_types.h"
 406              		.file 3 "/usr/arm-none-eabi/include/stdint.h"
 407              		.file 4 "../../os/rt/ports/ARMCMx/compilers/GCC/chtypes.h"
 408              		.file 5 "../../os/rt/include/chsystypes.h"
 409              		.file 6 "../../os/rt/include/chschd.h"
 410              		.file 7 "../../os/ext/CMSIS/ST/stm32f401xc.h"
 411              		.file 8 "../../os/rt/ports/ARMCMx/chcore.h"
 412              		.file 9 "../../os/rt/ports/ARMCMx/chcore_v7m.h"
 413              		.file 10 "../../os/rt/include/chtm.h"
 414              		.file 11 "../../os/rt/include/chsem.h"
 415              		.file 12 "../../os/rt/include/chmtx.h"
 416              		.file 13 "../../os/hal/ports/STM32/LLD/GPIOv2/pal_lld.h"
 417              		.file 14 "../../os/ext/CMSIS/include/core_cm4.h"
 418              		.section	.debug_info,"",%progbits
 419              	.Ldebug_info0:
 420 0000 9D0C0000 		.4byte	0xc9d
 421 0004 0400     		.2byte	0x4
 422 0006 00000000 		.4byte	.Ldebug_abbrev0
 423 000a 04       		.byte	0x4
 424 000b 01       		.uleb128 0x1
 425 000c ED020000 		.4byte	.LASF170
 426 0010 0C       		.byte	0xc
 427 0011 2A010000 		.4byte	.LASF171
 428 0015 1A060000 		.4byte	.LASF172
 429 0019 A8000000 		.4byte	.Ldebug_ranges0+0xa8
 430 001d 00000000 		.4byte	0
 431 0021 00000000 		.4byte	.Ldebug_line0
 432 0025 02       		.uleb128 0x2
 433 0026 04       		.byte	0x4
 434 0027 05       		.byte	0x5
 435 0028 696E7400 		.ascii	"int\000"
 436 002c 03       		.uleb128 0x3
 437 002d 04       		.byte	0x4
 438 002e 07       		.byte	0x7
 439 002f 1C020000 		.4byte	.LASF0
 440 0033 03       		.uleb128 0x3
 441 0034 08       		.byte	0x8
 442 0035 05       		.byte	0x5
 443 0036 F2000000 		.4byte	.LASF1
 444 003a 03       		.uleb128 0x3
 445 003b 08       		.byte	0x8
 446 003c 04       		.byte	0x4
 447 003d 2D040000 		.4byte	.LASF2
 448 0041 03       		.uleb128 0x3
 449 0042 01       		.byte	0x1
 450 0043 06       		.byte	0x6
 451 0044 00010000 		.4byte	.LASF3
 452 0048 04       		.uleb128 0x4
ARM GAS  /tmp/cc3WS41z.s 			page 9


 453 0049 36000000 		.4byte	.LASF6
 454 004d 02       		.byte	0x2
 455 004e 1D       		.byte	0x1d
 456 004f 53000000 		.4byte	0x53
 457 0053 03       		.uleb128 0x3
 458 0054 01       		.byte	0x1
 459 0055 08       		.byte	0x8
 460 0056 22050000 		.4byte	.LASF4
 461 005a 03       		.uleb128 0x3
 462 005b 02       		.byte	0x2
 463 005c 05       		.byte	0x5
 464 005d 45050000 		.4byte	.LASF5
 465 0061 04       		.uleb128 0x4
 466 0062 0F060000 		.4byte	.LASF7
 467 0066 02       		.byte	0x2
 468 0067 2B       		.byte	0x2b
 469 0068 6C000000 		.4byte	0x6c
 470 006c 03       		.uleb128 0x3
 471 006d 02       		.byte	0x2
 472 006e 07       		.byte	0x7
 473 006f 69020000 		.4byte	.LASF8
 474 0073 04       		.uleb128 0x4
 475 0074 D8020000 		.4byte	.LASF9
 476 0078 02       		.byte	0x2
 477 0079 3F       		.byte	0x3f
 478 007a 7E000000 		.4byte	0x7e
 479 007e 03       		.uleb128 0x3
 480 007f 04       		.byte	0x4
 481 0080 05       		.byte	0x5
 482 0081 74010000 		.4byte	.LASF10
 483 0085 04       		.uleb128 0x4
 484 0086 91060000 		.4byte	.LASF11
 485 008a 02       		.byte	0x2
 486 008b 41       		.byte	0x41
 487 008c 90000000 		.4byte	0x90
 488 0090 03       		.uleb128 0x3
 489 0091 04       		.byte	0x4
 490 0092 07       		.byte	0x7
 491 0093 E7050000 		.4byte	.LASF12
 492 0097 04       		.uleb128 0x4
 493 0098 9C040000 		.4byte	.LASF13
 494 009c 02       		.byte	0x2
 495 009d 5B       		.byte	0x5b
 496 009e A2000000 		.4byte	0xa2
 497 00a2 03       		.uleb128 0x3
 498 00a3 08       		.byte	0x8
 499 00a4 07       		.byte	0x7
 500 00a5 7C000000 		.4byte	.LASF14
 501 00a9 04       		.uleb128 0x4
 502 00aa 45070000 		.4byte	.LASF15
 503 00ae 03       		.byte	0x3
 504 00af 15       		.byte	0x15
 505 00b0 48000000 		.4byte	0x48
 506 00b4 04       		.uleb128 0x4
 507 00b5 31020000 		.4byte	.LASF16
 508 00b9 03       		.byte	0x3
 509 00ba 21       		.byte	0x21
ARM GAS  /tmp/cc3WS41z.s 			page 10


 510 00bb 61000000 		.4byte	0x61
 511 00bf 04       		.uleb128 0x4
 512 00c0 1A050000 		.4byte	.LASF17
 513 00c4 03       		.byte	0x3
 514 00c5 2C       		.byte	0x2c
 515 00c6 73000000 		.4byte	0x73
 516 00ca 04       		.uleb128 0x4
 517 00cb BF050000 		.4byte	.LASF18
 518 00cf 03       		.byte	0x3
 519 00d0 2D       		.byte	0x2d
 520 00d1 85000000 		.4byte	0x85
 521 00d5 04       		.uleb128 0x4
 522 00d6 2D000000 		.4byte	.LASF19
 523 00da 03       		.byte	0x3
 524 00db 39       		.byte	0x39
 525 00dc 97000000 		.4byte	0x97
 526 00e0 05       		.uleb128 0x5
 527 00e1 BF000000 		.4byte	0xbf
 528 00e5 05       		.uleb128 0x5
 529 00e6 CA000000 		.4byte	0xca
 530 00ea 04       		.uleb128 0x4
 531 00eb F7060000 		.4byte	.LASF20
 532 00ef 04       		.byte	0x4
 533 00f0 45       		.byte	0x45
 534 00f1 CA000000 		.4byte	0xca
 535 00f5 04       		.uleb128 0x4
 536 00f6 AC020000 		.4byte	.LASF21
 537 00fa 04       		.byte	0x4
 538 00fb 48       		.byte	0x48
 539 00fc A9000000 		.4byte	0xa9
 540 0100 04       		.uleb128 0x4
 541 0101 97010000 		.4byte	.LASF22
 542 0105 04       		.byte	0x4
 543 0106 49       		.byte	0x49
 544 0107 A9000000 		.4byte	0xa9
 545 010b 04       		.uleb128 0x4
 546 010c B1040000 		.4byte	.LASF23
 547 0110 04       		.byte	0x4
 548 0111 4A       		.byte	0x4a
 549 0112 A9000000 		.4byte	0xa9
 550 0116 04       		.uleb128 0x4
 551 0117 FC040000 		.4byte	.LASF24
 552 011b 04       		.byte	0x4
 553 011c 4C       		.byte	0x4c
 554 011d CA000000 		.4byte	0xca
 555 0121 04       		.uleb128 0x4
 556 0122 91020000 		.4byte	.LASF25
 557 0126 04       		.byte	0x4
 558 0127 4D       		.byte	0x4d
 559 0128 BF000000 		.4byte	0xbf
 560 012c 04       		.uleb128 0x4
 561 012d CC020000 		.4byte	.LASF26
 562 0131 04       		.byte	0x4
 563 0132 4F       		.byte	0x4f
 564 0133 CA000000 		.4byte	0xca
 565 0137 04       		.uleb128 0x4
 566 0138 16020000 		.4byte	.LASF27
ARM GAS  /tmp/cc3WS41z.s 			page 11


 567 013c 04       		.byte	0x4
 568 013d 51       		.byte	0x51
 569 013e BF000000 		.4byte	0xbf
 570 0142 04       		.uleb128 0x4
 571 0143 73060000 		.4byte	.LASF28
 572 0147 05       		.byte	0x5
 573 0148 33       		.byte	0x33
 574 0149 CA000000 		.4byte	0xca
 575 014d 04       		.uleb128 0x4
 576 014e 63060000 		.4byte	.LASF29
 577 0152 05       		.byte	0x5
 578 0153 3F       		.byte	0x3f
 579 0154 58010000 		.4byte	0x158
 580 0158 06       		.uleb128 0x6
 581 0159 7C020000 		.4byte	.LASF49
 582 015d 44       		.byte	0x44
 583 015e 06       		.byte	0x6
 584 015f C2       		.byte	0xc2
 585 0160 45020000 		.4byte	0x245
 586 0164 07       		.uleb128 0x7
 587 0165 39040000 		.4byte	.LASF30
 588 0169 06       		.byte	0x6
 589 016a C3       		.byte	0xc3
 590 016b 50020000 		.4byte	0x250
 591 016f 00       		.byte	0
 592 0170 07       		.uleb128 0x7
 593 0171 EB040000 		.4byte	.LASF31
 594 0175 06       		.byte	0x6
 595 0176 C5       		.byte	0xc5
 596 0177 50020000 		.4byte	0x250
 597 017b 04       		.byte	0x4
 598 017c 07       		.uleb128 0x7
 599 017d EB000000 		.4byte	.LASF32
 600 0181 06       		.byte	0x6
 601 0182 C7       		.byte	0xc7
 602 0183 16010000 		.4byte	0x116
 603 0187 08       		.byte	0x8
 604 0188 07       		.uleb128 0x7
 605 0189 9E070000 		.4byte	.LASF33
 606 018d 06       		.byte	0x6
 607 018e C8       		.byte	0xc8
 608 018f 2B060000 		.4byte	0x62b
 609 0193 0C       		.byte	0xc
 610 0194 07       		.uleb128 0x7
 611 0195 A9010000 		.4byte	.LASF34
 612 0199 06       		.byte	0x6
 613 019a CA       		.byte	0xca
 614 019b 50020000 		.4byte	0x250
 615 019f 10       		.byte	0x10
 616 01a0 07       		.uleb128 0x7
 617 01a1 54040000 		.4byte	.LASF35
 618 01a5 06       		.byte	0x6
 619 01a6 CB       		.byte	0xcb
 620 01a7 50020000 		.4byte	0x250
 621 01ab 14       		.byte	0x14
 622 01ac 07       		.uleb128 0x7
 623 01ad 5A070000 		.4byte	.LASF36
ARM GAS  /tmp/cc3WS41z.s 			page 12


 624 01b1 06       		.byte	0x6
 625 01b2 D2       		.byte	0xd2
 626 01b3 70080000 		.4byte	0x870
 627 01b7 18       		.byte	0x18
 628 01b8 07       		.uleb128 0x7
 629 01b9 4F050000 		.4byte	.LASF37
 630 01bd 06       		.byte	0x6
 631 01be DD       		.byte	0xdd
 632 01bf 00010000 		.4byte	0x100
 633 01c3 1C       		.byte	0x1c
 634 01c4 07       		.uleb128 0x7
 635 01c5 76050000 		.4byte	.LASF38
 636 01c9 06       		.byte	0x6
 637 01ca E1       		.byte	0xe1
 638 01cb F5000000 		.4byte	0xf5
 639 01cf 1D       		.byte	0x1d
 640 01d0 07       		.uleb128 0x7
 641 01d1 25070000 		.4byte	.LASF39
 642 01d5 06       		.byte	0x6
 643 01d6 E6       		.byte	0xe6
 644 01d7 0B010000 		.4byte	0x10b
 645 01db 1E       		.byte	0x1e
 646 01dc 08       		.uleb128 0x8
 647 01dd 705F7500 		.ascii	"p_u\000"
 648 01e1 06       		.byte	0x6
 649 01e2 3101     		.2byte	0x131
 650 01e4 AB070000 		.4byte	0x7ab
 651 01e8 20       		.byte	0x20
 652 01e9 09       		.uleb128 0x9
 653 01ea EA030000 		.4byte	.LASF40
 654 01ee 06       		.byte	0x6
 655 01ef 3601     		.2byte	0x136
 656 01f1 56020000 		.4byte	0x256
 657 01f5 24       		.byte	0x24
 658 01f6 09       		.uleb128 0x9
 659 01f7 4A020000 		.4byte	.LASF41
 660 01fb 06       		.byte	0x6
 661 01fc 3C01     		.2byte	0x13c
 662 01fe 7A020000 		.4byte	0x27a
 663 0202 28       		.byte	0x28
 664 0203 09       		.uleb128 0x9
 665 0204 7D070000 		.4byte	.LASF42
 666 0208 06       		.byte	0x6
 667 0209 4001     		.2byte	0x140
 668 020b 21010000 		.4byte	0x121
 669 020f 30       		.byte	0x30
 670 0210 09       		.uleb128 0x9
 671 0211 AA050000 		.4byte	.LASF43
 672 0215 06       		.byte	0x6
 673 0216 4601     		.2byte	0x146
 674 0218 2C010000 		.4byte	0x12c
 675 021c 34       		.byte	0x34
 676 021d 09       		.uleb128 0x9
 677 021e 3B050000 		.4byte	.LASF44
 678 0222 06       		.byte	0x6
 679 0223 4D01     		.2byte	0x14d
 680 0225 6A080000 		.4byte	0x86a
ARM GAS  /tmp/cc3WS41z.s 			page 13


 681 0229 38       		.byte	0x38
 682 022a 09       		.uleb128 0x9
 683 022b 7D060000 		.4byte	.LASF45
 684 022f 06       		.byte	0x6
 685 0230 5101     		.2byte	0x151
 686 0232 16010000 		.4byte	0x116
 687 0236 3C       		.byte	0x3c
 688 0237 09       		.uleb128 0x9
 689 0238 1A010000 		.4byte	.LASF46
 690 023c 06       		.byte	0x6
 691 023d 5801     		.2byte	0x158
 692 023f 2D030000 		.4byte	0x32d
 693 0243 40       		.byte	0x40
 694 0244 00       		.byte	0
 695 0245 04       		.uleb128 0x4
 696 0246 FD030000 		.4byte	.LASF47
 697 024a 05       		.byte	0x5
 698 024b 44       		.byte	0x44
 699 024c 50020000 		.4byte	0x250
 700 0250 0A       		.uleb128 0xa
 701 0251 04       		.byte	0x4
 702 0252 4D010000 		.4byte	0x14d
 703 0256 04       		.uleb128 0x4
 704 0257 CB030000 		.4byte	.LASF48
 705 025b 05       		.byte	0x5
 706 025c 49       		.byte	0x49
 707 025d 61020000 		.4byte	0x261
 708 0261 06       		.uleb128 0x6
 709 0262 D7050000 		.4byte	.LASF50
 710 0266 04       		.byte	0x4
 711 0267 06       		.byte	0x6
 712 0268 B0       		.byte	0xb0
 713 0269 7A020000 		.4byte	0x27a
 714 026d 07       		.uleb128 0x7
 715 026e 39040000 		.4byte	.LASF30
 716 0272 06       		.byte	0x6
 717 0273 B1       		.byte	0xb1
 718 0274 50020000 		.4byte	0x250
 719 0278 00       		.byte	0
 720 0279 00       		.byte	0
 721 027a 04       		.uleb128 0x4
 722 027b 0C070000 		.4byte	.LASF51
 723 027f 05       		.byte	0x5
 724 0280 50       		.byte	0x50
 725 0281 85020000 		.4byte	0x285
 726 0285 06       		.uleb128 0x6
 727 0286 D0000000 		.4byte	.LASF52
 728 028a 08       		.byte	0x8
 729 028b 06       		.byte	0x6
 730 028c B7       		.byte	0xb7
 731 028d AA020000 		.4byte	0x2aa
 732 0291 07       		.uleb128 0x7
 733 0292 39040000 		.4byte	.LASF30
 734 0296 06       		.byte	0x6
 735 0297 B8       		.byte	0xb8
 736 0298 50020000 		.4byte	0x250
 737 029c 00       		.byte	0
ARM GAS  /tmp/cc3WS41z.s 			page 14


 738 029d 07       		.uleb128 0x7
 739 029e EB040000 		.4byte	.LASF31
 740 02a2 06       		.byte	0x6
 741 02a3 B9       		.byte	0xb9
 742 02a4 50020000 		.4byte	0x250
 743 02a8 04       		.byte	0x4
 744 02a9 00       		.byte	0
 745 02aa 04       		.uleb128 0x4
 746 02ab 13000000 		.4byte	.LASF53
 747 02af 05       		.byte	0x5
 748 02b0 57       		.byte	0x57
 749 02b1 B5020000 		.4byte	0x2b5
 750 02b5 0B       		.uleb128 0xb
 751 02b6 BE020000 		.4byte	.LASF54
 752 02ba 1C       		.byte	0x1c
 753 02bb 06       		.byte	0x6
 754 02bc 9001     		.2byte	0x190
 755 02be 11030000 		.4byte	0x311
 756 02c2 09       		.uleb128 0x9
 757 02c3 CF050000 		.4byte	.LASF55
 758 02c7 06       		.byte	0x6
 759 02c8 9101     		.2byte	0x191
 760 02ca 7A020000 		.4byte	0x27a
 761 02ce 00       		.byte	0
 762 02cf 09       		.uleb128 0x9
 763 02d0 61050000 		.4byte	.LASF56
 764 02d4 06       		.byte	0x6
 765 02d5 9201     		.2byte	0x192
 766 02d7 16010000 		.4byte	0x116
 767 02db 08       		.byte	0x8
 768 02dc 09       		.uleb128 0x9
 769 02dd 5C040000 		.4byte	.LASF57
 770 02e1 06       		.byte	0x6
 771 02e2 9401     		.2byte	0x194
 772 02e4 2B060000 		.4byte	0x62b
 773 02e8 0C       		.byte	0xc
 774 02e9 09       		.uleb128 0x9
 775 02ea C1010000 		.4byte	.LASF58
 776 02ee 06       		.byte	0x6
 777 02ef 9701     		.2byte	0x197
 778 02f1 50020000 		.4byte	0x250
 779 02f5 10       		.byte	0x10
 780 02f6 09       		.uleb128 0x9
 781 02f7 D9060000 		.4byte	.LASF59
 782 02fb 06       		.byte	0x6
 783 02fc 9801     		.2byte	0x198
 784 02fe 50020000 		.4byte	0x250
 785 0302 14       		.byte	0x14
 786 0303 09       		.uleb128 0x9
 787 0304 89040000 		.4byte	.LASF60
 788 0308 06       		.byte	0x6
 789 0309 9B01     		.2byte	0x19b
 790 030b 50020000 		.4byte	0x250
 791 030f 18       		.byte	0x18
 792 0310 00       		.byte	0
 793 0311 04       		.uleb128 0x4
 794 0312 88060000 		.4byte	.LASF61
ARM GAS  /tmp/cc3WS41z.s 			page 15


 795 0316 05       		.byte	0x5
 796 0317 5C       		.byte	0x5c
 797 0318 1C030000 		.4byte	0x31c
 798 031c 0A       		.uleb128 0xa
 799 031d 04       		.byte	0x4
 800 031e 22030000 		.4byte	0x322
 801 0322 0C       		.uleb128 0xc
 802 0323 2D030000 		.4byte	0x32d
 803 0327 0D       		.uleb128 0xd
 804 0328 2D030000 		.4byte	0x32d
 805 032c 00       		.byte	0
 806 032d 0E       		.uleb128 0xe
 807 032e 04       		.byte	0x4
 808 032f 04       		.uleb128 0x4
 809 0330 DA030000 		.4byte	.LASF62
 810 0334 05       		.byte	0x5
 811 0335 61       		.byte	0x61
 812 0336 3A030000 		.4byte	0x33a
 813 033a 0B       		.uleb128 0xb
 814 033b 8C050000 		.4byte	.LASF63
 815 033f 14       		.byte	0x14
 816 0340 06       		.byte	0x6
 817 0341 6B01     		.2byte	0x16b
 818 0343 89030000 		.4byte	0x389
 819 0347 09       		.uleb128 0x9
 820 0348 29020000 		.4byte	.LASF64
 821 034c 06       		.byte	0x6
 822 034d 6C01     		.2byte	0x16c
 823 034f 82080000 		.4byte	0x882
 824 0353 00       		.byte	0
 825 0354 09       		.uleb128 0x9
 826 0355 D7010000 		.4byte	.LASF65
 827 0359 06       		.byte	0x6
 828 035a 6D01     		.2byte	0x16d
 829 035c 82080000 		.4byte	0x882
 830 0360 04       		.byte	0x4
 831 0361 09       		.uleb128 0x9
 832 0362 41020000 		.4byte	.LASF66
 833 0366 06       		.byte	0x6
 834 0367 6E01     		.2byte	0x16e
 835 0369 42010000 		.4byte	0x142
 836 036d 08       		.byte	0x8
 837 036e 09       		.uleb128 0x9
 838 036f A4070000 		.4byte	.LASF67
 839 0373 06       		.byte	0x6
 840 0374 6F01     		.2byte	0x16f
 841 0376 11030000 		.4byte	0x311
 842 037a 0C       		.byte	0xc
 843 037b 09       		.uleb128 0x9
 844 037c FF060000 		.4byte	.LASF68
 845 0380 06       		.byte	0x6
 846 0381 7101     		.2byte	0x171
 847 0383 2D030000 		.4byte	0x32d
 848 0387 10       		.byte	0x10
 849 0388 00       		.byte	0
 850 0389 04       		.uleb128 0x4
 851 038a AD000000 		.4byte	.LASF69
ARM GAS  /tmp/cc3WS41z.s 			page 16


 852 038e 05       		.byte	0x5
 853 038f 66       		.byte	0x66
 854 0390 94030000 		.4byte	0x394
 855 0394 0B       		.uleb128 0xb
 856 0395 10040000 		.4byte	.LASF70
 857 0399 10       		.byte	0x10
 858 039a 06       		.byte	0x6
 859 039b 7B01     		.2byte	0x17b
 860 039d D6030000 		.4byte	0x3d6
 861 03a1 09       		.uleb128 0x9
 862 03a2 29020000 		.4byte	.LASF64
 863 03a6 06       		.byte	0x6
 864 03a7 7C01     		.2byte	0x17c
 865 03a9 82080000 		.4byte	0x882
 866 03ad 00       		.byte	0
 867 03ae 09       		.uleb128 0x9
 868 03af D7010000 		.4byte	.LASF65
 869 03b3 06       		.byte	0x6
 870 03b4 7E01     		.2byte	0x17e
 871 03b6 82080000 		.4byte	0x882
 872 03ba 04       		.byte	0x4
 873 03bb 09       		.uleb128 0x9
 874 03bc 41020000 		.4byte	.LASF66
 875 03c0 06       		.byte	0x6
 876 03c1 8001     		.2byte	0x180
 877 03c3 42010000 		.4byte	0x142
 878 03c7 08       		.byte	0x8
 879 03c8 09       		.uleb128 0x9
 880 03c9 48040000 		.4byte	.LASF71
 881 03cd 06       		.byte	0x6
 882 03ce 8801     		.2byte	0x188
 883 03d0 42010000 		.4byte	0x142
 884 03d4 0C       		.byte	0xc
 885 03d5 00       		.byte	0
 886 03d6 04       		.uleb128 0x4
 887 03d7 53000000 		.4byte	.LASF72
 888 03db 05       		.byte	0x5
 889 03dc 6B       		.byte	0x6b
 890 03dd E1030000 		.4byte	0x3e1
 891 03e1 0B       		.uleb128 0xb
 892 03e2 04050000 		.4byte	.LASF73
 893 03e6 04       		.byte	0x4
 894 03e7 06       		.byte	0x6
 895 03e8 A201     		.2byte	0x1a2
 896 03ea FC030000 		.4byte	0x3fc
 897 03ee 09       		.uleb128 0x9
 898 03ef A5060000 		.4byte	.LASF74
 899 03f3 06       		.byte	0x6
 900 03f4 AA01     		.2byte	0x1aa
 901 03f6 88080000 		.4byte	0x888
 902 03fa 00       		.byte	0
 903 03fb 00       		.byte	0
 904 03fc 04       		.uleb128 0x4
 905 03fd A0020000 		.4byte	.LASF75
 906 0401 05       		.byte	0x5
 907 0402 70       		.byte	0x70
 908 0403 07040000 		.4byte	0x407
ARM GAS  /tmp/cc3WS41z.s 			page 17


 909 0407 0F       		.uleb128 0xf
 910 0408 6A010000 		.4byte	.LASF76
 911 040c D801     		.2byte	0x1d8
 912 040e 06       		.byte	0x6
 913 040f C201     		.2byte	0x1c2
 914 0411 63040000 		.4byte	0x463
 915 0415 09       		.uleb128 0x9
 916 0416 3F070000 		.4byte	.LASF77
 917 041a 06       		.byte	0x6
 918 041b C601     		.2byte	0x1c6
 919 041d AA020000 		.4byte	0x2aa
 920 0421 00       		.byte	0
 921 0422 09       		.uleb128 0x9
 922 0423 DF010000 		.4byte	.LASF78
 923 0427 06       		.byte	0x6
 924 0428 CA01     		.2byte	0x1ca
 925 042a 89030000 		.4byte	0x389
 926 042e 1C       		.byte	0x1c
 927 042f 08       		.uleb128 0x8
 928 0430 64626700 		.ascii	"dbg\000"
 929 0434 06       		.byte	0x6
 930 0435 CE01     		.2byte	0x1ce
 931 0437 D6030000 		.4byte	0x3d6
 932 043b 2C       		.byte	0x2c
 933 043c 09       		.uleb128 0x9
 934 043d A2000000 		.4byte	.LASF79
 935 0441 06       		.byte	0x6
 936 0442 D201     		.2byte	0x1d2
 937 0444 4D010000 		.4byte	0x14d
 938 0448 30       		.byte	0x30
 939 0449 08       		.uleb128 0x8
 940 044a 746D00   		.ascii	"tm\000"
 941 044d 06       		.byte	0x6
 942 044e D701     		.2byte	0x1d7
 943 0450 A0070000 		.4byte	0x7a0
 944 0454 74       		.byte	0x74
 945 0455 09       		.uleb128 0x9
 946 0456 07020000 		.4byte	.LASF80
 947 045a 06       		.byte	0x6
 948 045b E301     		.2byte	0x1e3
 949 045d 8D080000 		.4byte	0x88d
 950 0461 78       		.byte	0x78
 951 0462 00       		.byte	0
 952 0463 03       		.uleb128 0x3
 953 0464 04       		.byte	0x4
 954 0465 07       		.byte	0x7
 955 0466 F4030000 		.4byte	.LASF81
 956 046a 10       		.uleb128 0x10
 957 046b CA000000 		.4byte	0xca
 958 046f 7A040000 		.4byte	0x47a
 959 0473 11       		.uleb128 0x11
 960 0474 63040000 		.4byte	0x463
 961 0478 01       		.byte	0x1
 962 0479 00       		.byte	0
 963 047a 12       		.uleb128 0x12
 964 047b 88       		.byte	0x88
 965 047c 07       		.byte	0x7
ARM GAS  /tmp/cc3WS41z.s 			page 18


 966 047d 6401     		.2byte	0x164
 967 047f 09060000 		.4byte	0x609
 968 0483 08       		.uleb128 0x8
 969 0484 435200   		.ascii	"CR\000"
 970 0487 07       		.byte	0x7
 971 0488 6601     		.2byte	0x166
 972 048a E5000000 		.4byte	0xe5
 973 048e 00       		.byte	0
 974 048f 09       		.uleb128 0x9
 975 0490 B1010000 		.4byte	.LASF82
 976 0494 07       		.byte	0x7
 977 0495 6701     		.2byte	0x167
 978 0497 E5000000 		.4byte	0xe5
 979 049b 04       		.byte	0x4
 980 049c 09       		.uleb128 0x9
 981 049d 70070000 		.4byte	.LASF83
 982 04a1 07       		.byte	0x7
 983 04a2 6801     		.2byte	0x168
 984 04a4 E5000000 		.4byte	0xe5
 985 04a8 08       		.byte	0x8
 986 04a9 08       		.uleb128 0x8
 987 04aa 43495200 		.ascii	"CIR\000"
 988 04ae 07       		.byte	0x7
 989 04af 6901     		.2byte	0x169
 990 04b1 E5000000 		.4byte	0xe5
 991 04b5 0C       		.byte	0xc
 992 04b6 09       		.uleb128 0x9
 993 04b7 11010000 		.4byte	.LASF84
 994 04bb 07       		.byte	0x7
 995 04bc 6A01     		.2byte	0x16a
 996 04be E5000000 		.4byte	0xe5
 997 04c2 10       		.byte	0x10
 998 04c3 09       		.uleb128 0x9
 999 04c4 5A060000 		.4byte	.LASF85
 1000 04c8 07       		.byte	0x7
 1001 04c9 6B01     		.2byte	0x16b
 1002 04cb E5000000 		.4byte	0xe5
 1003 04cf 14       		.byte	0x14
 1004 04d0 09       		.uleb128 0x9
 1005 04d1 97020000 		.4byte	.LASF86
 1006 04d5 07       		.byte	0x7
 1007 04d6 6C01     		.2byte	0x16c
 1008 04d8 E5000000 		.4byte	0xe5
 1009 04dc 18       		.byte	0x18
 1010 04dd 09       		.uleb128 0x9
 1011 04de B9040000 		.4byte	.LASF87
 1012 04e2 07       		.byte	0x7
 1013 04e3 6D01     		.2byte	0x16d
 1014 04e5 CA000000 		.4byte	0xca
 1015 04e9 1C       		.byte	0x1c
 1016 04ea 09       		.uleb128 0x9
 1017 04eb 93040000 		.4byte	.LASF88
 1018 04ef 07       		.byte	0x7
 1019 04f0 6E01     		.2byte	0x16e
 1020 04f2 E5000000 		.4byte	0xe5
 1021 04f6 20       		.byte	0x20
 1022 04f7 09       		.uleb128 0x9
ARM GAS  /tmp/cc3WS41z.s 			page 19


 1023 04f8 84010000 		.4byte	.LASF89
 1024 04fc 07       		.byte	0x7
 1025 04fd 6F01     		.2byte	0x16f
 1026 04ff E5000000 		.4byte	0xe5
 1027 0503 24       		.byte	0x24
 1028 0504 09       		.uleb128 0x9
 1029 0505 C3040000 		.4byte	.LASF90
 1030 0509 07       		.byte	0x7
 1031 050a 7001     		.2byte	0x170
 1032 050c 6A040000 		.4byte	0x46a
 1033 0510 28       		.byte	0x28
 1034 0511 09       		.uleb128 0x9
 1035 0512 61070000 		.4byte	.LASF91
 1036 0516 07       		.byte	0x7
 1037 0517 7101     		.2byte	0x171
 1038 0519 E5000000 		.4byte	0xe5
 1039 051d 30       		.byte	0x30
 1040 051e 09       		.uleb128 0x9
 1041 051f C9060000 		.4byte	.LASF92
 1042 0523 07       		.byte	0x7
 1043 0524 7201     		.2byte	0x172
 1044 0526 E5000000 		.4byte	0xe5
 1045 052a 34       		.byte	0x34
 1046 052b 09       		.uleb128 0x9
 1047 052c 40040000 		.4byte	.LASF93
 1048 0530 07       		.byte	0x7
 1049 0531 7301     		.2byte	0x173
 1050 0533 E5000000 		.4byte	0xe5
 1051 0537 38       		.byte	0x38
 1052 0538 09       		.uleb128 0x9
 1053 0539 CD040000 		.4byte	.LASF94
 1054 053d 07       		.byte	0x7
 1055 053e 7401     		.2byte	0x174
 1056 0540 CA000000 		.4byte	0xca
 1057 0544 3C       		.byte	0x3c
 1058 0545 09       		.uleb128 0x9
 1059 0546 B6060000 		.4byte	.LASF95
 1060 054a 07       		.byte	0x7
 1061 054b 7501     		.2byte	0x175
 1062 054d E5000000 		.4byte	0xe5
 1063 0551 40       		.byte	0x40
 1064 0552 09       		.uleb128 0x9
 1065 0553 84050000 		.4byte	.LASF96
 1066 0557 07       		.byte	0x7
 1067 0558 7601     		.2byte	0x176
 1068 055a E5000000 		.4byte	0xe5
 1069 055e 44       		.byte	0x44
 1070 055f 09       		.uleb128 0x9
 1071 0560 D7040000 		.4byte	.LASF97
 1072 0564 07       		.byte	0x7
 1073 0565 7701     		.2byte	0x177
 1074 0567 6A040000 		.4byte	0x46a
 1075 056b 48       		.byte	0x48
 1076 056c 09       		.uleb128 0x9
 1077 056d E1000000 		.4byte	.LASF98
 1078 0571 07       		.byte	0x7
 1079 0572 7801     		.2byte	0x178
ARM GAS  /tmp/cc3WS41z.s 			page 20


 1080 0574 E5000000 		.4byte	0xe5
 1081 0578 50       		.byte	0x50
 1082 0579 09       		.uleb128 0x9
 1083 057a 62040000 		.4byte	.LASF99
 1084 057e 07       		.byte	0x7
 1085 057f 7901     		.2byte	0x179
 1086 0581 E5000000 		.4byte	0xe5
 1087 0585 54       		.byte	0x54
 1088 0586 09       		.uleb128 0x9
 1089 0587 57050000 		.4byte	.LASF100
 1090 058b 07       		.byte	0x7
 1091 058c 7A01     		.2byte	0x17a
 1092 058e E5000000 		.4byte	0xe5
 1093 0592 58       		.byte	0x58
 1094 0593 09       		.uleb128 0x9
 1095 0594 E1040000 		.4byte	.LASF101
 1096 0598 07       		.byte	0x7
 1097 0599 7B01     		.2byte	0x17b
 1098 059b CA000000 		.4byte	0xca
 1099 059f 5C       		.byte	0x5c
 1100 05a0 09       		.uleb128 0x9
 1101 05a1 8D010000 		.4byte	.LASF102
 1102 05a5 07       		.byte	0x7
 1103 05a6 7C01     		.2byte	0x17c
 1104 05a8 E5000000 		.4byte	0xe5
 1105 05ac 60       		.byte	0x60
 1106 05ad 09       		.uleb128 0x9
 1107 05ae B4020000 		.4byte	.LASF103
 1108 05b2 07       		.byte	0x7
 1109 05b3 7D01     		.2byte	0x17d
 1110 05b5 E5000000 		.4byte	0xe5
 1111 05b9 64       		.byte	0x64
 1112 05ba 09       		.uleb128 0x9
 1113 05bb B5050000 		.4byte	.LASF104
 1114 05bf 07       		.byte	0x7
 1115 05c0 7E01     		.2byte	0x17e
 1116 05c2 6A040000 		.4byte	0x46a
 1117 05c6 68       		.byte	0x68
 1118 05c7 09       		.uleb128 0x9
 1119 05c8 3A070000 		.4byte	.LASF105
 1120 05cc 07       		.byte	0x7
 1121 05cd 7F01     		.2byte	0x17f
 1122 05cf E5000000 		.4byte	0xe5
 1123 05d3 70       		.byte	0x70
 1124 05d4 08       		.uleb128 0x8
 1125 05d5 43535200 		.ascii	"CSR\000"
 1126 05d9 07       		.byte	0x7
 1127 05da 8001     		.2byte	0x180
 1128 05dc E5000000 		.4byte	0xe5
 1129 05e0 74       		.byte	0x74
 1130 05e1 09       		.uleb128 0x9
 1131 05e2 F2040000 		.4byte	.LASF106
 1132 05e6 07       		.byte	0x7
 1133 05e7 8101     		.2byte	0x181
 1134 05e9 6A040000 		.4byte	0x46a
 1135 05ed 78       		.byte	0x78
 1136 05ee 09       		.uleb128 0x9
ARM GAS  /tmp/cc3WS41z.s 			page 21


 1137 05ef 06070000 		.4byte	.LASF107
 1138 05f3 07       		.byte	0x7
 1139 05f4 8201     		.2byte	0x182
 1140 05f6 E5000000 		.4byte	0xe5
 1141 05fa 80       		.byte	0x80
 1142 05fb 09       		.uleb128 0x9
 1143 05fc 86020000 		.4byte	.LASF108
 1144 0600 07       		.byte	0x7
 1145 0601 8301     		.2byte	0x183
 1146 0603 E5000000 		.4byte	0xe5
 1147 0607 84       		.byte	0x84
 1148 0608 00       		.byte	0
 1149 0609 13       		.uleb128 0x13
 1150 060a 5E010000 		.4byte	.LASF109
 1151 060e 07       		.byte	0x7
 1152 060f 8501     		.2byte	0x185
 1153 0611 7A040000 		.4byte	0x47a
 1154 0615 04       		.uleb128 0x4
 1155 0616 CE010000 		.4byte	.LASF110
 1156 061a 08       		.byte	0x8
 1157 061b 65       		.byte	0x65
 1158 061c 2D030000 		.4byte	0x32d
 1159 0620 04       		.uleb128 0x4
 1160 0621 E2020000 		.4byte	.LASF111
 1161 0625 08       		.byte	0x8
 1162 0626 6D       		.byte	0x6d
 1163 0627 D5000000 		.4byte	0xd5
 1164 062b 06       		.uleb128 0x6
 1165 062c D1060000 		.4byte	.LASF112
 1166 0630 04       		.byte	0x4
 1167 0631 08       		.byte	0x8
 1168 0632 89       		.byte	0x89
 1169 0633 44060000 		.4byte	0x644
 1170 0637 14       		.uleb128 0x14
 1171 0638 72313300 		.ascii	"r13\000"
 1172 063c 08       		.byte	0x8
 1173 063d 8A       		.byte	0x8a
 1174 063e 85070000 		.4byte	0x785
 1175 0642 00       		.byte	0
 1176 0643 00       		.byte	0
 1177 0644 06       		.uleb128 0x6
 1178 0645 47000000 		.4byte	.LASF113
 1179 0649 64       		.byte	0x64
 1180 064a 09       		.byte	0x9
 1181 064b F4       		.byte	0xf4
 1182 064c 85070000 		.4byte	0x785
 1183 0650 14       		.uleb128 0x14
 1184 0651 73313600 		.ascii	"s16\000"
 1185 0655 09       		.byte	0x9
 1186 0656 F6       		.byte	0xf6
 1187 0657 15060000 		.4byte	0x615
 1188 065b 00       		.byte	0
 1189 065c 14       		.uleb128 0x14
 1190 065d 73313700 		.ascii	"s17\000"
 1191 0661 09       		.byte	0x9
 1192 0662 F7       		.byte	0xf7
 1193 0663 15060000 		.4byte	0x615
ARM GAS  /tmp/cc3WS41z.s 			page 22


 1194 0667 04       		.byte	0x4
 1195 0668 14       		.uleb128 0x14
 1196 0669 73313800 		.ascii	"s18\000"
 1197 066d 09       		.byte	0x9
 1198 066e F8       		.byte	0xf8
 1199 066f 15060000 		.4byte	0x615
 1200 0673 08       		.byte	0x8
 1201 0674 14       		.uleb128 0x14
 1202 0675 73313900 		.ascii	"s19\000"
 1203 0679 09       		.byte	0x9
 1204 067a F9       		.byte	0xf9
 1205 067b 15060000 		.4byte	0x615
 1206 067f 0C       		.byte	0xc
 1207 0680 14       		.uleb128 0x14
 1208 0681 73323000 		.ascii	"s20\000"
 1209 0685 09       		.byte	0x9
 1210 0686 FA       		.byte	0xfa
 1211 0687 15060000 		.4byte	0x615
 1212 068b 10       		.byte	0x10
 1213 068c 14       		.uleb128 0x14
 1214 068d 73323100 		.ascii	"s21\000"
 1215 0691 09       		.byte	0x9
 1216 0692 FB       		.byte	0xfb
 1217 0693 15060000 		.4byte	0x615
 1218 0697 14       		.byte	0x14
 1219 0698 14       		.uleb128 0x14
 1220 0699 73323200 		.ascii	"s22\000"
 1221 069d 09       		.byte	0x9
 1222 069e FC       		.byte	0xfc
 1223 069f 15060000 		.4byte	0x615
 1224 06a3 18       		.byte	0x18
 1225 06a4 14       		.uleb128 0x14
 1226 06a5 73323300 		.ascii	"s23\000"
 1227 06a9 09       		.byte	0x9
 1228 06aa FD       		.byte	0xfd
 1229 06ab 15060000 		.4byte	0x615
 1230 06af 1C       		.byte	0x1c
 1231 06b0 14       		.uleb128 0x14
 1232 06b1 73323400 		.ascii	"s24\000"
 1233 06b5 09       		.byte	0x9
 1234 06b6 FE       		.byte	0xfe
 1235 06b7 15060000 		.4byte	0x615
 1236 06bb 20       		.byte	0x20
 1237 06bc 14       		.uleb128 0x14
 1238 06bd 73323500 		.ascii	"s25\000"
 1239 06c1 09       		.byte	0x9
 1240 06c2 FF       		.byte	0xff
 1241 06c3 15060000 		.4byte	0x615
 1242 06c7 24       		.byte	0x24
 1243 06c8 08       		.uleb128 0x8
 1244 06c9 73323600 		.ascii	"s26\000"
 1245 06cd 09       		.byte	0x9
 1246 06ce 0001     		.2byte	0x100
 1247 06d0 15060000 		.4byte	0x615
 1248 06d4 28       		.byte	0x28
 1249 06d5 08       		.uleb128 0x8
 1250 06d6 73323700 		.ascii	"s27\000"
ARM GAS  /tmp/cc3WS41z.s 			page 23


 1251 06da 09       		.byte	0x9
 1252 06db 0101     		.2byte	0x101
 1253 06dd 15060000 		.4byte	0x615
 1254 06e1 2C       		.byte	0x2c
 1255 06e2 08       		.uleb128 0x8
 1256 06e3 73323800 		.ascii	"s28\000"
 1257 06e7 09       		.byte	0x9
 1258 06e8 0201     		.2byte	0x102
 1259 06ea 15060000 		.4byte	0x615
 1260 06ee 30       		.byte	0x30
 1261 06ef 08       		.uleb128 0x8
 1262 06f0 73323900 		.ascii	"s29\000"
 1263 06f4 09       		.byte	0x9
 1264 06f5 0301     		.2byte	0x103
 1265 06f7 15060000 		.4byte	0x615
 1266 06fb 34       		.byte	0x34
 1267 06fc 08       		.uleb128 0x8
 1268 06fd 73333000 		.ascii	"s30\000"
 1269 0701 09       		.byte	0x9
 1270 0702 0401     		.2byte	0x104
 1271 0704 15060000 		.4byte	0x615
 1272 0708 38       		.byte	0x38
 1273 0709 08       		.uleb128 0x8
 1274 070a 73333100 		.ascii	"s31\000"
 1275 070e 09       		.byte	0x9
 1276 070f 0501     		.2byte	0x105
 1277 0711 15060000 		.4byte	0x615
 1278 0715 3C       		.byte	0x3c
 1279 0716 08       		.uleb128 0x8
 1280 0717 723400   		.ascii	"r4\000"
 1281 071a 09       		.byte	0x9
 1282 071b 0701     		.2byte	0x107
 1283 071d 15060000 		.4byte	0x615
 1284 0721 40       		.byte	0x40
 1285 0722 08       		.uleb128 0x8
 1286 0723 723500   		.ascii	"r5\000"
 1287 0726 09       		.byte	0x9
 1288 0727 0801     		.2byte	0x108
 1289 0729 15060000 		.4byte	0x615
 1290 072d 44       		.byte	0x44
 1291 072e 08       		.uleb128 0x8
 1292 072f 723600   		.ascii	"r6\000"
 1293 0732 09       		.byte	0x9
 1294 0733 0901     		.2byte	0x109
 1295 0735 15060000 		.4byte	0x615
 1296 0739 48       		.byte	0x48
 1297 073a 08       		.uleb128 0x8
 1298 073b 723700   		.ascii	"r7\000"
 1299 073e 09       		.byte	0x9
 1300 073f 0A01     		.2byte	0x10a
 1301 0741 15060000 		.4byte	0x615
 1302 0745 4C       		.byte	0x4c
 1303 0746 08       		.uleb128 0x8
 1304 0747 723800   		.ascii	"r8\000"
 1305 074a 09       		.byte	0x9
 1306 074b 0B01     		.2byte	0x10b
 1307 074d 15060000 		.4byte	0x615
ARM GAS  /tmp/cc3WS41z.s 			page 24


 1308 0751 50       		.byte	0x50
 1309 0752 08       		.uleb128 0x8
 1310 0753 723900   		.ascii	"r9\000"
 1311 0756 09       		.byte	0x9
 1312 0757 0C01     		.2byte	0x10c
 1313 0759 15060000 		.4byte	0x615
 1314 075d 54       		.byte	0x54
 1315 075e 08       		.uleb128 0x8
 1316 075f 72313000 		.ascii	"r10\000"
 1317 0763 09       		.byte	0x9
 1318 0764 0D01     		.2byte	0x10d
 1319 0766 15060000 		.4byte	0x615
 1320 076a 58       		.byte	0x58
 1321 076b 08       		.uleb128 0x8
 1322 076c 72313100 		.ascii	"r11\000"
 1323 0770 09       		.byte	0x9
 1324 0771 0E01     		.2byte	0x10e
 1325 0773 15060000 		.4byte	0x615
 1326 0777 5C       		.byte	0x5c
 1327 0778 08       		.uleb128 0x8
 1328 0779 6C7200   		.ascii	"lr\000"
 1329 077c 09       		.byte	0x9
 1330 077d 0F01     		.2byte	0x10f
 1331 077f 15060000 		.4byte	0x615
 1332 0783 60       		.byte	0x60
 1333 0784 00       		.byte	0
 1334 0785 0A       		.uleb128 0xa
 1335 0786 04       		.byte	0x4
 1336 0787 44060000 		.4byte	0x644
 1337 078b 15       		.uleb128 0x15
 1338 078c 04       		.byte	0x4
 1339 078d 0A       		.byte	0xa
 1340 078e 38       		.byte	0x38
 1341 078f A0070000 		.4byte	0x7a0
 1342 0793 07       		.uleb128 0x7
 1343 0794 AF060000 		.4byte	.LASF114
 1344 0798 0A       		.byte	0xa
 1345 0799 3C       		.byte	0x3c
 1346 079a EA000000 		.4byte	0xea
 1347 079e 00       		.byte	0
 1348 079f 00       		.byte	0
 1349 07a0 04       		.uleb128 0x4
 1350 07a1 6C040000 		.4byte	.LASF115
 1351 07a5 0A       		.byte	0xa
 1352 07a6 3D       		.byte	0x3d
 1353 07a7 8B070000 		.4byte	0x78b
 1354 07ab 16       		.uleb128 0x16
 1355 07ac 04       		.byte	0x4
 1356 07ad 06       		.byte	0x6
 1357 07ae FA       		.byte	0xfa
 1358 07af 08080000 		.4byte	0x808
 1359 07b3 17       		.uleb128 0x17
 1360 07b4 26000000 		.4byte	.LASF116
 1361 07b8 06       		.byte	0x6
 1362 07b9 0101     		.2byte	0x101
 1363 07bb 21010000 		.4byte	0x121
 1364 07bf 17       		.uleb128 0x17
ARM GAS  /tmp/cc3WS41z.s 			page 25


 1365 07c0 99000000 		.4byte	.LASF117
 1366 07c4 06       		.byte	0x6
 1367 07c5 0801     		.2byte	0x108
 1368 07c7 21010000 		.4byte	0x121
 1369 07cb 17       		.uleb128 0x17
 1370 07cc 53070000 		.4byte	.LASF118
 1371 07d0 06       		.byte	0x6
 1372 07d1 0F01     		.2byte	0x10f
 1373 07d3 2D030000 		.4byte	0x32d
 1374 07d7 17       		.uleb128 0x17
 1375 07d8 20000000 		.4byte	.LASF119
 1376 07dc 06       		.byte	0x6
 1377 07dd 1601     		.2byte	0x116
 1378 07df 08080000 		.4byte	0x808
 1379 07e3 17       		.uleb128 0x17
 1380 07e4 3A020000 		.4byte	.LASF120
 1381 07e8 06       		.byte	0x6
 1382 07e9 1E01     		.2byte	0x11e
 1383 07eb 33080000 		.4byte	0x833
 1384 07ef 17       		.uleb128 0x17
 1385 07f0 C8050000 		.4byte	.LASF121
 1386 07f4 06       		.byte	0x6
 1387 07f5 2701     		.2byte	0x127
 1388 07f7 6A080000 		.4byte	0x86a
 1389 07fb 17       		.uleb128 0x17
 1390 07fc 6F050000 		.4byte	.LASF122
 1391 0800 06       		.byte	0x6
 1392 0801 2F01     		.2byte	0x12f
 1393 0803 2C010000 		.4byte	0x12c
 1394 0807 00       		.byte	0
 1395 0808 0A       		.uleb128 0xa
 1396 0809 04       		.byte	0x4
 1397 080a 45020000 		.4byte	0x245
 1398 080e 06       		.uleb128 0x6
 1399 080f 9D050000 		.4byte	.LASF123
 1400 0813 0C       		.byte	0xc
 1401 0814 0B       		.byte	0xb
 1402 0815 34       		.byte	0x34
 1403 0816 33080000 		.4byte	0x833
 1404 081a 07       		.uleb128 0x7
 1405 081b 75070000 		.4byte	.LASF124
 1406 081f 0B       		.byte	0xb
 1407 0820 35       		.byte	0x35
 1408 0821 7A020000 		.4byte	0x27a
 1409 0825 00       		.byte	0
 1410 0826 07       		.uleb128 0x7
 1411 0827 35050000 		.4byte	.LASF125
 1412 082b 0B       		.byte	0xb
 1413 082c 37       		.byte	0x37
 1414 082d 37010000 		.4byte	0x137
 1415 0831 08       		.byte	0x8
 1416 0832 00       		.byte	0
 1417 0833 0A       		.uleb128 0xa
 1418 0834 04       		.byte	0x4
 1419 0835 0E080000 		.4byte	0x80e
 1420 0839 06       		.uleb128 0x6
 1421 083a 1C070000 		.4byte	.LASF126
ARM GAS  /tmp/cc3WS41z.s 			page 26


 1422 083e 10       		.byte	0x10
 1423 083f 0C       		.byte	0xc
 1424 0840 39       		.byte	0x39
 1425 0841 6A080000 		.4byte	0x86a
 1426 0845 07       		.uleb128 0x7
 1427 0846 22010000 		.4byte	.LASF127
 1428 084a 0C       		.byte	0xc
 1429 084b 3A       		.byte	0x3a
 1430 084c 7A020000 		.4byte	0x27a
 1431 0850 00       		.byte	0
 1432 0851 07       		.uleb128 0x7
 1433 0852 96070000 		.4byte	.LASF128
 1434 0856 0C       		.byte	0xc
 1435 0857 3C       		.byte	0x3c
 1436 0858 50020000 		.4byte	0x250
 1437 085c 08       		.byte	0x8
 1438 085d 07       		.uleb128 0x7
 1439 085e 6C060000 		.4byte	.LASF129
 1440 0862 0C       		.byte	0xc
 1441 0863 3E       		.byte	0x3e
 1442 0864 A8080000 		.4byte	0x8a8
 1443 0868 0C       		.byte	0xc
 1444 0869 00       		.byte	0
 1445 086a 0A       		.uleb128 0xa
 1446 086b 04       		.byte	0x4
 1447 086c 39080000 		.4byte	0x839
 1448 0870 0A       		.uleb128 0xa
 1449 0871 04       		.byte	0x4
 1450 0872 7D080000 		.4byte	0x87d
 1451 0876 03       		.uleb128 0x3
 1452 0877 01       		.byte	0x1
 1453 0878 08       		.byte	0x8
 1454 0879 FE050000 		.4byte	.LASF130
 1455 087d 18       		.uleb128 0x18
 1456 087e 76080000 		.4byte	0x876
 1457 0882 0A       		.uleb128 0xa
 1458 0883 04       		.byte	0x4
 1459 0884 2F030000 		.4byte	0x32f
 1460 0888 05       		.uleb128 0x5
 1461 0889 70080000 		.4byte	0x870
 1462 088d 10       		.uleb128 0x10
 1463 088e 20060000 		.4byte	0x620
 1464 0892 9D080000 		.4byte	0x89d
 1465 0896 11       		.uleb128 0x11
 1466 0897 63040000 		.4byte	0x463
 1467 089b 2B       		.byte	0x2b
 1468 089c 00       		.byte	0
 1469 089d 04       		.uleb128 0x4
 1470 089e F8010000 		.4byte	.LASF131
 1471 08a2 0C       		.byte	0xc
 1472 08a3 34       		.byte	0x34
 1473 08a4 39080000 		.4byte	0x839
 1474 08a8 0A       		.uleb128 0xa
 1475 08a9 04       		.byte	0x4
 1476 08aa 9D080000 		.4byte	0x89d
 1477 08ae 03       		.uleb128 0x3
 1478 08af 01       		.byte	0x1
ARM GAS  /tmp/cc3WS41z.s 			page 27


 1479 08b0 02       		.byte	0x2
 1480 08b1 14050000 		.4byte	.LASF132
 1481 08b5 15       		.uleb128 0x15
 1482 08b6 04       		.byte	0x4
 1483 08b7 0D       		.byte	0xd
 1484 08b8 B3       		.byte	0xb3
 1485 08b9 D6080000 		.4byte	0x8d6
 1486 08bd 14       		.uleb128 0x14
 1487 08be 73657400 		.ascii	"set\000"
 1488 08c2 0D       		.byte	0xd
 1489 08c3 B4       		.byte	0xb4
 1490 08c4 B4000000 		.4byte	0xb4
 1491 08c8 00       		.byte	0
 1492 08c9 07       		.uleb128 0x7
 1493 08ca 27040000 		.4byte	.LASF133
 1494 08ce 0D       		.byte	0xd
 1495 08cf B5       		.byte	0xb5
 1496 08d0 B4000000 		.4byte	0xb4
 1497 08d4 02       		.byte	0x2
 1498 08d5 00       		.byte	0
 1499 08d6 16       		.uleb128 0x16
 1500 08d7 04       		.byte	0x4
 1501 08d8 0D       		.byte	0xd
 1502 08d9 B1       		.byte	0xb1
 1503 08da F1080000 		.4byte	0x8f1
 1504 08de 19       		.uleb128 0x19
 1505 08df 5700     		.ascii	"W\000"
 1506 08e1 0D       		.byte	0xd
 1507 08e2 B2       		.byte	0xb2
 1508 08e3 CA000000 		.4byte	0xca
 1509 08e7 19       		.uleb128 0x19
 1510 08e8 4800     		.ascii	"H\000"
 1511 08ea 0D       		.byte	0xd
 1512 08eb B6       		.byte	0xb6
 1513 08ec B5080000 		.4byte	0x8b5
 1514 08f0 00       		.byte	0
 1515 08f1 15       		.uleb128 0x15
 1516 08f2 2C       		.byte	0x2c
 1517 08f3 0D       		.byte	0xd
 1518 08f4 A9       		.byte	0xa9
 1519 08f5 7E090000 		.4byte	0x97e
 1520 08f9 07       		.uleb128 0x7
 1521 08fa 76000000 		.4byte	.LASF134
 1522 08fe 0D       		.byte	0xd
 1523 08ff AB       		.byte	0xab
 1524 0900 E5000000 		.4byte	0xe5
 1525 0904 00       		.byte	0
 1526 0905 07       		.uleb128 0x7
 1527 0906 40000000 		.4byte	.LASF135
 1528 090a 0D       		.byte	0xd
 1529 090b AC       		.byte	0xac
 1530 090c E5000000 		.4byte	0xe5
 1531 0910 04       		.byte	0x4
 1532 0911 07       		.uleb128 0x7
 1533 0912 B9010000 		.4byte	.LASF136
 1534 0916 0D       		.byte	0xd
 1535 0917 AD       		.byte	0xad
ARM GAS  /tmp/cc3WS41z.s 			page 28


 1536 0918 E5000000 		.4byte	0xe5
 1537 091c 08       		.byte	0x8
 1538 091d 07       		.uleb128 0x7
 1539 091e 93000000 		.4byte	.LASF137
 1540 0922 0D       		.byte	0xd
 1541 0923 AE       		.byte	0xae
 1542 0924 E5000000 		.4byte	0xe5
 1543 0928 0C       		.byte	0xc
 1544 0929 14       		.uleb128 0x14
 1545 092a 49445200 		.ascii	"IDR\000"
 1546 092e 0D       		.byte	0xd
 1547 092f AF       		.byte	0xaf
 1548 0930 E5000000 		.4byte	0xe5
 1549 0934 10       		.byte	0x10
 1550 0935 14       		.uleb128 0x14
 1551 0936 4F445200 		.ascii	"ODR\000"
 1552 093a 0D       		.byte	0xd
 1553 093b B0       		.byte	0xb0
 1554 093c E5000000 		.4byte	0xe5
 1555 0940 14       		.byte	0x14
 1556 0941 07       		.uleb128 0x7
 1557 0942 0C010000 		.4byte	.LASF138
 1558 0946 0D       		.byte	0xd
 1559 0947 B7       		.byte	0xb7
 1560 0948 7E090000 		.4byte	0x97e
 1561 094c 18       		.byte	0x18
 1562 094d 07       		.uleb128 0x7
 1563 094e 5D020000 		.4byte	.LASF139
 1564 0952 0D       		.byte	0xd
 1565 0953 B8       		.byte	0xb8
 1566 0954 E5000000 		.4byte	0xe5
 1567 0958 1C       		.byte	0x1c
 1568 0959 07       		.uleb128 0x7
 1569 095a AC040000 		.4byte	.LASF140
 1570 095e 0D       		.byte	0xd
 1571 095f B9       		.byte	0xb9
 1572 0960 E5000000 		.4byte	0xe5
 1573 0964 20       		.byte	0x20
 1574 0965 07       		.uleb128 0x7
 1575 0966 A7040000 		.4byte	.LASF141
 1576 096a 0D       		.byte	0xd
 1577 096b BA       		.byte	0xba
 1578 096c E5000000 		.4byte	0xe5
 1579 0970 24       		.byte	0x24
 1580 0971 14       		.uleb128 0x14
 1581 0972 42525200 		.ascii	"BRR\000"
 1582 0976 0D       		.byte	0xd
 1583 0977 BB       		.byte	0xbb
 1584 0978 E5000000 		.4byte	0xe5
 1585 097c 28       		.byte	0x28
 1586 097d 00       		.byte	0
 1587 097e 05       		.uleb128 0x5
 1588 097f D6080000 		.4byte	0x8d6
 1589 0983 04       		.uleb128 0x4
 1590 0984 E6010000 		.4byte	.LASF142
 1591 0988 0D       		.byte	0xd
 1592 0989 BC       		.byte	0xbc
ARM GAS  /tmp/cc3WS41z.s 			page 29


 1593 098a F1080000 		.4byte	0x8f1
 1594 098e 15       		.uleb128 0x15
 1595 098f 1C       		.byte	0x1c
 1596 0990 0D       		.byte	0xd
 1597 0991 C1       		.byte	0xc1
 1598 0992 EB090000 		.4byte	0x9eb
 1599 0996 07       		.uleb128 0x7
 1600 0997 58010000 		.4byte	.LASF143
 1601 099b 0D       		.byte	0xd
 1602 099c C3       		.byte	0xc3
 1603 099d CA000000 		.4byte	0xca
 1604 09a1 00       		.byte	0
 1605 09a2 07       		.uleb128 0x7
 1606 09a3 62020000 		.4byte	.LASF144
 1607 09a7 0D       		.byte	0xd
 1608 09a8 C5       		.byte	0xc5
 1609 09a9 CA000000 		.4byte	0xca
 1610 09ad 04       		.byte	0x4
 1611 09ae 07       		.uleb128 0x7
 1612 09af 55020000 		.4byte	.LASF145
 1613 09b3 0D       		.byte	0xd
 1614 09b4 C7       		.byte	0xc7
 1615 09b5 CA000000 		.4byte	0xca
 1616 09b9 08       		.byte	0x8
 1617 09ba 07       		.uleb128 0x7
 1618 09bb 4D070000 		.4byte	.LASF146
 1619 09bf 0D       		.byte	0xd
 1620 09c0 C9       		.byte	0xc9
 1621 09c1 CA000000 		.4byte	0xca
 1622 09c5 0C       		.byte	0xc
 1623 09c6 14       		.uleb128 0x14
 1624 09c7 6F647200 		.ascii	"odr\000"
 1625 09cb 0D       		.byte	0xd
 1626 09cc CB       		.byte	0xcb
 1627 09cd CA000000 		.4byte	0xca
 1628 09d1 10       		.byte	0x10
 1629 09d2 07       		.uleb128 0x7
 1630 09d3 30050000 		.4byte	.LASF147
 1631 09d7 0D       		.byte	0xd
 1632 09d8 CD       		.byte	0xcd
 1633 09d9 CA000000 		.4byte	0xca
 1634 09dd 14       		.byte	0x14
 1635 09de 07       		.uleb128 0x7
 1636 09df 7D040000 		.4byte	.LASF148
 1637 09e3 0D       		.byte	0xd
 1638 09e4 CF       		.byte	0xcf
 1639 09e5 CA000000 		.4byte	0xca
 1640 09e9 18       		.byte	0x18
 1641 09ea 00       		.byte	0
 1642 09eb 04       		.uleb128 0x4
 1643 09ec 00000000 		.4byte	.LASF149
 1644 09f0 0D       		.byte	0xd
 1645 09f1 D0       		.byte	0xd0
 1646 09f2 8E090000 		.4byte	0x98e
 1647 09f6 15       		.uleb128 0x15
 1648 09f7 A8       		.byte	0xa8
 1649 09f8 0D       		.byte	0xd
ARM GAS  /tmp/cc3WS41z.s 			page 30


 1650 09f9 D9       		.byte	0xd9
 1651 09fa 470A0000 		.4byte	0xa47
 1652 09fe 07       		.uleb128 0x7
 1653 09ff 68050000 		.4byte	.LASF150
 1654 0a03 0D       		.byte	0xd
 1655 0a04 DC       		.byte	0xdc
 1656 0a05 EB090000 		.4byte	0x9eb
 1657 0a09 00       		.byte	0
 1658 0a0a 07       		.uleb128 0x7
 1659 0a0b 00020000 		.4byte	.LASF151
 1660 0a0f 0D       		.byte	0xd
 1661 0a10 E0       		.byte	0xe0
 1662 0a11 EB090000 		.4byte	0x9eb
 1663 0a15 1C       		.byte	0x1c
 1664 0a16 07       		.uleb128 0x7
 1665 0a17 69070000 		.4byte	.LASF152
 1666 0a1b 0D       		.byte	0xd
 1667 0a1c E4       		.byte	0xe4
 1668 0a1d EB090000 		.4byte	0x9eb
 1669 0a21 38       		.byte	0x38
 1670 0a22 07       		.uleb128 0x7
 1671 0a23 82040000 		.4byte	.LASF153
 1672 0a27 0D       		.byte	0xd
 1673 0a28 E8       		.byte	0xe8
 1674 0a29 EB090000 		.4byte	0x9eb
 1675 0a2d 54       		.byte	0x54
 1676 0a2e 07       		.uleb128 0x7
 1677 0a2f 7D010000 		.4byte	.LASF154
 1678 0a33 0D       		.byte	0xd
 1679 0a34 EC       		.byte	0xec
 1680 0a35 EB090000 		.4byte	0x9eb
 1681 0a39 70       		.byte	0x70
 1682 0a3a 07       		.uleb128 0x7
 1683 0a3b 6F000000 		.4byte	.LASF155
 1684 0a3f 0D       		.byte	0xd
 1685 0a40 F8       		.byte	0xf8
 1686 0a41 EB090000 		.4byte	0x9eb
 1687 0a45 8C       		.byte	0x8c
 1688 0a46 00       		.byte	0
 1689 0a47 04       		.uleb128 0x4
 1690 0a48 8C070000 		.4byte	.LASF156
 1691 0a4c 0D       		.byte	0xd
 1692 0a4d FE       		.byte	0xfe
 1693 0a4e F6090000 		.4byte	0x9f6
 1694 0a52 13       		.uleb128 0x13
 1695 0a53 62000000 		.4byte	.LASF157
 1696 0a57 0D       		.byte	0xd
 1697 0a58 0E01     		.2byte	0x10e
 1698 0a5a CA000000 		.4byte	0xca
 1699 0a5e 13       		.uleb128 0x13
 1700 0a5f 83070000 		.4byte	.LASF158
 1701 0a63 0D       		.byte	0xd
 1702 0a64 1301     		.2byte	0x113
 1703 0a66 CA000000 		.4byte	0xca
 1704 0a6a 13       		.uleb128 0x13
 1705 0a6b BE060000 		.4byte	.LASF159
 1706 0a6f 0D       		.byte	0xd
ARM GAS  /tmp/cc3WS41z.s 			page 31


 1707 0a70 1B01     		.2byte	0x11b
 1708 0a72 760A0000 		.4byte	0xa76
 1709 0a76 0A       		.uleb128 0xa
 1710 0a77 04       		.byte	0x4
 1711 0a78 83090000 		.4byte	0x983
 1712 0a7c 1A       		.uleb128 0x1a
 1713 0a7d 9C060000 		.4byte	.LASF173
 1714 0a81 01       		.byte	0x1
 1715 0a82 41       		.byte	0x41
 1716 0a83 01       		.byte	0x1
 1717 0a84 9F0A0000 		.4byte	0xa9f
 1718 0a88 1B       		.uleb128 0x1b
 1719 0a89 7E050000 		.4byte	.LASF160
 1720 0a8d 01       		.byte	0x1
 1721 0a8e 41       		.byte	0x41
 1722 0a8f 760A0000 		.4byte	0xa76
 1723 0a93 1B       		.uleb128 0x1b
 1724 0a94 08060000 		.4byte	.LASF161
 1725 0a98 01       		.byte	0x1
 1726 0a99 41       		.byte	0x41
 1727 0a9a 9F0A0000 		.4byte	0xa9f
 1728 0a9e 00       		.byte	0
 1729 0a9f 0A       		.uleb128 0xa
 1730 0aa0 04       		.byte	0x4
 1731 0aa1 A50A0000 		.4byte	0xaa5
 1732 0aa5 18       		.uleb128 0x18
 1733 0aa6 EB090000 		.4byte	0x9eb
 1734 0aaa 1C       		.uleb128 0x1c
 1735 0aab 2C070000 		.4byte	.LASF162
 1736 0aaf 01       		.byte	0x1
 1737 0ab0 5C       		.byte	0x5c
 1738 0ab1 00000000 		.4byte	.LFB261
 1739 0ab5 04010000 		.4byte	.LFE261-.LFB261
 1740 0ab9 01       		.uleb128 0x1
 1741 0aba 9C       		.byte	0x9c
 1742 0abb AE0B0000 		.4byte	0xbae
 1743 0abf 1D       		.uleb128 0x1d
 1744 0ac0 08060000 		.4byte	.LASF161
 1745 0ac4 01       		.byte	0x1
 1746 0ac5 5C       		.byte	0x5c
 1747 0ac6 AE0B0000 		.4byte	0xbae
 1748 0aca 01       		.uleb128 0x1
 1749 0acb 50       		.byte	0x50
 1750 0acc 1E       		.uleb128 0x1e
 1751 0acd 7C0A0000 		.4byte	0xa7c
 1752 0ad1 04000000 		.4byte	.LBB14
 1753 0ad5 00000000 		.4byte	.Ldebug_ranges0+0
 1754 0ad9 01       		.byte	0x1
 1755 0ada 71       		.byte	0x71
 1756 0adb F00A0000 		.4byte	0xaf0
 1757 0adf 1F       		.uleb128 0x1f
 1758 0ae0 930A0000 		.4byte	0xa93
 1759 0ae4 01       		.uleb128 0x1
 1760 0ae5 50       		.byte	0x50
 1761 0ae6 20       		.uleb128 0x20
 1762 0ae7 880A0000 		.4byte	0xa88
 1763 0aeb 00000240 		.4byte	0x40020000
ARM GAS  /tmp/cc3WS41z.s 			page 32


 1764 0aef 00       		.byte	0
 1765 0af0 1E       		.uleb128 0x1e
 1766 0af1 7C0A0000 		.4byte	0xa7c
 1767 0af5 08000000 		.4byte	.LBB17
 1768 0af9 18000000 		.4byte	.Ldebug_ranges0+0x18
 1769 0afd 01       		.byte	0x1
 1770 0afe 74       		.byte	0x74
 1771 0aff 160B0000 		.4byte	0xb16
 1772 0b03 1F       		.uleb128 0x1f
 1773 0b04 930A0000 		.4byte	0xa93
 1774 0b08 03       		.uleb128 0x3
 1775 0b09 70       		.byte	0x70
 1776 0b0a 1C       		.sleb128 28
 1777 0b0b 9F       		.byte	0x9f
 1778 0b0c 20       		.uleb128 0x20
 1779 0b0d 880A0000 		.4byte	0xa88
 1780 0b11 00040240 		.4byte	0x40020400
 1781 0b15 00       		.byte	0
 1782 0b16 1E       		.uleb128 0x1e
 1783 0b17 7C0A0000 		.4byte	0xa7c
 1784 0b1b 0A000000 		.4byte	.LBB20
 1785 0b1f 30000000 		.4byte	.Ldebug_ranges0+0x30
 1786 0b23 01       		.byte	0x1
 1787 0b24 77       		.byte	0x77
 1788 0b25 3C0B0000 		.4byte	0xb3c
 1789 0b29 1F       		.uleb128 0x1f
 1790 0b2a 930A0000 		.4byte	0xa93
 1791 0b2e 03       		.uleb128 0x3
 1792 0b2f 70       		.byte	0x70
 1793 0b30 38       		.sleb128 56
 1794 0b31 9F       		.byte	0x9f
 1795 0b32 20       		.uleb128 0x20
 1796 0b33 880A0000 		.4byte	0xa88
 1797 0b37 00080240 		.4byte	0x40020800
 1798 0b3b 00       		.byte	0
 1799 0b3c 1E       		.uleb128 0x1e
 1800 0b3d 7C0A0000 		.4byte	0xa7c
 1801 0b41 0C000000 		.4byte	.LBB23
 1802 0b45 48000000 		.4byte	.Ldebug_ranges0+0x48
 1803 0b49 01       		.byte	0x1
 1804 0b4a 7A       		.byte	0x7a
 1805 0b4b 630B0000 		.4byte	0xb63
 1806 0b4f 1F       		.uleb128 0x1f
 1807 0b50 930A0000 		.4byte	0xa93
 1808 0b54 04       		.uleb128 0x4
 1809 0b55 70       		.byte	0x70
 1810 0b56 D400     		.sleb128 84
 1811 0b58 9F       		.byte	0x9f
 1812 0b59 20       		.uleb128 0x20
 1813 0b5a 880A0000 		.4byte	0xa88
 1814 0b5e 000C0240 		.4byte	0x40020c00
 1815 0b62 00       		.byte	0
 1816 0b63 1E       		.uleb128 0x1e
 1817 0b64 7C0A0000 		.4byte	0xa7c
 1818 0b68 0E000000 		.4byte	.LBB26
 1819 0b6c 60000000 		.4byte	.Ldebug_ranges0+0x60
 1820 0b70 01       		.byte	0x1
ARM GAS  /tmp/cc3WS41z.s 			page 33


 1821 0b71 7D       		.byte	0x7d
 1822 0b72 8A0B0000 		.4byte	0xb8a
 1823 0b76 1F       		.uleb128 0x1f
 1824 0b77 930A0000 		.4byte	0xa93
 1825 0b7b 04       		.uleb128 0x4
 1826 0b7c 70       		.byte	0x70
 1827 0b7d F000     		.sleb128 112
 1828 0b7f 9F       		.byte	0x9f
 1829 0b80 20       		.uleb128 0x20
 1830 0b81 880A0000 		.4byte	0xa88
 1831 0b85 00100240 		.4byte	0x40021000
 1832 0b89 00       		.byte	0
 1833 0b8a 21       		.uleb128 0x21
 1834 0b8b 7C0A0000 		.4byte	0xa7c
 1835 0b8f B0000000 		.4byte	.LBB34
 1836 0b93 38000000 		.4byte	.LBE34-.LBB34
 1837 0b97 01       		.byte	0x1
 1838 0b98 86       		.byte	0x86
 1839 0b99 1F       		.uleb128 0x1f
 1840 0b9a 930A0000 		.4byte	0xa93
 1841 0b9e 04       		.uleb128 0x4
 1842 0b9f 70       		.byte	0x70
 1843 0ba0 8C01     		.sleb128 140
 1844 0ba2 9F       		.byte	0x9f
 1845 0ba3 20       		.uleb128 0x20
 1846 0ba4 880A0000 		.4byte	0xa88
 1847 0ba8 001C0240 		.4byte	0x40021c00
 1848 0bac 00       		.byte	0
 1849 0bad 00       		.byte	0
 1850 0bae 0A       		.uleb128 0xa
 1851 0baf 04       		.byte	0x4
 1852 0bb0 B40B0000 		.4byte	0xbb4
 1853 0bb4 18       		.uleb128 0x18
 1854 0bb5 470A0000 		.4byte	0xa47
 1855 0bb9 1C       		.uleb128 0x1c
 1856 0bba E1060000 		.4byte	.LASF163
 1857 0bbe 01       		.byte	0x1
 1858 0bbf 9B       		.byte	0x9b
 1859 0bc0 00000000 		.4byte	.LFB262
 1860 0bc4 B6000000 		.4byte	.LFE262-.LFB262
 1861 0bc8 01       		.uleb128 0x1
 1862 0bc9 9C       		.byte	0x9c
 1863 0bca 890C0000 		.4byte	0xc89
 1864 0bce 1D       		.uleb128 0x1d
 1865 0bcf F3010000 		.4byte	.LASF164
 1866 0bd3 01       		.byte	0x1
 1867 0bd4 9B       		.byte	0x9b
 1868 0bd5 6A0A0000 		.4byte	0xa6a
 1869 0bd9 01       		.uleb128 0x1
 1870 0bda 50       		.byte	0x50
 1871 0bdb 22       		.uleb128 0x22
 1872 0bdc C9010000 		.4byte	.LASF165
 1873 0be0 01       		.byte	0x1
 1874 0be1 9C       		.byte	0x9c
 1875 0be2 520A0000 		.4byte	0xa52
 1876 0be6 00000000 		.4byte	.LLST0
 1877 0bea 22       		.uleb128 0x22
ARM GAS  /tmp/cc3WS41z.s 			page 34


 1878 0beb 03060000 		.4byte	.LASF166
 1879 0bef 01       		.byte	0x1
 1880 0bf0 9D       		.byte	0x9d
 1881 0bf1 5E0A0000 		.4byte	0xa5e
 1882 0bf5 2D000000 		.4byte	.LLST1
 1883 0bf9 23       		.uleb128 0x23
 1884 0bfa 58010000 		.4byte	.LASF143
 1885 0bfe 01       		.byte	0x1
 1886 0bff 9F       		.byte	0x9f
 1887 0c00 CA000000 		.4byte	0xca
 1888 0c04 01       		.uleb128 0x1
 1889 0c05 5E       		.byte	0x5e
 1890 0c06 23       		.uleb128 0x23
 1891 0c07 62020000 		.4byte	.LASF144
 1892 0c0b 01       		.byte	0x1
 1893 0c0c A0       		.byte	0xa0
 1894 0c0d CA000000 		.4byte	0xca
 1895 0c11 01       		.uleb128 0x1
 1896 0c12 57       		.byte	0x57
 1897 0c13 23       		.uleb128 0x23
 1898 0c14 55020000 		.4byte	.LASF145
 1899 0c18 01       		.byte	0x1
 1900 0c19 A1       		.byte	0xa1
 1901 0c1a CA000000 		.4byte	0xca
 1902 0c1e 01       		.uleb128 0x1
 1903 0c1f 56       		.byte	0x56
 1904 0c20 23       		.uleb128 0x23
 1905 0c21 4D070000 		.4byte	.LASF146
 1906 0c25 01       		.byte	0x1
 1907 0c26 A2       		.byte	0xa2
 1908 0c27 CA000000 		.4byte	0xca
 1909 0c2b 01       		.uleb128 0x1
 1910 0c2c 55       		.byte	0x55
 1911 0c2d 23       		.uleb128 0x23
 1912 0c2e F9050000 		.4byte	.LASF167
 1913 0c32 01       		.byte	0x1
 1914 0c33 A3       		.byte	0xa3
 1915 0c34 CA000000 		.4byte	0xca
 1916 0c38 01       		.uleb128 0x1
 1917 0c39 52       		.byte	0x52
 1918 0c3a 24       		.uleb128 0x24
 1919 0c3b 62697400 		.ascii	"bit\000"
 1920 0c3f 01       		.byte	0x1
 1921 0c40 A4       		.byte	0xa4
 1922 0c41 CA000000 		.4byte	0xca
 1923 0c45 4E000000 		.4byte	.LLST2
 1924 0c49 25       		.uleb128 0x25
 1925 0c4a 78000000 		.4byte	.Ldebug_ranges0+0x78
 1926 0c4e 26       		.uleb128 0x26
 1927 0c4f A0010000 		.4byte	.LASF168
 1928 0c53 01       		.byte	0x1
 1929 0c54 A7       		.byte	0xa7
 1930 0c55 CA000000 		.4byte	0xca
 1931 0c59 6D000000 		.4byte	.LLST3
 1932 0c5d 24       		.uleb128 0x24
 1933 0c5e 6D3100   		.ascii	"m1\000"
 1934 0c61 01       		.byte	0x1
ARM GAS  /tmp/cc3WS41z.s 			page 35


 1935 0c62 A7       		.byte	0xa7
 1936 0c63 CA000000 		.4byte	0xca
 1937 0c67 B3000000 		.4byte	.LLST4
 1938 0c6b 24       		.uleb128 0x24
 1939 0c6c 6D3200   		.ascii	"m2\000"
 1940 0c6f 01       		.byte	0x1
 1941 0c70 A7       		.byte	0xa7
 1942 0c71 CA000000 		.4byte	0xca
 1943 0c75 CA000000 		.4byte	.LLST5
 1944 0c79 24       		.uleb128 0x24
 1945 0c7a 6D3400   		.ascii	"m4\000"
 1946 0c7d 01       		.byte	0x1
 1947 0c7e A7       		.byte	0xa7
 1948 0c7f CA000000 		.4byte	0xca
 1949 0c83 E3000000 		.4byte	.LLST6
 1950 0c87 00       		.byte	0
 1951 0c88 00       		.byte	0
 1952 0c89 27       		.uleb128 0x27
 1953 0c8a C3000000 		.4byte	.LASF169
 1954 0c8e 0E       		.byte	0xe
 1955 0c8f A706     		.2byte	0x6a7
 1956 0c91 E0000000 		.4byte	0xe0
 1957 0c95 28       		.uleb128 0x28
 1958 0c96 636800   		.ascii	"ch\000"
 1959 0c99 06       		.byte	0x6
 1960 0c9a 0902     		.2byte	0x209
 1961 0c9c FC030000 		.4byte	0x3fc
 1962 0ca0 00       		.byte	0
 1963              		.section	.debug_abbrev,"",%progbits
 1964              	.Ldebug_abbrev0:
 1965 0000 01       		.uleb128 0x1
 1966 0001 11       		.uleb128 0x11
 1967 0002 01       		.byte	0x1
 1968 0003 25       		.uleb128 0x25
 1969 0004 0E       		.uleb128 0xe
 1970 0005 13       		.uleb128 0x13
 1971 0006 0B       		.uleb128 0xb
 1972 0007 03       		.uleb128 0x3
 1973 0008 0E       		.uleb128 0xe
 1974 0009 1B       		.uleb128 0x1b
 1975 000a 0E       		.uleb128 0xe
 1976 000b 55       		.uleb128 0x55
 1977 000c 17       		.uleb128 0x17
 1978 000d 11       		.uleb128 0x11
 1979 000e 01       		.uleb128 0x1
 1980 000f 10       		.uleb128 0x10
 1981 0010 17       		.uleb128 0x17
 1982 0011 00       		.byte	0
 1983 0012 00       		.byte	0
 1984 0013 02       		.uleb128 0x2
 1985 0014 24       		.uleb128 0x24
 1986 0015 00       		.byte	0
 1987 0016 0B       		.uleb128 0xb
 1988 0017 0B       		.uleb128 0xb
 1989 0018 3E       		.uleb128 0x3e
 1990 0019 0B       		.uleb128 0xb
 1991 001a 03       		.uleb128 0x3
ARM GAS  /tmp/cc3WS41z.s 			page 36


 1992 001b 08       		.uleb128 0x8
 1993 001c 00       		.byte	0
 1994 001d 00       		.byte	0
 1995 001e 03       		.uleb128 0x3
 1996 001f 24       		.uleb128 0x24
 1997 0020 00       		.byte	0
 1998 0021 0B       		.uleb128 0xb
 1999 0022 0B       		.uleb128 0xb
 2000 0023 3E       		.uleb128 0x3e
 2001 0024 0B       		.uleb128 0xb
 2002 0025 03       		.uleb128 0x3
 2003 0026 0E       		.uleb128 0xe
 2004 0027 00       		.byte	0
 2005 0028 00       		.byte	0
 2006 0029 04       		.uleb128 0x4
 2007 002a 16       		.uleb128 0x16
 2008 002b 00       		.byte	0
 2009 002c 03       		.uleb128 0x3
 2010 002d 0E       		.uleb128 0xe
 2011 002e 3A       		.uleb128 0x3a
 2012 002f 0B       		.uleb128 0xb
 2013 0030 3B       		.uleb128 0x3b
 2014 0031 0B       		.uleb128 0xb
 2015 0032 49       		.uleb128 0x49
 2016 0033 13       		.uleb128 0x13
 2017 0034 00       		.byte	0
 2018 0035 00       		.byte	0
 2019 0036 05       		.uleb128 0x5
 2020 0037 35       		.uleb128 0x35
 2021 0038 00       		.byte	0
 2022 0039 49       		.uleb128 0x49
 2023 003a 13       		.uleb128 0x13
 2024 003b 00       		.byte	0
 2025 003c 00       		.byte	0
 2026 003d 06       		.uleb128 0x6
 2027 003e 13       		.uleb128 0x13
 2028 003f 01       		.byte	0x1
 2029 0040 03       		.uleb128 0x3
 2030 0041 0E       		.uleb128 0xe
 2031 0042 0B       		.uleb128 0xb
 2032 0043 0B       		.uleb128 0xb
 2033 0044 3A       		.uleb128 0x3a
 2034 0045 0B       		.uleb128 0xb
 2035 0046 3B       		.uleb128 0x3b
 2036 0047 0B       		.uleb128 0xb
 2037 0048 01       		.uleb128 0x1
 2038 0049 13       		.uleb128 0x13
 2039 004a 00       		.byte	0
 2040 004b 00       		.byte	0
 2041 004c 07       		.uleb128 0x7
 2042 004d 0D       		.uleb128 0xd
 2043 004e 00       		.byte	0
 2044 004f 03       		.uleb128 0x3
 2045 0050 0E       		.uleb128 0xe
 2046 0051 3A       		.uleb128 0x3a
 2047 0052 0B       		.uleb128 0xb
 2048 0053 3B       		.uleb128 0x3b
ARM GAS  /tmp/cc3WS41z.s 			page 37


 2049 0054 0B       		.uleb128 0xb
 2050 0055 49       		.uleb128 0x49
 2051 0056 13       		.uleb128 0x13
 2052 0057 38       		.uleb128 0x38
 2053 0058 0B       		.uleb128 0xb
 2054 0059 00       		.byte	0
 2055 005a 00       		.byte	0
 2056 005b 08       		.uleb128 0x8
 2057 005c 0D       		.uleb128 0xd
 2058 005d 00       		.byte	0
 2059 005e 03       		.uleb128 0x3
 2060 005f 08       		.uleb128 0x8
 2061 0060 3A       		.uleb128 0x3a
 2062 0061 0B       		.uleb128 0xb
 2063 0062 3B       		.uleb128 0x3b
 2064 0063 05       		.uleb128 0x5
 2065 0064 49       		.uleb128 0x49
 2066 0065 13       		.uleb128 0x13
 2067 0066 38       		.uleb128 0x38
 2068 0067 0B       		.uleb128 0xb
 2069 0068 00       		.byte	0
 2070 0069 00       		.byte	0
 2071 006a 09       		.uleb128 0x9
 2072 006b 0D       		.uleb128 0xd
 2073 006c 00       		.byte	0
 2074 006d 03       		.uleb128 0x3
 2075 006e 0E       		.uleb128 0xe
 2076 006f 3A       		.uleb128 0x3a
 2077 0070 0B       		.uleb128 0xb
 2078 0071 3B       		.uleb128 0x3b
 2079 0072 05       		.uleb128 0x5
 2080 0073 49       		.uleb128 0x49
 2081 0074 13       		.uleb128 0x13
 2082 0075 38       		.uleb128 0x38
 2083 0076 0B       		.uleb128 0xb
 2084 0077 00       		.byte	0
 2085 0078 00       		.byte	0
 2086 0079 0A       		.uleb128 0xa
 2087 007a 0F       		.uleb128 0xf
 2088 007b 00       		.byte	0
 2089 007c 0B       		.uleb128 0xb
 2090 007d 0B       		.uleb128 0xb
 2091 007e 49       		.uleb128 0x49
 2092 007f 13       		.uleb128 0x13
 2093 0080 00       		.byte	0
 2094 0081 00       		.byte	0
 2095 0082 0B       		.uleb128 0xb
 2096 0083 13       		.uleb128 0x13
 2097 0084 01       		.byte	0x1
 2098 0085 03       		.uleb128 0x3
 2099 0086 0E       		.uleb128 0xe
 2100 0087 0B       		.uleb128 0xb
 2101 0088 0B       		.uleb128 0xb
 2102 0089 3A       		.uleb128 0x3a
 2103 008a 0B       		.uleb128 0xb
 2104 008b 3B       		.uleb128 0x3b
 2105 008c 05       		.uleb128 0x5
ARM GAS  /tmp/cc3WS41z.s 			page 38


 2106 008d 01       		.uleb128 0x1
 2107 008e 13       		.uleb128 0x13
 2108 008f 00       		.byte	0
 2109 0090 00       		.byte	0
 2110 0091 0C       		.uleb128 0xc
 2111 0092 15       		.uleb128 0x15
 2112 0093 01       		.byte	0x1
 2113 0094 27       		.uleb128 0x27
 2114 0095 19       		.uleb128 0x19
 2115 0096 01       		.uleb128 0x1
 2116 0097 13       		.uleb128 0x13
 2117 0098 00       		.byte	0
 2118 0099 00       		.byte	0
 2119 009a 0D       		.uleb128 0xd
 2120 009b 05       		.uleb128 0x5
 2121 009c 00       		.byte	0
 2122 009d 49       		.uleb128 0x49
 2123 009e 13       		.uleb128 0x13
 2124 009f 00       		.byte	0
 2125 00a0 00       		.byte	0
 2126 00a1 0E       		.uleb128 0xe
 2127 00a2 0F       		.uleb128 0xf
 2128 00a3 00       		.byte	0
 2129 00a4 0B       		.uleb128 0xb
 2130 00a5 0B       		.uleb128 0xb
 2131 00a6 00       		.byte	0
 2132 00a7 00       		.byte	0
 2133 00a8 0F       		.uleb128 0xf
 2134 00a9 13       		.uleb128 0x13
 2135 00aa 01       		.byte	0x1
 2136 00ab 03       		.uleb128 0x3
 2137 00ac 0E       		.uleb128 0xe
 2138 00ad 0B       		.uleb128 0xb
 2139 00ae 05       		.uleb128 0x5
 2140 00af 3A       		.uleb128 0x3a
 2141 00b0 0B       		.uleb128 0xb
 2142 00b1 3B       		.uleb128 0x3b
 2143 00b2 05       		.uleb128 0x5
 2144 00b3 01       		.uleb128 0x1
 2145 00b4 13       		.uleb128 0x13
 2146 00b5 00       		.byte	0
 2147 00b6 00       		.byte	0
 2148 00b7 10       		.uleb128 0x10
 2149 00b8 01       		.uleb128 0x1
 2150 00b9 01       		.byte	0x1
 2151 00ba 49       		.uleb128 0x49
 2152 00bb 13       		.uleb128 0x13
 2153 00bc 01       		.uleb128 0x1
 2154 00bd 13       		.uleb128 0x13
 2155 00be 00       		.byte	0
 2156 00bf 00       		.byte	0
 2157 00c0 11       		.uleb128 0x11
 2158 00c1 21       		.uleb128 0x21
 2159 00c2 00       		.byte	0
 2160 00c3 49       		.uleb128 0x49
 2161 00c4 13       		.uleb128 0x13
 2162 00c5 2F       		.uleb128 0x2f
ARM GAS  /tmp/cc3WS41z.s 			page 39


 2163 00c6 0B       		.uleb128 0xb
 2164 00c7 00       		.byte	0
 2165 00c8 00       		.byte	0
 2166 00c9 12       		.uleb128 0x12
 2167 00ca 13       		.uleb128 0x13
 2168 00cb 01       		.byte	0x1
 2169 00cc 0B       		.uleb128 0xb
 2170 00cd 0B       		.uleb128 0xb
 2171 00ce 3A       		.uleb128 0x3a
 2172 00cf 0B       		.uleb128 0xb
 2173 00d0 3B       		.uleb128 0x3b
 2174 00d1 05       		.uleb128 0x5
 2175 00d2 01       		.uleb128 0x1
 2176 00d3 13       		.uleb128 0x13
 2177 00d4 00       		.byte	0
 2178 00d5 00       		.byte	0
 2179 00d6 13       		.uleb128 0x13
 2180 00d7 16       		.uleb128 0x16
 2181 00d8 00       		.byte	0
 2182 00d9 03       		.uleb128 0x3
 2183 00da 0E       		.uleb128 0xe
 2184 00db 3A       		.uleb128 0x3a
 2185 00dc 0B       		.uleb128 0xb
 2186 00dd 3B       		.uleb128 0x3b
 2187 00de 05       		.uleb128 0x5
 2188 00df 49       		.uleb128 0x49
 2189 00e0 13       		.uleb128 0x13
 2190 00e1 00       		.byte	0
 2191 00e2 00       		.byte	0
 2192 00e3 14       		.uleb128 0x14
 2193 00e4 0D       		.uleb128 0xd
 2194 00e5 00       		.byte	0
 2195 00e6 03       		.uleb128 0x3
 2196 00e7 08       		.uleb128 0x8
 2197 00e8 3A       		.uleb128 0x3a
 2198 00e9 0B       		.uleb128 0xb
 2199 00ea 3B       		.uleb128 0x3b
 2200 00eb 0B       		.uleb128 0xb
 2201 00ec 49       		.uleb128 0x49
 2202 00ed 13       		.uleb128 0x13
 2203 00ee 38       		.uleb128 0x38
 2204 00ef 0B       		.uleb128 0xb
 2205 00f0 00       		.byte	0
 2206 00f1 00       		.byte	0
 2207 00f2 15       		.uleb128 0x15
 2208 00f3 13       		.uleb128 0x13
 2209 00f4 01       		.byte	0x1
 2210 00f5 0B       		.uleb128 0xb
 2211 00f6 0B       		.uleb128 0xb
 2212 00f7 3A       		.uleb128 0x3a
 2213 00f8 0B       		.uleb128 0xb
 2214 00f9 3B       		.uleb128 0x3b
 2215 00fa 0B       		.uleb128 0xb
 2216 00fb 01       		.uleb128 0x1
 2217 00fc 13       		.uleb128 0x13
 2218 00fd 00       		.byte	0
 2219 00fe 00       		.byte	0
ARM GAS  /tmp/cc3WS41z.s 			page 40


 2220 00ff 16       		.uleb128 0x16
 2221 0100 17       		.uleb128 0x17
 2222 0101 01       		.byte	0x1
 2223 0102 0B       		.uleb128 0xb
 2224 0103 0B       		.uleb128 0xb
 2225 0104 3A       		.uleb128 0x3a
 2226 0105 0B       		.uleb128 0xb
 2227 0106 3B       		.uleb128 0x3b
 2228 0107 0B       		.uleb128 0xb
 2229 0108 01       		.uleb128 0x1
 2230 0109 13       		.uleb128 0x13
 2231 010a 00       		.byte	0
 2232 010b 00       		.byte	0
 2233 010c 17       		.uleb128 0x17
 2234 010d 0D       		.uleb128 0xd
 2235 010e 00       		.byte	0
 2236 010f 03       		.uleb128 0x3
 2237 0110 0E       		.uleb128 0xe
 2238 0111 3A       		.uleb128 0x3a
 2239 0112 0B       		.uleb128 0xb
 2240 0113 3B       		.uleb128 0x3b
 2241 0114 05       		.uleb128 0x5
 2242 0115 49       		.uleb128 0x49
 2243 0116 13       		.uleb128 0x13
 2244 0117 00       		.byte	0
 2245 0118 00       		.byte	0
 2246 0119 18       		.uleb128 0x18
 2247 011a 26       		.uleb128 0x26
 2248 011b 00       		.byte	0
 2249 011c 49       		.uleb128 0x49
 2250 011d 13       		.uleb128 0x13
 2251 011e 00       		.byte	0
 2252 011f 00       		.byte	0
 2253 0120 19       		.uleb128 0x19
 2254 0121 0D       		.uleb128 0xd
 2255 0122 00       		.byte	0
 2256 0123 03       		.uleb128 0x3
 2257 0124 08       		.uleb128 0x8
 2258 0125 3A       		.uleb128 0x3a
 2259 0126 0B       		.uleb128 0xb
 2260 0127 3B       		.uleb128 0x3b
 2261 0128 0B       		.uleb128 0xb
 2262 0129 49       		.uleb128 0x49
 2263 012a 13       		.uleb128 0x13
 2264 012b 00       		.byte	0
 2265 012c 00       		.byte	0
 2266 012d 1A       		.uleb128 0x1a
 2267 012e 2E       		.uleb128 0x2e
 2268 012f 01       		.byte	0x1
 2269 0130 03       		.uleb128 0x3
 2270 0131 0E       		.uleb128 0xe
 2271 0132 3A       		.uleb128 0x3a
 2272 0133 0B       		.uleb128 0xb
 2273 0134 3B       		.uleb128 0x3b
 2274 0135 0B       		.uleb128 0xb
 2275 0136 27       		.uleb128 0x27
 2276 0137 19       		.uleb128 0x19
ARM GAS  /tmp/cc3WS41z.s 			page 41


 2277 0138 20       		.uleb128 0x20
 2278 0139 0B       		.uleb128 0xb
 2279 013a 01       		.uleb128 0x1
 2280 013b 13       		.uleb128 0x13
 2281 013c 00       		.byte	0
 2282 013d 00       		.byte	0
 2283 013e 1B       		.uleb128 0x1b
 2284 013f 05       		.uleb128 0x5
 2285 0140 00       		.byte	0
 2286 0141 03       		.uleb128 0x3
 2287 0142 0E       		.uleb128 0xe
 2288 0143 3A       		.uleb128 0x3a
 2289 0144 0B       		.uleb128 0xb
 2290 0145 3B       		.uleb128 0x3b
 2291 0146 0B       		.uleb128 0xb
 2292 0147 49       		.uleb128 0x49
 2293 0148 13       		.uleb128 0x13
 2294 0149 00       		.byte	0
 2295 014a 00       		.byte	0
 2296 014b 1C       		.uleb128 0x1c
 2297 014c 2E       		.uleb128 0x2e
 2298 014d 01       		.byte	0x1
 2299 014e 3F       		.uleb128 0x3f
 2300 014f 19       		.uleb128 0x19
 2301 0150 03       		.uleb128 0x3
 2302 0151 0E       		.uleb128 0xe
 2303 0152 3A       		.uleb128 0x3a
 2304 0153 0B       		.uleb128 0xb
 2305 0154 3B       		.uleb128 0x3b
 2306 0155 0B       		.uleb128 0xb
 2307 0156 27       		.uleb128 0x27
 2308 0157 19       		.uleb128 0x19
 2309 0158 11       		.uleb128 0x11
 2310 0159 01       		.uleb128 0x1
 2311 015a 12       		.uleb128 0x12
 2312 015b 06       		.uleb128 0x6
 2313 015c 40       		.uleb128 0x40
 2314 015d 18       		.uleb128 0x18
 2315 015e 9742     		.uleb128 0x2117
 2316 0160 19       		.uleb128 0x19
 2317 0161 01       		.uleb128 0x1
 2318 0162 13       		.uleb128 0x13
 2319 0163 00       		.byte	0
 2320 0164 00       		.byte	0
 2321 0165 1D       		.uleb128 0x1d
 2322 0166 05       		.uleb128 0x5
 2323 0167 00       		.byte	0
 2324 0168 03       		.uleb128 0x3
 2325 0169 0E       		.uleb128 0xe
 2326 016a 3A       		.uleb128 0x3a
 2327 016b 0B       		.uleb128 0xb
 2328 016c 3B       		.uleb128 0x3b
 2329 016d 0B       		.uleb128 0xb
 2330 016e 49       		.uleb128 0x49
 2331 016f 13       		.uleb128 0x13
 2332 0170 02       		.uleb128 0x2
 2333 0171 18       		.uleb128 0x18
ARM GAS  /tmp/cc3WS41z.s 			page 42


 2334 0172 00       		.byte	0
 2335 0173 00       		.byte	0
 2336 0174 1E       		.uleb128 0x1e
 2337 0175 1D       		.uleb128 0x1d
 2338 0176 01       		.byte	0x1
 2339 0177 31       		.uleb128 0x31
 2340 0178 13       		.uleb128 0x13
 2341 0179 52       		.uleb128 0x52
 2342 017a 01       		.uleb128 0x1
 2343 017b 55       		.uleb128 0x55
 2344 017c 17       		.uleb128 0x17
 2345 017d 58       		.uleb128 0x58
 2346 017e 0B       		.uleb128 0xb
 2347 017f 59       		.uleb128 0x59
 2348 0180 0B       		.uleb128 0xb
 2349 0181 01       		.uleb128 0x1
 2350 0182 13       		.uleb128 0x13
 2351 0183 00       		.byte	0
 2352 0184 00       		.byte	0
 2353 0185 1F       		.uleb128 0x1f
 2354 0186 05       		.uleb128 0x5
 2355 0187 00       		.byte	0
 2356 0188 31       		.uleb128 0x31
 2357 0189 13       		.uleb128 0x13
 2358 018a 02       		.uleb128 0x2
 2359 018b 18       		.uleb128 0x18
 2360 018c 00       		.byte	0
 2361 018d 00       		.byte	0
 2362 018e 20       		.uleb128 0x20
 2363 018f 05       		.uleb128 0x5
 2364 0190 00       		.byte	0
 2365 0191 31       		.uleb128 0x31
 2366 0192 13       		.uleb128 0x13
 2367 0193 1C       		.uleb128 0x1c
 2368 0194 06       		.uleb128 0x6
 2369 0195 00       		.byte	0
 2370 0196 00       		.byte	0
 2371 0197 21       		.uleb128 0x21
 2372 0198 1D       		.uleb128 0x1d
 2373 0199 01       		.byte	0x1
 2374 019a 31       		.uleb128 0x31
 2375 019b 13       		.uleb128 0x13
 2376 019c 11       		.uleb128 0x11
 2377 019d 01       		.uleb128 0x1
 2378 019e 12       		.uleb128 0x12
 2379 019f 06       		.uleb128 0x6
 2380 01a0 58       		.uleb128 0x58
 2381 01a1 0B       		.uleb128 0xb
 2382 01a2 59       		.uleb128 0x59
 2383 01a3 0B       		.uleb128 0xb
 2384 01a4 00       		.byte	0
 2385 01a5 00       		.byte	0
 2386 01a6 22       		.uleb128 0x22
 2387 01a7 05       		.uleb128 0x5
 2388 01a8 00       		.byte	0
 2389 01a9 03       		.uleb128 0x3
 2390 01aa 0E       		.uleb128 0xe
ARM GAS  /tmp/cc3WS41z.s 			page 43


 2391 01ab 3A       		.uleb128 0x3a
 2392 01ac 0B       		.uleb128 0xb
 2393 01ad 3B       		.uleb128 0x3b
 2394 01ae 0B       		.uleb128 0xb
 2395 01af 49       		.uleb128 0x49
 2396 01b0 13       		.uleb128 0x13
 2397 01b1 02       		.uleb128 0x2
 2398 01b2 17       		.uleb128 0x17
 2399 01b3 00       		.byte	0
 2400 01b4 00       		.byte	0
 2401 01b5 23       		.uleb128 0x23
 2402 01b6 34       		.uleb128 0x34
 2403 01b7 00       		.byte	0
 2404 01b8 03       		.uleb128 0x3
 2405 01b9 0E       		.uleb128 0xe
 2406 01ba 3A       		.uleb128 0x3a
 2407 01bb 0B       		.uleb128 0xb
 2408 01bc 3B       		.uleb128 0x3b
 2409 01bd 0B       		.uleb128 0xb
 2410 01be 49       		.uleb128 0x49
 2411 01bf 13       		.uleb128 0x13
 2412 01c0 02       		.uleb128 0x2
 2413 01c1 18       		.uleb128 0x18
 2414 01c2 00       		.byte	0
 2415 01c3 00       		.byte	0
 2416 01c4 24       		.uleb128 0x24
 2417 01c5 34       		.uleb128 0x34
 2418 01c6 00       		.byte	0
 2419 01c7 03       		.uleb128 0x3
 2420 01c8 08       		.uleb128 0x8
 2421 01c9 3A       		.uleb128 0x3a
 2422 01ca 0B       		.uleb128 0xb
 2423 01cb 3B       		.uleb128 0x3b
 2424 01cc 0B       		.uleb128 0xb
 2425 01cd 49       		.uleb128 0x49
 2426 01ce 13       		.uleb128 0x13
 2427 01cf 02       		.uleb128 0x2
 2428 01d0 17       		.uleb128 0x17
 2429 01d1 00       		.byte	0
 2430 01d2 00       		.byte	0
 2431 01d3 25       		.uleb128 0x25
 2432 01d4 0B       		.uleb128 0xb
 2433 01d5 01       		.byte	0x1
 2434 01d6 55       		.uleb128 0x55
 2435 01d7 17       		.uleb128 0x17
 2436 01d8 00       		.byte	0
 2437 01d9 00       		.byte	0
 2438 01da 26       		.uleb128 0x26
 2439 01db 34       		.uleb128 0x34
 2440 01dc 00       		.byte	0
 2441 01dd 03       		.uleb128 0x3
 2442 01de 0E       		.uleb128 0xe
 2443 01df 3A       		.uleb128 0x3a
 2444 01e0 0B       		.uleb128 0xb
 2445 01e1 3B       		.uleb128 0x3b
 2446 01e2 0B       		.uleb128 0xb
 2447 01e3 49       		.uleb128 0x49
ARM GAS  /tmp/cc3WS41z.s 			page 44


 2448 01e4 13       		.uleb128 0x13
 2449 01e5 02       		.uleb128 0x2
 2450 01e6 17       		.uleb128 0x17
 2451 01e7 00       		.byte	0
 2452 01e8 00       		.byte	0
 2453 01e9 27       		.uleb128 0x27
 2454 01ea 34       		.uleb128 0x34
 2455 01eb 00       		.byte	0
 2456 01ec 03       		.uleb128 0x3
 2457 01ed 0E       		.uleb128 0xe
 2458 01ee 3A       		.uleb128 0x3a
 2459 01ef 0B       		.uleb128 0xb
 2460 01f0 3B       		.uleb128 0x3b
 2461 01f1 05       		.uleb128 0x5
 2462 01f2 49       		.uleb128 0x49
 2463 01f3 13       		.uleb128 0x13
 2464 01f4 3F       		.uleb128 0x3f
 2465 01f5 19       		.uleb128 0x19
 2466 01f6 3C       		.uleb128 0x3c
 2467 01f7 19       		.uleb128 0x19
 2468 01f8 00       		.byte	0
 2469 01f9 00       		.byte	0
 2470 01fa 28       		.uleb128 0x28
 2471 01fb 34       		.uleb128 0x34
 2472 01fc 00       		.byte	0
 2473 01fd 03       		.uleb128 0x3
 2474 01fe 08       		.uleb128 0x8
 2475 01ff 3A       		.uleb128 0x3a
 2476 0200 0B       		.uleb128 0xb
 2477 0201 3B       		.uleb128 0x3b
 2478 0202 05       		.uleb128 0x5
 2479 0203 49       		.uleb128 0x49
 2480 0204 13       		.uleb128 0x13
 2481 0205 3F       		.uleb128 0x3f
 2482 0206 19       		.uleb128 0x19
 2483 0207 3C       		.uleb128 0x3c
 2484 0208 19       		.uleb128 0x19
 2485 0209 00       		.byte	0
 2486 020a 00       		.byte	0
 2487 020b 00       		.byte	0
 2488              		.section	.debug_loc,"",%progbits
 2489              	.Ldebug_loc0:
 2490              	.LLST0:
 2491 0000 00000000 		.4byte	.LVL7
 2492 0004 7A000000 		.4byte	.LVL18
 2493 0008 0100     		.2byte	0x1
 2494 000a 51       		.byte	0x51
 2495 000b 7A000000 		.4byte	.LVL18
 2496 000f 7C000000 		.4byte	.LVL19
 2497 0013 0500     		.2byte	0x5
 2498 0015 71       		.byte	0x71
 2499 0016 00       		.sleb128 0
 2500 0017 31       		.byte	0x31
 2501 0018 25       		.byte	0x25
 2502 0019 9F       		.byte	0x9f
 2503 001a 7C000000 		.4byte	.LVL19
 2504 001e B6000000 		.4byte	.LFE262
ARM GAS  /tmp/cc3WS41z.s 			page 45


 2505 0022 0100     		.2byte	0x1
 2506 0024 51       		.byte	0x51
 2507 0025 00000000 		.4byte	0
 2508 0029 00000000 		.4byte	0
 2509              	.LLST1:
 2510 002d 00000000 		.4byte	.LVL7
 2511 0031 1E000000 		.4byte	.LVL12
 2512 0035 0100     		.2byte	0x1
 2513 0037 52       		.byte	0x52
 2514 0038 1E000000 		.4byte	.LVL12
 2515 003c B6000000 		.4byte	.LFE262
 2516 0040 0400     		.2byte	0x4
 2517 0042 F3       		.byte	0xf3
 2518 0043 01       		.uleb128 0x1
 2519 0044 52       		.byte	0x52
 2520 0045 9F       		.byte	0x9f
 2521 0046 00000000 		.4byte	0
 2522 004a 00000000 		.4byte	0
 2523              	.LLST2:
 2524 004e 1E000000 		.4byte	.LVL12
 2525 0052 28000000 		.4byte	.LVL13
 2526 0056 0200     		.2byte	0x2
 2527 0058 30       		.byte	0x30
 2528 0059 9F       		.byte	0x9f
 2529 005a 28000000 		.4byte	.LVL13
 2530 005e B6000000 		.4byte	.LFE262
 2531 0062 0100     		.2byte	0x1
 2532 0064 54       		.byte	0x54
 2533 0065 00000000 		.4byte	0
 2534 0069 00000000 		.4byte	0
 2535              	.LLST3:
 2536 006d 28000000 		.4byte	.LVL13
 2537 0071 3C000000 		.4byte	.LVL16
 2538 0075 0100     		.2byte	0x1
 2539 0077 5A       		.byte	0x5a
 2540 0078 3C000000 		.4byte	.LVL16
 2541 007c 8A000000 		.4byte	.LVL24
 2542 0080 0A00     		.2byte	0xa
 2543 0082 72       		.byte	0x72
 2544 0083 00       		.sleb128 0
 2545 0084 74       		.byte	0x74
 2546 0085 00       		.sleb128 0
 2547 0086 37       		.byte	0x37
 2548 0087 1A       		.byte	0x1a
 2549 0088 32       		.byte	0x32
 2550 0089 24       		.byte	0x24
 2551 008a 24       		.byte	0x24
 2552 008b 9F       		.byte	0x9f
 2553 008c 98000000 		.4byte	.LVL25
 2554 0090 B2000000 		.4byte	.LVL28
 2555 0094 0100     		.2byte	0x1
 2556 0096 5A       		.byte	0x5a
 2557 0097 B2000000 		.4byte	.LVL28
 2558 009b B6000000 		.4byte	.LFE262
 2559 009f 0A00     		.2byte	0xa
 2560 00a1 72       		.byte	0x72
 2561 00a2 00       		.sleb128 0
ARM GAS  /tmp/cc3WS41z.s 			page 46


 2562 00a3 74       		.byte	0x74
 2563 00a4 00       		.sleb128 0
 2564 00a5 37       		.byte	0x37
 2565 00a6 1A       		.byte	0x1a
 2566 00a7 32       		.byte	0x32
 2567 00a8 24       		.byte	0x24
 2568 00a9 24       		.byte	0x24
 2569 00aa 9F       		.byte	0x9f
 2570 00ab 00000000 		.4byte	0
 2571 00af 00000000 		.4byte	0
 2572              	.LLST4:
 2573 00b3 36000000 		.4byte	.LVL15
 2574 00b7 7A000000 		.4byte	.LVL18
 2575 00bb 0500     		.2byte	0x5
 2576 00bd 31       		.byte	0x31
 2577 00be 74       		.byte	0x74
 2578 00bf 00       		.sleb128 0
 2579 00c0 24       		.byte	0x24
 2580 00c1 9F       		.byte	0x9f
 2581 00c2 00000000 		.4byte	0
 2582 00c6 00000000 		.4byte	0
 2583              	.LLST5:
 2584 00ca 44000000 		.4byte	.LVL17
 2585 00ce 7A000000 		.4byte	.LVL18
 2586 00d2 0700     		.2byte	0x7
 2587 00d4 33       		.byte	0x33
 2588 00d5 74       		.byte	0x74
 2589 00d6 00       		.sleb128 0
 2590 00d7 31       		.byte	0x31
 2591 00d8 24       		.byte	0x24
 2592 00d9 24       		.byte	0x24
 2593 00da 9F       		.byte	0x9f
 2594 00db 00000000 		.4byte	0
 2595 00df 00000000 		.4byte	0
 2596              	.LLST6:
 2597 00e3 28000000 		.4byte	.LVL13
 2598 00e7 30000000 		.4byte	.LVL14
 2599 00eb 0100     		.2byte	0x1
 2600 00ed 53       		.byte	0x53
 2601 00ee 30000000 		.4byte	.LVL14
 2602 00f2 8A000000 		.4byte	.LVL24
 2603 00f6 0A00     		.2byte	0xa
 2604 00f8 7C       		.byte	0x7c
 2605 00f9 00       		.sleb128 0
 2606 00fa 74       		.byte	0x74
 2607 00fb 00       		.sleb128 0
 2608 00fc 37       		.byte	0x37
 2609 00fd 1A       		.byte	0x1a
 2610 00fe 32       		.byte	0x32
 2611 00ff 24       		.byte	0x24
 2612 0100 24       		.byte	0x24
 2613 0101 9F       		.byte	0x9f
 2614 0102 9C000000 		.4byte	.LVL26
 2615 0106 AA000000 		.4byte	.LVL27
 2616 010a 0100     		.2byte	0x1
 2617 010c 53       		.byte	0x53
 2618 010d AA000000 		.4byte	.LVL27
ARM GAS  /tmp/cc3WS41z.s 			page 47


 2619 0111 B6000000 		.4byte	.LFE262
 2620 0115 0A00     		.2byte	0xa
 2621 0117 7C       		.byte	0x7c
 2622 0118 00       		.sleb128 0
 2623 0119 74       		.byte	0x74
 2624 011a 00       		.sleb128 0
 2625 011b 37       		.byte	0x37
 2626 011c 1A       		.byte	0x1a
 2627 011d 32       		.byte	0x32
 2628 011e 24       		.byte	0x24
 2629 011f 24       		.byte	0x24
 2630 0120 9F       		.byte	0x9f
 2631 0121 00000000 		.4byte	0
 2632 0125 00000000 		.4byte	0
 2633              		.section	.debug_aranges,"",%progbits
 2634 0000 24000000 		.4byte	0x24
 2635 0004 0200     		.2byte	0x2
 2636 0006 00000000 		.4byte	.Ldebug_info0
 2637 000a 04       		.byte	0x4
 2638 000b 00       		.byte	0
 2639 000c 0000     		.2byte	0
 2640 000e 0000     		.2byte	0
 2641 0010 00000000 		.4byte	.LFB261
 2642 0014 04010000 		.4byte	.LFE261-.LFB261
 2643 0018 00000000 		.4byte	.LFB262
 2644 001c B6000000 		.4byte	.LFE262-.LFB262
 2645 0020 00000000 		.4byte	0
 2646 0024 00000000 		.4byte	0
 2647              		.section	.debug_ranges,"",%progbits
 2648              	.Ldebug_ranges0:
 2649 0000 04000000 		.4byte	.LBB14
 2650 0004 06000000 		.4byte	.LBE14
 2651 0008 1E000000 		.4byte	.LBB29
 2652 000c 3A000000 		.4byte	.LBE29
 2653 0010 00000000 		.4byte	0
 2654 0014 00000000 		.4byte	0
 2655 0018 08000000 		.4byte	.LBB17
 2656 001c 0A000000 		.4byte	.LBE17
 2657 0020 3A000000 		.4byte	.LBB30
 2658 0024 56000000 		.4byte	.LBE30
 2659 0028 00000000 		.4byte	0
 2660 002c 00000000 		.4byte	0
 2661 0030 0A000000 		.4byte	.LBB20
 2662 0034 0C000000 		.4byte	.LBE20
 2663 0038 56000000 		.4byte	.LBB31
 2664 003c 72000000 		.4byte	.LBE31
 2665 0040 00000000 		.4byte	0
 2666 0044 00000000 		.4byte	0
 2667 0048 0C000000 		.4byte	.LBB23
 2668 004c 0E000000 		.4byte	.LBE23
 2669 0050 72000000 		.4byte	.LBB32
 2670 0054 8E000000 		.4byte	.LBE32
 2671 0058 00000000 		.4byte	0
 2672 005c 00000000 		.4byte	0
 2673 0060 0E000000 		.4byte	.LBB26
 2674 0064 10000000 		.4byte	.LBE26
 2675 0068 8E000000 		.4byte	.LBB33
ARM GAS  /tmp/cc3WS41z.s 			page 48


 2676 006c B0000000 		.4byte	.LBE33
 2677 0070 00000000 		.4byte	0
 2678 0074 00000000 		.4byte	0
 2679 0078 04000000 		.4byte	.LBB36
 2680 007c 08000000 		.4byte	.LBE36
 2681 0080 1E000000 		.4byte	.LBB37
 2682 0084 7A000000 		.4byte	.LBE37
 2683 0088 8A000000 		.4byte	.LBB38
 2684 008c 90000000 		.4byte	.LBE38
 2685 0090 94000000 		.4byte	.LBB39
 2686 0094 9C000000 		.4byte	.LBE39
 2687 0098 9E000000 		.4byte	.LBB40
 2688 009c B6000000 		.4byte	.LBE40
 2689 00a0 00000000 		.4byte	0
 2690 00a4 00000000 		.4byte	0
 2691 00a8 00000000 		.4byte	.LFB261
 2692 00ac 04010000 		.4byte	.LFE261
 2693 00b0 00000000 		.4byte	.LFB262
 2694 00b4 B6000000 		.4byte	.LFE262
 2695 00b8 00000000 		.4byte	0
 2696 00bc 00000000 		.4byte	0
 2697              		.section	.debug_line,"",%progbits
 2698              	.Ldebug_line0:
 2699 0000 4D020000 		.section	.debug_str,"MS",%progbits,1
 2699      0200B801 
 2699      00000201 
 2699      FB0E0D00 
 2699      01010101 
 2700              	.LASF149:
 2701 0000 73746D33 		.ascii	"stm32_gpio_setup_t\000"
 2701      325F6770 
 2701      696F5F73 
 2701      65747570 
 2701      5F7400
 2702              	.LASF53:
 2703 0013 72656164 		.ascii	"ready_list_t\000"
 2703      795F6C69 
 2703      73745F74 
 2703      00
 2704              	.LASF119:
 2705 0020 77747472 		.ascii	"wttrp\000"
 2705      7000
 2706              	.LASF116:
 2707 0026 7264796D 		.ascii	"rdymsg\000"
 2707      736700
 2708              	.LASF19:
 2709 002d 75696E74 		.ascii	"uint64_t\000"
 2709      36345F74 
 2709      00
 2710              	.LASF6:
 2711 0036 5F5F7569 		.ascii	"__uint8_t\000"
 2711      6E74385F 
 2711      7400
 2712              	.LASF135:
 2713 0040 4F545950 		.ascii	"OTYPER\000"
 2713      455200
 2714              	.LASF113:
ARM GAS  /tmp/cc3WS41z.s 			page 49


 2715 0047 706F7274 		.ascii	"port_intctx\000"
 2715      5F696E74 
 2715      63747800 
 2716              	.LASF72:
 2717 0053 73797374 		.ascii	"system_debug_t\000"
 2717      656D5F64 
 2717      65627567 
 2717      5F7400
 2718              	.LASF157:
 2719 0062 696F706F 		.ascii	"ioportmask_t\000"
 2719      72746D61 
 2719      736B5F74 
 2719      00
 2720              	.LASF155:
 2721 006f 50484461 		.ascii	"PHData\000"
 2721      746100
 2722              	.LASF134:
 2723 0076 4D4F4445 		.ascii	"MODER\000"
 2723      5200
 2724              	.LASF14:
 2725 007c 6C6F6E67 		.ascii	"long long unsigned int\000"
 2725      206C6F6E 
 2725      6720756E 
 2725      7369676E 
 2725      65642069 
 2726              	.LASF137:
 2727 0093 50555044 		.ascii	"PUPDR\000"
 2727      5200
 2728              	.LASF117:
 2729 0099 65786974 		.ascii	"exitcode\000"
 2729      636F6465 
 2729      00
 2730              	.LASF79:
 2731 00a2 6D61696E 		.ascii	"mainthread\000"
 2731      74687265 
 2731      616400
 2732              	.LASF69:
 2733 00ad 76697274 		.ascii	"virtual_timers_list_t\000"
 2733      75616C5F 
 2733      74696D65 
 2733      72735F6C 
 2733      6973745F 
 2734              	.LASF169:
 2735 00c3 49544D5F 		.ascii	"ITM_RxBuffer\000"
 2735      52784275 
 2735      66666572 
 2735      00
 2736              	.LASF52:
 2737 00d0 63685F74 		.ascii	"ch_threads_queue\000"
 2737      68726561 
 2737      64735F71 
 2737      75657565 
 2737      00
 2738              	.LASF98:
 2739 00e1 41484231 		.ascii	"AHB1LPENR\000"
 2739      4C50454E 
 2739      5200
ARM GAS  /tmp/cc3WS41z.s 			page 50


 2740              	.LASF32:
 2741 00eb 705F7072 		.ascii	"p_prio\000"
 2741      696F00
 2742              	.LASF1:
 2743 00f2 6C6F6E67 		.ascii	"long long int\000"
 2743      206C6F6E 
 2743      6720696E 
 2743      7400
 2744              	.LASF3:
 2745 0100 7369676E 		.ascii	"signed char\000"
 2745      65642063 
 2745      68617200 
 2746              	.LASF138:
 2747 010c 42535252 		.ascii	"BSRR\000"
 2747      00
 2748              	.LASF84:
 2749 0111 41484231 		.ascii	"AHB1RSTR\000"
 2749      52535452 
 2749      00
 2750              	.LASF46:
 2751 011a 705F6D70 		.ascii	"p_mpool\000"
 2751      6F6F6C00 
 2752              	.LASF127:
 2753 0122 6D5F7175 		.ascii	"m_queue\000"
 2753      65756500 
 2754              	.LASF171:
 2755 012a 2E2E2F2E 		.ascii	"../../os/hal/ports/STM32/LLD/GPIOv2/pal_lld.c\000"
 2755      2E2F6F73 
 2755      2F68616C 
 2755      2F706F72 
 2755      74732F53 
 2756              	.LASF143:
 2757 0158 6D6F6465 		.ascii	"moder\000"
 2757      7200
 2758              	.LASF109:
 2759 015e 5243435F 		.ascii	"RCC_TypeDef\000"
 2759      54797065 
 2759      44656600 
 2760              	.LASF76:
 2761 016a 63685F73 		.ascii	"ch_system\000"
 2761      79737465 
 2761      6D00
 2762              	.LASF10:
 2763 0174 6C6F6E67 		.ascii	"long int\000"
 2763      20696E74 
 2763      00
 2764              	.LASF154:
 2765 017d 50454461 		.ascii	"PEData\000"
 2765      746100
 2766              	.LASF89:
 2767 0184 41504232 		.ascii	"APB2RSTR\000"
 2767      52535452 
 2767      00
 2768              	.LASF102:
 2769 018d 41504231 		.ascii	"APB1LPENR\000"
 2769      4C50454E 
 2769      5200
ARM GAS  /tmp/cc3WS41z.s 			page 51


 2770              	.LASF22:
 2771 0197 74737461 		.ascii	"tstate_t\000"
 2771      74655F74 
 2771      00
 2772              	.LASF168:
 2773 01a0 616C7472 		.ascii	"altrmask\000"
 2773      6D61736B 
 2773      00
 2774              	.LASF34:
 2775 01a9 705F6E65 		.ascii	"p_newer\000"
 2775      77657200 
 2776              	.LASF82:
 2777 01b1 504C4C43 		.ascii	"PLLCFGR\000"
 2777      46475200 
 2778              	.LASF136:
 2779 01b9 4F535045 		.ascii	"OSPEEDR\000"
 2779      45445200 
 2780              	.LASF58:
 2781 01c1 725F6E65 		.ascii	"r_newer\000"
 2781      77657200 
 2782              	.LASF165:
 2783 01c9 6D61736B 		.ascii	"mask\000"
 2783      00
 2784              	.LASF110:
 2785 01ce 72656761 		.ascii	"regarm_t\000"
 2785      726D5F74 
 2785      00
 2786              	.LASF65:
 2787 01d7 76745F70 		.ascii	"vt_prev\000"
 2787      72657600 
 2788              	.LASF78:
 2789 01df 76746C69 		.ascii	"vtlist\000"
 2789      737400
 2790              	.LASF142:
 2791 01e6 73746D33 		.ascii	"stm32_gpio_t\000"
 2791      325F6770 
 2791      696F5F74 
 2791      00
 2792              	.LASF164:
 2793 01f3 706F7274 		.ascii	"port\000"
 2793      00
 2794              	.LASF131:
 2795 01f8 6D757465 		.ascii	"mutex_t\000"
 2795      785F7400 
 2796              	.LASF151:
 2797 0200 50424461 		.ascii	"PBData\000"
 2797      746100
 2798              	.LASF80:
 2799 0207 69646C65 		.ascii	"idle_thread_wa\000"
 2799      5F746872 
 2799      6561645F 
 2799      776100
 2800              	.LASF27:
 2801 0216 636E745F 		.ascii	"cnt_t\000"
 2801      7400
 2802              	.LASF0:
 2803 021c 756E7369 		.ascii	"unsigned int\000"
ARM GAS  /tmp/cc3WS41z.s 			page 52


 2803      676E6564 
 2803      20696E74 
 2803      00
 2804              	.LASF64:
 2805 0229 76745F6E 		.ascii	"vt_next\000"
 2805      65787400 
 2806              	.LASF16:
 2807 0231 75696E74 		.ascii	"uint16_t\000"
 2807      31365F74 
 2807      00
 2808              	.LASF120:
 2809 023a 77747365 		.ascii	"wtsemp\000"
 2809      6D7000
 2810              	.LASF66:
 2811 0241 76745F64 		.ascii	"vt_delta\000"
 2811      656C7461 
 2811      00
 2812              	.LASF41:
 2813 024a 705F6D73 		.ascii	"p_msgqueue\000"
 2813      67717565 
 2813      756500
 2814              	.LASF145:
 2815 0255 6F737065 		.ascii	"ospeedr\000"
 2815      65647200 
 2816              	.LASF139:
 2817 025d 4C434B52 		.ascii	"LCKR\000"
 2817      00
 2818              	.LASF144:
 2819 0262 6F747970 		.ascii	"otyper\000"
 2819      657200
 2820              	.LASF8:
 2821 0269 73686F72 		.ascii	"short unsigned int\000"
 2821      7420756E 
 2821      7369676E 
 2821      65642069 
 2821      6E7400
 2822              	.LASF49:
 2823 027c 63685F74 		.ascii	"ch_thread\000"
 2823      68726561 
 2823      6400
 2824              	.LASF108:
 2825 0286 504C4C49 		.ascii	"PLLI2SCFGR\000"
 2825      32534346 
 2825      475200
 2826              	.LASF25:
 2827 0291 6D73675F 		.ascii	"msg_t\000"
 2827      7400
 2828              	.LASF86:
 2829 0297 41484233 		.ascii	"AHB3RSTR\000"
 2829      52535452 
 2829      00
 2830              	.LASF75:
 2831 02a0 63685F73 		.ascii	"ch_system_t\000"
 2831      79737465 
 2831      6D5F7400 
 2832              	.LASF21:
 2833 02ac 746D6F64 		.ascii	"tmode_t\000"
ARM GAS  /tmp/cc3WS41z.s 			page 53


 2833      655F7400 
 2834              	.LASF103:
 2835 02b4 41504232 		.ascii	"APB2LPENR\000"
 2835      4C50454E 
 2835      5200
 2836              	.LASF54:
 2837 02be 63685F72 		.ascii	"ch_ready_list\000"
 2837      65616479 
 2837      5F6C6973 
 2837      7400
 2838              	.LASF26:
 2839 02cc 6576656E 		.ascii	"eventmask_t\000"
 2839      746D6173 
 2839      6B5F7400 
 2840              	.LASF9:
 2841 02d8 5F5F696E 		.ascii	"__int32_t\000"
 2841      7433325F 
 2841      7400
 2842              	.LASF111:
 2843 02e2 73746B61 		.ascii	"stkalign_t\000"
 2843      6C69676E 
 2843      5F7400
 2844              	.LASF170:
 2845 02ed 474E5520 		.ascii	"GNU C11 5.2.0 -mcpu=cortex-m4 -mfloat-abi=hard -mfp"
 2845      43313120 
 2845      352E322E 
 2845      30202D6D 
 2845      6370753D 
 2846 0320 753D6670 		.ascii	"u=fpv4-sp-d16 -mno-thumb-interwork -mthumb -ggdb -O"
 2846      76342D73 
 2846      702D6431 
 2846      36202D6D 
 2846      6E6F2D74 
 2847 0353 32202D66 		.ascii	"2 -fomit-frame-pointer -falign-functions=16 -ffunct"
 2847      6F6D6974 
 2847      2D667261 
 2847      6D652D70 
 2847      6F696E74 
 2848 0386 696F6E2D 		.ascii	"ion-sections -fdata-sections -fno-common -fsingle-p"
 2848      73656374 
 2848      696F6E73 
 2848      202D6664 
 2848      6174612D 
 2849 03b9 72656369 		.ascii	"recision-constant\000"
 2849      73696F6E 
 2849      2D636F6E 
 2849      7374616E 
 2849      7400
 2850              	.LASF48:
 2851 03cb 74687265 		.ascii	"threads_list_t\000"
 2851      6164735F 
 2851      6C697374 
 2851      5F7400
 2852              	.LASF62:
 2853 03da 76697274 		.ascii	"virtual_timer_t\000"
 2853      75616C5F 
 2853      74696D65 
ARM GAS  /tmp/cc3WS41z.s 			page 54


 2853      725F7400 
 2854              	.LASF40:
 2855 03ea 705F7761 		.ascii	"p_waiting\000"
 2855      6974696E 
 2855      6700
 2856              	.LASF81:
 2857 03f4 73697A65 		.ascii	"sizetype\000"
 2857      74797065 
 2857      00
 2858              	.LASF47:
 2859 03fd 74687265 		.ascii	"thread_reference_t\000"
 2859      61645F72 
 2859      65666572 
 2859      656E6365 
 2859      5F7400
 2860              	.LASF70:
 2861 0410 63685F76 		.ascii	"ch_virtual_timers_list\000"
 2861      69727475 
 2861      616C5F74 
 2861      696D6572 
 2861      735F6C69 
 2862              	.LASF133:
 2863 0427 636C6561 		.ascii	"clear\000"
 2863      7200
 2864              	.LASF2:
 2865 042d 6C6F6E67 		.ascii	"long double\000"
 2865      20646F75 
 2865      626C6500 
 2866              	.LASF30:
 2867 0439 705F6E65 		.ascii	"p_next\000"
 2867      787400
 2868              	.LASF93:
 2869 0440 41484233 		.ascii	"AHB3ENR\000"
 2869      454E5200 
 2870              	.LASF71:
 2871 0448 76745F6C 		.ascii	"vt_lasttime\000"
 2871      61737474 
 2871      696D6500 
 2872              	.LASF35:
 2873 0454 705F6F6C 		.ascii	"p_older\000"
 2873      64657200 
 2874              	.LASF57:
 2875 045c 725F6374 		.ascii	"r_ctx\000"
 2875      7800
 2876              	.LASF99:
 2877 0462 41484232 		.ascii	"AHB2LPENR\000"
 2877      4C50454E 
 2877      5200
 2878              	.LASF115:
 2879 046c 746D5F63 		.ascii	"tm_calibration_t\000"
 2879      616C6962 
 2879      72617469 
 2879      6F6E5F74 
 2879      00
 2880              	.LASF148:
 2881 047d 61667268 		.ascii	"afrh\000"
 2881      00
ARM GAS  /tmp/cc3WS41z.s 			page 55


 2882              	.LASF153:
 2883 0482 50444461 		.ascii	"PDData\000"
 2883      746100
 2884              	.LASF60:
 2885 0489 725F6375 		.ascii	"r_current\000"
 2885      7272656E 
 2885      7400
 2886              	.LASF88:
 2887 0493 41504231 		.ascii	"APB1RSTR\000"
 2887      52535452 
 2887      00
 2888              	.LASF13:
 2889 049c 5F5F7569 		.ascii	"__uint64_t\000"
 2889      6E743634 
 2889      5F7400
 2890              	.LASF141:
 2891 04a7 41465248 		.ascii	"AFRH\000"
 2891      00
 2892              	.LASF140:
 2893 04ac 4146524C 		.ascii	"AFRL\000"
 2893      00
 2894              	.LASF23:
 2895 04b1 74726566 		.ascii	"trefs_t\000"
 2895      735F7400 
 2896              	.LASF87:
 2897 04b9 52455345 		.ascii	"RESERVED0\000"
 2897      52564544 
 2897      3000
 2898              	.LASF90:
 2899 04c3 52455345 		.ascii	"RESERVED1\000"
 2899      52564544 
 2899      3100
 2900              	.LASF94:
 2901 04cd 52455345 		.ascii	"RESERVED2\000"
 2901      52564544 
 2901      3200
 2902              	.LASF97:
 2903 04d7 52455345 		.ascii	"RESERVED3\000"
 2903      52564544 
 2903      3300
 2904              	.LASF101:
 2905 04e1 52455345 		.ascii	"RESERVED4\000"
 2905      52564544 
 2905      3400
 2906              	.LASF31:
 2907 04eb 705F7072 		.ascii	"p_prev\000"
 2907      657600
 2908              	.LASF106:
 2909 04f2 52455345 		.ascii	"RESERVED6\000"
 2909      52564544 
 2909      3600
 2910              	.LASF24:
 2911 04fc 74707269 		.ascii	"tprio_t\000"
 2911      6F5F7400 
 2912              	.LASF73:
 2913 0504 63685F73 		.ascii	"ch_system_debug\000"
 2913      79737465 
ARM GAS  /tmp/cc3WS41z.s 			page 56


 2913      6D5F6465 
 2913      62756700 
 2914              	.LASF132:
 2915 0514 5F426F6F 		.ascii	"_Bool\000"
 2915      6C00
 2916              	.LASF17:
 2917 051a 696E7433 		.ascii	"int32_t\000"
 2917      325F7400 
 2918              	.LASF4:
 2919 0522 756E7369 		.ascii	"unsigned char\000"
 2919      676E6564 
 2919      20636861 
 2919      7200
 2920              	.LASF147:
 2921 0530 6166726C 		.ascii	"afrl\000"
 2921      00
 2922              	.LASF125:
 2923 0535 735F636E 		.ascii	"s_cnt\000"
 2923      7400
 2924              	.LASF44:
 2925 053b 705F6D74 		.ascii	"p_mtxlist\000"
 2925      786C6973 
 2925      7400
 2926              	.LASF5:
 2927 0545 73686F72 		.ascii	"short int\000"
 2927      7420696E 
 2927      7400
 2928              	.LASF37:
 2929 054f 705F7374 		.ascii	"p_state\000"
 2929      61746500 
 2930              	.LASF100:
 2931 0557 41484233 		.ascii	"AHB3LPENR\000"
 2931      4C50454E 
 2931      5200
 2932              	.LASF56:
 2933 0561 725F7072 		.ascii	"r_prio\000"
 2933      696F00
 2934              	.LASF150:
 2935 0568 50414461 		.ascii	"PAData\000"
 2935      746100
 2936              	.LASF122:
 2937 056f 65776D61 		.ascii	"ewmask\000"
 2937      736B00
 2938              	.LASF38:
 2939 0576 705F666C 		.ascii	"p_flags\000"
 2939      61677300 
 2940              	.LASF160:
 2941 057e 6770696F 		.ascii	"gpiop\000"
 2941      7000
 2942              	.LASF96:
 2943 0584 41504232 		.ascii	"APB2ENR\000"
 2943      454E5200 
 2944              	.LASF63:
 2945 058c 63685F76 		.ascii	"ch_virtual_timer\000"
 2945      69727475 
 2945      616C5F74 
 2945      696D6572 
ARM GAS  /tmp/cc3WS41z.s 			page 57


 2945      00
 2946              	.LASF123:
 2947 059d 63685F73 		.ascii	"ch_semaphore\000"
 2947      656D6170 
 2947      686F7265 
 2947      00
 2948              	.LASF43:
 2949 05aa 705F6570 		.ascii	"p_epending\000"
 2949      656E6469 
 2949      6E6700
 2950              	.LASF104:
 2951 05b5 52455345 		.ascii	"RESERVED5\000"
 2951      52564544 
 2951      3500
 2952              	.LASF18:
 2953 05bf 75696E74 		.ascii	"uint32_t\000"
 2953      33325F74 
 2953      00
 2954              	.LASF121:
 2955 05c8 77746D74 		.ascii	"wtmtxp\000"
 2955      787000
 2956              	.LASF55:
 2957 05cf 725F7175 		.ascii	"r_queue\000"
 2957      65756500 
 2958              	.LASF50:
 2959 05d7 63685F74 		.ascii	"ch_threads_list\000"
 2959      68726561 
 2959      64735F6C 
 2959      69737400 
 2960              	.LASF12:
 2961 05e7 6C6F6E67 		.ascii	"long unsigned int\000"
 2961      20756E73 
 2961      69676E65 
 2961      6420696E 
 2961      7400
 2962              	.LASF167:
 2963 05f9 616C7472 		.ascii	"altr\000"
 2963      00
 2964              	.LASF130:
 2965 05fe 63686172 		.ascii	"char\000"
 2965      00
 2966              	.LASF166:
 2967 0603 6D6F6465 		.ascii	"mode\000"
 2967      00
 2968              	.LASF161:
 2969 0608 636F6E66 		.ascii	"config\000"
 2969      696700
 2970              	.LASF7:
 2971 060f 5F5F7569 		.ascii	"__uint16_t\000"
 2971      6E743136 
 2971      5F7400
 2972              	.LASF172:
 2973 061a 2F686F6D 		.ascii	"/home/sssilvar/Documents/embebidos/ChibiOS/iflab/pr"
 2973      652F7373 
 2973      73696C76 
 2973      61722F44 
 2973      6F63756D 
ARM GAS  /tmp/cc3WS41z.s 			page 58


 2974 064d 6F6A6563 		.ascii	"ojects/blink\000"
 2974      74732F62 
 2974      6C696E6B 
 2974      00
 2975              	.LASF85:
 2976 065a 41484232 		.ascii	"AHB2RSTR\000"
 2976      52535452 
 2976      00
 2977              	.LASF29:
 2978 0663 74687265 		.ascii	"thread_t\000"
 2978      61645F74 
 2978      00
 2979              	.LASF129:
 2980 066c 6D5F6E65 		.ascii	"m_next\000"
 2980      787400
 2981              	.LASF28:
 2982 0673 73797374 		.ascii	"systime_t\000"
 2982      696D655F 
 2982      7400
 2983              	.LASF45:
 2984 067d 705F7265 		.ascii	"p_realprio\000"
 2984      616C7072 
 2984      696F00
 2985              	.LASF61:
 2986 0688 76746675 		.ascii	"vtfunc_t\000"
 2986      6E635F74 
 2986      00
 2987              	.LASF11:
 2988 0691 5F5F7569 		.ascii	"__uint32_t\000"
 2988      6E743332 
 2988      5F7400
 2989              	.LASF173:
 2990 069c 696E6974 		.ascii	"initgpio\000"
 2990      6770696F 
 2990      00
 2991              	.LASF74:
 2992 06a5 70616E69 		.ascii	"panic_msg\000"
 2992      635F6D73 
 2992      6700
 2993              	.LASF114:
 2994 06af 6F666673 		.ascii	"offset\000"
 2994      657400
 2995              	.LASF95:
 2996 06b6 41504231 		.ascii	"APB1ENR\000"
 2996      454E5200 
 2997              	.LASF159:
 2998 06be 696F706F 		.ascii	"ioportid_t\000"
 2998      72746964 
 2998      5F7400
 2999              	.LASF92:
 3000 06c9 41484232 		.ascii	"AHB2ENR\000"
 3000      454E5200 
 3001              	.LASF112:
 3002 06d1 636F6E74 		.ascii	"context\000"
 3002      65787400 
 3003              	.LASF59:
 3004 06d9 725F6F6C 		.ascii	"r_older\000"
ARM GAS  /tmp/cc3WS41z.s 			page 59


 3004      64657200 
 3005              	.LASF163:
 3006 06e1 5F70616C 		.ascii	"_pal_lld_setgroupmode\000"
 3006      5F6C6C64 
 3006      5F736574 
 3006      67726F75 
 3006      706D6F64 
 3007              	.LASF20:
 3008 06f7 7274636E 		.ascii	"rtcnt_t\000"
 3008      745F7400 
 3009              	.LASF68:
 3010 06ff 76745F70 		.ascii	"vt_par\000"
 3010      617200
 3011              	.LASF107:
 3012 0706 53534347 		.ascii	"SSCGR\000"
 3012      5200
 3013              	.LASF51:
 3014 070c 74687265 		.ascii	"threads_queue_t\000"
 3014      6164735F 
 3014      71756575 
 3014      655F7400 
 3015              	.LASF126:
 3016 071c 63685F6D 		.ascii	"ch_mutex\000"
 3016      75746578 
 3016      00
 3017              	.LASF39:
 3018 0725 705F7265 		.ascii	"p_refs\000"
 3018      667300
 3019              	.LASF162:
 3020 072c 5F70616C 		.ascii	"_pal_lld_init\000"
 3020      5F6C6C64 
 3020      5F696E69 
 3020      7400
 3021              	.LASF105:
 3022 073a 42444352 		.ascii	"BDCR\000"
 3022      00
 3023              	.LASF77:
 3024 073f 726C6973 		.ascii	"rlist\000"
 3024      7400
 3025              	.LASF15:
 3026 0745 75696E74 		.ascii	"uint8_t\000"
 3026      385F7400 
 3027              	.LASF146:
 3028 074d 70757064 		.ascii	"pupdr\000"
 3028      7200
 3029              	.LASF118:
 3030 0753 77746F62 		.ascii	"wtobjp\000"
 3030      6A7000
 3031              	.LASF36:
 3032 075a 705F6E61 		.ascii	"p_name\000"
 3032      6D6500
 3033              	.LASF91:
 3034 0761 41484231 		.ascii	"AHB1ENR\000"
 3034      454E5200 
 3035              	.LASF152:
 3036 0769 50434461 		.ascii	"PCData\000"
 3036      746100
ARM GAS  /tmp/cc3WS41z.s 			page 60


 3037              	.LASF83:
 3038 0770 43464752 		.ascii	"CFGR\000"
 3038      00
 3039              	.LASF124:
 3040 0775 735F7175 		.ascii	"s_queue\000"
 3040      65756500 
 3041              	.LASF42:
 3042 077d 705F6D73 		.ascii	"p_msg\000"
 3042      6700
 3043              	.LASF158:
 3044 0783 696F6D6F 		.ascii	"iomode_t\000"
 3044      64655F74 
 3044      00
 3045              	.LASF156:
 3046 078c 50414C43 		.ascii	"PALConfig\000"
 3046      6F6E6669 
 3046      6700
 3047              	.LASF128:
 3048 0796 6D5F6F77 		.ascii	"m_owner\000"
 3048      6E657200 
 3049              	.LASF33:
 3050 079e 705F6374 		.ascii	"p_ctx\000"
 3050      7800
 3051              	.LASF67:
 3052 07a4 76745F66 		.ascii	"vt_func\000"
 3052      756E6300 
 3053              		.ident	"GCC: (Fedora 5.2.0-2.fc22) 5.2.0"
ARM GAS  /tmp/cc3WS41z.s 			page 61


DEFINED SYMBOLS
                            *ABS*:0000000000000000 pal_lld.c
     /tmp/cc3WS41z.s:22     .text._pal_lld_init:0000000000000000 $t
     /tmp/cc3WS41z.s:28     .text._pal_lld_init:0000000000000000 _pal_lld_init
     /tmp/cc3WS41z.s:248    .text._pal_lld_init:00000000000000ec $d
     /tmp/cc3WS41z.s:258    .text._pal_lld_setgroupmode:0000000000000000 $t
     /tmp/cc3WS41z.s:264    .text._pal_lld_setgroupmode:0000000000000000 _pal_lld_setgroupmode
                     .debug_frame:0000000000000010 $d
     /tmp/cc3WS41z.s:257    .text._pal_lld_init:0000000000000104 $t

NO UNDEFINED SYMBOLS
