ARM GAS  /tmp/ccQwttag.s 			page 1


   1              		.syntax unified
   2              		.cpu cortex-m4
   3              		.eabi_attribute 27, 1
   4              		.eabi_attribute 28, 1
   5              		.fpu fpv4-sp-d16
   6              		.eabi_attribute 20, 1
   7              		.eabi_attribute 21, 1
   8              		.eabi_attribute 23, 3
   9              		.eabi_attribute 24, 1
  10              		.eabi_attribute 25, 1
  11              		.eabi_attribute 26, 1
  12              		.eabi_attribute 30, 2
  13              		.eabi_attribute 34, 1
  14              		.eabi_attribute 18, 4
  15              		.thumb
  16              		.syntax unified
  17              		.file	"testsys.c"
  18              		.text
  19              	.Ltext0:
  20              		.cfi_sections	.debug_frame
  21              		.section	.text.sys2_execute,"ax",%progbits
  22              		.align	2
  23              		.p2align 4,,15
  24              		.thumb
  25              		.thumb_func
  26              		.type	sys2_execute, %function
  27              	sys2_execute:
  28              	.LFB231:
  29              		.file 1 "../../test/rt/testsys.c"
  30              		.loc 1 114 0
  31              		.cfi_startproc
  32              		@ args = 0, pretend = 0, frame = 0
  33              		@ frame_needed = 0, uses_anonymous_args = 0
  34              		@ link register save eliminated.
  35              	.LVL0:
  36              	.LBB324:
  37              	.LBB325:
  38              	.LBB326:
  39              	.LBB327:
  40              		.file 2 "../../os/ext/CMSIS/include/core_cmFunc.h"
  41              		.loc 2 546 0
  42 0000 2023     		movs	r3, #32
  43              		.syntax unified
  44              	@ 546 "../../os/ext/CMSIS/include/core_cmFunc.h" 1
  45 0002 83F31188 		MSR basepri, r3
  46              	@ 0 "" 2
  47              		.thumb
  48              		.syntax unified
  49              	.LBE327:
  50              	.LBE326:
  51              	.LBB328:
  52              	.LBB329:
  53              		.loc 2 331 0
  54              		.syntax unified
  55              	@ 331 "../../os/ext/CMSIS/include/core_cmFunc.h" 1
  56 0006 62B6     		cpsie i
  57              	@ 0 "" 2
ARM GAS  /tmp/ccQwttag.s 			page 2


  58              		.thumb
  59              		.syntax unified
  60              	.LBE329:
  61              	.LBE328:
  62              	.LBE325:
  63              	.LBE324:
  64              	.LBB330:
  65              	.LBB331:
  66              	.LBB332:
  67              	.LBB333:
  68              		.loc 2 342 0
  69              		.syntax unified
  70              	@ 342 "../../os/ext/CMSIS/include/core_cmFunc.h" 1
  71 0008 72B6     		cpsid i
  72              	@ 0 "" 2
  73              	.LVL1:
  74              		.thumb
  75              		.syntax unified
  76              	.LBE333:
  77              	.LBE332:
  78              	.LBE331:
  79              	.LBE330:
  80              	.LBB334:
  81              	.LBB335:
  82              	.LBB336:
  83              	.LBB337:
  84              		.loc 2 546 0
  85              		.syntax unified
  86              	@ 546 "../../os/ext/CMSIS/include/core_cmFunc.h" 1
  87 000a 83F31188 		MSR basepri, r3
  88              	@ 0 "" 2
  89              		.thumb
  90              		.syntax unified
  91              	.LBE337:
  92              	.LBE336:
  93              	.LBB338:
  94              	.LBB339:
  95              		.loc 2 331 0
  96              		.syntax unified
  97              	@ 331 "../../os/ext/CMSIS/include/core_cmFunc.h" 1
  98 000e 62B6     		cpsie i
  99              	@ 0 "" 2
 100              	.LVL2:
 101              		.thumb
 102              		.syntax unified
 103              	.LBE339:
 104              	.LBE338:
 105              	.LBE335:
 106              	.LBE334:
 107              	.LBB340:
 108              	.LBB341:
 109              	.LBB342:
 110              	.LBB343:
 111              		.loc 2 546 0
 112 0010 0023     		movs	r3, #0
 113              		.syntax unified
 114              	@ 546 "../../os/ext/CMSIS/include/core_cmFunc.h" 1
ARM GAS  /tmp/ccQwttag.s 			page 3


 115 0012 83F31188 		MSR basepri, r3
 116              	@ 0 "" 2
 117              		.thumb
 118              		.syntax unified
 119              	.LBE343:
 120              	.LBE342:
 121              	.LBB344:
 122              	.LBB345:
 123              		.loc 2 331 0
 124              		.syntax unified
 125              	@ 331 "../../os/ext/CMSIS/include/core_cmFunc.h" 1
 126 0016 62B6     		cpsie i
 127              	@ 0 "" 2
 128              		.thumb
 129              		.syntax unified
 130 0018 7047     		bx	lr
 131              	.LBE345:
 132              	.LBE344:
 133              	.LBE341:
 134              	.LBE340:
 135              		.cfi_endproc
 136              	.LFE231:
 137              		.size	sys2_execute, .-sys2_execute
 138 001a 00BFAFF3 		.section	.text.vtcb,"ax",%progbits
 138      0080
 139              		.align	2
 140              		.p2align 4,,15
 141              		.thumb
 142              		.thumb_func
 143              		.type	vtcb, %function
 144              	vtcb:
 145              	.LFB229:
 146              		.loc 1 52 0
 147              		.cfi_startproc
 148              		@ args = 0, pretend = 0, frame = 0
 149              		@ frame_needed = 0, uses_anonymous_args = 0
 150              	.LVL3:
 151 0000 10B5     		push	{r4, lr}
 152              		.cfi_def_cfa_offset 8
 153              		.cfi_offset 4, -8
 154              		.cfi_offset 14, -4
 155              	.LBB346:
 156              	.LBB347:
 157              	.LBB348:
 158              	.LBB349:
 159              	.LBB350:
 160              		.loc 2 546 0
 161 0002 2023     		movs	r3, #32
 162              		.syntax unified
 163              	@ 546 "../../os/ext/CMSIS/include/core_cmFunc.h" 1
 164 0004 83F31188 		MSR basepri, r3
 165              	@ 0 "" 2
 166              	.LVL4:
 167              		.thumb
 168              		.syntax unified
 169              	.LBE350:
 170              	.LBE349:
ARM GAS  /tmp/ccQwttag.s 			page 4


 171              	.LBE348:
 172              	.LBE347:
 173              	.LBE346:
 174              	.LBB351:
 175              	.LBB352:
 176              	.LBB353:
 177              	.LBB354:
 178              	.LBB355:
 179 0008 0024     		movs	r4, #0
 180              		.syntax unified
 181              	@ 546 "../../os/ext/CMSIS/include/core_cmFunc.h" 1
 182 000a 84F31188 		MSR basepri, r4
 183              	@ 0 "" 2
 184              	.LVL5:
 185              		.thumb
 186              		.syntax unified
 187              	.LBE355:
 188              	.LBE354:
 189              	.LBE353:
 190              	.LBE352:
 191              	.LBE351:
 192              	.LBB356:
 193              	.LBB357:
 194              	.LBB358:
 195              	.LBB359:
 196              	.LBB360:
 197              		.syntax unified
 198              	@ 546 "../../os/ext/CMSIS/include/core_cmFunc.h" 1
 199 000e 83F31188 		MSR basepri, r3
 200              	@ 0 "" 2
 201              		.thumb
 202              		.syntax unified
 203              	.LBE360:
 204              	.LBE359:
 205              	.LBE358:
 206              	.LBE357:
 207              	.LBE356:
 208              		.loc 1 63 0
 209 0012 FFF7FEFF 		bl	chSysGetStatusAndLockX
 210              	.LVL6:
 211              		.loc 1 64 0
 212 0016 FFF7FEFF 		bl	chSysRestoreStatusX
 213              	.LVL7:
 214              	.LBB361:
 215              	.LBB362:
 216              	.LBB363:
 217              	.LBB364:
 218              	.LBB365:
 219              		.loc 2 546 0
 220              		.syntax unified
 221              	@ 546 "../../os/ext/CMSIS/include/core_cmFunc.h" 1
 222 001a 84F31188 		MSR basepri, r4
 223              	@ 0 "" 2
 224              		.thumb
 225              		.syntax unified
 226 001e 10BD     		pop	{r4, pc}
 227              	.LBE365:
ARM GAS  /tmp/ccQwttag.s 			page 5


 228              	.LBE364:
 229              	.LBE363:
 230              	.LBE362:
 231              	.LBE361:
 232              		.cfi_endproc
 233              	.LFE229:
 234              		.size	vtcb, .-vtcb
 235              		.section	.text.sys3_execute,"ax",%progbits
 236              		.align	2
 237              		.p2align 4,,15
 238              		.thumb
 239              		.thumb_func
 240              		.type	sys3_execute, %function
 241              	sys3_execute:
 242              	.LFB232:
 243              		.loc 1 137 0
 244              		.cfi_startproc
 245              		@ args = 0, pretend = 0, frame = 0
 246              		@ frame_needed = 0, uses_anonymous_args = 0
 247              	.LVL8:
 248 0000 38B5     		push	{r3, r4, r5, lr}
 249              		.cfi_def_cfa_offset 16
 250              		.cfi_offset 3, -16
 251              		.cfi_offset 4, -12
 252              		.cfi_offset 5, -8
 253              		.cfi_offset 14, -4
 254              	.LBB431:
 255              	.LBB432:
 256              	.LBB433:
 257              	.LBB434:
 258              		.loc 2 546 0
 259 0002 2024     		movs	r4, #32
 260              		.syntax unified
 261              	@ 546 "../../os/ext/CMSIS/include/core_cmFunc.h" 1
 262 0004 84F31188 		MSR basepri, r4
 263              	@ 0 "" 2
 264              		.thumb
 265              		.syntax unified
 266              	.LBE434:
 267              	.LBE433:
 268              	.LBE432:
 269              	.LBE431:
 270              		.loc 1 141 0
 271 0008 0120     		movs	r0, #1
 272 000a FFF7FEFF 		bl	chSysIntegrityCheckI
 273              	.LVL9:
 274              	.LBB435:
 275              	.LBB436:
 276              	.LBB437:
 277              	.LBB438:
 278              	.LBB439:
 279              		.loc 2 546 0
 280 000e 0023     		movs	r3, #0
 281              		.syntax unified
 282              	@ 546 "../../os/ext/CMSIS/include/core_cmFunc.h" 1
 283 0010 83F31188 		MSR basepri, r3
 284              	@ 0 "" 2
ARM GAS  /tmp/ccQwttag.s 			page 6


 285              		.thumb
 286              		.syntax unified
 287              	.LBE439:
 288              	.LBE438:
 289              	.LBE437:
 290              	.LBE436:
 291              	.LBE435:
 292              		.loc 1 143 0
 293 0014 80F00101 		eor	r1, r0, #1
 294 0018 C9B2     		uxtb	r1, r1
 295 001a 0120     		movs	r0, #1
 296              	.LVL10:
 297 001c FFF7FEFF 		bl	_test_assert
 298              	.LVL11:
 299 0020 00B1     		cbz	r0, .L10
 300              	.L4:
 301 0022 38BD     		pop	{r3, r4, r5, pc}
 302              	.L10:
 303              	.LVL12:
 304 0024 0546     		mov	r5, r0
 305              	.LBB440:
 306              	.LBB441:
 307              	.LBB442:
 308              	.LBB443:
 309              		.loc 2 546 0
 310              		.syntax unified
 311              	@ 546 "../../os/ext/CMSIS/include/core_cmFunc.h" 1
 312 0026 84F31188 		MSR basepri, r4
 313              	@ 0 "" 2
 314              		.thumb
 315              		.syntax unified
 316              	.LBE443:
 317              	.LBE442:
 318              	.LBE441:
 319              	.LBE440:
 320              		.loc 1 146 0
 321 002a 0220     		movs	r0, #2
 322 002c FFF7FEFF 		bl	chSysIntegrityCheckI
 323              	.LVL13:
 324              	.LBB444:
 325              	.LBB445:
 326              	.LBB446:
 327              	.LBB447:
 328              	.LBB448:
 329              		.loc 2 546 0
 330              		.syntax unified
 331              	@ 546 "../../os/ext/CMSIS/include/core_cmFunc.h" 1
 332 0030 85F31188 		MSR basepri, r5
 333              	@ 0 "" 2
 334              		.thumb
 335              		.syntax unified
 336              	.LBE448:
 337              	.LBE447:
 338              	.LBE446:
 339              	.LBE445:
 340              	.LBE444:
 341              		.loc 1 148 0
ARM GAS  /tmp/ccQwttag.s 			page 7


 342 0034 80F00101 		eor	r1, r0, #1
 343 0038 C9B2     		uxtb	r1, r1
 344 003a 0220     		movs	r0, #2
 345              	.LVL14:
 346 003c FFF7FEFF 		bl	_test_assert
 347              	.LVL15:
 348 0040 0546     		mov	r5, r0
 349 0042 0028     		cmp	r0, #0
 350 0044 EDD1     		bne	.L4
 351              	.LVL16:
 352              	.LBB449:
 353              	.LBB450:
 354              	.LBB451:
 355              	.LBB452:
 356              		.loc 2 546 0
 357              		.syntax unified
 358              	@ 546 "../../os/ext/CMSIS/include/core_cmFunc.h" 1
 359 0046 84F31188 		MSR basepri, r4
 360              	@ 0 "" 2
 361              		.thumb
 362              		.syntax unified
 363              	.LBE452:
 364              	.LBE451:
 365              	.LBE450:
 366              	.LBE449:
 367              		.loc 1 151 0
 368 004a 0420     		movs	r0, #4
 369 004c FFF7FEFF 		bl	chSysIntegrityCheckI
 370              	.LVL17:
 371              	.LBB453:
 372              	.LBB454:
 373              	.LBB455:
 374              	.LBB456:
 375              	.LBB457:
 376              		.loc 2 546 0
 377              		.syntax unified
 378              	@ 546 "../../os/ext/CMSIS/include/core_cmFunc.h" 1
 379 0050 85F31188 		MSR basepri, r5
 380              	@ 0 "" 2
 381              		.thumb
 382              		.syntax unified
 383              	.LBE457:
 384              	.LBE456:
 385              	.LBE455:
 386              	.LBE454:
 387              	.LBE453:
 388              		.loc 1 153 0
 389 0054 80F00101 		eor	r1, r0, #1
 390 0058 C9B2     		uxtb	r1, r1
 391 005a 0320     		movs	r0, #3
 392              	.LVL18:
 393 005c FFF7FEFF 		bl	_test_assert
 394              	.LVL19:
 395 0060 0546     		mov	r5, r0
 396 0062 0028     		cmp	r0, #0
 397 0064 DDD1     		bne	.L4
 398              	.LVL20:
ARM GAS  /tmp/ccQwttag.s 			page 8


 399              	.LBB458:
 400              	.LBB459:
 401              	.LBB460:
 402              	.LBB461:
 403              	.LBB462:
 404              	.LBB463:
 405              		.loc 2 546 0
 406              		.syntax unified
 407              	@ 546 "../../os/ext/CMSIS/include/core_cmFunc.h" 1
 408 0066 84F31188 		MSR basepri, r4
 409              	@ 0 "" 2
 410              		.thumb
 411              		.syntax unified
 412              	.LBE463:
 413              	.LBE462:
 414              	.LBE461:
 415              	.LBE460:
 416              		.loc 1 156 0
 417 006a 0820     		movs	r0, #8
 418 006c FFF7FEFF 		bl	chSysIntegrityCheckI
 419              	.LVL21:
 420              	.LBB464:
 421              	.LBB465:
 422              	.LBB466:
 423              	.LBB467:
 424              	.LBB468:
 425              		.loc 2 546 0
 426              		.syntax unified
 427              	@ 546 "../../os/ext/CMSIS/include/core_cmFunc.h" 1
 428 0070 85F31188 		MSR basepri, r5
 429              	@ 0 "" 2
 430              		.thumb
 431              		.syntax unified
 432              	.LBE468:
 433              	.LBE467:
 434              	.LBE466:
 435              	.LBE465:
 436              	.LBE464:
 437              		.loc 1 158 0
 438 0074 80F00101 		eor	r1, r0, #1
 439 0078 C9B2     		uxtb	r1, r1
 440 007a 0420     		movs	r0, #4
 441              	.LVL22:
 442              	.LBE459:
 443              	.LBE458:
 444              		.loc 1 159 0
 445 007c BDE83840 		pop	{r3, r4, r5, lr}
 446              		.cfi_restore 14
 447              		.cfi_restore 5
 448              		.cfi_restore 4
 449              		.cfi_restore 3
 450              		.cfi_def_cfa_offset 0
 451              	.LBB470:
 452              	.LBB469:
 453              		.loc 1 158 0
 454 0080 FFF7FEBF 		b	_test_assert
 455              	.LVL23:
ARM GAS  /tmp/ccQwttag.s 			page 9


 456              	.LBE469:
 457              	.LBE470:
 458              		.cfi_endproc
 459              	.LFE232:
 460              		.size	sys3_execute, .-sys3_execute
 461 0084 AFF30080 		.section	.text.sys1_execute,"ax",%progbits
 461      AFF30080 
 461      AFF30080 
 462              		.align	2
 463              		.p2align 4,,15
 464              		.thumb
 465              		.thumb_func
 466              		.type	sys1_execute, %function
 467              	sys1_execute:
 468              	.LFB230:
 469              		.loc 1 68 0
 470              		.cfi_startproc
 471              		@ args = 0, pretend = 0, frame = 24
 472              		@ frame_needed = 0, uses_anonymous_args = 0
 473 0000 10B5     		push	{r4, lr}
 474              		.cfi_def_cfa_offset 8
 475              		.cfi_offset 4, -8
 476              		.cfi_offset 14, -4
 477 0002 86B0     		sub	sp, sp, #24
 478              		.cfi_def_cfa_offset 32
 479              		.loc 1 73 0
 480 0004 FFF7FEFF 		bl	chSysGetStatusAndLockX
 481              	.LVL24:
 482              		.loc 1 74 0
 483 0008 FFF7FEFF 		bl	chSysRestoreStatusX
 484              	.LVL25:
 485              	.LBB559:
 486              	.LBB560:
 487              	.LBB561:
 488              	.LBB562:
 489              		.loc 2 546 0
 490 000c 2024     		movs	r4, #32
 491              		.syntax unified
 492              	@ 546 "../../os/ext/CMSIS/include/core_cmFunc.h" 1
 493 000e 84F31188 		MSR basepri, r4
 494              	@ 0 "" 2
 495              		.thumb
 496              		.syntax unified
 497              	.LBE562:
 498              	.LBE561:
 499              	.LBE560:
 500              	.LBE559:
 501              		.loc 1 78 0
 502 0012 FFF7FEFF 		bl	chSysGetStatusAndLockX
 503              	.LVL26:
 504              		.loc 1 79 0
 505 0016 FFF7FEFF 		bl	chSysRestoreStatusX
 506              	.LVL27:
 507              	.LBB563:
 508              	.LBB564:
 509              	.LBB565:
 510              	.LBB566:
ARM GAS  /tmp/ccQwttag.s 			page 10


 511              	.LBB567:
 512              		.loc 2 546 0
 513 001a 0023     		movs	r3, #0
 514              		.syntax unified
 515              	@ 546 "../../os/ext/CMSIS/include/core_cmFunc.h" 1
 516 001c 83F31188 		MSR basepri, r3
 517              	@ 0 "" 2
 518              		.thumb
 519              		.syntax unified
 520              	.LBE567:
 521              	.LBE566:
 522              	.LBE565:
 523              	.LBE564:
 524              	.LBE563:
 525              	.LBB568:
 526              	.LBB569:
 527              	.LBB570:
 528              	.LBB571:
 529              	.LBB572:
 530              	.LBB573:
 531              		.loc 2 533 0
 532              		.syntax unified
 533              	@ 533 "../../os/ext/CMSIS/include/core_cmFunc.h" 1
 534 0020 EFF31283 		MRS r3, basepri_max
 535              	@ 0 "" 2
 536              	.LVL28:
 537              		.thumb
 538              		.syntax unified
 539              	.LBE573:
 540              	.LBE572:
 541              	.LBE571:
 542              	.LBE570:
 543              		.file 3 "../../os/rt/include/chsys.h"
 544              		.loc 3 422 0
 545 0024 0BB9     		cbnz	r3, .L12
 546              	.LVL29:
 547              	.LBB574:
 548              	.LBB575:
 549              	.LBB576:
 550              	.LBB577:
 551              		.loc 2 546 0
 552              		.syntax unified
 553              	@ 546 "../../os/ext/CMSIS/include/core_cmFunc.h" 1
 554 0026 84F31188 		MSR basepri, r4
 555              	@ 0 "" 2
 556              	.LVL30:
 557              		.thumb
 558              		.syntax unified
 559              	.L12:
 560              	.LBE577:
 561              	.LBE576:
 562              	.LBE575:
 563              	.LBE574:
 564              	.LBE569:
 565              	.LBE568:
 566              	.LBB578:
 567              	.LBB579:
ARM GAS  /tmp/ccQwttag.s 			page 11


 568              	.LBB580:
 569              	.LBB581:
 570              	.LBB582:
 571              	.LBB583:
 572              		.loc 2 533 0
 573              		.syntax unified
 574              	@ 533 "../../os/ext/CMSIS/include/core_cmFunc.h" 1
 575 002a EFF31283 		MRS r3, basepri_max
 576              	@ 0 "" 2
 577              	.LVL31:
 578              		.thumb
 579              		.syntax unified
 580              	.LBE583:
 581              	.LBE582:
 582              	.LBE581:
 583              	.LBE580:
 584              		.loc 3 422 0
 585 002e 13B9     		cbnz	r3, .L13
 586              	.LVL32:
 587              	.LBB584:
 588              	.LBB585:
 589              	.LBB586:
 590              	.LBB587:
 591              		.loc 2 546 0
 592 0030 2023     		movs	r3, #32
 593              	.LVL33:
 594              		.syntax unified
 595              	@ 546 "../../os/ext/CMSIS/include/core_cmFunc.h" 1
 596 0032 83F31188 		MSR basepri, r3
 597              	@ 0 "" 2
 598              	.LVL34:
 599              		.thumb
 600              		.syntax unified
 601              	.L13:
 602              	.LBE587:
 603              	.LBE586:
 604              	.LBE585:
 605              	.LBE584:
 606              	.LBE579:
 607              	.LBE578:
 608              	.LBB588:
 609              	.LBB589:
 610              	.LBB590:
 611              	.LBB591:
 612              	.LBB592:
 613 0036 0023     		movs	r3, #0
 614              		.syntax unified
 615              	@ 546 "../../os/ext/CMSIS/include/core_cmFunc.h" 1
 616 0038 83F31188 		MSR basepri, r3
 617              	@ 0 "" 2
 618              	.LVL35:
 619              		.thumb
 620              		.syntax unified
 621              	.LBE592:
 622              	.LBE591:
 623              	.LBE590:
 624              	.LBE589:
ARM GAS  /tmp/ccQwttag.s 			page 12


 625              	.LBE588:
 626              	.LBB593:
 627              	.LBB594:
 628              	.LBB595:
 629              	.LBB596:
 630 003c 2022     		movs	r2, #32
 631              		.syntax unified
 632              	@ 546 "../../os/ext/CMSIS/include/core_cmFunc.h" 1
 633 003e 82F31188 		MSR basepri, r2
 634              	@ 0 "" 2
 635              		.thumb
 636              		.syntax unified
 637              	.LBE596:
 638              	.LBE595:
 639              	.LBE594:
 640              	.LBE593:
 641              	.LBB597:
 642              	.LBB598:
 643              	.LBB599:
 644              	.LBB600:
 645              	.LBB601:
 646              	.LBB602:
 647              		.loc 2 533 0
 648              		.syntax unified
 649              	@ 533 "../../os/ext/CMSIS/include/core_cmFunc.h" 1
 650 0042 EFF31282 		MRS r2, basepri_max
 651              	@ 0 "" 2
 652              	.LVL36:
 653              		.thumb
 654              		.syntax unified
 655              	.LBE602:
 656              	.LBE601:
 657              	.LBE600:
 658              	.LBE599:
 659              		.loc 3 436 0
 660 0046 0AB1     		cbz	r2, .L14
 661              	.LVL37:
 662              	.LBB603:
 663              	.LBB604:
 664              	.LBB605:
 665              	.LBB606:
 666              	.LBB607:
 667              		.loc 2 546 0
 668              		.syntax unified
 669              	@ 546 "../../os/ext/CMSIS/include/core_cmFunc.h" 1
 670 0048 83F31188 		MSR basepri, r3
 671              	@ 0 "" 2
 672              	.LVL38:
 673              		.thumb
 674              		.syntax unified
 675              	.L14:
 676              	.LBE607:
 677              	.LBE606:
 678              	.LBE605:
 679              	.LBE604:
 680              	.LBE603:
 681              	.LBE598:
ARM GAS  /tmp/ccQwttag.s 			page 13


 682              	.LBE597:
 683              	.LBB608:
 684              	.LBB609:
 685              	.LBB610:
 686              	.LBB611:
 687              	.LBB612:
 688              	.LBB613:
 689              		.loc 2 533 0
 690              		.syntax unified
 691              	@ 533 "../../os/ext/CMSIS/include/core_cmFunc.h" 1
 692 004c EFF31283 		MRS r3, basepri_max
 693              	@ 0 "" 2
 694              	.LVL39:
 695              		.thumb
 696              		.syntax unified
 697              	.LBE613:
 698              	.LBE612:
 699              	.LBE611:
 700              	.LBE610:
 701              		.loc 3 436 0
 702 0050 13B1     		cbz	r3, .L15
 703              	.LVL40:
 704              	.LBB614:
 705              	.LBB615:
 706              	.LBB616:
 707              	.LBB617:
 708              	.LBB618:
 709              		.loc 2 546 0
 710 0052 0023     		movs	r3, #0
 711              	.LVL41:
 712              		.syntax unified
 713              	@ 546 "../../os/ext/CMSIS/include/core_cmFunc.h" 1
 714 0054 83F31188 		MSR basepri, r3
 715              	@ 0 "" 2
 716              	.LVL42:
 717              		.thumb
 718              		.syntax unified
 719              	.L15:
 720              	.LBE618:
 721              	.LBE617:
 722              	.LBE616:
 723              	.LBE615:
 724              	.LBE614:
 725              	.LBE609:
 726              	.LBE608:
 727              	.LBB619:
 728              	.LBB620:
 729              		.file 4 "../../os/rt/include/chvt.h"
 730              		.loc 4 212 0
 731 0058 0023     		movs	r3, #0
 732 005a 0493     		str	r3, [sp, #16]
 733              	.LVL43:
 734              	.LBE620:
 735              	.LBE619:
 736              	.LBB621:
 737              	.LBB622:
 738              	.LBB623:
ARM GAS  /tmp/ccQwttag.s 			page 14


 739              	.LBB624:
 740              	.LBB625:
 741              		.loc 2 546 0
 742 005c 2023     		movs	r3, #32
 743              		.syntax unified
 744              	@ 546 "../../os/ext/CMSIS/include/core_cmFunc.h" 1
 745 005e 83F31188 		MSR basepri, r3
 746              	@ 0 "" 2
 747              	.LVL44:
 748              		.thumb
 749              		.syntax unified
 750              	.LBE625:
 751              	.LBE624:
 752              	.LBE623:
 753              	.LBE622:
 754              	.LBB626:
 755              	.LBB627:
 756              	.LBB628:
 757              	.LBB629:
 758              		.loc 4 376 0
 759 0062 049B     		ldr	r3, [sp, #16]
 760              		.loc 4 377 0
 761 0064 01AC     		add	r4, sp, #4
 762              	.LVL45:
 763              		.loc 4 376 0
 764 0066 13B1     		cbz	r3, .L16
 765              		.loc 4 377 0
 766 0068 2046     		mov	r0, r4
 767 006a FFF7FEFF 		bl	chVTDoResetI
 768              	.LVL46:
 769              	.L16:
 770              	.LBE629:
 771              	.LBE628:
 772              		.loc 4 424 0
 773 006e 2046     		mov	r0, r4
 774 0070 0023     		movs	r3, #0
 775 0072 0C4A     		ldr	r2, .L27
 776 0074 0121     		movs	r1, #1
 777 0076 FFF7FEFF 		bl	chVTDoSetI
 778              	.LVL47:
 779              	.LBE627:
 780              	.LBE626:
 781              	.LBB630:
 782              	.LBB631:
 783              	.LBB632:
 784              	.LBB633:
 785              	.LBB634:
 786              		.loc 2 546 0
 787 007a 0024     		movs	r4, #0
 788              	.LVL48:
 789              		.syntax unified
 790              	@ 546 "../../os/ext/CMSIS/include/core_cmFunc.h" 1
 791 007c 84F31188 		MSR basepri, r4
 792              	@ 0 "" 2
 793              		.thumb
 794              		.syntax unified
 795              	.LBE634:
ARM GAS  /tmp/ccQwttag.s 			page 15


 796              	.LBE633:
 797              	.LBE632:
 798              	.LBE631:
 799              	.LBE630:
 800              	.LBE621:
 801              		.loc 1 95 0
 802 0080 0A20     		movs	r0, #10
 803 0082 FFF7FEFF 		bl	chThdSleep
 804              	.LVL49:
 805              	.LBB635:
 806              	.LBB636:
 807              	.LBB637:
 808              	.LBB638:
 809              	.LBB639:
 810              	.LBB640:
 811              		.loc 2 546 0
 812 0086 2023     		movs	r3, #32
 813              		.syntax unified
 814              	@ 546 "../../os/ext/CMSIS/include/core_cmFunc.h" 1
 815 0088 83F31188 		MSR basepri, r3
 816              	@ 0 "" 2
 817              		.thumb
 818              		.syntax unified
 819 008c 0499     		ldr	r1, [sp, #16]
 820              	.LVL50:
 821              	.LBE640:
 822              	.LBE639:
 823              	.LBE638:
 824              	.LBE637:
 825              	.LBB641:
 826              	.LBB642:
 827              	.LBB643:
 828              	.LBB644:
 829              	.LBB645:
 830              		.syntax unified
 831              	@ 546 "../../os/ext/CMSIS/include/core_cmFunc.h" 1
 832 008e 84F31188 		MSR basepri, r4
 833              	@ 0 "" 2
 834              		.thumb
 835              		.syntax unified
 836              	.LBE645:
 837              	.LBE644:
 838              	.LBE643:
 839              	.LBE642:
 840              	.LBE641:
 841              	.LBE636:
 842              	.LBE635:
 843              		.loc 1 97 0
 844 0092 B1FA81F1 		clz	r1, r1
 845 0096 4909     		lsrs	r1, r1, #5
 846 0098 0120     		movs	r0, #1
 847 009a FFF7FEFF 		bl	_test_assert
 848              	.LVL51:
 849              		.loc 1 98 0
 850 009e 06B0     		add	sp, sp, #24
 851              		.cfi_def_cfa_offset 8
 852              		@ sp needed
ARM GAS  /tmp/ccQwttag.s 			page 16


 853 00a0 10BD     		pop	{r4, pc}
 854              	.LVL52:
 855              	.L28:
 856 00a2 00BF     		.align	2
 857              	.L27:
 858 00a4 00000000 		.word	vtcb
 859              		.cfi_endproc
 860              	.LFE230:
 861              		.size	sys1_execute, .-sys1_execute
 862              		.global	patternsys
 863              		.global	testsys3
 864              		.global	testsys2
 865              		.global	testsys1
 866 00a8 AFF30080 		.section	.rodata.testsys1,"a",%progbits
 866      AFF30080 
 867              		.align	2
 868              		.type	testsys1, %object
 869              		.size	testsys1, 16
 870              	testsys1:
 871 0000 30000000 		.word	.LC2
 872 0004 00000000 		.word	0
 873 0008 00000000 		.word	0
 874 000c 00000000 		.word	sys1_execute
 875              		.section	.rodata.testsys2,"a",%progbits
 876              		.align	2
 877              		.type	testsys2, %object
 878              		.size	testsys2, 16
 879              	testsys2:
 880 0000 14000000 		.word	.LC1
 881 0004 00000000 		.word	0
 882 0008 00000000 		.word	0
 883 000c 00000000 		.word	sys2_execute
 884              		.section	.rodata.testsys3,"a",%progbits
 885              		.align	2
 886              		.type	testsys3, %object
 887              		.size	testsys3, 16
 888              	testsys3:
 889 0000 00000000 		.word	.LC0
 890 0004 00000000 		.word	0
 891 0008 00000000 		.word	0
 892 000c 00000000 		.word	sys3_execute
 893              		.section	.rodata.str1.4,"aMS",%progbits,1
 894              		.align	2
 895              	.LC0:
 896 0000 53797374 		.ascii	"System, integrity\000"
 896      656D2C20 
 896      696E7465 
 896      67726974 
 896      7900
 897 0012 0000     		.space	2
 898              	.LC1:
 899 0014 53797374 		.ascii	"System, interrupts handling\000"
 899      656D2C20 
 899      696E7465 
 899      72727570 
 899      74732068 
 900              	.LC2:
ARM GAS  /tmp/ccQwttag.s 			page 17


 901 0030 53797374 		.ascii	"System, critical zones\000"
 901      656D2C20 
 901      63726974 
 901      6963616C 
 901      207A6F6E 
 902 0047 00       		.section	.rodata.patternsys,"a",%progbits
 903              		.align	2
 904              		.type	patternsys, %object
 905              		.size	patternsys, 16
 906              	patternsys:
 907 0000 00000000 		.word	testsys1
 908 0004 00000000 		.word	testsys2
 909 0008 00000000 		.word	testsys3
 910 000c 00000000 		.word	0
 911              		.text
 912              	.Letext0:
 913              		.file 5 "/usr/lib/gcc/arm-none-eabi/5.2.0/include/stddef.h"
 914              		.file 6 "/usr/arm-none-eabi/include/machine/_default_types.h"
 915              		.file 7 "/usr/arm-none-eabi/include/stdint.h"
 916              		.file 8 "../../os/rt/ports/ARMCMx/compilers/GCC/chtypes.h"
 917              		.file 9 "../../os/rt/include/chsystypes.h"
 918              		.file 10 "../../os/rt/include/chschd.h"
 919              		.file 11 "../../os/rt/ports/ARMCMx/chcore.h"
 920              		.file 12 "../../os/rt/ports/ARMCMx/chcore_v7m.h"
 921              		.file 13 "../../os/rt/include/chtm.h"
 922              		.file 14 "../../os/rt/include/chsem.h"
 923              		.file 15 "../../os/rt/include/chmtx.h"
 924              		.file 16 "../../test/rt/test.h"
 925              		.file 17 "../../os/ext/CMSIS/include/core_cm4.h"
 926              		.file 18 "../../os/rt/include/chthreads.h"