ARM GAS  /tmp/ccZrqkfF.s 			page 1


   1              		.syntax unified
   2              		.cpu cortex-m4
   3              		.eabi_attribute 27, 1
   4              		.eabi_attribute 28, 1
   5              		.fpu fpv4-sp-d16
   6              		.eabi_attribute 20, 1
   7              		.eabi_attribute 21, 1
   8              		.eabi_attribute 23, 3
   9              		.eabi_attribute 24, 1
  10              		.eabi_attribute 25, 1
  11              		.eabi_attribute 26, 1
  12              		.eabi_attribute 30, 2
  13              		.eabi_attribute 34, 1
  14              		.eabi_attribute 18, 4
  15              		.thumb
  16              		.syntax unified
  17              		.file	"testevt.c"
  18              		.text
  19              	.Ltext0:
  20              		.cfi_sections	.debug_frame
  21              		.section	.text.h3,"ax",%progbits
  22              		.align	2
  23              		.p2align 4,,15
  24              		.thumb
  25              		.thumb_func
  26              		.type	h3, %function
  27              	h3:
  28              	.LFB232:
  29              		.file 1 "../../test/rt/testevt.c"
  30              		.loc 1 82 0
  31              		.cfi_startproc
  32              		@ args = 0, pretend = 0, frame = 0
  33              		@ frame_needed = 0, uses_anonymous_args = 0
  34              		@ link register save eliminated.
  35              	.LVL0:
  36              		.loc 1 82 0
  37 0000 4320     		movs	r0, #67
  38              	.LVL1:
  39 0002 FFF7FEBF 		b	test_emit_token
  40              	.LVL2:
  41              		.cfi_endproc
  42              	.LFE232:
  43              		.size	h3, .-h3
  44 0006 00BFAFF3 		.section	.text.h2,"ax",%progbits
  44      0080AFF3 
  44      0080
  45              		.align	2
  46              		.p2align 4,,15
  47              		.thumb
  48              		.thumb_func
  49              		.type	h2, %function
  50              	h2:
  51              	.LFB231:
  52              		.loc 1 81 0
  53              		.cfi_startproc
  54              		@ args = 0, pretend = 0, frame = 0
  55              		@ frame_needed = 0, uses_anonymous_args = 0
ARM GAS  /tmp/ccZrqkfF.s 			page 2


  56              		@ link register save eliminated.
  57              	.LVL3:
  58              		.loc 1 81 0
  59 0000 4220     		movs	r0, #66
  60              	.LVL4:
  61 0002 FFF7FEBF 		b	test_emit_token
  62              	.LVL5:
  63              		.cfi_endproc
  64              	.LFE231:
  65              		.size	h2, .-h2
  66 0006 00BFAFF3 		.section	.text.h1,"ax",%progbits
  66      0080AFF3 
  66      0080
  67              		.align	2
  68              		.p2align 4,,15
  69              		.thumb
  70              		.thumb_func
  71              		.type	h1, %function
  72              	h1:
  73              	.LFB230:
  74              		.loc 1 80 0
  75              		.cfi_startproc
  76              		@ args = 0, pretend = 0, frame = 0
  77              		@ frame_needed = 0, uses_anonymous_args = 0
  78              		@ link register save eliminated.
  79              	.LVL6:
  80              		.loc 1 80 0
  81 0000 4120     		movs	r0, #65
  82              	.LVL7:
  83 0002 FFF7FEBF 		b	test_emit_token
  84              	.LVL8:
  85              		.cfi_endproc
  86              	.LFE230:
  87              		.size	h1, .-h1
  88 0006 00BFAFF3 		.section	.text.evt1_execute,"ax",%progbits
  88      0080AFF3 
  88      0080
  89              		.align	2
  90              		.p2align 4,,15
  91              		.thumb
  92              		.thumb_func
  93              		.type	evt1_execute, %function
  94              	evt1_execute:
  95              	.LFB233:
  96              		.loc 1 85 0
  97              		.cfi_startproc
  98              		@ args = 0, pretend = 0, frame = 40
  99              		@ frame_needed = 0, uses_anonymous_args = 0
 100              	.LVL9:
 101 0000 10B5     		push	{r4, lr}
 102              		.cfi_def_cfa_offset 8
 103              		.cfi_offset 4, -8
 104              		.cfi_offset 14, -4
 105              	.LBB126:
 106              	.LBB127:
 107              		.file 2 "../../os/rt/include/chevents.h"
 108              		.loc 2 172 0
ARM GAS  /tmp/ccZrqkfF.s 			page 3


 109 0002 1F4C     		ldr	r4, .L10
 110              	.LBE127:
 111              	.LBE126:
 112              		.loc 1 85 0
 113 0004 8AB0     		sub	sp, sp, #40
 114              		.cfi_def_cfa_offset 48
 115              	.LBB129:
 116              	.LBB130:
 117              		.loc 2 193 0
 118 0006 2046     		mov	r0, r4
 119 0008 6946     		mov	r1, sp
 120 000a 4FF0FF33 		mov	r3, #-1
 121 000e 0122     		movs	r2, #1
 122              	.LBE130:
 123              	.LBE129:
 124              	.LBB132:
 125              	.LBB128:
 126              		.loc 2 172 0
 127 0010 2460     		str	r4, [r4]
 128              	.LVL10:
 129              	.LBE128:
 130              	.LBE132:
 131              	.LBB133:
 132              	.LBB131:
 133              		.loc 2 193 0
 134 0012 FFF7FEFF 		bl	chEvtRegisterMaskWithFlags
 135              	.LVL11:
 136              	.LBE131:
 137              	.LBE133:
 138              	.LBB134:
 139              	.LBB135:
 140 0016 2046     		mov	r0, r4
 141 0018 05A9     		add	r1, sp, #20
 142              	.LVL12:
 143 001a 4FF0FF33 		mov	r3, #-1
 144 001e 0222     		movs	r2, #2
 145 0020 FFF7FEFF 		bl	chEvtRegisterMaskWithFlags
 146              	.LVL13:
 147              	.LBE135:
 148              	.LBE134:
 149              		.loc 1 94 0
 150 0024 2168     		ldr	r1, [r4]
 151 0026 091B     		subs	r1, r1, r4
 152 0028 18BF     		it	ne
 153 002a 0121     		movne	r1, #1
 154 002c 0120     		movs	r0, #1
 155 002e FFF7FEFF 		bl	_test_assert
 156              	.LVL14:
 157 0032 08B1     		cbz	r0, .L9
 158              	.L4:
 159              		.loc 1 105 0
 160 0034 0AB0     		add	sp, sp, #40
 161              		.cfi_remember_state
 162              		.cfi_def_cfa_offset 8
 163              	.LVL15:
 164              		@ sp needed
 165 0036 10BD     		pop	{r4, pc}
ARM GAS  /tmp/ccZrqkfF.s 			page 4


 166              	.LVL16:
 167              	.L9:
 168              		.cfi_restore_state
 169              		.loc 1 95 0
 170 0038 6946     		mov	r1, sp
 171 003a 2046     		mov	r0, r4
 172 003c FFF7FEFF 		bl	chEvtUnregister
 173              	.LVL17:
 174              		.loc 1 96 0
 175 0040 2168     		ldr	r1, [r4]
 176 0042 091B     		subs	r1, r1, r4
 177 0044 18BF     		it	ne
 178 0046 0121     		movne	r1, #1
 179 0048 0220     		movs	r0, #2
 180 004a FFF7FEFF 		bl	_test_assert
 181              	.LVL18:
 182 004e 0028     		cmp	r0, #0
 183 0050 F0D1     		bne	.L4
 184              		.loc 1 97 0
 185 0052 05A9     		add	r1, sp, #20
 186              	.LVL19:
 187 0054 2046     		mov	r0, r4
 188 0056 FFF7FEFF 		bl	chEvtUnregister
 189              	.LVL20:
 190              		.loc 1 98 0
 191 005a 2168     		ldr	r1, [r4]
 192 005c 091B     		subs	r1, r1, r4
 193 005e B1FA81F1 		clz	r1, r1
 194 0062 0320     		movs	r0, #3
 195 0064 4909     		lsrs	r1, r1, #5
 196 0066 FFF7FEFF 		bl	_test_assert
 197              	.LVL21:
 198 006a 0028     		cmp	r0, #0
 199 006c E2D1     		bne	.L4
 200              		.loc 1 103 0
 201 006e 0721     		movs	r1, #7
 202 0070 0448     		ldr	r0, .L10+4
 203 0072 FFF7FEFF 		bl	chEvtDispatch
 204              	.LVL22:
 205              		.loc 1 104 0
 206 0076 0449     		ldr	r1, .L10+8
 207 0078 0420     		movs	r0, #4
 208 007a FFF7FEFF 		bl	_test_assert_sequence
 209              	.LVL23:
 210 007e D9E7     		b	.L4
 211              	.L11:
 212              		.align	2
 213              	.L10:
 214 0080 00000000 		.word	.LANCHOR0
 215 0084 00000000 		.word	.LANCHOR1
 216 0088 00000000 		.word	.LC0
 217              		.cfi_endproc
 218              	.LFE233:
 219              		.size	evt1_execute, .-evt1_execute
 220 008c AFF30080 		.section	.text.evt3_setup,"ax",%progbits
 221              		.align	2
 222              		.p2align 4,,15
ARM GAS  /tmp/ccZrqkfF.s 			page 5


 223              		.thumb
 224              		.thumb_func
 225              		.type	evt3_setup, %function
 226              	evt3_setup:
 227              	.LFB238:
 228              		.loc 1 247 0
 229              		.cfi_startproc
 230              		@ args = 0, pretend = 0, frame = 0
 231              		@ frame_needed = 0, uses_anonymous_args = 0
 232              		@ link register save eliminated.
 233              		.loc 1 249 0
 234 0000 4FF0FF30 		mov	r0, #-1
 235 0004 FFF7FEBF 		b	chEvtGetAndClearEvents
 236              	.LVL24:
 237              		.cfi_endproc
 238              	.LFE238:
 239              		.size	evt3_setup, .-evt3_setup
 240 0008 AFF30080 		.section	.text.evt2_setup,"ax",%progbits
 240      AFF30080 
 241              		.align	2
 242              		.p2align 4,,15
 243              		.thumb
 244              		.thumb_func
 245              		.type	evt2_setup, %function
 246              	evt2_setup:
 247              	.LFB242:
 248              		.cfi_startproc
 249              		@ args = 0, pretend = 0, frame = 0
 250              		@ frame_needed = 0, uses_anonymous_args = 0
 251              		@ link register save eliminated.
 252 0000 FFF7FEBF 		b	evt3_setup
 253              		.cfi_endproc
 254              	.LFE242:
 255              		.size	evt2_setup, .-evt2_setup
 256 0004 AFF30080 		.section	.text.evt1_setup,"ax",%progbits
 256      AFF30080 
 256      AFF30080 
 257              		.align	2
 258              		.p2align 4,,15
 259              		.thumb
 260              		.thumb_func
 261              		.type	evt1_setup, %function
 262              	evt1_setup:
 263              	.LFB244:
 264              		.cfi_startproc
 265              		@ args = 0, pretend = 0, frame = 0
 266              		@ frame_needed = 0, uses_anonymous_args = 0
 267              		@ link register save eliminated.
 268 0000 FFF7FEBF 		b	evt3_setup
 269              		.cfi_endproc
 270              	.LFE244:
 271              		.size	evt1_setup, .-evt1_setup
 272 0004 AFF30080 		.section	.text.evt2_execute,"ax",%progbits
 272      AFF30080 
 272      AFF30080 
 273              		.align	2
 274              		.p2align 4,,15
ARM GAS  /tmp/ccZrqkfF.s 			page 6


 275              		.thumb
 276              		.thumb_func
 277              		.type	evt2_execute, %function
 278              	evt2_execute:
 279              	.LFB237:
 280              		.loc 1 147 0
 281              		.cfi_startproc
 282              		@ args = 0, pretend = 0, frame = 40
 283              		@ frame_needed = 0, uses_anonymous_args = 0
 284              		.loc 1 147 0
 285 0000 2DE9F04F 		push	{r4, r5, r6, r7, r8, r9, r10, fp, lr}
 286              		.cfi_def_cfa_offset 36
 287              		.cfi_offset 4, -36
 288              		.cfi_offset 5, -32
 289              		.cfi_offset 6, -28
 290              		.cfi_offset 7, -24
 291              		.cfi_offset 8, -20
 292              		.cfi_offset 9, -16
 293              		.cfi_offset 10, -12
 294              		.cfi_offset 11, -8
 295              		.cfi_offset 14, -4
 296              		.loc 1 155 0
 297 0004 0720     		movs	r0, #7
 298              		.loc 1 147 0
 299 0006 8DB0     		sub	sp, sp, #52
 300              		.cfi_def_cfa_offset 88
 301              		.loc 1 155 0
 302 0008 FFF7FEFF 		bl	chEvtAddEvents
 303              	.LVL25:
 304              		.loc 1 156 0
 305 000c 4FF0FF30 		mov	r0, #-1
 306 0010 FFF7FEFF 		bl	chEvtWaitOne
 307              	.LVL26:
 308              		.loc 1 157 0
 309 0014 A0F10101 		sub	r1, r0, #1
 310 0018 B1FA81F1 		clz	r1, r1
 311 001c 4909     		lsrs	r1, r1, #5
 312 001e 0120     		movs	r0, #1
 313              	.LVL27:
 314 0020 FFF7FEFF 		bl	_test_assert
 315              	.LVL28:
 316 0024 10B1     		cbz	r0, .L19
 317              	.L15:
 318              		.loc 1 222 0
 319 0026 0DB0     		add	sp, sp, #52
 320              		.cfi_remember_state
 321              		.cfi_def_cfa_offset 36
 322              		@ sp needed
 323 0028 BDE8F08F 		pop	{r4, r5, r6, r7, r8, r9, r10, fp, pc}
 324              	.L19:
 325              		.cfi_restore_state
 326              		.loc 1 158 0
 327 002c 4FF0FF30 		mov	r0, #-1
 328 0030 FFF7FEFF 		bl	chEvtWaitOne
 329              	.LVL29:
 330              		.loc 1 159 0
 331 0034 A0F10201 		sub	r1, r0, #2
ARM GAS  /tmp/ccZrqkfF.s 			page 7


 332 0038 B1FA81F1 		clz	r1, r1
 333 003c 4909     		lsrs	r1, r1, #5
 334 003e 0220     		movs	r0, #2
 335              	.LVL30:
 336 0040 FFF7FEFF 		bl	_test_assert
 337              	.LVL31:
 338 0044 0028     		cmp	r0, #0
 339 0046 EED1     		bne	.L15
 340              		.loc 1 160 0
 341 0048 4FF0FF30 		mov	r0, #-1
 342 004c FFF7FEFF 		bl	chEvtWaitOne
 343              	.LVL32:
 344              		.loc 1 161 0
 345 0050 A0F10401 		sub	r1, r0, #4
 346 0054 B1FA81F1 		clz	r1, r1
 347 0058 4909     		lsrs	r1, r1, #5
 348 005a 0320     		movs	r0, #3
 349              	.LVL33:
 350 005c FFF7FEFF 		bl	_test_assert
 351              	.LVL34:
 352 0060 0028     		cmp	r0, #0
 353 0062 E0D1     		bne	.L15
 354              		.loc 1 162 0
 355 0064 4FF0FF30 		mov	r0, #-1
 356 0068 FFF7FEFF 		bl	chEvtGetAndClearEvents
 357              	.LVL35:
 358              		.loc 1 163 0
 359 006c B0FA80F1 		clz	r1, r0
 360 0070 4909     		lsrs	r1, r1, #5
 361 0072 0420     		movs	r0, #4
 362              	.LVL36:
 363 0074 FFF7FEFF 		bl	_test_assert
 364              	.LVL37:
 365 0078 0446     		mov	r4, r0
 366 007a 0028     		cmp	r0, #0
 367 007c D3D1     		bne	.L15
 368              		.loc 1 168 0
 369 007e FFF7FEFF 		bl	test_wait_tick
 370              	.LVL38:
 371              	.LBB136:
 372              	.LBB137:
 373              	.LBB138:
 374              	.LBB139:
 375              	.LBB140:
 376              	.LBB141:
 377              		.file 3 "../../os/ext/CMSIS/include/core_cmFunc.h"
 378              		.loc 3 546 0
 379 0082 4FF02009 		mov	r9, #32
 380              		.syntax unified
 381              	@ 546 "../../os/ext/CMSIS/include/core_cmFunc.h" 1
 382 0086 89F31188 		MSR basepri, r9
 383              	@ 0 "" 2
 384              		.thumb
 385              		.syntax unified
 386              	.LBE141:
 387              	.LBE140:
 388              	.LBE139:
ARM GAS  /tmp/ccZrqkfF.s 			page 8


 389              	.LBE138:
 390              	.LBB142:
 391              	.LBB143:
 392              	.LBB144:
 393              	.LBB145:
 394              		.file 4 "../../os/hal/ports/STM32/LLD/TIMv1/st_lld.h"
 395              		.loc 4 129 0
 396 008a 4FF08048 		mov	r8, #1073741824
 397 008e D8F82450 		ldr	r5, [r8, #36]
 398              	.LVL39:
 399              	.LBE145:
 400              	.LBE144:
 401              	.LBE143:
 402              	.LBE142:
 403              	.LBB146:
 404              	.LBB147:
 405              	.LBB148:
 406              	.LBB149:
 407              	.LBB150:
 408              		.loc 3 546 0
 409              		.syntax unified
 410              	@ 546 "../../os/ext/CMSIS/include/core_cmFunc.h" 1
 411 0092 84F31188 		MSR basepri, r4
 412              	@ 0 "" 2
 413              	.LVL40:
 414              		.thumb
 415              		.syntax unified
 416              	.LBE150:
 417              	.LBE149:
 418              	.LBE148:
 419              	.LBE147:
 420              	.LBE146:
 421              	.LBE137:
 422              	.LBE136:
 423              	.LBB151:
 424              	.LBB152:
 425              	.LBB153:
 426              	.LBB154:
 427              		.file 5 "../../os/rt/include/chthreads.h"
 428              		.loc 5 176 0
 429 0096 764F     		ldr	r7, .L20
 430              	.LBE154:
 431              	.LBE153:
 432              	.LBE152:
 433              	.LBE151:
 434              		.loc 1 170 0
 435 0098 DFF8F0A1 		ldr	r10, .L20+28
 436              	.LBB158:
 437              	.LBB157:
 438              	.LBB156:
 439              	.LBB155:
 440              		.loc 5 176 0
 441 009c B969     		ldr	r1, [r7, #24]
 442              	.LBE155:
 443              	.LBE156:
 444              	.LBE157:
 445              	.LBE158:
ARM GAS  /tmp/ccZrqkfF.s 			page 9


 446              		.loc 1 170 0
 447 009e DAF80060 		ldr	r6, [r10]
 448 00a2 8A68     		ldr	r2, [r1, #8]
 449 00a4 734B     		ldr	r3, .L20+4
 450 00a6 0091     		str	r1, [sp]
 451 00a8 013A     		subs	r2, r2, #1
 452 00aa 4FF4E871 		mov	r1, #464
 453 00ae 3046     		mov	r0, r6
 454 00b0 FFF7FEFF 		bl	chThdCreateStatic
 455              	.LVL41:
 456 00b4 704C     		ldr	r4, .L20+8
 457 00b6 2060     		str	r0, [r4]
 458              		.loc 1 172 0
 459 00b8 4FF0FF30 		mov	r0, #-1
 460 00bc FFF7FEFF 		bl	chEvtWaitOne
 461              	.LVL42:
 462              		.loc 1 173 0
 463 00c0 05F22622 		addw	r2, r5, #550
 464              		.loc 1 172 0
 465 00c4 8346     		mov	fp, r0
 466              	.LVL43:
 467              		.loc 1 173 0
 468 00c6 05F5FA71 		add	r1, r5, #500
 469              	.LVL44:
 470 00ca 0520     		movs	r0, #5
 471              	.LVL45:
 472 00cc FFF7FEFF 		bl	_test_assert_time_window
 473              	.LVL46:
 474 00d0 0028     		cmp	r0, #0
 475 00d2 A8D1     		bne	.L15
 476              		.loc 1 174 0
 477 00d4 ABF10101 		sub	r1, fp, #1
 478 00d8 B1FA81F1 		clz	r1, r1
 479 00dc 4909     		lsrs	r1, r1, #5
 480 00de 0620     		movs	r0, #6
 481 00e0 FFF7FEFF 		bl	_test_assert
 482              	.LVL47:
 483 00e4 0028     		cmp	r0, #0
 484 00e6 9ED1     		bne	.L15
 485              		.loc 1 175 0
 486 00e8 4FF0FF30 		mov	r0, #-1
 487 00ec FFF7FEFF 		bl	chEvtGetAndClearEvents
 488              	.LVL48:
 489              		.loc 1 176 0
 490 00f0 B0FA80F1 		clz	r1, r0
 491 00f4 4909     		lsrs	r1, r1, #5
 492 00f6 0720     		movs	r0, #7
 493              	.LVL49:
 494 00f8 FFF7FEFF 		bl	_test_assert
 495              	.LVL50:
 496 00fc 0028     		cmp	r0, #0
 497 00fe 92D1     		bne	.L15
 498              		.loc 1 177 0
 499 0100 FFF7FEFF 		bl	test_wait_threads
 500              	.LVL51:
 501              		.loc 1 182 0
 502 0104 0520     		movs	r0, #5
ARM GAS  /tmp/ccZrqkfF.s 			page 10


 503 0106 FFF7FEFF 		bl	chEvtAddEvents
 504              	.LVL52:
 505              		.loc 1 183 0
 506 010a 4FF0FF30 		mov	r0, #-1
 507 010e FFF7FEFF 		bl	chEvtWaitAny
 508              	.LVL53:
 509              		.loc 1 184 0
 510 0112 451F     		subs	r5, r0, #5
 511              	.LVL54:
 512 0114 6942     		rsbs	r1, r5, #0
 513 0116 6941     		adcs	r1, r1, r5
 514 0118 0820     		movs	r0, #8
 515              	.LVL55:
 516 011a FFF7FEFF 		bl	_test_assert
 517              	.LVL56:
 518 011e 0028     		cmp	r0, #0
 519 0120 81D1     		bne	.L15
 520              		.loc 1 185 0
 521 0122 4FF0FF30 		mov	r0, #-1
 522 0126 FFF7FEFF 		bl	chEvtGetAndClearEvents
 523              	.LVL57:
 524              		.loc 1 186 0
 525 012a B0FA80F1 		clz	r1, r0
 526 012e 4909     		lsrs	r1, r1, #5
 527 0130 0920     		movs	r0, #9
 528              	.LVL58:
 529 0132 FFF7FEFF 		bl	_test_assert
 530              	.LVL59:
 531 0136 8346     		mov	fp, r0
 532 0138 0028     		cmp	r0, #0
 533 013a 7FF474AF 		bne	.L15
 534              		.loc 1 191 0
 535 013e FFF7FEFF 		bl	test_wait_tick
 536              	.LVL60:
 537              	.LBB159:
 538              	.LBB160:
 539              	.LBB161:
 540              	.LBB162:
 541              	.LBB163:
 542              	.LBB164:
 543              		.loc 3 546 0
 544              		.syntax unified
 545              	@ 546 "../../os/ext/CMSIS/include/core_cmFunc.h" 1
 546 0142 89F31188 		MSR basepri, r9
 547              	@ 0 "" 2
 548              		.thumb
 549              		.syntax unified
 550              	.LBE164:
 551              	.LBE163:
 552              	.LBE162:
 553              	.LBE161:
 554              	.LBB165:
 555              	.LBB166:
 556              	.LBB167:
 557              	.LBB168:
 558              		.loc 4 129 0
 559 0146 D8F82450 		ldr	r5, [r8, #36]
ARM GAS  /tmp/ccZrqkfF.s 			page 11


 560              	.LVL61:
 561              	.LBE168:
 562              	.LBE167:
 563              	.LBE166:
 564              	.LBE165:
 565              	.LBB169:
 566              	.LBB170:
 567              	.LBB171:
 568              	.LBB172:
 569              	.LBB173:
 570              		.loc 3 546 0
 571              		.syntax unified
 572              	@ 546 "../../os/ext/CMSIS/include/core_cmFunc.h" 1
 573 014a 8BF31188 		MSR basepri, fp
 574              	@ 0 "" 2
 575              	.LVL62:
 576              		.thumb
 577              		.syntax unified
 578              	.LBE173:
 579              	.LBE172:
 580              	.LBE171:
 581              	.LBE170:
 582              	.LBE169:
 583              	.LBE160:
 584              	.LBE159:
 585              	.LBB174:
 586              	.LBB175:
 587              	.LBB176:
 588              	.LBB177:
 589              		.loc 5 176 0
 590 014e B969     		ldr	r1, [r7, #24]
 591              	.LBE177:
 592              	.LBE176:
 593              	.LBE175:
 594              	.LBE174:
 595              		.loc 1 193 0
 596 0150 484B     		ldr	r3, .L20+4
 597 0152 8A68     		ldr	r2, [r1, #8]
 598 0154 0091     		str	r1, [sp]
 599 0156 013A     		subs	r2, r2, #1
 600 0158 4FF4E871 		mov	r1, #464
 601 015c 3046     		mov	r0, r6
 602 015e FFF7FEFF 		bl	chThdCreateStatic
 603              	.LVL63:
 604 0162 2060     		str	r0, [r4]
 605              		.loc 1 195 0
 606 0164 4FF0FF30 		mov	r0, #-1
 607 0168 FFF7FEFF 		bl	chEvtWaitAny
 608              	.LVL64:
 609              		.loc 1 196 0
 610 016c 05F22622 		addw	r2, r5, #550
 611              		.loc 1 195 0
 612 0170 0646     		mov	r6, r0
 613              	.LVL65:
 614              		.loc 1 196 0
 615 0172 05F5FA71 		add	r1, r5, #500
 616              	.LVL66:
ARM GAS  /tmp/ccZrqkfF.s 			page 12


 617 0176 0A20     		movs	r0, #10
 618              	.LVL67:
 619 0178 FFF7FEFF 		bl	_test_assert_time_window
 620              	.LVL68:
 621 017c 0028     		cmp	r0, #0
 622 017e 7FF452AF 		bne	.L15
 623              		.loc 1 197 0
 624 0182 701E     		subs	r0, r6, #1
 625 0184 4142     		rsbs	r1, r0, #0
 626 0186 4141     		adcs	r1, r1, r0
 627 0188 0B20     		movs	r0, #11
 628 018a FFF7FEFF 		bl	_test_assert
 629              	.LVL69:
 630 018e 0028     		cmp	r0, #0
 631 0190 7FF449AF 		bne	.L15
 632              		.loc 1 198 0
 633 0194 4FF0FF30 		mov	r0, #-1
 634 0198 FFF7FEFF 		bl	chEvtGetAndClearEvents
 635              	.LVL70:
 636              		.loc 1 199 0
 637 019c B0FA80F1 		clz	r1, r0
 638 01a0 4909     		lsrs	r1, r1, #5
 639 01a2 0C20     		movs	r0, #12
 640              	.LVL71:
 641 01a4 FFF7FEFF 		bl	_test_assert
 642              	.LVL72:
 643 01a8 8146     		mov	r9, r0
 644 01aa 0028     		cmp	r0, #0
 645 01ac 7FF43BAF 		bne	.L15
 646              	.LBB178:
 647              	.LBB179:
 648              		.loc 2 172 0
 649 01b0 324E     		ldr	r6, .L20+12
 650              	.LBE179:
 651              	.LBE178:
 652              	.LBB181:
 653              	.LBB182:
 654 01b2 334D     		ldr	r5, .L20+16
 655              	.LVL73:
 656              	.LBE182:
 657              	.LBE181:
 658              		.loc 1 200 0
 659 01b4 FFF7FEFF 		bl	test_wait_threads
 660              	.LVL74:
 661              	.LBB184:
 662              	.LBB185:
 663              		.loc 2 193 0
 664 01b8 3046     		mov	r0, r6
 665 01ba 02A9     		add	r1, sp, #8
 666 01bc 4FF0FF33 		mov	r3, #-1
 667 01c0 0122     		movs	r2, #1
 668              	.LBE185:
 669              	.LBE184:
 670              	.LBB187:
 671              	.LBB180:
 672              		.loc 2 172 0
 673 01c2 3660     		str	r6, [r6]
ARM GAS  /tmp/ccZrqkfF.s 			page 13


 674              	.LVL75:
 675              	.LBE180:
 676              	.LBE187:
 677              	.LBB188:
 678              	.LBB183:
 679 01c4 2D60     		str	r5, [r5]
 680              	.LVL76:
 681              	.LBE183:
 682              	.LBE188:
 683              	.LBB189:
 684              	.LBB186:
 685              		.loc 2 193 0
 686 01c6 FFF7FEFF 		bl	chEvtRegisterMaskWithFlags
 687              	.LVL77:
 688              	.LBE186:
 689              	.LBE189:
 690              	.LBB190:
 691              	.LBB191:
 692 01ca 2846     		mov	r0, r5
 693 01cc 07A9     		add	r1, sp, #28
 694              	.LVL78:
 695 01ce 4FF0FF33 		mov	r3, #-1
 696 01d2 0422     		movs	r2, #4
 697 01d4 FFF7FEFF 		bl	chEvtRegisterMaskWithFlags
 698              	.LVL79:
 699              	.LBE191:
 700              	.LBE190:
 701              		.loc 1 209 0
 702 01d8 FFF7FEFF 		bl	test_wait_tick
 703              	.LVL80:
 704              	.LBB192:
 705              	.LBB193:
 706              	.LBB194:
 707              	.LBB195:
 708              	.LBB196:
 709              	.LBB197:
 710              		.loc 3 546 0
 711 01dc 2023     		movs	r3, #32
 712              		.syntax unified
 713              	@ 546 "../../os/ext/CMSIS/include/core_cmFunc.h" 1
 714 01de 83F31188 		MSR basepri, r3
 715              	@ 0 "" 2
 716              		.thumb
 717              		.syntax unified
 718              	.LBE197:
 719              	.LBE196:
 720              	.LBE195:
 721              	.LBE194:
 722              	.LBB198:
 723              	.LBB199:
 724              	.LBB200:
 725              	.LBB201:
 726              		.loc 4 129 0
 727 01e2 D8F82480 		ldr	r8, [r8, #36]
 728              	.LVL81:
 729              	.LBE201:
 730              	.LBE200:
ARM GAS  /tmp/ccZrqkfF.s 			page 14


 731              	.LBE199:
 732              	.LBE198:
 733              	.LBB202:
 734              	.LBB203:
 735              	.LBB204:
 736              	.LBB205:
 737              	.LBB206:
 738              		.loc 3 546 0
 739              		.syntax unified
 740              	@ 546 "../../os/ext/CMSIS/include/core_cmFunc.h" 1
 741 01e6 89F31188 		MSR basepri, r9
 742              	@ 0 "" 2
 743              	.LVL82:
 744              		.thumb
 745              		.syntax unified
 746              	.LBE206:
 747              	.LBE205:
 748              	.LBE204:
 749              	.LBE203:
 750              	.LBE202:
 751              	.LBE193:
 752              	.LBE192:
 753              	.LBB207:
 754              	.LBB208:
 755              		.loc 5 189 0
 756 01ea BA69     		ldr	r2, [r7, #24]
 757              	.LBE208:
 758              	.LBE207:
 759              		.loc 1 211 0
 760 01ec 254B     		ldr	r3, .L20+20
 761 01ee 9268     		ldr	r2, [r2, #8]
 762 01f0 DAF80000 		ldr	r0, [r10]
 763 01f4 0093     		str	r3, [sp]
 764 01f6 013A     		subs	r2, r2, #1
 765 01f8 4FF4E871 		mov	r1, #464
 766 01fc 224B     		ldr	r3, .L20+24
 767 01fe FFF7FEFF 		bl	chThdCreateStatic
 768              	.LVL83:
 769 0202 2060     		str	r0, [r4]
 770              		.loc 1 213 0
 771 0204 0520     		movs	r0, #5
 772 0206 FFF7FEFF 		bl	chEvtWaitAll
 773              	.LVL84:
 774              		.loc 1 214 0
 775 020a 08F22622 		addw	r2, r8, #550
 776 020e 08F5FA71 		add	r1, r8, #500
 777              	.LVL85:
 778 0212 0D20     		movs	r0, #13
 779 0214 FFF7FEFF 		bl	_test_assert_time_window
 780              	.LVL86:
 781 0218 0028     		cmp	r0, #0
 782 021a 7FF404AF 		bne	.L15
 783              		.loc 1 215 0
 784 021e 4FF0FF30 		mov	r0, #-1
 785 0222 FFF7FEFF 		bl	chEvtGetAndClearEvents
 786              	.LVL87:
 787              		.loc 1 216 0
ARM GAS  /tmp/ccZrqkfF.s 			page 15


 788 0226 B0FA80F1 		clz	r1, r0
 789 022a 4909     		lsrs	r1, r1, #5
 790 022c 0E20     		movs	r0, #14
 791              	.LVL88:
 792 022e FFF7FEFF 		bl	_test_assert
 793              	.LVL89:
 794 0232 0028     		cmp	r0, #0
 795 0234 7FF4F7AE 		bne	.L15
 796              		.loc 1 217 0
 797 0238 FFF7FEFF 		bl	test_wait_threads
 798              	.LVL90:
 799              		.loc 1 218 0
 800 023c 02A9     		add	r1, sp, #8
 801              	.LVL91:
 802 023e 3046     		mov	r0, r6
 803 0240 FFF7FEFF 		bl	chEvtUnregister
 804              	.LVL92:
 805              		.loc 1 219 0
 806 0244 07A9     		add	r1, sp, #28
 807              	.LVL93:
 808 0246 2846     		mov	r0, r5
 809 0248 FFF7FEFF 		bl	chEvtUnregister
 810              	.LVL94:
 811              		.loc 1 220 0
 812 024c 3168     		ldr	r1, [r6]
 813 024e 8A1B     		subs	r2, r1, r6
 814 0250 5142     		rsbs	r1, r2, #0
 815 0252 5141     		adcs	r1, r1, r2
 816 0254 0F20     		movs	r0, #15
 817 0256 FFF7FEFF 		bl	_test_assert
 818              	.LVL95:
 819 025a 0028     		cmp	r0, #0
 820 025c 7FF4E3AE 		bne	.L15
 821              	.LVL96:
 822              		.loc 1 221 0
 823 0260 2968     		ldr	r1, [r5]
 824 0262 4B1B     		subs	r3, r1, r5
 825 0264 5942     		rsbs	r1, r3, #0
 826 0266 5941     		adcs	r1, r1, r3
 827 0268 1020     		movs	r0, #16
 828 026a FFF7FEFF 		bl	_test_assert
 829              	.LVL97:
 830 026e DAE6     		b	.L15
 831              	.L21:
 832              		.align	2
 833              	.L20:
 834 0270 00000000 		.word	ch
 835 0274 00000000 		.word	thread1
 836 0278 00000000 		.word	threads
 837 027c 00000000 		.word	.LANCHOR0
 838 0280 00000000 		.word	.LANCHOR2
 839 0284 04000000 		.word	.LC1
 840 0288 00000000 		.word	thread2
 841 028c 00000000 		.word	wa
 842              		.cfi_endproc
 843              	.LFE237:
 844              		.size	evt2_execute, .-evt2_execute
ARM GAS  /tmp/ccZrqkfF.s 			page 16


 845              		.section	.text.thread2,"ax",%progbits
 846              		.align	2
 847              		.p2align 4,,15
 848              		.thumb
 849              		.thumb_func
 850              		.type	thread2, %function
 851              	thread2:
 852              	.LFB236:
 853              		.loc 1 139 0
 854              		.cfi_startproc
 855              		@ args = 0, pretend = 0, frame = 0
 856              		@ frame_needed = 0, uses_anonymous_args = 0
 857              	.LVL98:
 858 0000 08B5     		push	{r3, lr}
 859              		.cfi_def_cfa_offset 8
 860              		.cfi_offset 3, -8
 861              		.cfi_offset 14, -4
 862              	.LBB209:
 863              	.LBB210:
 864              		.loc 2 239 0
 865 0002 0021     		movs	r1, #0
 866 0004 0648     		ldr	r0, .L24
 867              	.LVL99:
 868 0006 FFF7FEFF 		bl	chEvtBroadcastFlags
 869              	.LVL100:
 870              	.LBE210:
 871              	.LBE209:
 872              		.loc 1 143 0
 873 000a 4FF4FA70 		mov	r0, #500
 874 000e FFF7FEFF 		bl	chThdSleep
 875              	.LVL101:
 876              	.LBB211:
 877              	.LBB212:
 878              		.loc 2 239 0
 879 0012 0021     		movs	r1, #0
 880 0014 0348     		ldr	r0, .L24+4
 881              	.LBE212:
 882              	.LBE211:
 883              		.loc 1 145 0
 884 0016 BDE80840 		pop	{r3, lr}
 885              		.cfi_restore 14
 886              		.cfi_restore 3
 887              		.cfi_def_cfa_offset 0
 888              	.LBB214:
 889              	.LBB213:
 890              		.loc 2 239 0
 891 001a FFF7FEBF 		b	chEvtBroadcastFlags
 892              	.LVL102:
 893              	.L25:
 894 001e 00BF     		.align	2
 895              	.L24:
 896 0020 00000000 		.word	.LANCHOR0
 897 0024 00000000 		.word	.LANCHOR2
 898              	.LBE213:
 899              	.LBE214:
 900              		.cfi_endproc
 901              	.LFE236:
ARM GAS  /tmp/ccZrqkfF.s 			page 17


 902              		.size	thread2, .-thread2
 903 0028 AFF30080 		.section	.text.thread1,"ax",%progbits
 903      AFF30080 
 904              		.align	2
 905              		.p2align 4,,15
 906              		.thumb
 907              		.thumb_func
 908              		.type	thread1, %function
 909              	thread1:
 910              	.LFB235:
 911              		.loc 1 133 0
 912              		.cfi_startproc
 913              		@ args = 0, pretend = 0, frame = 0
 914              		@ frame_needed = 0, uses_anonymous_args = 0
 915              	.LVL103:
 916 0000 10B5     		push	{r4, lr}
 917              		.cfi_def_cfa_offset 8
 918              		.cfi_offset 4, -8
 919              		.cfi_offset 14, -4
 920              		.loc 1 133 0
 921 0002 0446     		mov	r4, r0
 922              		.loc 1 135 0
 923 0004 4FF4FA70 		mov	r0, #500
 924              	.LVL104:
 925 0008 FFF7FEFF 		bl	chThdSleep
 926              	.LVL105:
 927              		.loc 1 136 0
 928 000c 2046     		mov	r0, r4
 929 000e 0121     		movs	r1, #1
 930              		.loc 1 137 0
 931 0010 BDE81040 		pop	{r4, lr}
 932              		.cfi_restore 14
 933              		.cfi_restore 4
 934              		.cfi_def_cfa_offset 0
 935              	.LVL106:
 936              		.loc 1 136 0
 937 0014 FFF7FEBF 		b	chEvtSignal
 938              	.LVL107:
 939              		.cfi_endproc
 940              	.LFE235:
 941              		.size	thread1, .-thread1
 942 0018 AFF30080 		.section	.text.evt3_execute,"ax",%progbits
 942      AFF30080 
 943              		.align	2
 944              		.p2align 4,,15
 945              		.thumb
 946              		.thumb_func
 947              		.type	evt3_execute, %function
 948              	evt3_execute:
 949              	.LFB239:
 950              		.loc 1 252 0
 951              		.cfi_startproc
 952              		@ args = 0, pretend = 0, frame = 0
 953              		@ frame_needed = 0, uses_anonymous_args = 0
 954 0000 08B5     		push	{r3, lr}
 955              		.cfi_def_cfa_offset 8
 956              		.cfi_offset 3, -8
ARM GAS  /tmp/ccZrqkfF.s 			page 18


 957              		.cfi_offset 14, -4
 958              		.loc 1 258 0
 959 0002 0021     		movs	r1, #0
 960 0004 4FF0FF30 		mov	r0, #-1
 961 0008 FFF7FEFF 		bl	chEvtWaitOneTimeout
 962              	.LVL108:
 963              		.loc 1 259 0
 964 000c B0FA80F1 		clz	r1, r0
 965 0010 4909     		lsrs	r1, r1, #5
 966 0012 0120     		movs	r0, #1
 967              	.LVL109:
 968 0014 FFF7FEFF 		bl	_test_assert
 969              	.LVL110:
 970 0018 00B1     		cbz	r0, .L33
 971              	.L28:
 972 001a 08BD     		pop	{r3, pc}
 973              	.L33:
 974              		.loc 1 260 0
 975 001c 0146     		mov	r1, r0
 976 001e 4FF0FF30 		mov	r0, #-1
 977 0022 FFF7FEFF 		bl	chEvtWaitAnyTimeout
 978              	.LVL111:
 979              		.loc 1 261 0
 980 0026 B0FA80F1 		clz	r1, r0
 981 002a 4909     		lsrs	r1, r1, #5
 982 002c 0220     		movs	r0, #2
 983              	.LVL112:
 984 002e FFF7FEFF 		bl	_test_assert
 985              	.LVL113:
 986 0032 0028     		cmp	r0, #0
 987 0034 F1D1     		bne	.L28
 988              		.loc 1 262 0
 989 0036 0146     		mov	r1, r0
 990 0038 4FF0FF30 		mov	r0, #-1
 991 003c FFF7FEFF 		bl	chEvtWaitAllTimeout
 992              	.LVL114:
 993              		.loc 1 263 0
 994 0040 B0FA80F1 		clz	r1, r0
 995 0044 4909     		lsrs	r1, r1, #5
 996 0046 0320     		movs	r0, #3
 997              	.LVL115:
 998 0048 FFF7FEFF 		bl	_test_assert
 999              	.LVL116:
 1000 004c 0028     		cmp	r0, #0
 1001 004e E4D1     		bne	.L28
 1002              	.LBB217:
 1003              	.LBB218:
 1004              		.loc 1 264 0
 1005 0050 0A21     		movs	r1, #10
 1006 0052 4FF0FF30 		mov	r0, #-1
 1007 0056 FFF7FEFF 		bl	chEvtWaitOneTimeout
 1008              	.LVL117:
 1009              		.loc 1 265 0
 1010 005a B0FA80F1 		clz	r1, r0
 1011 005e 4909     		lsrs	r1, r1, #5
 1012 0060 0420     		movs	r0, #4
 1013              	.LVL118:
ARM GAS  /tmp/ccZrqkfF.s 			page 19


 1014 0062 FFF7FEFF 		bl	_test_assert
 1015              	.LVL119:
 1016 0066 0028     		cmp	r0, #0
 1017 0068 D7D1     		bne	.L28
 1018              		.loc 1 266 0
 1019 006a 0A21     		movs	r1, #10
 1020 006c 4FF0FF30 		mov	r0, #-1
 1021 0070 FFF7FEFF 		bl	chEvtWaitAnyTimeout
 1022              	.LVL120:
 1023              		.loc 1 267 0
 1024 0074 B0FA80F1 		clz	r1, r0
 1025 0078 4909     		lsrs	r1, r1, #5
 1026 007a 0520     		movs	r0, #5
 1027              	.LVL121:
 1028 007c FFF7FEFF 		bl	_test_assert
 1029              	.LVL122:
 1030 0080 0028     		cmp	r0, #0
 1031 0082 CAD1     		bne	.L28
 1032              		.loc 1 268 0
 1033 0084 0A21     		movs	r1, #10
 1034 0086 4FF0FF30 		mov	r0, #-1
 1035 008a FFF7FEFF 		bl	chEvtWaitAllTimeout
 1036              	.LVL123:
 1037              		.loc 1 269 0
 1038 008e B0FA80F1 		clz	r1, r0
 1039 0092 4909     		lsrs	r1, r1, #5
 1040 0094 0620     		movs	r0, #6
 1041              	.LVL124:
 1042              	.LBE218:
 1043              	.LBE217:
 1044              		.loc 1 270 0
 1045 0096 BDE80840 		pop	{r3, lr}
 1046              		.cfi_restore 14
 1047              		.cfi_restore 3
 1048              		.cfi_def_cfa_offset 0
 1049              	.LBB220:
 1050              	.LBB219:
 1051              		.loc 1 269 0
 1052 009a FFF7FEBF 		b	_test_assert
 1053              	.LVL125:
 1054              	.LBE219:
 1055              	.LBE220:
 1056              		.cfi_endproc
 1057              	.LFE239:
 1058              		.size	evt3_execute, .-evt3_execute
 1059              		.global	patternevt
 1060              		.global	testevt3
 1061              		.global	testevt2
 1062              		.global	testevt1
 1063 009e 00BF     		.section	.rodata.patternevt,"a",%progbits
 1064              		.align	2
 1065              		.type	patternevt, %object
 1066              		.size	patternevt, 16
 1067              	patternevt:
 1068 0000 00000000 		.word	testevt1
 1069 0004 00000000 		.word	testevt2
 1070 0008 00000000 		.word	testevt3
ARM GAS  /tmp/ccZrqkfF.s 			page 20


 1071 000c 00000000 		.word	0
 1072              		.section	.rodata.testevt2,"a",%progbits
 1073              		.align	2
 1074              		.type	testevt2, %object
 1075              		.size	testevt2, 16
 1076              	testevt2:
 1077 0000 1C000000 		.word	.LC3
 1078 0004 00000000 		.word	evt2_setup
 1079 0008 00000000 		.word	0
 1080 000c 00000000 		.word	evt2_execute
 1081              		.section	.rodata.str1.4,"aMS",%progbits,1
 1082              		.align	2
 1083              	.LC0:
 1084 0000 41424300 		.ascii	"ABC\000"
 1085              	.LC1:
 1086 0004 4100     		.ascii	"A\000"
 1087 0006 0000     		.space	2
 1088              	.LC2:
 1089 0008 4576656E 		.ascii	"Events, timeouts\000"
 1089      74732C20 
 1089      74696D65 
 1089      6F757473 
 1089      00
 1090 0019 000000   		.space	3
 1091              	.LC3:
 1092 001c 4576656E 		.ascii	"Events, wait and broadcast\000"
 1092      74732C20 
 1092      77616974 
 1092      20616E64 
 1092      2062726F 
 1093 0037 00       		.space	1
 1094              	.LC4:
 1095 0038 4576656E 		.ascii	"Events, registration and dispatch\000"
 1095      74732C20 
 1095      72656769 
 1095      73747261 
 1095      74696F6E 
 1096 005a 0000     		.section	.rodata.testevt1,"a",%progbits
 1097              		.align	2
 1098              		.type	testevt1, %object
 1099              		.size	testevt1, 16
 1100              	testevt1:
 1101 0000 38000000 		.word	.LC4
 1102 0004 00000000 		.word	evt1_setup
 1103 0008 00000000 		.word	0
 1104 000c 00000000 		.word	evt1_execute
 1105              		.section	.rodata.evhndl,"a",%progbits
 1106              		.align	2
 1107              		.set	.LANCHOR1,. + 0
 1108              		.type	evhndl, %object
 1109              		.size	evhndl, 12
 1110              	evhndl:
 1111 0000 00000000 		.word	h1
 1112 0004 00000000 		.word	h2
 1113 0008 00000000 		.word	h3
 1114              		.section	.rodata.testevt3,"a",%progbits
 1115              		.align	2
ARM GAS  /tmp/ccZrqkfF.s 			page 21


 1116              		.type	testevt3, %object
 1117              		.size	testevt3, 16
 1118              	testevt3:
 1119 0000 08000000 		.word	.LC2
 1120 0004 00000000 		.word	evt3_setup
 1121 0008 00000000 		.word	0
 1122 000c 00000000 		.word	evt3_execute
 1123              		.section	.data.es1,"aw",%progbits
 1124              		.align	2
 1125              		.set	.LANCHOR0,. + 0
 1126              		.type	es1, %object
 1127              		.size	es1, 4
 1128              	es1:
 1129 0000 00000000 		.word	es1
 1130              		.section	.data.es2,"aw",%progbits
 1131              		.align	2
 1132              		.set	.LANCHOR2,. + 0
 1133              		.type	es2, %object
 1134              		.size	es2, 4
 1135              	es2:
 1136 0000 00000000 		.word	es2
 1137              		.text
 1138              	.Letext0:
 1139              		.file 6 "/usr/lib/gcc/arm-none-eabi/5.2.0/include/stddef.h"
 1140              		.file 7 "/usr/arm-none-eabi/include/machine/_default_types.h"
 1141              		.file 8 "/usr/arm-none-eabi/include/stdint.h"
 1142              		.file 9 "../../os/rt/ports/ARMCMx/compilers/GCC/chtypes.h"
 1143              		.file 10 "../../os/rt/include/chsystypes.h"
 1144              		.file 11 "../../os/rt/include/chschd.h"
 1145              		.file 12 "../../os/rt/ports/ARMCMx/chcore.h"
 1146              		.file 13 "../../os/rt/ports/ARMCMx/chcore_v7m.h"
 1147              		.file 14 "../../os/hal/ports/STM32/LLD/TIMv1/stm32_tim.h"
 1148              		.file 15 "../../os/rt/include/chtm.h"
 1149              		.file 16 "../../os/rt/include/chsem.h"
 1150              		.file 17 "../../os/rt/include/chmtx.h"
 1151              		.file 18 "../../test/rt/test.h"
 1152              		.file 19 "../../os/rt/ports/ARMCMx/chcore_timer.h"
 1153              		.file 20 "../../os/rt/include/chsys.h"
 1154              		.file 21 "../../os/rt/include/chvt.h"
 1155              		.file 22 "../../os/ext/CMSIS/include/core_cm4.h"