ARM GAS  /tmp/ccyGBXfz.s 			page 1


   1              		.syntax unified
   2              		.cpu cortex-m4
   3              		.eabi_attribute 27, 1
   4              		.eabi_attribute 28, 1
   5              		.fpu fpv4-sp-d16
   6              		.eabi_attribute 20, 1
   7              		.eabi_attribute 21, 1
   8              		.eabi_attribute 23, 3
   9              		.eabi_attribute 24, 1
  10              		.eabi_attribute 25, 1
  11              		.eabi_attribute 26, 1
  12              		.eabi_attribute 30, 2
  13              		.eabi_attribute 34, 1
  14              		.eabi_attribute 18, 4
  15              		.thumb
  16              		.syntax unified
  17              		.file	"chmboxes.c"
  18              		.text
  19              	.Ltext0:
  20              		.cfi_sections	.debug_frame
  21              		.section	.text.chMBObjectInit,"ax",%progbits
  22              		.align	2
  23              		.p2align 4,,15
  24              		.global	chMBObjectInit
  25              		.thumb
  26              		.thumb_func
  27              		.type	chMBObjectInit, %function
  28              	chMBObjectInit:
  29              	.LFB229:
  30              		.file 1 "../../os/rt/src/chmboxes.c"
  31              		.loc 1 86 0
  32              		.cfi_startproc
  33              		@ args = 0, pretend = 0, frame = 0
  34              		@ frame_needed = 0, uses_anonymous_args = 0
  35              	.LVL0:
  36 0000 10B5     		push	{r4, lr}
  37              		.cfi_def_cfa_offset 8
  38              		.cfi_offset 4, -8
  39              		.cfi_offset 14, -4
  40              		.loc 1 86 0
  41 0002 0B46     		mov	r3, r1
  42              		.loc 1 93 0
  43 0004 01EB8201 		add	r1, r1, r2, lsl #2
  44              	.LVL1:
  45 0008 4160     		str	r1, [r0, #4]
  46              		.loc 1 86 0
  47 000a 0446     		mov	r4, r0
  48              		.loc 1 90 0
  49 000c 0360     		str	r3, [r0]
  50              		.loc 1 91 0
  51 000e C360     		str	r3, [r0, #12]
  52              		.loc 1 92 0
  53 0010 8360     		str	r3, [r0, #8]
  54              		.loc 1 94 0
  55 0012 1146     		mov	r1, r2
  56 0014 1C30     		adds	r0, r0, #28
  57              	.LVL2:
ARM GAS  /tmp/ccyGBXfz.s 			page 2


  58 0016 FFF7FEFF 		bl	chSemObjectInit
  59              	.LVL3:
  60              		.loc 1 95 0
  61 001a 04F11000 		add	r0, r4, #16
  62 001e 0021     		movs	r1, #0
  63              		.loc 1 96 0
  64 0020 BDE81040 		pop	{r4, lr}
  65              		.cfi_restore 14
  66              		.cfi_restore 4
  67              		.cfi_def_cfa_offset 0
  68              	.LVL4:
  69              		.loc 1 95 0
  70 0024 FFF7FEBF 		b	chSemObjectInit
  71              	.LVL5:
  72              		.cfi_endproc
  73              	.LFE229:
  74              		.size	chMBObjectInit, .-chMBObjectInit
  75 0028 AFF30080 		.section	.text.chMBResetI,"ax",%progbits
  75      AFF30080 
  76              		.align	2
  77              		.p2align 4,,15
  78              		.global	chMBResetI
  79              		.thumb
  80              		.thumb_func
  81              		.type	chMBResetI, %function
  82              	chMBResetI:
  83              	.LFB231:
  84              		.loc 1 124 0
  85              		.cfi_startproc
  86              		@ args = 0, pretend = 0, frame = 0
  87              		@ frame_needed = 0, uses_anonymous_args = 0
  88              	.LVL6:
  89 0000 10B5     		push	{r4, lr}
  90              		.cfi_def_cfa_offset 8
  91              		.cfi_offset 4, -8
  92              		.cfi_offset 14, -4
  93              		.loc 1 124 0
  94 0002 0446     		mov	r4, r0
  95              		.loc 1 131 0
  96 0004 1C30     		adds	r0, r0, #28
  97              	.LVL7:
  98              		.loc 1 129 0
  99 0006 2368     		ldr	r3, [r4]
 100              		.loc 1 131 0
 101 0008 6168     		ldr	r1, [r4, #4]
 102              		.loc 1 129 0
 103 000a A360     		str	r3, [r4, #8]
 104              		.loc 1 131 0
 105 000c C91A     		subs	r1, r1, r3
 106              		.loc 1 130 0
 107 000e E360     		str	r3, [r4, #12]
 108              		.loc 1 131 0
 109 0010 8910     		asrs	r1, r1, #2
 110 0012 FFF7FEFF 		bl	chSemResetI
 111              	.LVL8:
 112              		.loc 1 132 0
 113 0016 04F11000 		add	r0, r4, #16
ARM GAS  /tmp/ccyGBXfz.s 			page 3


 114 001a 0021     		movs	r1, #0
 115              		.loc 1 133 0
 116 001c BDE81040 		pop	{r4, lr}
 117              		.cfi_restore 14
 118              		.cfi_restore 4
 119              		.cfi_def_cfa_offset 0
 120              	.LVL9:
 121              		.loc 1 132 0
 122 0020 FFF7FEBF 		b	chSemResetI
 123              	.LVL10:
 124              		.cfi_endproc
 125              	.LFE231:
 126              		.size	chMBResetI, .-chMBResetI
 127 0024 AFF30080 		.section	.text.chMBReset,"ax",%progbits
 127      AFF30080 
 127      AFF30080 
 128              		.align	2
 129              		.p2align 4,,15
 130              		.global	chMBReset
 131              		.thumb
 132              		.thumb_func
 133              		.type	chMBReset, %function
 134              	chMBReset:
 135              	.LFB230:
 136              		.loc 1 107 0
 137              		.cfi_startproc
 138              		@ args = 0, pretend = 0, frame = 0
 139              		@ frame_needed = 0, uses_anonymous_args = 0
 140              	.LVL11:
 141 0000 08B5     		push	{r3, lr}
 142              		.cfi_def_cfa_offset 8
 143              		.cfi_offset 3, -8
 144              		.cfi_offset 14, -4
 145              	.LBB72:
 146              	.LBB73:
 147              	.LBB74:
 148              	.LBB75:
 149              		.file 2 "../../os/ext/CMSIS/include/core_cmFunc.h"
 150              		.loc 2 546 0
 151 0002 2023     		movs	r3, #32
 152              		.syntax unified
 153              	@ 546 "../../os/ext/CMSIS/include/core_cmFunc.h" 1
 154 0004 83F31188 		MSR basepri, r3
 155              	@ 0 "" 2
 156              		.thumb
 157              		.syntax unified
 158              	.LBE75:
 159              	.LBE74:
 160              	.LBE73:
 161              	.LBE72:
 162              		.loc 1 110 0
 163 0008 FFF7FEFF 		bl	chMBResetI
 164              	.LVL12:
 165              		.loc 1 111 0
 166 000c FFF7FEFF 		bl	chSchRescheduleS
 167              	.LVL13:
 168              	.LBB76:
ARM GAS  /tmp/ccyGBXfz.s 			page 4


 169              	.LBB77:
 170              	.LBB78:
 171              	.LBB79:
 172              	.LBB80:
 173              		.loc 2 546 0
 174 0010 0023     		movs	r3, #0
 175              		.syntax unified
 176              	@ 546 "../../os/ext/CMSIS/include/core_cmFunc.h" 1
 177 0012 83F31188 		MSR basepri, r3
 178              	@ 0 "" 2
 179              		.thumb
 180              		.syntax unified
 181 0016 08BD     		pop	{r3, pc}
 182              	.LBE80:
 183              	.LBE79:
 184              	.LBE78:
 185              	.LBE77:
 186              	.LBE76:
 187              		.cfi_endproc
 188              	.LFE230:
 189              		.size	chMBReset, .-chMBReset
 190 0018 AFF30080 		.section	.text.chMBPost,"ax",%progbits
 190      AFF30080 
 191              		.align	2
 192              		.p2align 4,,15
 193              		.global	chMBPost
 194              		.thumb
 195              		.thumb_func
 196              		.type	chMBPost, %function
 197              	chMBPost:
 198              	.LFB232:
 199              		.loc 1 154 0
 200              		.cfi_startproc
 201              		@ args = 0, pretend = 0, frame = 0
 202              		@ frame_needed = 0, uses_anonymous_args = 0
 203              	.LVL14:
 204 0000 70B5     		push	{r4, r5, r6, lr}
 205              		.cfi_def_cfa_offset 16
 206              		.cfi_offset 4, -16
 207              		.cfi_offset 5, -12
 208              		.cfi_offset 6, -8
 209              		.cfi_offset 14, -4
 210              	.LBB94:
 211              	.LBB95:
 212              	.LBB96:
 213              	.LBB97:
 214              		.loc 2 546 0
 215 0002 2023     		movs	r3, #32
 216              	.LBE97:
 217              	.LBE96:
 218              	.LBE95:
 219              	.LBE94:
 220              		.loc 1 154 0
 221 0004 0446     		mov	r4, r0
 222 0006 0E46     		mov	r6, r1
 223              	.LVL15:
 224              	.LBB101:
ARM GAS  /tmp/ccyGBXfz.s 			page 5


 225              	.LBB100:
 226              	.LBB99:
 227              	.LBB98:
 228              		.loc 2 546 0
 229              		.syntax unified
 230              	@ 546 "../../os/ext/CMSIS/include/core_cmFunc.h" 1
 231 0008 83F31188 		MSR basepri, r3
 232              	@ 0 "" 2
 233              	.LVL16:
 234              		.thumb
 235              		.syntax unified
 236              	.LBE98:
 237              	.LBE99:
 238              	.LBE100:
 239              	.LBE101:
 240              	.LBB102:
 241              	.LBB103:
 242              		.loc 1 189 0
 243 000c 1146     		mov	r1, r2
 244              	.LVL17:
 245 000e 1C30     		adds	r0, r0, #28
 246              	.LVL18:
 247 0010 FFF7FEFF 		bl	chSemWaitTimeoutS
 248              	.LVL19:
 249              		.loc 1 190 0
 250 0014 0546     		mov	r5, r0
 251 0016 78B9     		cbnz	r0, .L8
 252              	.LVL20:
 253              	.LBB104:
 254              	.LBB105:
 255              		.loc 1 191 0
 256 0018 A268     		ldr	r2, [r4, #8]
 257              		.loc 1 192 0
 258 001a 6168     		ldr	r1, [r4, #4]
 259              		.loc 1 191 0
 260 001c 131D     		adds	r3, r2, #4
 261              		.loc 1 192 0
 262 001e 8B42     		cmp	r3, r1
 263              		.loc 1 191 0
 264 0020 A360     		str	r3, [r4, #8]
 265              		.loc 1 193 0
 266 0022 28BF     		it	cs
 267 0024 2368     		ldrcs	r3, [r4]
 268              		.loc 1 191 0
 269 0026 1660     		str	r6, [r2]
 270              		.loc 1 195 0
 271 0028 04F11000 		add	r0, r4, #16
 272              	.LVL21:
 273              		.loc 1 193 0
 274 002c 28BF     		it	cs
 275 002e A360     		strcs	r3, [r4, #8]
 276              		.loc 1 195 0
 277 0030 FFF7FEFF 		bl	chSemSignalI
 278              	.LVL22:
 279              		.loc 1 196 0
 280 0034 FFF7FEFF 		bl	chSchRescheduleS
 281              	.LVL23:
ARM GAS  /tmp/ccyGBXfz.s 			page 6


 282              	.L8:
 283              	.LBE105:
 284              	.LBE104:
 285              	.LBE103:
 286              	.LBE102:
 287              	.LBB106:
 288              	.LBB107:
 289              	.LBB108:
 290              	.LBB109:
 291              	.LBB110:
 292              		.loc 2 546 0
 293 0038 0023     		movs	r3, #0
 294              		.syntax unified
 295              	@ 546 "../../os/ext/CMSIS/include/core_cmFunc.h" 1
 296 003a 83F31188 		MSR basepri, r3
 297              	@ 0 "" 2
 298              		.thumb
 299              		.syntax unified
 300              	.LBE110:
 301              	.LBE109:
 302              	.LBE108:
 303              	.LBE107:
 304              	.LBE106:
 305              		.loc 1 162 0
 306 003e 2846     		mov	r0, r5
 307 0040 70BD     		pop	{r4, r5, r6, pc}
 308              		.cfi_endproc
 309              	.LFE232:
 310              		.size	chMBPost, .-chMBPost
 311 0042 00BFAFF3 		.section	.text.chMBPostS,"ax",%progbits
 311      0080AFF3 
 311      0080AFF3 
 311      0080
 312              		.align	2
 313              		.p2align 4,,15
 314              		.global	chMBPostS
 315              		.thumb
 316              		.thumb_func
 317              		.type	chMBPostS, %function
 318              	chMBPostS:
 319              	.LFB233:
 320              		.loc 1 183 0
 321              		.cfi_startproc
 322              		@ args = 0, pretend = 0, frame = 0
 323              		@ frame_needed = 0, uses_anonymous_args = 0
 324              	.LVL24:
 325 0000 70B5     		push	{r4, r5, r6, lr}
 326              		.cfi_def_cfa_offset 16
 327              		.cfi_offset 4, -16
 328              		.cfi_offset 5, -12
 329              		.cfi_offset 6, -8
 330              		.cfi_offset 14, -4
 331              		.loc 1 183 0
 332 0002 0446     		mov	r4, r0
 333 0004 0E46     		mov	r6, r1
 334              		.loc 1 189 0
 335 0006 1C30     		adds	r0, r0, #28
ARM GAS  /tmp/ccyGBXfz.s 			page 7


 336              	.LVL25:
 337 0008 1146     		mov	r1, r2
 338              	.LVL26:
 339 000a FFF7FEFF 		bl	chSemWaitTimeoutS
 340              	.LVL27:
 341              		.loc 1 190 0
 342 000e 0546     		mov	r5, r0
 343 0010 78B9     		cbnz	r0, .L13
 344              	.LVL28:
 345              	.LBB113:
 346              	.LBB114:
 347              		.loc 1 191 0
 348 0012 A268     		ldr	r2, [r4, #8]
 349              		.loc 1 192 0
 350 0014 6168     		ldr	r1, [r4, #4]
 351              		.loc 1 191 0
 352 0016 131D     		adds	r3, r2, #4
 353              		.loc 1 192 0
 354 0018 8B42     		cmp	r3, r1
 355              		.loc 1 191 0
 356 001a A360     		str	r3, [r4, #8]
 357              		.loc 1 193 0
 358 001c 28BF     		it	cs
 359 001e 2368     		ldrcs	r3, [r4]
 360              		.loc 1 191 0
 361 0020 1660     		str	r6, [r2]
 362              		.loc 1 195 0
 363 0022 04F11000 		add	r0, r4, #16
 364              	.LVL29:
 365              		.loc 1 193 0
 366 0026 28BF     		it	cs
 367 0028 A360     		strcs	r3, [r4, #8]
 368              		.loc 1 195 0
 369 002a FFF7FEFF 		bl	chSemSignalI
 370              	.LVL30:
 371              		.loc 1 196 0
 372 002e FFF7FEFF 		bl	chSchRescheduleS
 373              	.LVL31:
 374              	.L13:
 375              	.LBE114:
 376              	.LBE113:
 377              		.loc 1 200 0
 378 0032 2846     		mov	r0, r5
 379 0034 70BD     		pop	{r4, r5, r6, pc}
 380              		.cfi_endproc
 381              	.LFE233:
 382              		.size	chMBPostS, .-chMBPostS
 383 0036 00BFAFF3 		.section	.text.chMBPostI,"ax",%progbits
 383      0080AFF3 
 383      0080
 384              		.align	2
 385              		.p2align 4,,15
 386              		.global	chMBPostI
 387              		.thumb
 388              		.thumb_func
 389              		.type	chMBPostI, %function
 390              	chMBPostI:
ARM GAS  /tmp/ccyGBXfz.s 			page 8


 391              	.LFB234:
 392              		.loc 1 216 0
 393              		.cfi_startproc
 394              		@ args = 0, pretend = 0, frame = 0
 395              		@ frame_needed = 0, uses_anonymous_args = 0
 396              	.LVL32:
 397 0000 38B5     		push	{r3, r4, r5, lr}
 398              		.cfi_def_cfa_offset 16
 399              		.cfi_offset 3, -16
 400              		.cfi_offset 4, -12
 401              		.cfi_offset 5, -8
 402              		.cfi_offset 14, -4
 403 0002 436A     		ldr	r3, [r0, #36]
 404              	.LVL33:
 405              		.loc 1 221 0
 406 0004 002B     		cmp	r3, #0
 407 0006 12DD     		ble	.L19
 408              	.LVL34:
 409              		.loc 1 226 0
 410 0008 8468     		ldr	r4, [r0, #8]
 411              		.loc 1 227 0
 412 000a 4568     		ldr	r5, [r0, #4]
 413              		.loc 1 226 0
 414 000c 221D     		adds	r2, r4, #4
 415              	.LBB115:
 416              	.LBB116:
 417              		.file 3 "../../os/rt/include/chsem.h"
 418              		.loc 3 122 0
 419 000e 013B     		subs	r3, r3, #1
 420              	.LBE116:
 421              	.LBE115:
 422              		.loc 1 227 0
 423 0010 AA42     		cmp	r2, r5
 424              	.LBB118:
 425              	.LBB117:
 426              		.loc 3 122 0
 427 0012 4362     		str	r3, [r0, #36]
 428              	.LBE117:
 429              	.LBE118:
 430              		.loc 1 228 0
 431 0014 28BF     		it	cs
 432 0016 0368     		ldrcs	r3, [r0]
 433              		.loc 1 226 0
 434 0018 8260     		str	r2, [r0, #8]
 435 001a 2160     		str	r1, [r4]
 436              		.loc 1 230 0
 437 001c 00F11000 		add	r0, r0, #16
 438              	.LVL35:
 439              		.loc 1 228 0
 440 0020 28BF     		it	cs
 441 0022 40F8083C 		strcs	r3, [r0, #-8]
 442              		.loc 1 230 0
 443 0026 FFF7FEFF 		bl	chSemSignalI
 444              	.LVL36:
 445              		.loc 1 232 0
 446 002a 0020     		movs	r0, #0
 447 002c 38BD     		pop	{r3, r4, r5, pc}
ARM GAS  /tmp/ccyGBXfz.s 			page 9


 448              	.LVL37:
 449              	.L19:
 450              		.loc 1 222 0
 451 002e 4FF0FF30 		mov	r0, #-1
 452              	.LVL38:
 453              		.loc 1 233 0
 454 0032 38BD     		pop	{r3, r4, r5, pc}
 455              		.cfi_endproc
 456              	.LFE234:
 457              		.size	chMBPostI, .-chMBPostI
 458 0034 AFF30080 		.section	.text.chMBPostAhead,"ax",%progbits
 458      AFF30080 
 458      AFF30080 
 459              		.align	2
 460              		.p2align 4,,15
 461              		.global	chMBPostAhead
 462              		.thumb
 463              		.thumb_func
 464              		.type	chMBPostAhead, %function
 465              	chMBPostAhead:
 466              	.LFB235:
 467              		.loc 1 254 0
 468              		.cfi_startproc
 469              		@ args = 0, pretend = 0, frame = 0
 470              		@ frame_needed = 0, uses_anonymous_args = 0
 471              	.LVL39:
 472 0000 70B5     		push	{r4, r5, r6, lr}
 473              		.cfi_def_cfa_offset 16
 474              		.cfi_offset 4, -16
 475              		.cfi_offset 5, -12
 476              		.cfi_offset 6, -8
 477              		.cfi_offset 14, -4
 478              	.LBB132:
 479              	.LBB133:
 480              	.LBB134:
 481              	.LBB135:
 482              		.loc 2 546 0
 483 0002 2023     		movs	r3, #32
 484              	.LBE135:
 485              	.LBE134:
 486              	.LBE133:
 487              	.LBE132:
 488              		.loc 1 254 0
 489 0004 0446     		mov	r4, r0
 490 0006 0E46     		mov	r6, r1
 491              	.LVL40:
 492              	.LBB139:
 493              	.LBB138:
 494              	.LBB137:
 495              	.LBB136:
 496              		.loc 2 546 0
 497              		.syntax unified
 498              	@ 546 "../../os/ext/CMSIS/include/core_cmFunc.h" 1
 499 0008 83F31188 		MSR basepri, r3
 500              	@ 0 "" 2
 501              	.LVL41:
 502              		.thumb
ARM GAS  /tmp/ccyGBXfz.s 			page 10


 503              		.syntax unified
 504              	.LBE136:
 505              	.LBE137:
 506              	.LBE138:
 507              	.LBE139:
 508              	.LBB140:
 509              	.LBB141:
 510              		.loc 1 289 0
 511 000c 1146     		mov	r1, r2
 512              	.LVL42:
 513 000e 1C30     		adds	r0, r0, #28
 514              	.LVL43:
 515 0010 FFF7FEFF 		bl	chSemWaitTimeoutS
 516              	.LVL44:
 517              		.loc 1 290 0
 518 0014 0546     		mov	r5, r0
 519 0016 20B1     		cbz	r0, .L25
 520              	.LVL45:
 521              	.LBE141:
 522              	.LBE140:
 523              	.LBB145:
 524              	.LBB146:
 525              	.LBB147:
 526              	.LBB148:
 527              	.LBB149:
 528              		.loc 2 546 0
 529 0018 0023     		movs	r3, #0
 530              		.syntax unified
 531              	@ 546 "../../os/ext/CMSIS/include/core_cmFunc.h" 1
 532 001a 83F31188 		MSR basepri, r3
 533              	@ 0 "" 2
 534              		.thumb
 535              		.syntax unified
 536              	.LBE149:
 537              	.LBE148:
 538              	.LBE147:
 539              	.LBE146:
 540              	.LBE145:
 541              		.loc 1 262 0
 542 001e 2846     		mov	r0, r5
 543 0020 70BD     		pop	{r4, r5, r6, pc}
 544              	.LVL46:
 545              	.L25:
 546              	.LBB154:
 547              	.LBB144:
 548              	.LBB142:
 549              	.LBB143:
 550              		.loc 1 291 0
 551 0022 E368     		ldr	r3, [r4, #12]
 552 0024 2268     		ldr	r2, [r4]
 553 0026 043B     		subs	r3, r3, #4
 554 0028 9342     		cmp	r3, r2
 555 002a E360     		str	r3, [r4, #12]
 556 002c 02D2     		bcs	.L23
 557              		.loc 1 292 0
 558 002e 6368     		ldr	r3, [r4, #4]
 559 0030 043B     		subs	r3, r3, #4
ARM GAS  /tmp/ccyGBXfz.s 			page 11


 560 0032 E360     		str	r3, [r4, #12]
 561              	.L23:
 562              		.loc 1 294 0
 563 0034 1E60     		str	r6, [r3]
 564              		.loc 1 295 0
 565 0036 04F11000 		add	r0, r4, #16
 566              	.LVL47:
 567 003a FFF7FEFF 		bl	chSemSignalI
 568              	.LVL48:
 569              		.loc 1 296 0
 570 003e FFF7FEFF 		bl	chSchRescheduleS
 571              	.LVL49:
 572              	.LBE143:
 573              	.LBE142:
 574              	.LBE144:
 575              	.LBE154:
 576              	.LBB155:
 577              	.LBB153:
 578              	.LBB152:
 579              	.LBB151:
 580              	.LBB150:
 581              		.loc 2 546 0
 582 0042 0023     		movs	r3, #0
 583              		.syntax unified
 584              	@ 546 "../../os/ext/CMSIS/include/core_cmFunc.h" 1
 585 0044 83F31188 		MSR basepri, r3
 586              	@ 0 "" 2
 587              		.thumb
 588              		.syntax unified
 589              	.LBE150:
 590              	.LBE151:
 591              	.LBE152:
 592              	.LBE153:
 593              	.LBE155:
 594              		.loc 1 262 0
 595 0048 2846     		mov	r0, r5
 596 004a 70BD     		pop	{r4, r5, r6, pc}
 597              		.cfi_endproc
 598              	.LFE235:
 599              		.size	chMBPostAhead, .-chMBPostAhead
 600 004c AFF30080 		.section	.text.chMBPostAheadS,"ax",%progbits
 601              		.align	2
 602              		.p2align 4,,15
 603              		.global	chMBPostAheadS
 604              		.thumb
 605              		.thumb_func
 606              		.type	chMBPostAheadS, %function
 607              	chMBPostAheadS:
 608              	.LFB236:
 609              		.loc 1 283 0
 610              		.cfi_startproc
 611              		@ args = 0, pretend = 0, frame = 0
 612              		@ frame_needed = 0, uses_anonymous_args = 0
 613              	.LVL50:
 614 0000 70B5     		push	{r4, r5, r6, lr}
 615              		.cfi_def_cfa_offset 16
 616              		.cfi_offset 4, -16
ARM GAS  /tmp/ccyGBXfz.s 			page 12


 617              		.cfi_offset 5, -12
 618              		.cfi_offset 6, -8
 619              		.cfi_offset 14, -4
 620              		.loc 1 283 0
 621 0002 0446     		mov	r4, r0
 622 0004 0E46     		mov	r6, r1
 623              		.loc 1 289 0
 624 0006 1C30     		adds	r0, r0, #28
 625              	.LVL51:
 626 0008 1146     		mov	r1, r2
 627              	.LVL52:
 628 000a FFF7FEFF 		bl	chSemWaitTimeoutS
 629              	.LVL53:
 630              		.loc 1 290 0
 631 000e 0546     		mov	r5, r0
 632 0010 60B9     		cbnz	r0, .L27
 633              	.LVL54:
 634              	.LBB158:
 635              	.LBB159:
 636              		.loc 1 291 0
 637 0012 E368     		ldr	r3, [r4, #12]
 638 0014 2268     		ldr	r2, [r4]
 639 0016 043B     		subs	r3, r3, #4
 640 0018 9342     		cmp	r3, r2
 641 001a E360     		str	r3, [r4, #12]
 642 001c 08D3     		bcc	.L30
 643              	.L28:
 644              		.loc 1 294 0
 645 001e 1E60     		str	r6, [r3]
 646              		.loc 1 295 0
 647 0020 04F11000 		add	r0, r4, #16
 648              	.LVL55:
 649 0024 FFF7FEFF 		bl	chSemSignalI
 650              	.LVL56:
 651              		.loc 1 296 0
 652 0028 FFF7FEFF 		bl	chSchRescheduleS
 653              	.LVL57:
 654              	.L27:
 655              	.LBE159:
 656              	.LBE158:
 657              		.loc 1 300 0
 658 002c 2846     		mov	r0, r5
 659 002e 70BD     		pop	{r4, r5, r6, pc}
 660              	.LVL58:
 661              	.L30:
 662              	.LBB161:
 663              	.LBB160:
 664              		.loc 1 292 0
 665 0030 6368     		ldr	r3, [r4, #4]
 666 0032 043B     		subs	r3, r3, #4
 667 0034 E360     		str	r3, [r4, #12]
 668 0036 F2E7     		b	.L28
 669              	.LBE160:
 670              	.LBE161:
 671              		.cfi_endproc
 672              	.LFE236:
 673              		.size	chMBPostAheadS, .-chMBPostAheadS
ARM GAS  /tmp/ccyGBXfz.s 			page 13


 674 0038 AFF30080 		.section	.text.chMBPostAheadI,"ax",%progbits
 674      AFF30080 
 675              		.align	2
 676              		.p2align 4,,15
 677              		.global	chMBPostAheadI
 678              		.thumb
 679              		.thumb_func
 680              		.type	chMBPostAheadI, %function
 681              	chMBPostAheadI:
 682              	.LFB237:
 683              		.loc 1 316 0
 684              		.cfi_startproc
 685              		@ args = 0, pretend = 0, frame = 0
 686              		@ frame_needed = 0, uses_anonymous_args = 0
 687              	.LVL59:
 688 0000 426A     		ldr	r2, [r0, #36]
 689              	.LVL60:
 690              		.loc 1 321 0
 691 0002 002A     		cmp	r2, #0
 692 0004 11DD     		ble	.L34
 693              	.LVL61:
 694              		.loc 1 325 0
 695 0006 C368     		ldr	r3, [r0, #12]
 696              		.loc 1 316 0
 697 0008 10B5     		push	{r4, lr}
 698              		.cfi_def_cfa_offset 8
 699              		.cfi_offset 4, -8
 700              		.cfi_offset 14, -4
 701              		.loc 1 325 0
 702 000a 0468     		ldr	r4, [r0]
 703 000c 043B     		subs	r3, r3, #4
 704              	.LBB162:
 705              	.LBB163:
 706              		.loc 3 122 0
 707 000e 013A     		subs	r2, r2, #1
 708              	.LBE163:
 709              	.LBE162:
 710              		.loc 1 325 0
 711 0010 A342     		cmp	r3, r4
 712              	.LBB165:
 713              	.LBB164:
 714              		.loc 3 122 0
 715 0012 4262     		str	r2, [r0, #36]
 716              	.LBE164:
 717              	.LBE165:
 718              		.loc 1 325 0
 719 0014 C360     		str	r3, [r0, #12]
 720 0016 02D2     		bcs	.L33
 721              		.loc 1 326 0
 722 0018 4368     		ldr	r3, [r0, #4]
 723 001a 043B     		subs	r3, r3, #4
 724 001c C360     		str	r3, [r0, #12]
 725              	.L33:
 726              		.loc 1 328 0
 727 001e 1960     		str	r1, [r3]
 728              		.loc 1 329 0
 729 0020 1030     		adds	r0, r0, #16
ARM GAS  /tmp/ccyGBXfz.s 			page 14


 730              	.LVL62:
 731 0022 FFF7FEFF 		bl	chSemSignalI
 732              	.LVL63:
 733              		.loc 1 331 0
 734 0026 0020     		movs	r0, #0
 735 0028 10BD     		pop	{r4, pc}
 736              	.LVL64:
 737              	.L34:
 738              		.cfi_def_cfa_offset 0
 739              		.cfi_restore 4
 740              		.cfi_restore 14
 741              		.loc 1 322 0
 742 002a 4FF0FF30 		mov	r0, #-1
 743              	.LVL65:
 744 002e 7047     		bx	lr
 745              		.cfi_endproc
 746              	.LFE237:
 747              		.size	chMBPostAheadI, .-chMBPostAheadI
 748              		.section	.text.chMBFetch,"ax",%progbits
 749              		.align	2
 750              		.p2align 4,,15
 751              		.global	chMBFetch
 752              		.thumb
 753              		.thumb_func
 754              		.type	chMBFetch, %function
 755              	chMBFetch:
 756              	.LFB238:
 757              		.loc 1 353 0
 758              		.cfi_startproc
 759              		@ args = 0, pretend = 0, frame = 0
 760              		@ frame_needed = 0, uses_anonymous_args = 0
 761              	.LVL66:
 762 0000 70B5     		push	{r4, r5, r6, lr}
 763              		.cfi_def_cfa_offset 16
 764              		.cfi_offset 4, -16
 765              		.cfi_offset 5, -12
 766              		.cfi_offset 6, -8
 767              		.cfi_offset 14, -4
 768              	.LBB179:
 769              	.LBB180:
 770              	.LBB181:
 771              	.LBB182:
 772              		.loc 2 546 0
 773 0002 2023     		movs	r3, #32
 774              	.LBE182:
 775              	.LBE181:
 776              	.LBE180:
 777              	.LBE179:
 778              		.loc 1 353 0
 779 0004 0446     		mov	r4, r0
 780 0006 0E46     		mov	r6, r1
 781              	.LVL67:
 782              	.LBB186:
 783              	.LBB185:
 784              	.LBB184:
 785              	.LBB183:
 786              		.loc 2 546 0
ARM GAS  /tmp/ccyGBXfz.s 			page 15


 787              		.syntax unified
 788              	@ 546 "../../os/ext/CMSIS/include/core_cmFunc.h" 1
 789 0008 83F31188 		MSR basepri, r3
 790              	@ 0 "" 2
 791              	.LVL68:
 792              		.thumb
 793              		.syntax unified
 794              	.LBE183:
 795              	.LBE184:
 796              	.LBE185:
 797              	.LBE186:
 798              	.LBB187:
 799              	.LBB188:
 800              		.loc 1 388 0
 801 000c 1146     		mov	r1, r2
 802              	.LVL69:
 803 000e 1030     		adds	r0, r0, #16
 804              	.LVL70:
 805 0010 FFF7FEFF 		bl	chSemWaitTimeoutS
 806              	.LVL71:
 807              		.loc 1 389 0
 808 0014 0546     		mov	r5, r0
 809 0016 80B9     		cbnz	r0, .L38
 810              	.LVL72:
 811              	.LBB189:
 812              	.LBB190:
 813              		.loc 1 390 0
 814 0018 E368     		ldr	r3, [r4, #12]
 815              		.loc 1 391 0
 816 001a 6268     		ldr	r2, [r4, #4]
 817              		.loc 1 390 0
 818 001c 1968     		ldr	r1, [r3]
 819 001e 0433     		adds	r3, r3, #4
 820              		.loc 1 391 0
 821 0020 9342     		cmp	r3, r2
 822              		.loc 1 390 0
 823 0022 E360     		str	r3, [r4, #12]
 824              		.loc 1 392 0
 825 0024 28BF     		it	cs
 826 0026 2368     		ldrcs	r3, [r4]
 827              		.loc 1 390 0
 828 0028 3160     		str	r1, [r6]
 829              		.loc 1 394 0
 830 002a 04F11C00 		add	r0, r4, #28
 831              	.LVL73:
 832              		.loc 1 392 0
 833 002e 28BF     		it	cs
 834 0030 E360     		strcs	r3, [r4, #12]
 835              		.loc 1 394 0
 836 0032 FFF7FEFF 		bl	chSemSignalI
 837              	.LVL74:
 838              		.loc 1 395 0
 839 0036 FFF7FEFF 		bl	chSchRescheduleS
 840              	.LVL75:
 841              	.L38:
 842              	.LBE190:
 843              	.LBE189:
ARM GAS  /tmp/ccyGBXfz.s 			page 16


 844              	.LBE188:
 845              	.LBE187:
 846              	.LBB191:
 847              	.LBB192:
 848              	.LBB193:
 849              	.LBB194:
 850              	.LBB195:
 851              		.loc 2 546 0
 852 003a 0023     		movs	r3, #0
 853              		.syntax unified
 854              	@ 546 "../../os/ext/CMSIS/include/core_cmFunc.h" 1
 855 003c 83F31188 		MSR basepri, r3
 856              	@ 0 "" 2
 857              		.thumb
 858              		.syntax unified
 859              	.LBE195:
 860              	.LBE194:
 861              	.LBE193:
 862              	.LBE192:
 863              	.LBE191:
 864              		.loc 1 361 0
 865 0040 2846     		mov	r0, r5
 866 0042 70BD     		pop	{r4, r5, r6, pc}
 867              		.cfi_endproc
 868              	.LFE238:
 869              		.size	chMBFetch, .-chMBFetch
 870 0044 AFF30080 		.section	.text.chMBFetchS,"ax",%progbits
 870      AFF30080 
 870      AFF30080 
 871              		.align	2
 872              		.p2align 4,,15
 873              		.global	chMBFetchS
 874              		.thumb
 875              		.thumb_func
 876              		.type	chMBFetchS, %function
 877              	chMBFetchS:
 878              	.LFB239:
 879              		.loc 1 382 0
 880              		.cfi_startproc
 881              		@ args = 0, pretend = 0, frame = 0
 882              		@ frame_needed = 0, uses_anonymous_args = 0
 883              	.LVL76:
 884 0000 70B5     		push	{r4, r5, r6, lr}
 885              		.cfi_def_cfa_offset 16
 886              		.cfi_offset 4, -16
 887              		.cfi_offset 5, -12
 888              		.cfi_offset 6, -8
 889              		.cfi_offset 14, -4
 890              		.loc 1 382 0
 891 0002 0446     		mov	r4, r0
 892 0004 0E46     		mov	r6, r1
 893              		.loc 1 388 0
 894 0006 1030     		adds	r0, r0, #16
 895              	.LVL77:
 896 0008 1146     		mov	r1, r2
 897              	.LVL78:
 898 000a FFF7FEFF 		bl	chSemWaitTimeoutS
ARM GAS  /tmp/ccyGBXfz.s 			page 17


 899              	.LVL79:
 900              		.loc 1 389 0
 901 000e 0546     		mov	r5, r0
 902 0010 80B9     		cbnz	r0, .L42
 903              	.LVL80:
 904              	.LBB198:
 905              	.LBB199:
 906              		.loc 1 390 0
 907 0012 E368     		ldr	r3, [r4, #12]
 908              		.loc 1 391 0
 909 0014 6268     		ldr	r2, [r4, #4]
 910              		.loc 1 390 0
 911 0016 1968     		ldr	r1, [r3]
 912 0018 0433     		adds	r3, r3, #4
 913              		.loc 1 391 0
 914 001a 9342     		cmp	r3, r2
 915              		.loc 1 390 0
 916 001c E360     		str	r3, [r4, #12]
 917              		.loc 1 392 0
 918 001e 28BF     		it	cs
 919 0020 2368     		ldrcs	r3, [r4]
 920              		.loc 1 390 0
 921 0022 3160     		str	r1, [r6]
 922              		.loc 1 394 0
 923 0024 04F11C00 		add	r0, r4, #28
 924              	.LVL81:
 925              		.loc 1 392 0
 926 0028 28BF     		it	cs
 927 002a E360     		strcs	r3, [r4, #12]
 928              		.loc 1 394 0
 929 002c FFF7FEFF 		bl	chSemSignalI
 930              	.LVL82:
 931              		.loc 1 395 0
 932 0030 FFF7FEFF 		bl	chSchRescheduleS
 933              	.LVL83:
 934              	.L42:
 935              	.LBE199:
 936              	.LBE198:
 937              		.loc 1 399 0
 938 0034 2846     		mov	r0, r5
 939 0036 70BD     		pop	{r4, r5, r6, pc}
 940              		.cfi_endproc
 941              	.LFE239:
 942              		.size	chMBFetchS, .-chMBFetchS
 943 0038 AFF30080 		.section	.text.chMBFetchI,"ax",%progbits
 943      AFF30080 
 944              		.align	2
 945              		.p2align 4,,15
 946              		.global	chMBFetchI
 947              		.thumb
 948              		.thumb_func
 949              		.type	chMBFetchI, %function
 950              	chMBFetchI:
 951              	.LFB240:
 952              		.loc 1 415 0
 953              		.cfi_startproc
 954              		@ args = 0, pretend = 0, frame = 0
ARM GAS  /tmp/ccyGBXfz.s 			page 18


 955              		@ frame_needed = 0, uses_anonymous_args = 0
 956              	.LVL84:
 957 0000 8369     		ldr	r3, [r0, #24]
 958              	.LVL85:
 959              		.loc 1 420 0
 960 0002 002B     		cmp	r3, #0
 961 0004 14DD     		ble	.L48
 962              	.LVL86:
 963              	.LBB200:
 964              	.LBB201:
 965              		.loc 3 122 0
 966 0006 5A1E     		subs	r2, r3, #1
 967              	.LBE201:
 968              	.LBE200:
 969              		.loc 1 424 0
 970 0008 C368     		ldr	r3, [r0, #12]
 971              		.loc 1 415 0
 972 000a 10B5     		push	{r4, lr}
 973              		.cfi_def_cfa_offset 8
 974              		.cfi_offset 4, -8
 975              		.cfi_offset 14, -4
 976              	.LBB203:
 977              	.LBB202:
 978              		.loc 3 122 0
 979 000c 8261     		str	r2, [r0, #24]
 980              	.LBE202:
 981              	.LBE203:
 982              		.loc 1 425 0
 983 000e 4268     		ldr	r2, [r0, #4]
 984              		.loc 1 424 0
 985 0010 1C68     		ldr	r4, [r3]
 986 0012 0433     		adds	r3, r3, #4
 987              		.loc 1 425 0
 988 0014 9342     		cmp	r3, r2
 989              		.loc 1 424 0
 990 0016 C360     		str	r3, [r0, #12]
 991              		.loc 1 426 0
 992 0018 28BF     		it	cs
 993 001a 0368     		ldrcs	r3, [r0]
 994              		.loc 1 424 0
 995 001c 0C60     		str	r4, [r1]
 996              		.loc 1 428 0
 997 001e 00F11C00 		add	r0, r0, #28
 998              	.LVL87:
 999              		.loc 1 426 0
 1000 0022 28BF     		it	cs
 1001 0024 40F8103C 		strcs	r3, [r0, #-16]
 1002              		.loc 1 428 0
 1003 0028 FFF7FEFF 		bl	chSemSignalI
 1004              	.LVL88:
 1005              		.loc 1 430 0
 1006 002c 0020     		movs	r0, #0
 1007 002e 10BD     		pop	{r4, pc}
 1008              	.LVL89:
 1009              	.L48:
 1010              		.cfi_def_cfa_offset 0
 1011              		.cfi_restore 4
ARM GAS  /tmp/ccyGBXfz.s 			page 19


 1012              		.cfi_restore 14
 1013              		.loc 1 421 0
 1014 0030 4FF0FF30 		mov	r0, #-1
 1015              	.LVL90:
 1016 0034 7047     		bx	lr
 1017              		.cfi_endproc
 1018              	.LFE240:
 1019              		.size	chMBFetchI, .-chMBFetchI
 1020 0036 00BFAFF3 		.text
 1020      0080AFF3 
 1020      0080
 1021              	.Letext0:
 1022              		.file 4 "/usr/arm-none-eabi/include/machine/_default_types.h"
 1023              		.file 5 "/usr/arm-none-eabi/include/stdint.h"
 1024              		.file 6 "../../os/rt/ports/ARMCMx/compilers/GCC/chtypes.h"
 1025              		.file 7 "../../os/rt/include/chsystypes.h"
 1026              		.file 8 "../../os/rt/include/chschd.h"
 1027              		.file 9 "../../os/rt/ports/ARMCMx/chcore.h"
 1028              		.file 10 "../../os/rt/ports/ARMCMx/chcore_v7m.h"
 1029              		.file 11 "../../os/rt/include/chtm.h"
 1030              		.file 12 "../../os/rt/include/chmtx.h"
 1031              		.file 13 "../../os/rt/include/chmboxes.h"
 1032              		.file 14 "../../os/rt/include/chsys.h"
 1033              		.file 15 "../../os/ext/CMSIS/include/core_cm4.h"