ARM GAS  /tmp/ccVzq0iG.s 			page 1


   1              		.syntax unified
   2              		.cpu cortex-m4
   3              		.eabi_attribute 27, 1
   4              		.eabi_attribute 28, 1
   5              		.fpu fpv4-sp-d16
   6              		.eabi_attribute 20, 1
   7              		.eabi_attribute 21, 1
   8              		.eabi_attribute 23, 3
   9              		.eabi_attribute 24, 1
  10              		.eabi_attribute 25, 1
  11              		.eabi_attribute 26, 1
  12              		.eabi_attribute 30, 2
  13              		.eabi_attribute 34, 1
  14              		.eabi_attribute 18, 4
  15              		.thumb
  16              		.syntax unified
  17              		.file	"main.c"
  18              		.text
  19              	.Ltext0:
  20              		.cfi_sections	.debug_frame
  21              		.section	.text.adcerrorcallback,"ax",%progbits
  22              		.align	2
  23              		.p2align 4,,15
  24              		.thumb
  25              		.thumb_func
  26              		.type	adcerrorcallback, %function
  27              	adcerrorcallback:
  28              	.LFB275:
  29              		.file 1 "main.c"
  30              		.loc 1 40 0
  31              		.cfi_startproc
  32              		@ args = 0, pretend = 0, frame = 0
  33              		@ frame_needed = 0, uses_anonymous_args = 0
  34              		@ link register save eliminated.
  35              	.LVL0:
  36 0000 7047     		bx	lr
  37              		.cfi_endproc
  38              	.LFE275:
  39              		.size	adcerrorcallback, .-adcerrorcallback
  40 0002 00BFAFF3 		.section	.text.Thread1,"ax",%progbits
  40      0080AFF3 
  40      0080AFF3 
  40      0080
  41              		.align	2
  42              		.p2align 4,,15
  43              		.thumb
  44              		.thumb_func
  45              		.type	Thread1, %function
  46              	Thread1:
  47              	.LFB276:
  48              		.loc 1 71 0
  49              		.cfi_startproc
  50              		@ Volatile: function does not return.
  51              		@ args = 0, pretend = 0, frame = 0
  52              		@ frame_needed = 0, uses_anonymous_args = 0
  53              	.LVL1:
  54              		.loc 1 71 0
ARM GAS  /tmp/ccVzq0iG.s 			page 2


  55 0000 08B5     		push	{r3, lr}
  56              		.cfi_def_cfa_offset 8
  57              		.cfi_offset 3, -8
  58              		.cfi_offset 14, -4
  59              	.LBB66:
  60              	.LBB67:
  61              		.file 2 "../../os/rt/include/chregistry.h"
  62              		.loc 2 135 0
  63 0002 094B     		ldr	r3, .L6
  64 0004 094A     		ldr	r2, .L6+4
  65 0006 9B69     		ldr	r3, [r3, #24]
  66              	.LBE67:
  67              	.LBE66:
  68              		.loc 1 76 0
  69 0008 094C     		ldr	r4, .L6+8
  70              	.LBB69:
  71              	.LBB68:
  72              		.loc 2 135 0
  73 000a 9A61     		str	r2, [r3, #24]
  74              	.LBE68:
  75              	.LBE69:
  76              		.loc 1 76 0
  77 000c 4FF40055 		mov	r5, #8192
  78 0010 2E46     		mov	r6, r5	@ movhi
  79              	.LVL2:
  80              	.L3:
  81              		.loc 1 76 0 is_stmt 0 discriminator 1
  82 0012 2683     		strh	r6, [r4, #24]	@ movhi
  83              		.loc 1 77 0 is_stmt 1 discriminator 1
  84 0014 42F21070 		movw	r0, #10000
  85 0018 FFF7FEFF 		bl	chThdSleep
  86              	.LVL3:
  87              		.loc 1 78 0 discriminator 1
  88 001c 6583     		strh	r5, [r4, #26]	@ movhi
  89              		.loc 1 79 0 discriminator 1
  90 001e 42F21070 		movw	r0, #10000
  91 0022 FFF7FEFF 		bl	chThdSleep
  92              	.LVL4:
  93 0026 F4E7     		b	.L3
  94              	.L7:
  95              		.align	2
  96              	.L6:
  97 0028 00000000 		.word	ch
  98 002c 00000000 		.word	.LC0
  99 0030 00080240 		.word	1073874944
 100              		.cfi_endproc
 101              	.LFE276:
 102              		.size	Thread1, .-Thread1
 103 0034 AFF30080 		.section	.text.chprintf.constprop.0,"ax",%progbits
 103      AFF30080 
 103      AFF30080 
 104              		.align	2
 105              		.p2align 4,,15
 106              		.thumb
 107              		.thumb_func
 108              		.type	chprintf.constprop.0, %function
 109              	chprintf.constprop.0:
ARM GAS  /tmp/ccVzq0iG.s 			page 3


 110              	.LFB280:
 111              		.file 3 "../../os/hal/lib/streams/chprintf.h"
 112              		.loc 3 69 0
 113              		.cfi_startproc
 114              		@ args = 4, pretend = 12, frame = 8
 115              		@ frame_needed = 0, uses_anonymous_args = 1
 116              	.LVL5:
 117 0000 0EB4     		push	{r1, r2, r3}
 118              		.cfi_def_cfa_offset 12
 119              		.cfi_offset 1, -12
 120              		.cfi_offset 2, -8
 121              		.cfi_offset 3, -4
 122 0002 00B5     		push	{lr}
 123              		.cfi_def_cfa_offset 16
 124              		.cfi_offset 14, -16
 125 0004 82B0     		sub	sp, sp, #8
 126              		.cfi_def_cfa_offset 24
 127              		.loc 3 69 0
 128 0006 03AA     		add	r2, sp, #12
 129              		.loc 3 74 0
 130 0008 0548     		ldr	r0, .L10
 131              	.LVL6:
 132              		.loc 3 69 0
 133 000a 52F8041B 		ldr	r1, [r2], #4
 134              		.loc 3 73 0
 135 000e 0192     		str	r2, [sp, #4]
 136              		.loc 3 74 0
 137 0010 FFF7FEFF 		bl	chvprintf
 138              	.LVL7:
 139              		.loc 3 78 0
 140 0014 02B0     		add	sp, sp, #8
 141              		.cfi_def_cfa_offset 16
 142              		@ sp needed
 143 0016 5DF804EB 		ldr	lr, [sp], #4
 144              		.cfi_restore 14
 145              		.cfi_def_cfa_offset 12
 146 001a 03B0     		add	sp, sp, #12
 147              		.cfi_restore 3
 148              		.cfi_restore 2
 149              		.cfi_restore 1
 150              		.cfi_def_cfa_offset 0
 151 001c 7047     		bx	lr
 152              	.L11:
 153 001e 00BF     		.align	2
 154              	.L10:
 155 0020 00000000 		.word	SD1
 156              		.cfi_endproc
 157              	.LFE280:
 158              		.size	chprintf.constprop.0, .-chprintf.constprop.0
 159 0024 AFF30080 		.section	.text.reverse,"ax",%progbits
 159      AFF30080 
 159      AFF30080 
 160              		.align	2
 161              		.p2align 4,,15
 162              		.global	reverse
 163              		.thumb
 164              		.thumb_func
ARM GAS  /tmp/ccVzq0iG.s 			page 4


 165              		.type	reverse, %function
 166              	reverse:
 167              	.LFB261:
 168              		.file 4 "ftoa.c"
 169              		.loc 4 7 0
 170              		.cfi_startproc
 171              		@ args = 0, pretend = 0, frame = 0
 172              		@ frame_needed = 0, uses_anonymous_args = 0
 173              		@ link register save eliminated.
 174              	.LVL8:
 175              		.loc 4 8 0
 176 0000 4B1E     		subs	r3, r1, #1
 177              	.LVL9:
 178              		.loc 4 9 0
 179 0002 002B     		cmp	r3, #0
 180 0004 11DD     		ble	.L19
 181              		.loc 4 7 0
 182 0006 70B4     		push	{r4, r5, r6}
 183              		.cfi_def_cfa_offset 12
 184              		.cfi_offset 4, -12
 185              		.cfi_offset 5, -8
 186              		.cfi_offset 6, -4
 187 0008 441E     		subs	r4, r0, #1
 188 000a 0144     		add	r1, r1, r0
 189              	.LVL10:
 190              		.loc 4 9 0
 191 000c 0022     		movs	r2, #0
 192 000e 2046     		mov	r0, r4
 193              	.LVL11:
 194              	.L14:
 195              		.loc 4 14 0
 196 0010 0132     		adds	r2, r2, #1
 197              	.LVL12:
 198 0012 013B     		subs	r3, r3, #1
 199              	.LVL13:
 200              		.loc 4 11 0
 201 0014 14F8015F 		ldrb	r5, [r4, #1]!	@ zero_extendqisi2
 202              	.LVL14:
 203              		.loc 4 12 0
 204 0018 11F8016C 		ldrb	r6, [r1, #-1]	@ zero_extendqisi2
 205 001c 00F8016F 		strb	r6, [r0, #1]!
 206              		.loc 4 9 0
 207 0020 9A42     		cmp	r2, r3
 208              		.loc 4 13 0
 209 0022 01F8015D 		strb	r5, [r1, #-1]!
 210              		.loc 4 9 0
 211 0026 F3DB     		blt	.L14
 212              		.loc 4 16 0
 213 0028 70BC     		pop	{r4, r5, r6}
 214              		.cfi_restore 6
 215              		.cfi_restore 5
 216              		.cfi_restore 4
 217              		.cfi_def_cfa_offset 0
 218              	.LVL15:
 219              	.L19:
 220 002a 7047     		bx	lr
 221              		.cfi_endproc
ARM GAS  /tmp/ccVzq0iG.s 			page 5


 222              	.LFE261:
 223              		.size	reverse, .-reverse
 224 002c AFF30080 		.section	.text.intToStr,"ax",%progbits
 225              		.align	2
 226              		.p2align 4,,15
 227              		.global	intToStr
 228              		.thumb
 229              		.thumb_func
 230              		.type	intToStr, %function
 231              	intToStr:
 232              	.LFB262:
 233              		.loc 4 22 0
 234              		.cfi_startproc
 235              		@ args = 0, pretend = 0, frame = 0
 236              		@ frame_needed = 0, uses_anonymous_args = 0
 237              	.LVL16:
 238 0000 F0B5     		push	{r4, r5, r6, r7, lr}
 239              		.cfi_def_cfa_offset 20
 240              		.cfi_offset 4, -20
 241              		.cfi_offset 5, -16
 242              		.cfi_offset 6, -12
 243              		.cfi_offset 7, -8
 244              		.cfi_offset 14, -4
 245              		.loc 4 24 0
 246 0002 0346     		mov	r3, r0
 247 0004 A0B3     		cbz	r0, .L21
 248              		.loc 4 26 0
 249 0006 1C4F     		ldr	r7, .L35
 250 0008 4D1E     		subs	r5, r1, #1
 251              		.loc 4 24 0
 252 000a 0020     		movs	r0, #0
 253              	.LVL17:
 254              	.L22:
 255              		.loc 4 26 0
 256 000c 87FB0346 		smull	r4, r6, r7, r3
 257 0010 DC17     		asrs	r4, r3, #31
 258 0012 C4EBA604 		rsb	r4, r4, r6, asr #2
 259 0016 04EB8406 		add	r6, r4, r4, lsl #2
 260 001a A3EB4603 		sub	r3, r3, r6, lsl #1
 261              	.LVL18:
 262 001e 3033     		adds	r3, r3, #48
 263 0020 05F8013F 		strb	r3, [r5, #1]!
 264 0024 0130     		adds	r0, r0, #1
 265              	.LVL19:
 266              		.loc 4 24 0
 267 0026 2346     		mov	r3, r4
 268 0028 002C     		cmp	r4, #0
 269 002a EFD1     		bne	.L22
 270              		.loc 4 32 0
 271 002c 9042     		cmp	r0, r2
 272 002e 06DA     		bge	.L23
 273              	.LVL20:
 274              	.L28:
 275 0030 0B18     		adds	r3, r1, r0
 276              	.LVL21:
 277              		.loc 4 33 0
 278 0032 3024     		movs	r4, #48
ARM GAS  /tmp/ccVzq0iG.s 			page 6


 279              	.L24:
 280              	.LVL22:
 281 0034 0130     		adds	r0, r0, #1
 282              	.LVL23:
 283              		.loc 4 32 0
 284 0036 8242     		cmp	r2, r0
 285              		.loc 4 33 0
 286 0038 03F8014B 		strb	r4, [r3], #1
 287              		.loc 4 32 0
 288 003c FADC     		bgt	.L24
 289              	.L23:
 290              	.LVL24:
 291              	.LBB70:
 292              	.LBB71:
 293              		.loc 4 8 0
 294 003e 421E     		subs	r2, r0, #1
 295              	.LVL25:
 296              		.loc 4 9 0
 297 0040 002A     		cmp	r2, #0
 298 0042 D8BF     		it	le
 299 0044 0346     		movle	r3, r0
 300 0046 10DD     		ble	.L26
 301 0048 4E1E     		subs	r6, r1, #1
 302 004a 3746     		mov	r7, r6
 303 004c 0346     		mov	r3, r0
 304 004e 0D18     		adds	r5, r1, r0
 305 0050 0024     		movs	r4, #0
 306              	.LVL26:
 307              	.L27:
 308              		.loc 4 14 0
 309 0052 0134     		adds	r4, r4, #1
 310              	.LVL27:
 311 0054 013A     		subs	r2, r2, #1
 312              	.LVL28:
 313              		.loc 4 11 0
 314 0056 17F801EF 		ldrb	lr, [r7, #1]!	@ zero_extendqisi2
 315              	.LVL29:
 316              		.loc 4 12 0
 317 005a 15F801CC 		ldrb	ip, [r5, #-1]	@ zero_extendqisi2
 318 005e 06F801CF 		strb	ip, [r6, #1]!
 319              		.loc 4 9 0
 320 0062 9442     		cmp	r4, r2
 321              		.loc 4 13 0
 322 0064 05F801ED 		strb	lr, [r5, #-1]!
 323              		.loc 4 9 0
 324 0068 F3DB     		blt	.L27
 325              	.LVL30:
 326              	.L26:
 327              	.LBE71:
 328              	.LBE70:
 329              		.loc 4 36 0
 330 006a 0022     		movs	r2, #0
 331 006c CA54     		strb	r2, [r1, r3]
 332              		.loc 4 38 0
 333 006e F0BD     		pop	{r4, r5, r6, r7, pc}
 334              	.LVL31:
 335              	.L21:
ARM GAS  /tmp/ccVzq0iG.s 			page 7


 336              		.loc 4 32 0
 337 0070 002A     		cmp	r2, #0
 338 0072 DDDC     		bgt	.L28
 339 0074 F9E7     		b	.L26
 340              	.L36:
 341 0076 00BF     		.align	2
 342              	.L35:
 343 0078 67666666 		.word	1717986919
 344              		.cfi_endproc
 345              	.LFE262:
 346              		.size	intToStr, .-intToStr
 347              		.global	__aeabi_i2d
 348              		.global	__aeabi_f2d
 349              		.global	__aeabi_dmul
 350              		.global	__aeabi_d2f
 351 007c AFF30080 		.section	.text.ftoa,"ax",%progbits
 352              		.align	2
 353              		.p2align 4,,15
 354              		.global	ftoa
 355              		.thumb
 356              		.thumb_func
 357              		.type	ftoa, %function
 358              	ftoa:
 359              	.LFB263:
 360              		.loc 4 42 0
 361              		.cfi_startproc
 362              		@ args = 0, pretend = 0, frame = 8
 363              		@ frame_needed = 0, uses_anonymous_args = 0
 364              	.LVL32:
 365 0000 70B5     		push	{r4, r5, r6, lr}
 366              		.cfi_def_cfa_offset 16
 367              		.cfi_offset 4, -16
 368              		.cfi_offset 5, -12
 369              		.cfi_offset 6, -8
 370              		.cfi_offset 14, -4
 371 0002 2DED028B 		vpush.64	{d8}
 372              		.cfi_def_cfa_offset 24
 373              		.cfi_offset 80, -24
 374              		.cfi_offset 81, -20
 375              		.loc 4 44 0
 376 0006 BDEEC08A 		vcvt.s32.f32	s16, s0
 377              	.LVL33:
 378              		.loc 4 42 0
 379 000a 0646     		mov	r6, r0
 380 000c 0D46     		mov	r5, r1
 381 000e 82B0     		sub	sp, sp, #8
 382              		.cfi_def_cfa_offset 32
 383              		.loc 4 50 0
 384 0010 18EE100A 		vmov	r0, s16	@ int
 385              	.LVL34:
 386 0014 3146     		mov	r1, r6
 387              	.LVL35:
 388 0016 0022     		movs	r2, #0
 389 0018 FFF7FEFF 		bl	intToStr
 390              	.LVL36:
 391              		.loc 4 53 0
 392 001c 1DB9     		cbnz	r5, .L40
ARM GAS  /tmp/ccVzq0iG.s 			page 8


 393              		.loc 4 64 0
 394 001e 02B0     		add	sp, sp, #8
 395              		.cfi_remember_state
 396              		.cfi_def_cfa_offset 24
 397              		@ sp needed
 398 0020 BDEC028B 		vldm	sp!, {d8}
 399              		.cfi_restore 80
 400              		.cfi_restore 81
 401              		.cfi_def_cfa_offset 16
 402              	.LVL37:
 403 0024 70BD     		pop	{r4, r5, r6, pc}
 404              	.LVL38:
 405              	.L40:
 406              		.cfi_restore_state
 407              		.loc 4 55 0
 408 0026 2E23     		movs	r3, #46
 409 0028 3354     		strb	r3, [r6, r0]
 410 002a 0446     		mov	r4, r0
 411              	.LVL39:
 412              		.loc 4 60 0
 413 002c 2846     		mov	r0, r5
 414 002e F0EE408A 		vmov.f32	s17, s0
 415              	.LVL40:
 416 0032 FFF7FEFF 		bl	__aeabi_i2d
 417              	.LVL41:
 418 0036 9FED140B 		vldr.64	d0, .L41
 419 003a 41EC110B 		vmov	d1, r0, r1
 420 003e FFF7FEFF 		bl	pow
 421              	.LVL42:
 422 0042 B8EEC88A 		vcvt.f32.s32	s16, s16
 423              	.LVL43:
 424 0046 53EC102B 		vmov	r2, r3, d0
 425 004a 78EEC87A 		vsub.f32	s15, s17, s16
 426 004e CDE90023 		strd	r2, [sp]
 427 0052 17EE900A 		vmov	r0, s15
 428 0056 FFF7FEFF 		bl	__aeabi_f2d
 429              	.LVL44:
 430 005a DDE90023 		ldrd	r2, [sp]
 431 005e FFF7FEFF 		bl	__aeabi_dmul
 432              	.LVL45:
 433              		.loc 4 62 0
 434 0062 FFF7FEFF 		bl	__aeabi_d2f
 435              	.LVL46:
 436 0066 07EE900A 		vmov	s15, r0
 437 006a FDEEE77A 		vcvt.s32.f32	s15, s15
 438 006e 0134     		adds	r4, r4, #1
 439 0070 3444     		add	r4, r4, r6
 440 0072 17EE900A 		vmov	r0, s15	@ int
 441 0076 2A46     		mov	r2, r5
 442 0078 2146     		mov	r1, r4
 443              		.loc 4 64 0
 444 007a 02B0     		add	sp, sp, #8
 445              		.cfi_def_cfa_offset 24
 446              		@ sp needed
 447 007c BDEC028B 		vldm	sp!, {d8}
 448              		.cfi_restore 80
 449              		.cfi_restore 81
ARM GAS  /tmp/ccVzq0iG.s 			page 9


 450              		.cfi_def_cfa_offset 16
 451 0080 BDE87040 		pop	{r4, r5, r6, lr}
 452              		.cfi_restore 14
 453              		.cfi_restore 6
 454              		.cfi_restore 5
 455              		.cfi_restore 4
 456              		.cfi_def_cfa_offset 0
 457              	.LVL47:
 458              		.loc 4 62 0
 459 0084 FFF7FEBF 		b	intToStr
 460              	.LVL48:
 461              	.L42:
 462              		.align	3
 463              	.L41:
 464 0088 00000000 		.word	0
 465 008c 00002440 		.word	1076101120
 466              		.cfi_endproc
 467              	.LFE263:
 468              		.size	ftoa, .-ftoa
 469              		.section	.text.lcd_setio,"ax",%progbits
 470              		.align	2
 471              		.p2align 4,,15
 472              		.global	lcd_setio
 473              		.thumb
 474              		.thumb_func
 475              		.type	lcd_setio, %function
 476              	lcd_setio:
 477              	.LFB264:
 478              		.file 5 "lcd.c"
 479              		.loc 5 26 0
 480              		.cfi_startproc
 481              		@ args = 0, pretend = 0, frame = 0
 482              		@ frame_needed = 0, uses_anonymous_args = 0
 483 0000 10B5     		push	{r4, lr}
 484              		.cfi_def_cfa_offset 8
 485              		.cfi_offset 4, -8
 486              		.cfi_offset 14, -4
 487              		.loc 5 28 0
 488 0002 114C     		ldr	r4, .L45
 489 0004 0122     		movs	r2, #1
 490 0006 1146     		mov	r1, r2
 491 0008 2046     		mov	r0, r4
 492 000a FFF7FEFF 		bl	_pal_lld_setgroupmode
 493              	.LVL49:
 494              		.loc 5 29 0
 495 000e 0122     		movs	r2, #1
 496 0010 2021     		movs	r1, #32
 497 0012 0E48     		ldr	r0, .L45+4
 498 0014 FFF7FEFF 		bl	_pal_lld_setgroupmode
 499              	.LVL50:
 500              		.loc 5 31 0
 501 0018 2046     		mov	r0, r4
 502 001a 0122     		movs	r2, #1
 503 001c 0221     		movs	r1, #2
 504 001e FFF7FEFF 		bl	_pal_lld_setgroupmode
 505              	.LVL51:
 506              		.loc 5 32 0
ARM GAS  /tmp/ccVzq0iG.s 			page 10


 507 0022 2046     		mov	r0, r4
 508 0024 0122     		movs	r2, #1
 509 0026 0421     		movs	r1, #4
 510 0028 FFF7FEFF 		bl	_pal_lld_setgroupmode
 511              	.LVL52:
 512              		.loc 5 33 0
 513 002c 2046     		mov	r0, r4
 514 002e 0122     		movs	r2, #1
 515 0030 0821     		movs	r1, #8
 516 0032 FFF7FEFF 		bl	_pal_lld_setgroupmode
 517              	.LVL53:
 518              		.loc 5 34 0
 519 0036 2046     		mov	r0, r4
 520 0038 0122     		movs	r2, #1
 521 003a 1021     		movs	r1, #16
 522 003c FFF7FEFF 		bl	_pal_lld_setgroupmode
 523              	.LVL54:
 524              		.loc 5 36 0
 525 0040 0023     		movs	r3, #0
 526 0042 6361     		str	r3, [r4, #20]
 527 0044 10BD     		pop	{r4, pc}
 528              	.L46:
 529 0046 00BF     		.align	2
 530              	.L45:
 531 0048 00100240 		.word	1073876992
 532 004c 00040240 		.word	1073873920
 533              		.cfi_endproc
 534              	.LFE264:
 535              		.size	lcd_setio, .-lcd_setio
 536              		.section	.text.lcd_send_nibble,"ax",%progbits
 537              		.align	2
 538              		.p2align 4,,15
 539              		.global	lcd_send_nibble
 540              		.thumb
 541              		.thumb_func
 542              		.type	lcd_send_nibble, %function
 543              	lcd_send_nibble:
 544              	.LFB265:
 545              		.loc 5 42 0
 546              		.cfi_startproc
 547              		@ args = 0, pretend = 0, frame = 0
 548              		@ frame_needed = 0, uses_anonymous_args = 0
 549              		@ link register save eliminated.
 550              	.LVL55:
 551              		.loc 5 43 0
 552 0000 014B     		ldr	r3, .L48
 553 0002 4000     		lsls	r0, r0, #1
 554              	.LVL56:
 555 0004 5861     		str	r0, [r3, #20]
 556 0006 7047     		bx	lr
 557              	.L49:
 558              		.align	2
 559              	.L48:
 560 0008 00100240 		.word	1073876992
 561              		.cfi_endproc
 562              	.LFE265:
 563              		.size	lcd_send_nibble, .-lcd_send_nibble
ARM GAS  /tmp/ccVzq0iG.s 			page 11


 564 000c AFF30080 		.section	.text.lcd_pulsen,"ax",%progbits
 565              		.align	2
 566              		.p2align 4,,15
 567              		.global	lcd_pulsen
 568              		.thumb
 569              		.thumb_func
 570              		.type	lcd_pulsen, %function
 571              	lcd_pulsen:
 572              	.LFB266:
 573              		.loc 5 48 0
 574              		.cfi_startproc
 575              		@ args = 0, pretend = 0, frame = 0
 576              		@ frame_needed = 0, uses_anonymous_args = 0
 577 0000 38B5     		push	{r3, r4, r5, lr}
 578              		.cfi_def_cfa_offset 16
 579              		.cfi_offset 3, -16
 580              		.cfi_offset 4, -12
 581              		.cfi_offset 5, -8
 582              		.cfi_offset 14, -4
 583              		.loc 5 51 0
 584 0002 064D     		ldr	r5, .L52
 585 0004 0124     		movs	r4, #1
 586              		.loc 5 52 0
 587 0006 2046     		mov	r0, r4
 588              		.loc 5 51 0
 589 0008 2C83     		strh	r4, [r5, #24]	@ movhi
 590              		.loc 5 52 0
 591 000a FFF7FEFF 		bl	chThdSleep
 592              	.LVL57:
 593              		.loc 5 53 0
 594 000e 6C83     		strh	r4, [r5, #26]	@ movhi
 595              		.loc 5 54 0
 596 0010 2046     		mov	r0, r4
 597              		.loc 5 56 0
 598 0012 BDE83840 		pop	{r3, r4, r5, lr}
 599              		.cfi_restore 14
 600              		.cfi_restore 5
 601              		.cfi_restore 4
 602              		.cfi_restore 3
 603              		.cfi_def_cfa_offset 0
 604              		.loc 5 54 0
 605 0016 FFF7FEBF 		b	chThdSleep
 606              	.LVL58:
 607              	.L53:
 608 001a 00BF     		.align	2
 609              	.L52:
 610 001c 00100240 		.word	1073876992
 611              		.cfi_endproc
 612              	.LFE266:
 613              		.size	lcd_pulsen, .-lcd_pulsen
 614              		.section	.text.lcd_sendByte,"ax",%progbits
 615              		.align	2
 616              		.p2align 4,,15
 617              		.global	lcd_sendByte
 618              		.thumb
 619              		.thumb_func
 620              		.type	lcd_sendByte, %function
ARM GAS  /tmp/ccVzq0iG.s 			page 12


 621              	lcd_sendByte:
 622              	.LFB267:
 623              		.loc 5 57 0
 624              		.cfi_startproc
 625              		@ args = 0, pretend = 0, frame = 0
 626              		@ frame_needed = 0, uses_anonymous_args = 0
 627              	.LVL59:
 628 0000 38B5     		push	{r3, r4, r5, lr}
 629              		.cfi_def_cfa_offset 16
 630              		.cfi_offset 3, -16
 631              		.cfi_offset 4, -12
 632              		.cfi_offset 5, -8
 633              		.cfi_offset 14, -4
 634              	.LBB72:
 635              	.LBB73:
 636              		.loc 5 43 0
 637 0002 074D     		ldr	r5, .L56
 638              	.LBE73:
 639              	.LBE72:
 640              		.loc 5 57 0
 641 0004 0446     		mov	r4, r0
 642              	.LVL60:
 643              	.LBB76:
 644              	.LBB74:
 645              		.loc 5 43 0
 646 0006 0309     		lsrs	r3, r0, #4
 647 0008 5B00     		lsls	r3, r3, #1
 648              	.LBE74:
 649              	.LBE76:
 650              	.LBB77:
 651              	.LBB78:
 652 000a 04F00F04 		and	r4, r4, #15
 653              	.LBE78:
 654              	.LBE77:
 655              	.LBB81:
 656              	.LBB75:
 657 000e 6B61     		str	r3, [r5, #20]
 658              	.LBE75:
 659              	.LBE81:
 660              	.LBB82:
 661              	.LBB79:
 662 0010 6400     		lsls	r4, r4, #1
 663              	.LBE79:
 664              	.LBE82:
 665              		.loc 5 63 0
 666 0012 FFF7FEFF 		bl	lcd_pulsen
 667              	.LVL61:
 668              	.LBB83:
 669              	.LBB80:
 670              		.loc 5 43 0
 671 0016 6C61     		str	r4, [r5, #20]
 672              	.LBE80:
 673              	.LBE83:
 674              		.loc 5 70 0
 675 0018 BDE83840 		pop	{r3, r4, r5, lr}
 676              		.cfi_restore 14
 677              		.cfi_restore 5
ARM GAS  /tmp/ccVzq0iG.s 			page 13


 678              		.cfi_restore 4
 679              		.cfi_restore 3
 680              		.cfi_def_cfa_offset 0
 681              		.loc 5 68 0
 682 001c FFF7FEBF 		b	lcd_pulsen
 683              	.LVL62:
 684              	.L57:
 685              		.align	2
 686              	.L56:
 687 0020 00100240 		.word	1073876992
 688              		.cfi_endproc
 689              	.LFE267:
 690              		.size	lcd_sendByte, .-lcd_sendByte
 691 0024 AFF30080 		.section	.text.lcd_sendChar,"ax",%progbits
 691      AFF30080 
 691      AFF30080 
 692              		.align	2
 693              		.p2align 4,,15
 694              		.global	lcd_sendChar
 695              		.thumb
 696              		.thumb_func
 697              		.type	lcd_sendChar, %function
 698              	lcd_sendChar:
 699              	.LFB268:
 700              		.loc 5 72 0
 701              		.cfi_startproc
 702              		@ args = 0, pretend = 0, frame = 0
 703              		@ frame_needed = 0, uses_anonymous_args = 0
 704              	.LVL63:
 705 0000 38B5     		push	{r3, r4, r5, lr}
 706              		.cfi_def_cfa_offset 16
 707              		.cfi_offset 3, -16
 708              		.cfi_offset 4, -12
 709              		.cfi_offset 5, -8
 710              		.cfi_offset 14, -4
 711              		.loc 5 74 0
 712 0002 054C     		ldr	r4, .L60
 713 0004 2025     		movs	r5, #32
 714 0006 2583     		strh	r5, [r4, #24]	@ movhi
 715              		.loc 5 75 0
 716 0008 FFF7FEFF 		bl	lcd_sendByte
 717              	.LVL64:
 718              		.loc 5 76 0
 719 000c 0120     		movs	r0, #1
 720 000e FFF7FEFF 		bl	chThdSleep
 721              	.LVL65:
 722              		.loc 5 77 0
 723 0012 6583     		strh	r5, [r4, #26]	@ movhi
 724 0014 38BD     		pop	{r3, r4, r5, pc}
 725              	.L61:
 726 0016 00BF     		.align	2
 727              	.L60:
 728 0018 00040240 		.word	1073873920
 729              		.cfi_endproc
 730              	.LFE268:
 731              		.size	lcd_sendChar, .-lcd_sendChar
 732 001c AFF30080 		.section	.text.lcd_cmd,"ax",%progbits
ARM GAS  /tmp/ccVzq0iG.s 			page 14


 733              		.align	2
 734              		.p2align 4,,15
 735              		.global	lcd_cmd
 736              		.thumb
 737              		.thumb_func
 738              		.type	lcd_cmd, %function
 739              	lcd_cmd:
 740              	.LFB269:
 741              		.loc 5 80 0
 742              		.cfi_startproc
 743              		@ args = 0, pretend = 0, frame = 0
 744              		@ frame_needed = 0, uses_anonymous_args = 0
 745              	.LVL66:
 746 0000 08B5     		push	{r3, lr}
 747              		.cfi_def_cfa_offset 8
 748              		.cfi_offset 3, -8
 749              		.cfi_offset 14, -4
 750              		.loc 5 82 0
 751 0002 054B     		ldr	r3, .L64
 752 0004 2022     		movs	r2, #32
 753 0006 5A83     		strh	r2, [r3, #26]	@ movhi
 754              		.loc 5 83 0
 755 0008 FFF7FEFF 		bl	lcd_sendByte
 756              	.LVL67:
 757              		.loc 5 84 0
 758 000c 0120     		movs	r0, #1
 759              		.loc 5 85 0
 760 000e BDE80840 		pop	{r3, lr}
 761              		.cfi_restore 14
 762              		.cfi_restore 3
 763              		.cfi_def_cfa_offset 0
 764              		.loc 5 84 0
 765 0012 FFF7FEBF 		b	chThdSleep
 766              	.LVL68:
 767              	.L65:
 768 0016 00BF     		.align	2
 769              	.L64:
 770 0018 00040240 		.word	1073873920
 771              		.cfi_endproc
 772              	.LFE269:
 773              		.size	lcd_cmd, .-lcd_cmd
 774 001c AFF30080 		.section	.text.lcd_init,"ax",%progbits
 775              		.align	2
 776              		.p2align 4,,15
 777              		.global	lcd_init
 778              		.thumb
 779              		.thumb_func
 780              		.type	lcd_init, %function
 781              	lcd_init:
 782              	.LFB270:
 783              		.loc 5 89 0
 784              		.cfi_startproc
 785              		@ args = 0, pretend = 0, frame = 0
 786              		@ frame_needed = 0, uses_anonymous_args = 0
 787 0000 38B5     		push	{r3, r4, r5, lr}
 788              		.cfi_def_cfa_offset 16
 789              		.cfi_offset 3, -16
ARM GAS  /tmp/ccVzq0iG.s 			page 15


 790              		.cfi_offset 4, -12
 791              		.cfi_offset 5, -8
 792              		.cfi_offset 14, -4
 793              	.LBB84:
 794              	.LBB85:
 795              		.loc 5 82 0
 796 0002 224C     		ldr	r4, .L68
 797 0004 2025     		movs	r5, #32
 798              	.LBE85:
 799              	.LBE84:
 800              		.loc 5 90 0
 801 0006 4FF47A70 		mov	r0, #1000
 802 000a FFF7FEFF 		bl	chThdSleep
 803              	.LVL69:
 804              	.LBB87:
 805              	.LBB86:
 806              		.loc 5 82 0
 807 000e 6583     		strh	r5, [r4, #26]	@ movhi
 808              		.loc 5 83 0
 809 0010 3320     		movs	r0, #51
 810 0012 FFF7FEFF 		bl	lcd_sendByte
 811              	.LVL70:
 812              		.loc 5 84 0
 813 0016 0120     		movs	r0, #1
 814 0018 FFF7FEFF 		bl	chThdSleep
 815              	.LVL71:
 816              	.LBE86:
 817              	.LBE87:
 818              		.loc 5 92 0
 819 001c 3220     		movs	r0, #50
 820 001e FFF7FEFF 		bl	chThdSleep
 821              	.LVL72:
 822              	.LBB88:
 823              	.LBB89:
 824              		.loc 5 82 0
 825 0022 6583     		strh	r5, [r4, #26]	@ movhi
 826              		.loc 5 83 0
 827 0024 3220     		movs	r0, #50
 828 0026 FFF7FEFF 		bl	lcd_sendByte
 829              	.LVL73:
 830              		.loc 5 84 0
 831 002a 0120     		movs	r0, #1
 832 002c FFF7FEFF 		bl	chThdSleep
 833              	.LVL74:
 834              	.LBE89:
 835              	.LBE88:
 836              		.loc 5 94 0
 837 0030 3220     		movs	r0, #50
 838 0032 FFF7FEFF 		bl	chThdSleep
 839              	.LVL75:
 840              	.LBB90:
 841              	.LBB91:
 842              		.loc 5 82 0
 843 0036 6583     		strh	r5, [r4, #26]	@ movhi
 844              		.loc 5 83 0
 845 0038 2820     		movs	r0, #40
 846 003a FFF7FEFF 		bl	lcd_sendByte
ARM GAS  /tmp/ccVzq0iG.s 			page 16


 847              	.LVL76:
 848              		.loc 5 84 0
 849 003e 0120     		movs	r0, #1
 850 0040 FFF7FEFF 		bl	chThdSleep
 851              	.LVL77:
 852              	.LBE91:
 853              	.LBE90:
 854              	.LBB92:
 855              	.LBB93:
 856              		.loc 5 82 0
 857 0044 6583     		strh	r5, [r4, #26]	@ movhi
 858              		.loc 5 83 0
 859 0046 0820     		movs	r0, #8
 860 0048 FFF7FEFF 		bl	lcd_sendByte
 861              	.LVL78:
 862              		.loc 5 84 0
 863 004c 0120     		movs	r0, #1
 864 004e FFF7FEFF 		bl	chThdSleep
 865              	.LVL79:
 866              	.LBE93:
 867              	.LBE92:
 868              	.LBB94:
 869              	.LBB95:
 870              		.loc 5 82 0
 871 0052 6583     		strh	r5, [r4, #26]	@ movhi
 872              		.loc 5 83 0
 873 0054 0120     		movs	r0, #1
 874 0056 FFF7FEFF 		bl	lcd_sendByte
 875              	.LVL80:
 876              		.loc 5 84 0
 877 005a 0120     		movs	r0, #1
 878 005c FFF7FEFF 		bl	chThdSleep
 879              	.LVL81:
 880              	.LBE95:
 881              	.LBE94:
 882              		.loc 5 98 0
 883 0060 1E20     		movs	r0, #30
 884 0062 FFF7FEFF 		bl	chThdSleep
 885              	.LVL82:
 886              	.LBB96:
 887              	.LBB97:
 888              		.loc 5 82 0
 889 0066 6583     		strh	r5, [r4, #26]	@ movhi
 890              		.loc 5 83 0
 891 0068 0620     		movs	r0, #6
 892 006a FFF7FEFF 		bl	lcd_sendByte
 893              	.LVL83:
 894              		.loc 5 84 0
 895 006e 0120     		movs	r0, #1
 896 0070 FFF7FEFF 		bl	chThdSleep
 897              	.LVL84:
 898              	.LBE97:
 899              	.LBE96:
 900              	.LBB98:
 901              	.LBB99:
 902              		.loc 5 82 0
 903 0074 6583     		strh	r5, [r4, #26]	@ movhi
ARM GAS  /tmp/ccVzq0iG.s 			page 17


 904              		.loc 5 83 0
 905 0076 0F20     		movs	r0, #15
 906 0078 FFF7FEFF 		bl	lcd_sendByte
 907              	.LVL85:
 908              		.loc 5 84 0
 909 007c 0120     		movs	r0, #1
 910 007e FFF7FEFF 		bl	chThdSleep
 911              	.LVL86:
 912              	.LBE99:
 913              	.LBE98:
 914              		.loc 5 103 0
 915 0082 3220     		movs	r0, #50
 916              		.loc 5 104 0
 917 0084 BDE83840 		pop	{r3, r4, r5, lr}
 918              		.cfi_restore 14
 919              		.cfi_restore 5
 920              		.cfi_restore 4
 921              		.cfi_restore 3
 922              		.cfi_def_cfa_offset 0
 923              		.loc 5 103 0
 924 0088 FFF7FEBF 		b	chThdSleep
 925              	.LVL87:
 926              	.L69:
 927              		.align	2
 928              	.L68:
 929 008c 00040240 		.word	1073873920
 930              		.cfi_endproc
 931              	.LFE270:
 932              		.size	lcd_init, .-lcd_init
 933              		.section	.text.lcd_printf,"ax",%progbits
 934              		.align	2
 935              		.p2align 4,,15
 936              		.global	lcd_printf
 937              		.thumb
 938              		.thumb_func
 939              		.type	lcd_printf, %function
 940              	lcd_printf:
 941              	.LFB271:
 942              		.loc 5 108 0
 943              		.cfi_startproc
 944              		@ args = 0, pretend = 0, frame = 0
 945              		@ frame_needed = 0, uses_anonymous_args = 0
 946              	.LVL88:
 947 0000 F8B5     		push	{r3, r4, r5, r6, r7, lr}
 948              		.cfi_def_cfa_offset 24
 949              		.cfi_offset 3, -24
 950              		.cfi_offset 4, -20
 951              		.cfi_offset 5, -16
 952              		.cfi_offset 6, -12
 953              		.cfi_offset 7, -8
 954              		.cfi_offset 14, -4
 955              		.loc 5 108 0
 956 0002 0446     		mov	r4, r0
 957              		.loc 5 109 0
 958 0004 0078     		ldrb	r0, [r0]	@ zero_extendqisi2
 959              	.LVL89:
 960 0006 68B1     		cbz	r0, .L70
ARM GAS  /tmp/ccVzq0iG.s 			page 18


 961              	.LBB100:
 962              	.LBB101:
 963              		.loc 5 74 0
 964 0008 2026     		movs	r6, #32
 965 000a 074D     		ldr	r5, .L76
 966 000c 3746     		mov	r7, r6	@ movhi
 967              	.LVL90:
 968              	.L72:
 969 000e 2F83     		strh	r7, [r5, #24]	@ movhi
 970              		.loc 5 75 0
 971 0010 FFF7FEFF 		bl	lcd_sendByte
 972              	.LVL91:
 973              		.loc 5 76 0
 974 0014 0120     		movs	r0, #1
 975 0016 FFF7FEFF 		bl	chThdSleep
 976              	.LVL92:
 977              		.loc 5 77 0
 978 001a 6E83     		strh	r6, [r5, #26]	@ movhi
 979              	.LBE101:
 980              	.LBE100:
 981              		.loc 5 109 0
 982 001c 14F8010F 		ldrb	r0, [r4, #1]!	@ zero_extendqisi2
 983              	.LVL93:
 984 0020 0028     		cmp	r0, #0
 985 0022 F4D1     		bne	.L72
 986              	.LVL94:
 987              	.L70:
 988 0024 F8BD     		pop	{r3, r4, r5, r6, r7, pc}
 989              	.L77:
 990 0026 00BF     		.align	2
 991              	.L76:
 992 0028 00040240 		.word	1073873920
 993              		.cfi_endproc
 994              	.LFE271:
 995              		.size	lcd_printf, .-lcd_printf
 996 002c AFF30080 		.section	.text.lcd_putint,"ax",%progbits
 997              		.align	2
 998              		.p2align 4,,15
 999              		.global	lcd_putint
 1000              		.thumb
 1001              		.thumb_func
 1002              		.type	lcd_putint, %function
 1003              	lcd_putint:
 1004              	.LFB272:
 1005              		.loc 5 115 0
 1006              		.cfi_startproc
 1007              		@ args = 0, pretend = 0, frame = 64
 1008              		@ frame_needed = 0, uses_anonymous_args = 0
 1009              	.LVL95:
 1010 0000 00B5     		push	{lr}
 1011              		.cfi_def_cfa_offset 4
 1012              		.cfi_offset 14, -4
 1013 0002 91B0     		sub	sp, sp, #68
 1014              		.cfi_def_cfa_offset 72
 1015              		.loc 5 117 0
 1016 0004 6846     		mov	r0, sp
 1017 0006 0221     		movs	r1, #2
ARM GAS  /tmp/ccVzq0iG.s 			page 19


 1018 0008 FFF7FEFF 		bl	ftoa
 1019              	.LVL96:
 1020              		.loc 5 119 0
 1021 000c 6846     		mov	r0, sp
 1022 000e FFF7FEFF 		bl	lcd_printf
 1023              	.LVL97:
 1024              		.loc 5 120 0
 1025 0012 11B0     		add	sp, sp, #68
 1026              		.cfi_def_cfa_offset 4
 1027              		@ sp needed
 1028 0014 5DF804FB 		ldr	pc, [sp], #4
 1029              		.cfi_endproc
 1030              	.LFE272:
 1031              		.size	lcd_putint, .-lcd_putint
 1032 0018 AFF30080 		.section	.text.fix_fft,"ax",%progbits
 1032      AFF30080 
 1033              		.align	2
 1034              		.p2align 4,,15
 1035              		.global	fix_fft
 1036              		.thumb
 1037              		.thumb_func
 1038              		.type	fix_fft, %function
 1039              	fix_fft:
 1040              	.LFB273:
 1041              		.file 6 "fft.c"
 1042              		.loc 6 86 0
 1043              		.cfi_startproc
 1044              		@ args = 0, pretend = 0, frame = 32
 1045              		@ frame_needed = 0, uses_anonymous_args = 0
 1046              	.LVL98:
 1047 0000 2DE9F04F 		push	{r4, r5, r6, r7, r8, r9, r10, fp, lr}
 1048              		.cfi_def_cfa_offset 36
 1049              		.cfi_offset 4, -36
 1050              		.cfi_offset 5, -32
 1051              		.cfi_offset 6, -28
 1052              		.cfi_offset 7, -24
 1053              		.cfi_offset 8, -20
 1054              		.cfi_offset 9, -16
 1055              		.cfi_offset 10, -12
 1056              		.cfi_offset 11, -8
 1057              		.cfi_offset 14, -4
 1058              		.loc 6 90 0
 1059 0004 0125     		movs	r5, #1
 1060              		.loc 6 86 0
 1061 0006 89B0     		sub	sp, sp, #36
 1062              		.cfi_def_cfa_offset 72
 1063              		.loc 6 90 0
 1064 0008 05FA02FB 		lsl	fp, r5, r2
 1065              	.LVL99:
 1066              		.loc 6 92 0
 1067 000c BBF5806F 		cmp	fp, #1024
 1068              		.loc 6 86 0
 1069 0010 0593     		str	r3, [sp, #20]
 1070              		.loc 6 92 0
 1071 0012 00F3C780 		bgt	.L99
 1072              		.loc 6 96 0
 1073 0016 0BF1FF34 		add	r4, fp, #-1
ARM GAS  /tmp/ccVzq0iG.s 			page 20


 1074              		.loc 6 100 0
 1075 001a 002C     		cmp	r4, #0
 1076 001c 8946     		mov	r9, r1
 1077              	.LVL100:
 1078 001e 40F3BA80 		ble	.L118
 1079 0022 8E1C     		adds	r6, r1, #2
 1080 0024 871C     		adds	r7, r0, #2
 1081              		.loc 6 100 0 is_stmt 0 discriminator 1
 1082 0026 0021     		movs	r1, #0
 1083              	.LVL101:
 1084              	.L86:
 1085 0028 5B46     		mov	r3, fp
 1086              	.L84:
 1087              	.LVL102:
 1088              		.loc 6 103 0 is_stmt 1 discriminator 1
 1089 002a 5B10     		asrs	r3, r3, #1
 1090              	.LVL103:
 1091              		.loc 6 104 0 discriminator 1
 1092 002c CA18     		adds	r2, r1, r3
 1093 002e 9442     		cmp	r4, r2
 1094 0030 FBDB     		blt	.L84
 1095              		.loc 6 105 0
 1096 0032 5A1E     		subs	r2, r3, #1
 1097 0034 1140     		ands	r1, r1, r2
 1098              	.LVL104:
 1099 0036 1944     		add	r1, r1, r3
 1100              	.LVL105:
 1101              		.loc 6 107 0
 1102 0038 A942     		cmp	r1, r5
 1103 003a 0BDD     		ble	.L85
 1104              		.loc 6 108 0
 1105 003c 3B88     		ldrh	r3, [r7]
 1106              	.LVL106:
 1107              		.loc 6 109 0
 1108 003e 30F81120 		ldrh	r2, [r0, r1, lsl #1]
 1109              	.LVL107:
 1110 0042 3A80     		strh	r2, [r7]	@ movhi
 1111              		.loc 6 110 0
 1112 0044 20F81130 		strh	r3, [r0, r1, lsl #1]	@ movhi
 1113              		.loc 6 111 0
 1114 0048 3388     		ldrh	r3, [r6]
 1115              	.LVL108:
 1116              		.loc 6 112 0
 1117 004a 39F81120 		ldrh	r2, [r9, r1, lsl #1]
 1118 004e 3280     		strh	r2, [r6]	@ movhi
 1119              	.LVL109:
 1120              		.loc 6 113 0
 1121 0050 29F81130 		strh	r3, [r9, r1, lsl #1]	@ movhi
 1122              	.LVL110:
 1123              	.L85:
 1124              		.loc 6 100 0 discriminator 2
 1125 0054 0135     		adds	r5, r5, #1
 1126              	.LVL111:
 1127 0056 AB45     		cmp	fp, r5
 1128 0058 07F10207 		add	r7, r7, #2
 1129 005c 06F10206 		add	r6, r6, #2
 1130 0060 E2D1     		bne	.L86
ARM GAS  /tmp/ccVzq0iG.s 			page 21


 1131              	.LVL112:
 1132              	.L83:
 1133 0062 00EB4B03 		add	r3, r0, fp, lsl #1
 1134 0066 0793     		str	r3, [sp, #28]
 1135              		.loc 6 100 0 is_stmt 0
 1136 0068 0023     		movs	r3, #0
 1137 006a 0693     		str	r3, [sp, #24]
 1138              	.LVL113:
 1139 006c 0923     		movs	r3, #9
 1140 006e 0393     		str	r3, [sp, #12]
 1141              	.LVL114:
 1142 0070 0123     		movs	r3, #1
 1143 0072 0493     		str	r3, [sp, #16]
 1144              	.LVL115:
 1145              		.loc 6 119 0 is_stmt 1
 1146 0074 059B     		ldr	r3, [sp, #20]
 1147 0076 002B     		cmp	r3, #0
 1148 0078 00F08380 		beq	.L100
 1149              	.LVL116:
 1150              	.L122:
 1151 007c 0146     		mov	r1, r0
 1152 007e A9F10204 		sub	r4, r9, #2
 1153 0082 079D     		ldr	r5, [sp, #28]
 1154 0084 04E0     		b	.L89
 1155              	.LVL117:
 1156              	.L120:
 1157              		.loc 6 129 0 discriminator 1
 1158 0086 B2F5804F 		cmp	r2, #16384
 1159 008a 0EDA     		bge	.L88
 1160              		.loc 6 122 0 discriminator 2
 1161 008c A942     		cmp	r1, r5
 1162 008e 7BD0     		beq	.L119
 1163              	.LVL118:
 1164              	.L89:
 1165              		.loc 6 123 0
 1166 0090 31F9023B 		ldrsh	r3, [r1], #2
 1167              	.LVL119:
 1168              		.loc 6 126 0
 1169 0094 34F9022F 		ldrsh	r2, [r4, #2]!
 1170              	.LVL120:
 1171              		.loc 6 129 0
 1172 0098 002B     		cmp	r3, #0
 1173 009a B8BF     		it	lt
 1174 009c 5B42     		rsblt	r3, r3, #0
 1175              	.LVL121:
 1176 009e 002A     		cmp	r2, #0
 1177 00a0 B8BF     		it	lt
 1178 00a2 5242     		rsblt	r2, r2, #0
 1179              	.LVL122:
 1180 00a4 B3F5804F 		cmp	r3, #16384
 1181 00a8 EDDB     		blt	.L120
 1182              	.L88:
 1183              	.LVL123:
 1184              		.loc 6 135 0
 1185 00aa 069B     		ldr	r3, [sp, #24]
 1186 00ac 0133     		adds	r3, r3, #1
 1187 00ae 0693     		str	r3, [sp, #24]
ARM GAS  /tmp/ccVzq0iG.s 			page 22


 1188              	.LVL124:
 1189 00b0 0123     		movs	r3, #1
 1190              	.LVL125:
 1191 00b2 0193     		str	r3, [sp, #4]
 1192              	.LVL126:
 1193              	.L87:
 1194              		.loc 6 145 0
 1195 00b4 049B     		ldr	r3, [sp, #16]
 1196 00b6 4FEA430A 		lsl	r10, r3, #1
 1197              	.LVL127:
 1198              		.loc 6 146 0
 1199 00ba 0023     		movs	r3, #0
 1200 00bc 00EB0A08 		add	r8, r0, r10
 1201 00c0 09EB0A0C 		add	ip, r9, r10
 1202 00c4 0293     		str	r3, [sp, #8]
 1203              	.LVL128:
 1204              	.L93:
 1205              		.loc 6 147 0
 1206 00c6 039A     		ldr	r2, [sp, #12]
 1207 00c8 029B     		ldr	r3, [sp, #8]
 1208              		.loc 6 150 0
 1209 00ca 3949     		ldr	r1, .L123
 1210              		.loc 6 147 0
 1211 00cc 9340     		lsls	r3, r3, r2
 1212              	.LVL129:
 1213              		.loc 6 149 0
 1214 00ce 03F58072 		add	r2, r3, #256
 1215              		.loc 6 150 0
 1216 00d2 31F81370 		ldrh	r7, [r1, r3, lsl #1]
 1217              		.loc 6 151 0
 1218 00d6 059B     		ldr	r3, [sp, #20]
 1219              	.LVL130:
 1220              		.loc 6 149 0
 1221 00d8 31F812E0 		ldrh	lr, [r1, r2, lsl #1]
 1222              	.LVL131:
 1223              		.loc 6 151 0
 1224 00dc 0BB9     		cbnz	r3, .L90
 1225              		.loc 6 150 0
 1226 00de 7F42     		negs	r7, r7
 1227              	.LVL132:
 1228 00e0 BFB2     		uxth	r7, r7
 1229              	.LVL133:
 1230              	.L90:
 1231              		.loc 6 153 0
 1232 00e2 019B     		ldr	r3, [sp, #4]
 1233 00e4 33B1     		cbz	r3, .L91
 1234              		.loc 6 154 0
 1235 00e6 4EF34E0E 		sbfx	lr, lr, #1, #15
 1236              	.LVL134:
 1237              		.loc 6 155 0
 1238 00ea 47F34E07 		sbfx	r7, r7, #1, #15
 1239              	.LVL135:
 1240              		.loc 6 154 0
 1241 00ee 1FFA8EFE 		uxth	lr, lr
 1242              	.LVL136:
 1243              		.loc 6 155 0
 1244 00f2 BFB2     		uxth	r7, r7
ARM GAS  /tmp/ccVzq0iG.s 			page 23


 1245              	.LVL137:
 1246              	.L91:
 1247              		.loc 6 157 0
 1248 00f4 029B     		ldr	r3, [sp, #8]
 1249 00f6 9B45     		cmp	fp, r3
 1250 00f8 31DD     		ble	.L97
 1251 00fa 029E     		ldr	r6, [sp, #8]
 1252              	.LVL138:
 1253              	.L96:
 1254              		.loc 6 159 0
 1255 00fc 38F81650 		ldrh	r5, [r8, r6, lsl #1]
 1256              	.LVL139:
 1257              		.loc 6 160 0
 1258 0100 3CF81610 		ldrh	r1, [ip, r6, lsl #1]
 1259              	.LVL140:
 1260              		.loc 6 163 0
 1261 0104 30F81640 		ldrh	r4, [r0, r6, lsl #1]
 1262              		.loc 6 161 0
 1263 0108 15FB07F3 		smulbb	r3, r5, r7
 1264 010c 11FB0EF2 		smulbb	r2, r1, lr
 1265              		.loc 6 159 0
 1266 0110 11FB07F1 		smulbb	r1, r1, r7
 1267              	.LVL141:
 1268              		.loc 6 161 0
 1269 0114 DB13     		asrs	r3, r3, #15
 1270              		.loc 6 159 0
 1271 0116 15FB0EF5 		smulbb	r5, r5, lr
 1272              	.LVL142:
 1273 011a C913     		asrs	r1, r1, #15
 1274              		.loc 6 161 0
 1275 011c 03EBE232 		add	r2, r3, r2, asr #15
 1276              		.loc 6 159 0
 1277 0120 C1EBE533 		rsb	r3, r1, r5, asr #15
 1278              		.loc 6 165 0
 1279 0124 0199     		ldr	r1, [sp, #4]
 1280              		.loc 6 161 0
 1281 0126 95B2     		uxth	r5, r2
 1282              		.loc 6 159 0
 1283 0128 9BB2     		uxth	r3, r3
 1284              	.LVL143:
 1285              		.loc 6 164 0
 1286 012a 39F81620 		ldrh	r2, [r9, r6, lsl #1]
 1287              	.LVL144:
 1288              		.loc 6 165 0
 1289 012e 29B1     		cbz	r1, .L95
 1290              		.loc 6 166 0
 1291 0130 44F34E04 		sbfx	r4, r4, #1, #15
 1292              	.LVL145:
 1293              		.loc 6 167 0
 1294 0134 42F34E02 		sbfx	r2, r2, #1, #15
 1295              	.LVL146:
 1296              		.loc 6 166 0
 1297 0138 A4B2     		uxth	r4, r4
 1298              	.LVL147:
 1299              		.loc 6 167 0
 1300 013a 92B2     		uxth	r2, r2
 1301              	.LVL148:
ARM GAS  /tmp/ccVzq0iG.s 			page 24


 1302              	.L95:
 1303              		.loc 6 169 0 discriminator 2
 1304 013c A4B2     		uxth	r4, r4
 1305              		.loc 6 170 0 discriminator 2
 1306 013e 92B2     		uxth	r2, r2
 1307              		.loc 6 169 0 discriminator 2
 1308 0140 E11A     		subs	r1, r4, r3
 1309              		.loc 6 171 0 discriminator 2
 1310 0142 1C44     		add	r4, r4, r3
 1311              	.LVL149:
 1312              		.loc 6 170 0 discriminator 2
 1313 0144 531B     		subs	r3, r2, r5
 1314              	.LVL150:
 1315              		.loc 6 172 0 discriminator 2
 1316 0146 2A44     		add	r2, r2, r5
 1317              	.LVL151:
 1318              		.loc 6 169 0 discriminator 2
 1319 0148 28F81610 		strh	r1, [r8, r6, lsl #1]	@ movhi
 1320              	.LVL152:
 1321              		.loc 6 170 0 discriminator 2
 1322 014c 2CF81630 		strh	r3, [ip, r6, lsl #1]	@ movhi
 1323              		.loc 6 171 0 discriminator 2
 1324 0150 20F81640 		strh	r4, [r0, r6, lsl #1]	@ movhi
 1325              		.loc 6 172 0 discriminator 2
 1326 0154 29F81620 		strh	r2, [r9, r6, lsl #1]	@ movhi
 1327              		.loc 6 157 0 discriminator 2
 1328 0158 5644     		add	r6, r6, r10
 1329              	.LVL153:
 1330 015a B345     		cmp	fp, r6
 1331 015c CEDC     		bgt	.L96
 1332              	.LVL154:
 1333              	.L97:
 1334              		.loc 6 146 0
 1335 015e 029B     		ldr	r3, [sp, #8]
 1336 0160 049A     		ldr	r2, [sp, #16]
 1337 0162 0133     		adds	r3, r3, #1
 1338 0164 9342     		cmp	r3, r2
 1339 0166 0293     		str	r3, [sp, #8]
 1340              	.LVL155:
 1341 0168 ADD1     		bne	.L93
 1342              		.loc 6 175 0
 1343 016a 039B     		ldr	r3, [sp, #12]
 1344              	.LVL156:
 1345              		.loc 6 118 0
 1346 016c D345     		cmp	fp, r10
 1347              		.loc 6 175 0
 1348 016e 03F1FF33 		add	r3, r3, #-1
 1349 0172 0393     		str	r3, [sp, #12]
 1350              	.LVL157:
 1351              		.loc 6 118 0
 1352 0174 0BDD     		ble	.L121
 1353              		.loc 6 119 0
 1354 0176 059B     		ldr	r3, [sp, #20]
 1355              	.LVL158:
 1356 0178 CDF810A0 		str	r10, [sp, #16]
 1357 017c 002B     		cmp	r3, #0
 1358 017e 7FF47DAF 		bne	.L122
ARM GAS  /tmp/ccVzq0iG.s 			page 25


 1359              	.LVL159:
 1360              	.L100:
 1361              		.loc 6 141 0
 1362 0182 0123     		movs	r3, #1
 1363 0184 0193     		str	r3, [sp, #4]
 1364 0186 95E7     		b	.L87
 1365              	.LVL160:
 1366              	.L119:
 1367 0188 0023     		movs	r3, #0
 1368 018a 0193     		str	r3, [sp, #4]
 1369 018c 92E7     		b	.L87
 1370              	.LVL161:
 1371              	.L121:
 1372 018e 0698     		ldr	r0, [sp, #24]
 1373              	.LVL162:
 1374              		.loc 6 180 0
 1375 0190 09B0     		add	sp, sp, #36
 1376              		.cfi_remember_state
 1377              		.cfi_def_cfa_offset 36
 1378              		@ sp needed
 1379 0192 BDE8F08F 		pop	{r4, r5, r6, r7, r8, r9, r10, fp, pc}
 1380              	.LVL163:
 1381              	.L118:
 1382              		.cfi_restore_state
 1383              		.loc 6 118 0
 1384 0196 AB45     		cmp	fp, r5
 1385 0198 3FF763AF 		bgt	.L83
 1386 019c 0020     		movs	r0, #0
 1387              	.LVL164:
 1388              		.loc 6 180 0
 1389 019e 09B0     		add	sp, sp, #36
 1390              		.cfi_remember_state
 1391              		.cfi_def_cfa_offset 36
 1392              		@ sp needed
 1393 01a0 BDE8F08F 		pop	{r4, r5, r6, r7, r8, r9, r10, fp, pc}
 1394              	.LVL165:
 1395              	.L99:
 1396              		.cfi_restore_state
 1397              		.loc 6 93 0
 1398 01a4 4FF0FF30 		mov	r0, #-1
 1399              	.LVL166:
 1400              		.loc 6 180 0
 1401 01a8 09B0     		add	sp, sp, #36
 1402              		.cfi_def_cfa_offset 36
 1403              		@ sp needed
 1404 01aa BDE8F08F 		pop	{r4, r5, r6, r7, r8, r9, r10, fp, pc}
 1405              	.LVL167:
 1406              	.L124:
 1407 01ae 00BF     		.align	2
 1408              	.L123:
 1409 01b0 00000000 		.word	.LANCHOR0
 1410              		.cfi_endproc
 1411              	.LFE273:
 1412              		.size	fix_fft, .-fix_fft
 1413 01b4 AFF30080 		.section	.text.fix_mpy,"ax",%progbits
 1413      AFF30080 
 1413      AFF30080 
ARM GAS  /tmp/ccVzq0iG.s 			page 26


 1414              		.align	2
 1415              		.p2align 4,,15
 1416              		.global	fix_mpy
 1417              		.thumb
 1418              		.thumb_func
 1419              		.type	fix_mpy, %function
 1420              	fix_mpy:
 1421              	.LFB274:
 1422              		.loc 6 186 0
 1423              		.cfi_startproc
 1424              		@ args = 0, pretend = 0, frame = 0
 1425              		@ frame_needed = 0, uses_anonymous_args = 0
 1426              		@ link register save eliminated.
 1427              	.LVL168:
 1428              		.loc 6 187 0
 1429 0000 00FB01F0 		mul	r0, r0, r1
 1430              	.LVL169:
 1431              		.loc 6 189 0
 1432 0004 40F3CF30 		sbfx	r0, r0, #15, #16
 1433              	.LVL170:
 1434 0008 7047     		bx	lr
 1435              		.cfi_endproc
 1436              	.LFE274:
 1437              		.size	fix_mpy, .-fix_mpy
 1438 000a 00BFAFF3 		.section	.text.chprint_float,"ax",%progbits
 1438      0080
 1439              		.align	2
 1440              		.p2align 4,,15
 1441              		.global	chprint_float
 1442              		.thumb
 1443              		.thumb_func
 1444              		.type	chprint_float, %function
 1445              	chprint_float:
 1446              	.LFB278:
 1447              		.loc 1 104 0
 1448              		.cfi_startproc
 1449              		@ args = 0, pretend = 0, frame = 0
 1450              		@ frame_needed = 0, uses_anonymous_args = 0
 1451              	.LVL171:
 1452 0000 38B5     		push	{r3, r4, r5, lr}
 1453              		.cfi_def_cfa_offset 16
 1454              		.cfi_offset 3, -16
 1455              		.cfi_offset 4, -12
 1456              		.cfi_offset 5, -8
 1457              		.cfi_offset 14, -4
 1458 0002 441E     		subs	r4, r0, #1
 1459 0004 451D     		adds	r5, r0, #5
 1460 0006 03E0     		b	.L129
 1461              	.LVL172:
 1462              	.L133:
 1463              		.loc 1 107 0 discriminator 1
 1464 0008 2E2B     		cmp	r3, #46
 1465 000a 0AD0     		beq	.L127
 1466              	.LVL173:
 1467              		.loc 1 106 0 discriminator 2
 1468 000c AC42     		cmp	r4, r5
 1469 000e 0CD0     		beq	.L132
ARM GAS  /tmp/ccVzq0iG.s 			page 27


 1470              	.LVL174:
 1471              	.L129:
 1472              		.loc 1 107 0
 1473 0010 14F8013F 		ldrb	r3, [r4, #1]!	@ zero_extendqisi2
 1474              	.LVL175:
 1475              		.loc 1 108 0
 1476 0014 0549     		ldr	r1, .L134
 1477 0016 0648     		ldr	r0, .L134+4
 1478              		.loc 1 107 0
 1479 0018 A3F13002 		sub	r2, r3, #48
 1480 001c 092A     		cmp	r2, #9
 1481              		.loc 1 108 0
 1482 001e 1A46     		mov	r2, r3
 1483              		.loc 1 107 0
 1484 0020 F2D8     		bhi	.L133
 1485              	.L127:
 1486              		.loc 1 108 0
 1487 0022 FFF7FEFF 		bl	chprintf.constprop.0
 1488              	.LVL176:
 1489              		.loc 1 106 0
 1490 0026 AC42     		cmp	r4, r5
 1491 0028 F2D1     		bne	.L129
 1492              	.LVL177:
 1493              	.L132:
 1494              		.loc 1 111 0
 1495 002a 38BD     		pop	{r3, r4, r5, pc}
 1496              	.LVL178:
 1497              	.L135:
 1498              		.align	2
 1499              	.L134:
 1500 002c 08000000 		.word	.LC1
 1501 0030 00000000 		.word	SD1
 1502              		.cfi_endproc
 1503              	.LFE278:
 1504              		.size	chprint_float, .-chprint_float
 1505              		.global	__aeabi_dsub
 1506              		.global	__aeabi_dadd
 1507              		.global	__aeabi_ddiv
 1508 0034 AFF30080 		.section	.text.startup.main,"ax",%progbits
 1508      AFF30080 
 1508      AFF30080 
 1509              		.align	2
 1510              		.p2align 4,,15
 1511              		.global	main
 1512              		.thumb
 1513              		.thumb_func
 1514              		.type	main, %function
 1515              	main:
 1516              	.LFB279:
 1517              		.loc 1 117 0
 1518              		.cfi_startproc
 1519              		@ args = 0, pretend = 0, frame = 64
 1520              		@ frame_needed = 0, uses_anonymous_args = 0
 1521 0000 2DE9F04F 		push	{r4, r5, r6, r7, r8, r9, r10, fp, lr}
 1522              		.cfi_def_cfa_offset 36
 1523              		.cfi_offset 4, -36
 1524              		.cfi_offset 5, -32
ARM GAS  /tmp/ccVzq0iG.s 			page 28


 1525              		.cfi_offset 6, -28
 1526              		.cfi_offset 7, -24
 1527              		.cfi_offset 8, -20
 1528              		.cfi_offset 9, -16
 1529              		.cfi_offset 10, -12
 1530              		.cfi_offset 11, -8
 1531              		.cfi_offset 14, -4
 1532 0004 2DED028B 		vpush.64	{d8}
 1533              		.cfi_def_cfa_offset 44
 1534              		.cfi_offset 80, -44
 1535              		.cfi_offset 81, -40
 1536 0008 93B0     		sub	sp, sp, #76
 1537              		.cfi_def_cfa_offset 120
 1538              		.loc 1 126 0
 1539 000a FFF7FEFF 		bl	halInit
 1540              	.LVL179:
 1541              	.LBB102:
 1542              	.LBB103:
 1543              	.LBB104:
 1544              	.LBB105:
 1545              	.LBB106:
 1546              		.file 7 "../../os/ext/CMSIS/include/core_cmFunc.h"
 1547              		.loc 7 546 0
 1548 000e 0026     		movs	r6, #0
 1549              	.LBE106:
 1550              	.LBE105:
 1551              	.LBE104:
 1552              	.LBE103:
 1553              	.LBE102:
 1554              		.loc 1 127 0
 1555 0010 FFF7FEFF 		bl	chSysInit
 1556              	.LVL180:
 1557              	.LBB113:
 1558              	.LBB112:
 1559              	.LBB111:
 1560              	.LBB108:
 1561              	.LBB107:
 1562              		.loc 7 546 0
 1563              		.syntax unified
 1564              	@ 546 "../../os/ext/CMSIS/include/core_cmFunc.h" 1
 1565 0014 86F31188 		MSR basepri, r6
 1566              	@ 0 "" 2
 1567              		.thumb
 1568              		.syntax unified
 1569              	.LBE107:
 1570              	.LBE108:
 1571              	.LBB109:
 1572              	.LBB110:
 1573              		.loc 7 331 0
 1574              		.syntax unified
 1575              	@ 331 "../../os/ext/CMSIS/include/core_cmFunc.h" 1
 1576 0018 62B6     		cpsie i
 1577              	@ 0 "" 2
 1578              		.thumb
 1579              		.syntax unified
 1580              	.LBE110:
 1581              	.LBE109:
ARM GAS  /tmp/ccVzq0iG.s 			page 29


 1582              	.LBE111:
 1583              	.LBE112:
 1584              	.LBE113:
 1585              		.loc 1 134 0
 1586 001a 0122     		movs	r2, #1
 1587 001c 4FF40051 		mov	r1, #8192
 1588 0020 8548     		ldr	r0, .L150+16
 1589 0022 864C     		ldr	r4, .L150+20
 1590 0024 864D     		ldr	r5, .L150+24
 1591              	.LBB114:
 1592              		.loc 1 217 0
 1593 0026 DFED878A 		vldr.32	s17, .L150+28
 1594              	.LBE114:
 1595              		.loc 1 134 0
 1596 002a FFF7FEFF 		bl	_pal_lld_setgroupmode
 1597              	.LVL181:
 1598              		.loc 1 140 0
 1599 002e 3146     		mov	r1, r6
 1600 0030 8548     		ldr	r0, .L150+32
 1601 0032 FFF7FEFF 		bl	sdStart
 1602              	.LVL182:
 1603              		.loc 1 141 0
 1604 0036 40F28232 		movw	r2, #898
 1605 003a 4021     		movs	r1, #64
 1606 003c 8348     		ldr	r0, .L150+36
 1607 003e FFF7FEFF 		bl	_pal_lld_setgroupmode
 1608              	.LVL183:
 1609              		.loc 1 142 0
 1610 0042 40F28232 		movw	r2, #898
 1611 0046 8021     		movs	r1, #128
 1612 0048 8048     		ldr	r0, .L150+36
 1613 004a FFF7FEFF 		bl	_pal_lld_setgroupmode
 1614              	.LVL184:
 1615              		.loc 1 147 0
 1616 004e 804B     		ldr	r3, .L150+40
 1617 0050 0096     		str	r6, [sp]
 1618 0052 4022     		movs	r2, #64
 1619 0054 4FF4E871 		mov	r1, #464
 1620 0058 7E48     		ldr	r0, .L150+44
 1621 005a FFF7FEFF 		bl	chThdCreateStatic
 1622              	.LVL185:
 1623              		.loc 1 155 0
 1624 005e FFF7FEFF 		bl	adcInit
 1625              	.LVL186:
 1626              		.loc 1 156 0
 1627 0062 3146     		mov	r1, r6
 1628 0064 7C48     		ldr	r0, .L150+48
 1629 0066 FFF7FEFF 		bl	adcStart
 1630              	.LVL187:
 1631              		.loc 1 157 0
 1632 006a FFF7FEFF 		bl	adcSTM32EnableTSVREFE
 1633              	.LVL188:
 1634              		.loc 1 158 0
 1635 006e 0322     		movs	r2, #3
 1636 0070 0221     		movs	r1, #2
 1637 0072 7A48     		ldr	r0, .L150+52
 1638 0074 FFF7FEFF 		bl	_pal_lld_setgroupmode
ARM GAS  /tmp/ccVzq0iG.s 			page 30


 1639              	.LVL189:
 1640              		.loc 1 163 0
 1641 0078 FFF7FEFF 		bl	lcd_setio
 1642              	.LVL190:
 1643              		.loc 1 164 0
 1644 007c FFF7FEFF 		bl	lcd_init
 1645              	.LVL191:
 1646              	.L141:
 1647              	.LBB123:
 1648              		.loc 1 173 0
 1649 0080 7748     		ldr	r0, .L150+56
 1650 0082 784E     		ldr	r6, .L150+60
 1651 0084 FFF7FEFF 		bl	lcd_printf
 1652              	.LVL192:
 1653 0088 06F50067 		add	r7, r6, #2048
 1654              	.LVL193:
 1655              	.L137:
 1656              		.loc 1 181 0 discriminator 3
 1657 008c 0423     		movs	r3, #4
 1658 008e 6B4A     		ldr	r2, .L150+20
 1659 0090 7549     		ldr	r1, .L150+64
 1660 0092 7148     		ldr	r0, .L150+48
 1661 0094 FFF7FEFF 		bl	adcStartConversion
 1662              	.LVL194:
 1663              		.loc 1 182 0 discriminator 3
 1664 0098 0120     		movs	r0, #1
 1665 009a FFF7FEFF 		bl	chThdSleep
 1666              	.LVL195:
 1667              		.loc 1 183 0 discriminator 3
 1668 009e 2088     		ldrh	r0, [r4]
 1669 00a0 6388     		ldrh	r3, [r4, #2]
 1670 00a2 A188     		ldrh	r1, [r4, #4]
 1671 00a4 E288     		ldrh	r2, [r4, #6]
 1672 00a6 0344     		add	r3, r3, r0
 1673 00a8 0B44     		add	r3, r3, r1
 1674 00aa 1344     		add	r3, r3, r2
 1675 00ac 9B10     		asrs	r3, r3, #2
 1676 00ae 26F8023F 		strh	r3, [r6, #2]!	@ movhi
 1677              		.loc 1 180 0 discriminator 3
 1678 00b2 B742     		cmp	r7, r6
 1679 00b4 EAD1     		bne	.L137
 1680              		.loc 1 189 0
 1681 00b6 6D49     		ldr	r1, .L150+68
 1682 00b8 6348     		ldr	r0, .L150+32
 1683 00ba DFF8DCA1 		ldr	r10, .L150+112
 1684 00be FFF7FEFF 		bl	chprintf.constprop.0
 1685              	.LVL196:
 1686              		.loc 1 190 0
 1687 00c2 44F62060 		movw	r0, #20000
 1688 00c6 FFF7FEFF 		bl	chThdSleep
 1689              	.LVL197:
 1690              		.loc 1 191 0
 1691 00ca 6949     		ldr	r1, .L150+72
 1692 00cc 5E48     		ldr	r0, .L150+32
 1693 00ce FFF7FEFF 		bl	chprintf.constprop.0
 1694              	.LVL198:
 1695              		.loc 1 192 0
ARM GAS  /tmp/ccVzq0iG.s 			page 31


 1696 00d2 44F62060 		movw	r0, #20000
 1697 00d6 FFF7FEFF 		bl	chThdSleep
 1698              	.LVL199:
 1699 00da 0AF5936B 		add	fp, r10, #1176
 1700 00de 5346     		mov	r3, r10
 1701              		.loc 1 175 0
 1702 00e0 0022     		movs	r2, #0
 1703              	.LVL200:
 1704              	.L138:
 1705              		.loc 1 197 0 discriminator 3
 1706 00e2 33F8021F 		ldrh	r1, [r3, #2]!
 1707              		.loc 1 196 0 discriminator 3
 1708 00e6 9B45     		cmp	fp, r3
 1709              		.loc 1 197 0 discriminator 3
 1710 00e8 0A44     		add	r2, r2, r1
 1711              	.LVL201:
 1712              		.loc 1 196 0 discriminator 3
 1713 00ea FAD1     		bne	.L138
 1714              		.loc 1 199 0
 1715 00ec 614B     		ldr	r3, .L150+76
 1716 00ee D017     		asrs	r0, r2, #31
 1717 00f0 83FB0232 		smull	r3, r2, r3, r2
 1718              	.LVL202:
 1719 00f4 C0EB2220 		rsb	r0, r0, r2, asr #8
 1720 00f8 FFF7FEFF 		bl	__aeabi_i2d
 1721              	.LVL203:
 1722              	.LBB115:
 1723              	.LBB116:
 1724              		.loc 5 117 0
 1725 00fc 4AA3     		adr	r3, .L150
 1726 00fe D3E90023 		ldrd	r2, [r3]
 1727              	.LBE116:
 1728              	.LBE115:
 1729              		.loc 1 199 0
 1730 0102 8046     		mov	r8, r0
 1731 0104 8946     		mov	r9, r1
 1732              	.LVL204:
 1733              	.LBB118:
 1734              	.LBB117:
 1735              		.loc 5 117 0
 1736 0106 FFF7FEFF 		bl	__aeabi_dmul
 1737              	.LVL205:
 1738 010a 0022     		movs	r2, #0
 1739 010c 5A4B     		ldr	r3, .L150+80
 1740 010e FFF7FEFF 		bl	__aeabi_dmul
 1741              	.LVL206:
 1742 0112 FFF7FEFF 		bl	__aeabi_d2f
 1743              	.LVL207:
 1744 0116 0221     		movs	r1, #2
 1745 0118 00EE100A 		vmov	s0, r0
 1746 011c 02A8     		add	r0, sp, #8
 1747 011e FFF7FEFF 		bl	ftoa
 1748              	.LVL208:
 1749              		.loc 5 119 0
 1750 0122 02A8     		add	r0, sp, #8
 1751 0124 FFF7FEFF 		bl	lcd_printf
 1752              	.LVL209:
ARM GAS  /tmp/ccVzq0iG.s 			page 32


 1753              	.LBE117:
 1754              	.LBE118:
 1755              		.loc 1 203 0
 1756 0128 5448     		ldr	r0, .L150+84
 1757 012a FFF7FEFF 		bl	lcd_printf
 1758              	.LVL210:
 1759              		.loc 1 176 0
 1760 012e 0026     		movs	r6, #0
 1761 0130 0027     		movs	r7, #0
 1762              	.LVL211:
 1763              	.L139:
 1764              		.loc 1 207 0 discriminator 3
 1765 0132 3AF8020F 		ldrh	r0, [r10, #2]!
 1766 0136 FFF7FEFF 		bl	__aeabi_i2d
 1767              	.LVL212:
 1768 013a 4246     		mov	r2, r8
 1769 013c 4B46     		mov	r3, r9
 1770 013e FFF7FEFF 		bl	__aeabi_dsub
 1771              	.LVL213:
 1772 0142 39A3     		adr	r3, .L150
 1773 0144 D3E90023 		ldrd	r2, [r3]
 1774 0148 FFF7FEFF 		bl	__aeabi_dmul
 1775              	.LVL214:
 1776 014c 0022     		movs	r2, #0
 1777 014e 4A4B     		ldr	r3, .L150+80
 1778 0150 FFF7FEFF 		bl	__aeabi_dmul
 1779              	.LVL215:
 1780 0154 0246     		mov	r2, r0
 1781 0156 0B46     		mov	r3, r1
 1782 0158 FFF7FEFF 		bl	__aeabi_dmul
 1783              	.LVL216:
 1784 015c 0246     		mov	r2, r0
 1785 015e 0B46     		mov	r3, r1
 1786 0160 3046     		mov	r0, r6
 1787 0162 3946     		mov	r1, r7
 1788 0164 FFF7FEFF 		bl	__aeabi_dadd
 1789              	.LVL217:
 1790              		.loc 1 206 0 discriminator 3
 1791 0168 D345     		cmp	fp, r10
 1792              		.loc 1 207 0 discriminator 3
 1793 016a 0646     		mov	r6, r0
 1794              	.LVL218:
 1795 016c 0F46     		mov	r7, r1
 1796              	.LVL219:
 1797              		.loc 1 206 0 discriminator 3
 1798 016e E0D1     		bne	.L139
 1799              		.loc 1 209 0
 1800 0170 0022     		movs	r2, #0
 1801 0172 434B     		ldr	r3, .L150+88
 1802              		.loc 1 217 0
 1803 0174 9FED438A 		vldr.32	s16, .L150+92
 1804              		.loc 1 209 0
 1805 0178 FFF7FEFF 		bl	__aeabi_ddiv
 1806              	.LVL220:
 1807 017c 41EC100B 		vmov	d0, r0, r1
 1808 0180 FFF7FEFF 		bl	sqrt
 1809              	.LVL221:
ARM GAS  /tmp/ccVzq0iG.s 			page 33


 1810              	.LBB119:
 1811              	.LBB120:
 1812              		.loc 5 117 0
 1813 0184 2AA3     		adr	r3, .L150+8
 1814 0186 D3E90023 		ldrd	r2, [r3]
 1815 018a 51EC100B 		vmov	r0, r1, d0
 1816 018e FFF7FEFF 		bl	__aeabi_dmul
 1817              	.LVL222:
 1818 0192 FFF7FEFF 		bl	__aeabi_d2f
 1819              	.LVL223:
 1820 0196 0221     		movs	r1, #2
 1821 0198 00EE100A 		vmov	s0, r0
 1822 019c 02A8     		add	r0, sp, #8
 1823 019e FFF7FEFF 		bl	ftoa
 1824              	.LVL224:
 1825              		.loc 5 119 0
 1826 01a2 02A8     		add	r0, sp, #8
 1827 01a4 FFF7FEFF 		bl	lcd_printf
 1828              	.LVL225:
 1829              	.LBE120:
 1830              	.LBE119:
 1831              		.loc 1 214 0
 1832 01a8 3749     		ldr	r1, .L150+96
 1833 01aa 2748     		ldr	r0, .L150+32
 1834 01ac FFF7FEFF 		bl	chprintf.constprop.0
 1835              	.LVL226:
 1836              		.loc 1 217 0
 1837 01b0 2B88     		ldrh	r3, [r5]
 1838 01b2 234D     		ldr	r5, .L150+24
 1839 01b4 00EE103A 		vmov	s0, r3	@ int
 1840 01b8 B8EE400A 		vcvt.f32.u32	s0, s0
 1841 01bc 02A8     		add	r0, sp, #8
 1842 01be 20EE280A 		vmul.f32	s0, s0, s17
 1843 01c2 0121     		movs	r1, #1
 1844 01c4 20EE080A 		vmul.f32	s0, s0, s16
 1845 01c8 FFF7FEFF 		bl	ftoa
 1846              	.LVL227:
 1847              		.loc 1 218 0
 1848 01cc 02A8     		add	r0, sp, #8
 1849 01ce 2E46     		mov	r6, r5
 1850              	.LVL228:
 1851 01d0 05F1A807 		add	r7, r5, #168
 1852 01d4 FFF7FEFF 		bl	chprint_float
 1853              	.LVL229:
 1854              	.L140:
 1855              		.loc 1 220 0
 1856 01d8 2C49     		ldr	r1, .L150+100
 1857 01da 1B48     		ldr	r0, .L150+32
 1858 01dc FFF7FEFF 		bl	chprintf.constprop.0
 1859              	.LVL230:
 1860              		.loc 1 217 0
 1861 01e0 36F8023F 		ldrh	r3, [r6, #2]!
 1862 01e4 00EE103A 		vmov	s0, r3	@ int
 1863 01e8 B8EE400A 		vcvt.f32.u32	s0, s0
 1864 01ec 0121     		movs	r1, #1
 1865 01ee 20EE280A 		vmul.f32	s0, s0, s17
 1866 01f2 02A8     		add	r0, sp, #8
ARM GAS  /tmp/ccVzq0iG.s 			page 34


 1867 01f4 20EE080A 		vmul.f32	s0, s0, s16
 1868 01f8 FFF7FEFF 		bl	ftoa
 1869              	.LVL231:
 1870              		.loc 1 218 0
 1871 01fc 02A8     		add	r0, sp, #8
 1872 01fe FFF7FEFF 		bl	chprint_float
 1873              	.LVL232:
 1874              		.loc 1 219 0
 1875 0202 B742     		cmp	r7, r6
 1876 0204 E8D1     		bne	.L140
 1877              		.loc 1 223 0
 1878 0206 2249     		ldr	r1, .L150+104
 1879 0208 0F48     		ldr	r0, .L150+32
 1880 020a FFF7FEFF 		bl	chprintf.constprop.0
 1881              	.LVL233:
 1882              		.loc 1 225 0
 1883 020e 2148     		ldr	r0, .L150+108
 1884 0210 FFF7FEFF 		bl	chThdSleep
 1885              	.LVL234:
 1886              	.LBB121:
 1887              	.LBB122:
 1888              		.loc 5 82 0
 1889 0214 0D4B     		ldr	r3, .L150+36
 1890 0216 2022     		movs	r2, #32
 1891 0218 5A83     		strh	r2, [r3, #26]	@ movhi
 1892              		.loc 5 83 0
 1893 021a 0220     		movs	r0, #2
 1894 021c FFF7FEFF 		bl	lcd_sendByte
 1895              	.LVL235:
 1896              		.loc 5 84 0
 1897 0220 0120     		movs	r0, #1
 1898 0222 FFF7FEFF 		bl	chThdSleep
 1899              	.LVL236:
 1900              	.LBE122:
 1901              	.LBE121:
 1902              	.LBE123:
 1903              		.loc 1 264 0
 1904 0226 2BE7     		b	.L141
 1905              	.L151:
 1906              		.align	3
 1907              	.L150:
 1908 0228 00000060 		.word	1610612736
 1909 022c 66660A40 		.word	1074423398
 1910 0230 00000040 		.word	1073741824
 1911 0234 33B36740 		.word	1080537907
 1912 0238 00080240 		.word	1073874944
 1913 023c 00000000 		.word	.LANCHOR3
 1914 0240 00000000 		.word	.LANCHOR2
 1915 0244 33335340 		.word	1079194419
 1916 0248 00000000 		.word	SD1
 1917 024c 00040240 		.word	1073873920
 1918 0250 00000000 		.word	Thread1
 1919 0254 00000000 		.word	.LANCHOR1
 1920 0258 00000000 		.word	ADCD1
 1921 025c 00000240 		.word	1073872896
 1922 0260 0C000000 		.word	.LC2
 1923 0264 FEFFFFFF 		.word	.LANCHOR2-2
ARM GAS  /tmp/ccVzq0iG.s 			page 35


 1924 0268 00000000 		.word	.LANCHOR4
 1925 026c 10000000 		.word	.LC3
 1926 0270 38000000 		.word	.LC4
 1927 0274 27AE746F 		.word	1869917735
 1928 0278 0000303F 		.word	1060110336
 1929 027c 4C000000 		.word	.LC5
 1930 0280 00608240 		.word	1082286080
 1931 0284 00008039 		.word	964689920
 1932 0288 50000000 		.word	.LC6
 1933 028c 8C000000 		.word	.LC8
 1934 0290 7C000000 		.word	.LC7
 1935 0294 F0490200 		.word	150000
 1936 0298 A6000000 		.word	.LANCHOR2+166
 1937              		.cfi_endproc
 1938              	.LFE279:
 1939              		.size	main, .-main
 1940              		.global	data1
 1941              		.global	samples1
 1942              		.global	Sinewave
 1943 029c AFF30080 		.section	.bss.waThread1,"aw",%nobits
 1944              		.align	3
 1945              		.set	.LANCHOR1,. + 0
 1946              		.type	waThread1, %object
 1947              		.size	waThread1, 464
 1948              	waThread1:
 1949 0000 00000000 		.space	464
 1949      00000000 
 1949      00000000 
 1949      00000000 
 1949      00000000 
 1950              		.section	.data.Sinewave,"aw",%progbits
 1951              		.align	2
 1952              		.set	.LANCHOR0,. + 0
 1953              		.type	Sinewave, %object
 1954              		.size	Sinewave, 2048
 1955              	Sinewave:
 1956 0000 0000     		.short	0
 1957 0002 C900     		.short	201
 1958 0004 9201     		.short	402
 1959 0006 5B02     		.short	603
 1960 0008 2403     		.short	804
 1961 000a ED03     		.short	1005
 1962 000c B604     		.short	1206
 1963 000e 7E05     		.short	1406
 1964 0010 4706     		.short	1607
 1965 0012 1007     		.short	1808
 1966 0014 D907     		.short	2009
 1967 0016 A108     		.short	2209
 1968 0018 6A09     		.short	2410
 1969 001a 320A     		.short	2610
 1970 001c FB0A     		.short	2811
 1971 001e C30B     		.short	3011
 1972 0020 8B0C     		.short	3211
 1973 0022 530D     		.short	3411
 1974 0024 1B0E     		.short	3611
 1975 0026 E30E     		.short	3811
 1976 0028 AB0F     		.short	4011
ARM GAS  /tmp/ccVzq0iG.s 			page 36


 1977 002a 7210     		.short	4210
 1978 002c 3911     		.short	4409
 1979 002e 0012     		.short	4608
 1980 0030 C712     		.short	4807
 1981 0032 8E13     		.short	5006
 1982 0034 5514     		.short	5205
 1983 0036 1B15     		.short	5403
 1984 0038 E115     		.short	5601
 1985 003a A716     		.short	5799
 1986 003c 6D17     		.short	5997
 1987 003e 3318     		.short	6195
 1988 0040 F818     		.short	6392
 1989 0042 BD19     		.short	6589
 1990 0044 821A     		.short	6786
 1991 0046 461B     		.short	6982
 1992 0048 0B1C     		.short	7179
 1993 004a CF1C     		.short	7375
 1994 004c 931D     		.short	7571
 1995 004e 561E     		.short	7766
 1996 0050 191F     		.short	7961
 1997 0052 DC1F     		.short	8156
 1998 0054 9F20     		.short	8351
 1999 0056 6121     		.short	8545
 2000 0058 2322     		.short	8739
 2001 005a E422     		.short	8932
 2002 005c A623     		.short	9126
 2003 005e 6724     		.short	9319
 2004 0060 2725     		.short	9511
 2005 0062 E725     		.short	9703
 2006 0064 A726     		.short	9895
 2007 0066 6727     		.short	10087
 2008 0068 2628     		.short	10278
 2009 006a E528     		.short	10469
 2010 006c A329     		.short	10659
 2011 006e 612A     		.short	10849
 2012 0070 1E2B     		.short	11038
 2013 0072 DB2B     		.short	11227
 2014 0074 982C     		.short	11416
 2015 0076 542D     		.short	11604
 2016 0078 102E     		.short	11792
 2017 007a CC2E     		.short	11980
 2018 007c 862F     		.short	12166
 2019 007e 4130     		.short	12353
 2020 0080 FB30     		.short	12539
 2021 0082 B431     		.short	12724
 2022 0084 6D32     		.short	12909
 2023 0086 2633     		.short	13094
 2024 0088 DE33     		.short	13278
 2025 008a 9634     		.short	13462
 2026 008c 4D35     		.short	13645
 2027 008e 0336     		.short	13827
 2028 0090 B936     		.short	14009
 2029 0092 6F37     		.short	14191
 2030 0094 2438     		.short	14372
 2031 0096 D838     		.short	14552
 2032 0098 8C39     		.short	14732
 2033 009a 3F3A     		.short	14911
ARM GAS  /tmp/ccVzq0iG.s 			page 37


 2034 009c F23A     		.short	15090
 2035 009e A43B     		.short	15268
 2036 00a0 563C     		.short	15446
 2037 00a2 073D     		.short	15623
 2038 00a4 B73D     		.short	15799
 2039 00a6 673E     		.short	15975
 2040 00a8 163F     		.short	16150
 2041 00aa C53F     		.short	16325
 2042 00ac 7340     		.short	16499
 2043 00ae 2041     		.short	16672
 2044 00b0 CD41     		.short	16845
 2045 00b2 7942     		.short	17017
 2046 00b4 2543     		.short	17189
 2047 00b6 D043     		.short	17360
 2048 00b8 7A44     		.short	17530
 2049 00ba 2345     		.short	17699
 2050 00bc CC45     		.short	17868
 2051 00be 7446     		.short	18036
 2052 00c0 1C47     		.short	18204
 2053 00c2 C347     		.short	18371
 2054 00c4 6948     		.short	18537
 2055 00c6 0E49     		.short	18702
 2056 00c8 B349     		.short	18867
 2057 00ca 574A     		.short	19031
 2058 00cc FA4A     		.short	19194
 2059 00ce 9D4B     		.short	19357
 2060 00d0 3F4C     		.short	19519
 2061 00d2 E04C     		.short	19680
 2062 00d4 804D     		.short	19840
 2063 00d6 204E     		.short	20000
 2064 00d8 BF4E     		.short	20159
 2065 00da 5D4F     		.short	20317
 2066 00dc FA4F     		.short	20474
 2067 00de 9750     		.short	20631
 2068 00e0 3351     		.short	20787
 2069 00e2 CE51     		.short	20942
 2070 00e4 6852     		.short	21096
 2071 00e6 0153     		.short	21249
 2072 00e8 9A53     		.short	21402
 2073 00ea 3254     		.short	21554
 2074 00ec C954     		.short	21705
 2075 00ee 5F55     		.short	21855
 2076 00f0 F455     		.short	22004
 2077 00f2 8956     		.short	22153
 2078 00f4 1D57     		.short	22301
 2079 00f6 B057     		.short	22448
 2080 00f8 4258     		.short	22594
 2081 00fa D358     		.short	22739
 2082 00fc 6359     		.short	22883
 2083 00fe F359     		.short	23027
 2084 0100 815A     		.short	23169
 2085 0102 0F5B     		.short	23311
 2086 0104 9C5B     		.short	23452
 2087 0106 285C     		.short	23592
 2088 0108 B35C     		.short	23731
 2089 010a 3D5D     		.short	23869
 2090 010c C65D     		.short	24006
ARM GAS  /tmp/ccVzq0iG.s 			page 38


 2091 010e 4F5E     		.short	24143
 2092 0110 D65E     		.short	24278
 2093 0112 5D5F     		.short	24413
 2094 0114 E25F     		.short	24546
 2095 0116 6760     		.short	24679
 2096 0118 EB60     		.short	24811
 2097 011a 6E61     		.short	24942
 2098 011c F061     		.short	25072
 2099 011e 7162     		.short	25201
 2100 0120 F162     		.short	25329
 2101 0122 7063     		.short	25456
 2102 0124 EE63     		.short	25582
 2103 0126 6B64     		.short	25707
 2104 0128 E764     		.short	25831
 2105 012a 6265     		.short	25954
 2106 012c DD65     		.short	26077
 2107 012e 5666     		.short	26198
 2108 0130 CE66     		.short	26318
 2109 0132 4567     		.short	26437
 2110 0134 BC67     		.short	26556
 2111 0136 3168     		.short	26673
 2112 0138 A568     		.short	26789
 2113 013a 1969     		.short	26905
 2114 013c 8B69     		.short	27019
 2115 013e FC69     		.short	27132
 2116 0140 6C6A     		.short	27244
 2117 0142 DB6A     		.short	27355
 2118 0144 4A6B     		.short	27466
 2119 0146 B76B     		.short	27575
 2120 0148 236C     		.short	27683
 2121 014a 8E6C     		.short	27790
 2122 014c F86C     		.short	27896
 2123 014e 616D     		.short	28001
 2124 0150 C96D     		.short	28105
 2125 0152 306E     		.short	28208
 2126 0154 956E     		.short	28309
 2127 0156 FA6E     		.short	28410
 2128 0158 5E6F     		.short	28510
 2129 015a C06F     		.short	28608
 2130 015c 2270     		.short	28706
 2131 015e 8270     		.short	28802
 2132 0160 E170     		.short	28897
 2133 0162 4071     		.short	28992
 2134 0164 9D71     		.short	29085
 2135 0166 F971     		.short	29177
 2136 0168 5472     		.short	29268
 2137 016a AE72     		.short	29358
 2138 016c 0673     		.short	29446
 2139 016e 5E73     		.short	29534
 2140 0170 B573     		.short	29621
 2141 0172 0A74     		.short	29706
 2142 0174 5E74     		.short	29790
 2143 0176 B174     		.short	29873
 2144 0178 0375     		.short	29955
 2145 017a 5475     		.short	30036
 2146 017c A475     		.short	30116
 2147 017e F375     		.short	30195
ARM GAS  /tmp/ccVzq0iG.s 			page 39


 2148 0180 4076     		.short	30272
 2149 0182 8D76     		.short	30349
 2150 0184 D876     		.short	30424
 2151 0186 2277     		.short	30498
 2152 0188 6B77     		.short	30571
 2153 018a B377     		.short	30643
 2154 018c F977     		.short	30713
 2155 018e 3F78     		.short	30783
 2156 0190 8378     		.short	30851
 2157 0192 C678     		.short	30918
 2158 0194 0879     		.short	30984
 2159 0196 4979     		.short	31049
 2160 0198 8979     		.short	31113
 2161 019a C779     		.short	31175
 2162 019c 047A     		.short	31236
 2163 019e 417A     		.short	31297
 2164 01a0 7C7A     		.short	31356
 2165 01a2 B57A     		.short	31413
 2166 01a4 EE7A     		.short	31470
 2167 01a6 257B     		.short	31525
 2168 01a8 5C7B     		.short	31580
 2169 01aa 917B     		.short	31633
 2170 01ac C47B     		.short	31684
 2171 01ae F77B     		.short	31735
 2172 01b0 297C     		.short	31785
 2173 01b2 597C     		.short	31833
 2174 01b4 887C     		.short	31880
 2175 01b6 B67C     		.short	31926
 2176 01b8 E27C     		.short	31970
 2177 01ba 0E7D     		.short	32014
 2178 01bc 387D     		.short	32056
 2179 01be 617D     		.short	32097
 2180 01c0 897D     		.short	32137
 2181 01c2 B07D     		.short	32176
 2182 01c4 D57D     		.short	32213
 2183 01c6 F97D     		.short	32249
 2184 01c8 1C7E     		.short	32284
 2185 01ca 3E7E     		.short	32318
 2186 01cc 5E7E     		.short	32350
 2187 01ce 7E7E     		.short	32382
 2188 01d0 9C7E     		.short	32412
 2189 01d2 B97E     		.short	32441
 2190 01d4 D47E     		.short	32468
 2191 01d6 EF7E     		.short	32495
 2192 01d8 087F     		.short	32520
 2193 01da 207F     		.short	32544
 2194 01dc 377F     		.short	32567
 2195 01de 4C7F     		.short	32588
 2196 01e0 617F     		.short	32609
 2197 01e2 747F     		.short	32628
 2198 01e4 867F     		.short	32646
 2199 01e6 967F     		.short	32662
 2200 01e8 A67F     		.short	32678
 2201 01ea B47F     		.short	32692
 2202 01ec C17F     		.short	32705
 2203 01ee CD7F     		.short	32717
 2204 01f0 D77F     		.short	32727
ARM GAS  /tmp/ccVzq0iG.s 			page 40


 2205 01f2 E07F     		.short	32736
 2206 01f4 E87F     		.short	32744
 2207 01f6 EF7F     		.short	32751
 2208 01f8 F57F     		.short	32757
 2209 01fa F97F     		.short	32761
 2210 01fc FC7F     		.short	32764
 2211 01fe FE7F     		.short	32766
 2212 0200 FF7F     		.short	32767
 2213 0202 FE7F     		.short	32766
 2214 0204 FC7F     		.short	32764
 2215 0206 F97F     		.short	32761
 2216 0208 F57F     		.short	32757
 2217 020a EF7F     		.short	32751
 2218 020c E87F     		.short	32744
 2219 020e E07F     		.short	32736
 2220 0210 D77F     		.short	32727
 2221 0212 CD7F     		.short	32717
 2222 0214 C17F     		.short	32705
 2223 0216 B47F     		.short	32692
 2224 0218 A67F     		.short	32678
 2225 021a 967F     		.short	32662
 2226 021c 867F     		.short	32646
 2227 021e 747F     		.short	32628
 2228 0220 617F     		.short	32609
 2229 0222 4C7F     		.short	32588
 2230 0224 377F     		.short	32567
 2231 0226 207F     		.short	32544
 2232 0228 087F     		.short	32520
 2233 022a EF7E     		.short	32495
 2234 022c D47E     		.short	32468
 2235 022e B97E     		.short	32441
 2236 0230 9C7E     		.short	32412
 2237 0232 7E7E     		.short	32382
 2238 0234 5E7E     		.short	32350
 2239 0236 3E7E     		.short	32318
 2240 0238 1C7E     		.short	32284
 2241 023a F97D     		.short	32249
 2242 023c D57D     		.short	32213
 2243 023e B07D     		.short	32176
 2244 0240 897D     		.short	32137
 2245 0242 617D     		.short	32097
 2246 0244 387D     		.short	32056
 2247 0246 0E7D     		.short	32014
 2248 0248 E27C     		.short	31970
 2249 024a B67C     		.short	31926
 2250 024c 887C     		.short	31880
 2251 024e 597C     		.short	31833
 2252 0250 297C     		.short	31785
 2253 0252 F77B     		.short	31735
 2254 0254 C47B     		.short	31684
 2255 0256 917B     		.short	31633
 2256 0258 5C7B     		.short	31580
 2257 025a 257B     		.short	31525
 2258 025c EE7A     		.short	31470
 2259 025e B57A     		.short	31413
 2260 0260 7C7A     		.short	31356
 2261 0262 417A     		.short	31297
ARM GAS  /tmp/ccVzq0iG.s 			page 41


 2262 0264 047A     		.short	31236
 2263 0266 C779     		.short	31175
 2264 0268 8979     		.short	31113
 2265 026a 4979     		.short	31049
 2266 026c 0879     		.short	30984
 2267 026e C678     		.short	30918
 2268 0270 8378     		.short	30851
 2269 0272 3F78     		.short	30783
 2270 0274 F977     		.short	30713
 2271 0276 B377     		.short	30643
 2272 0278 6B77     		.short	30571
 2273 027a 2277     		.short	30498
 2274 027c D876     		.short	30424
 2275 027e 8D76     		.short	30349
 2276 0280 4076     		.short	30272
 2277 0282 F375     		.short	30195
 2278 0284 A475     		.short	30116
 2279 0286 5475     		.short	30036
 2280 0288 0375     		.short	29955
 2281 028a B174     		.short	29873
 2282 028c 5E74     		.short	29790
 2283 028e 0A74     		.short	29706
 2284 0290 B573     		.short	29621
 2285 0292 5E73     		.short	29534
 2286 0294 0673     		.short	29446
 2287 0296 AE72     		.short	29358
 2288 0298 5472     		.short	29268
 2289 029a F971     		.short	29177
 2290 029c 9D71     		.short	29085
 2291 029e 4071     		.short	28992
 2292 02a0 E170     		.short	28897
 2293 02a2 8270     		.short	28802
 2294 02a4 2270     		.short	28706
 2295 02a6 C06F     		.short	28608
 2296 02a8 5E6F     		.short	28510
 2297 02aa FA6E     		.short	28410
 2298 02ac 956E     		.short	28309
 2299 02ae 306E     		.short	28208
 2300 02b0 C96D     		.short	28105
 2301 02b2 616D     		.short	28001
 2302 02b4 F86C     		.short	27896
 2303 02b6 8E6C     		.short	27790
 2304 02b8 236C     		.short	27683
 2305 02ba B76B     		.short	27575
 2306 02bc 4A6B     		.short	27466
 2307 02be DB6A     		.short	27355
 2308 02c0 6C6A     		.short	27244
 2309 02c2 FC69     		.short	27132
 2310 02c4 8B69     		.short	27019
 2311 02c6 1969     		.short	26905
 2312 02c8 A568     		.short	26789
 2313 02ca 3168     		.short	26673
 2314 02cc BC67     		.short	26556
 2315 02ce 4567     		.short	26437
 2316 02d0 CE66     		.short	26318
 2317 02d2 5666     		.short	26198
 2318 02d4 DD65     		.short	26077
ARM GAS  /tmp/ccVzq0iG.s 			page 42


 2319 02d6 6265     		.short	25954
 2320 02d8 E764     		.short	25831
 2321 02da 6B64     		.short	25707
 2322 02dc EE63     		.short	25582
 2323 02de 7063     		.short	25456
 2324 02e0 F162     		.short	25329
 2325 02e2 7162     		.short	25201
 2326 02e4 F061     		.short	25072
 2327 02e6 6E61     		.short	24942
 2328 02e8 EB60     		.short	24811
 2329 02ea 6760     		.short	24679
 2330 02ec E25F     		.short	24546
 2331 02ee 5D5F     		.short	24413
 2332 02f0 D65E     		.short	24278
 2333 02f2 4F5E     		.short	24143
 2334 02f4 C65D     		.short	24006
 2335 02f6 3D5D     		.short	23869
 2336 02f8 B35C     		.short	23731
 2337 02fa 285C     		.short	23592
 2338 02fc 9C5B     		.short	23452
 2339 02fe 0F5B     		.short	23311
 2340 0300 815A     		.short	23169
 2341 0302 F359     		.short	23027
 2342 0304 6359     		.short	22883
 2343 0306 D358     		.short	22739
 2344 0308 4258     		.short	22594
 2345 030a B057     		.short	22448
 2346 030c 1D57     		.short	22301
 2347 030e 8956     		.short	22153
 2348 0310 F455     		.short	22004
 2349 0312 5F55     		.short	21855
 2350 0314 C954     		.short	21705
 2351 0316 3254     		.short	21554
 2352 0318 9A53     		.short	21402
 2353 031a 0153     		.short	21249
 2354 031c 6852     		.short	21096
 2355 031e CE51     		.short	20942
 2356 0320 3351     		.short	20787
 2357 0322 9750     		.short	20631
 2358 0324 FA4F     		.short	20474
 2359 0326 5D4F     		.short	20317
 2360 0328 BF4E     		.short	20159
 2361 032a 204E     		.short	20000
 2362 032c 804D     		.short	19840
 2363 032e E04C     		.short	19680
 2364 0330 3F4C     		.short	19519
 2365 0332 9D4B     		.short	19357
 2366 0334 FA4A     		.short	19194
 2367 0336 574A     		.short	19031
 2368 0338 B349     		.short	18867
 2369 033a 0E49     		.short	18702
 2370 033c 6948     		.short	18537
 2371 033e C347     		.short	18371
 2372 0340 1C47     		.short	18204
 2373 0342 7446     		.short	18036
 2374 0344 CC45     		.short	17868
 2375 0346 2345     		.short	17699
ARM GAS  /tmp/ccVzq0iG.s 			page 43


 2376 0348 7A44     		.short	17530
 2377 034a D043     		.short	17360
 2378 034c 2543     		.short	17189
 2379 034e 7942     		.short	17017
 2380 0350 CD41     		.short	16845
 2381 0352 2041     		.short	16672
 2382 0354 7340     		.short	16499
 2383 0356 C53F     		.short	16325
 2384 0358 163F     		.short	16150
 2385 035a 673E     		.short	15975
 2386 035c B73D     		.short	15799
 2387 035e 073D     		.short	15623
 2388 0360 563C     		.short	15446
 2389 0362 A43B     		.short	15268
 2390 0364 F23A     		.short	15090
 2391 0366 3F3A     		.short	14911
 2392 0368 8C39     		.short	14732
 2393 036a D838     		.short	14552
 2394 036c 2438     		.short	14372
 2395 036e 6F37     		.short	14191
 2396 0370 B936     		.short	14009
 2397 0372 0336     		.short	13827
 2398 0374 4D35     		.short	13645
 2399 0376 9634     		.short	13462
 2400 0378 DE33     		.short	13278
 2401 037a 2633     		.short	13094
 2402 037c 6D32     		.short	12909
 2403 037e B431     		.short	12724
 2404 0380 FB30     		.short	12539
 2405 0382 4130     		.short	12353
 2406 0384 862F     		.short	12166
 2407 0386 CC2E     		.short	11980
 2408 0388 102E     		.short	11792
 2409 038a 542D     		.short	11604
 2410 038c 982C     		.short	11416
 2411 038e DB2B     		.short	11227
 2412 0390 1E2B     		.short	11038
 2413 0392 612A     		.short	10849
 2414 0394 A329     		.short	10659
 2415 0396 E528     		.short	10469
 2416 0398 2628     		.short	10278
 2417 039a 6727     		.short	10087
 2418 039c A726     		.short	9895
 2419 039e E725     		.short	9703
 2420 03a0 2725     		.short	9511
 2421 03a2 6724     		.short	9319
 2422 03a4 A623     		.short	9126
 2423 03a6 E422     		.short	8932
 2424 03a8 2322     		.short	8739
 2425 03aa 6121     		.short	8545
 2426 03ac 9F20     		.short	8351
 2427 03ae DC1F     		.short	8156
 2428 03b0 191F     		.short	7961
 2429 03b2 561E     		.short	7766
 2430 03b4 931D     		.short	7571
 2431 03b6 CF1C     		.short	7375
 2432 03b8 0B1C     		.short	7179
ARM GAS  /tmp/ccVzq0iG.s 			page 44


 2433 03ba 461B     		.short	6982
 2434 03bc 821A     		.short	6786
 2435 03be BD19     		.short	6589
 2436 03c0 F818     		.short	6392
 2437 03c2 3318     		.short	6195
 2438 03c4 6D17     		.short	5997
 2439 03c6 A716     		.short	5799
 2440 03c8 E115     		.short	5601
 2441 03ca 1B15     		.short	5403
 2442 03cc 5514     		.short	5205
 2443 03ce 8E13     		.short	5006
 2444 03d0 C712     		.short	4807
 2445 03d2 0012     		.short	4608
 2446 03d4 3911     		.short	4409
 2447 03d6 7210     		.short	4210
 2448 03d8 AB0F     		.short	4011
 2449 03da E30E     		.short	3811
 2450 03dc 1B0E     		.short	3611
 2451 03de 530D     		.short	3411
 2452 03e0 8B0C     		.short	3211
 2453 03e2 C30B     		.short	3011
 2454 03e4 FB0A     		.short	2811
 2455 03e6 320A     		.short	2610
 2456 03e8 6A09     		.short	2410
 2457 03ea A108     		.short	2209
 2458 03ec D907     		.short	2009
 2459 03ee 1007     		.short	1808
 2460 03f0 4706     		.short	1607
 2461 03f2 7E05     		.short	1406
 2462 03f4 B604     		.short	1206
 2463 03f6 ED03     		.short	1005
 2464 03f8 2403     		.short	804
 2465 03fa 5B02     		.short	603
 2466 03fc 9201     		.short	402
 2467 03fe C900     		.short	201
 2468 0400 0000     		.short	0
 2469 0402 37FF     		.short	-201
 2470 0404 6EFE     		.short	-402
 2471 0406 A5FD     		.short	-603
 2472 0408 DCFC     		.short	-804
 2473 040a 13FC     		.short	-1005
 2474 040c 4AFB     		.short	-1206
 2475 040e 82FA     		.short	-1406
 2476 0410 B9F9     		.short	-1607
 2477 0412 F0F8     		.short	-1808
 2478 0414 27F8     		.short	-2009
 2479 0416 5FF7     		.short	-2209
 2480 0418 96F6     		.short	-2410
 2481 041a CEF5     		.short	-2610
 2482 041c 05F5     		.short	-2811
 2483 041e 3DF4     		.short	-3011
 2484 0420 75F3     		.short	-3211
 2485 0422 ADF2     		.short	-3411
 2486 0424 E5F1     		.short	-3611
 2487 0426 1DF1     		.short	-3811
 2488 0428 55F0     		.short	-4011
 2489 042a 8EEF     		.short	-4210
ARM GAS  /tmp/ccVzq0iG.s 			page 45


 2490 042c C7EE     		.short	-4409
 2491 042e 00EE     		.short	-4608
 2492 0430 39ED     		.short	-4807
 2493 0432 72EC     		.short	-5006
 2494 0434 ABEB     		.short	-5205
 2495 0436 E5EA     		.short	-5403
 2496 0438 1FEA     		.short	-5601
 2497 043a 59E9     		.short	-5799
 2498 043c 93E8     		.short	-5997
 2499 043e CDE7     		.short	-6195
 2500 0440 08E7     		.short	-6392
 2501 0442 43E6     		.short	-6589
 2502 0444 7EE5     		.short	-6786
 2503 0446 BAE4     		.short	-6982
 2504 0448 F5E3     		.short	-7179
 2505 044a 31E3     		.short	-7375
 2506 044c 6DE2     		.short	-7571
 2507 044e AAE1     		.short	-7766
 2508 0450 E7E0     		.short	-7961
 2509 0452 24E0     		.short	-8156
 2510 0454 61DF     		.short	-8351
 2511 0456 9FDE     		.short	-8545
 2512 0458 DDDD     		.short	-8739
 2513 045a 1CDD     		.short	-8932
 2514 045c 5ADC     		.short	-9126
 2515 045e 99DB     		.short	-9319
 2516 0460 D9DA     		.short	-9511
 2517 0462 19DA     		.short	-9703
 2518 0464 59D9     		.short	-9895
 2519 0466 99D8     		.short	-10087
 2520 0468 DAD7     		.short	-10278
 2521 046a 1BD7     		.short	-10469
 2522 046c 5DD6     		.short	-10659
 2523 046e 9FD5     		.short	-10849
 2524 0470 E2D4     		.short	-11038
 2525 0472 25D4     		.short	-11227
 2526 0474 68D3     		.short	-11416
 2527 0476 ACD2     		.short	-11604
 2528 0478 F0D1     		.short	-11792
 2529 047a 34D1     		.short	-11980
 2530 047c 7AD0     		.short	-12166
 2531 047e BFCF     		.short	-12353
 2532 0480 05CF     		.short	-12539
 2533 0482 4CCE     		.short	-12724
 2534 0484 93CD     		.short	-12909
 2535 0486 DACC     		.short	-13094
 2536 0488 22CC     		.short	-13278
 2537 048a 6ACB     		.short	-13462
 2538 048c B3CA     		.short	-13645
 2539 048e FDC9     		.short	-13827
 2540 0490 47C9     		.short	-14009
 2541 0492 91C8     		.short	-14191
 2542 0494 DCC7     		.short	-14372
 2543 0496 28C7     		.short	-14552
 2544 0498 74C6     		.short	-14732
 2545 049a C1C5     		.short	-14911
 2546 049c 0EC5     		.short	-15090
ARM GAS  /tmp/ccVzq0iG.s 			page 46


 2547 049e 5CC4     		.short	-15268
 2548 04a0 AAC3     		.short	-15446
 2549 04a2 F9C2     		.short	-15623
 2550 04a4 49C2     		.short	-15799
 2551 04a6 99C1     		.short	-15975
 2552 04a8 EAC0     		.short	-16150
 2553 04aa 3BC0     		.short	-16325
 2554 04ac 8DBF     		.short	-16499
 2555 04ae E0BE     		.short	-16672
 2556 04b0 33BE     		.short	-16845
 2557 04b2 87BD     		.short	-17017
 2558 04b4 DBBC     		.short	-17189
 2559 04b6 30BC     		.short	-17360
 2560 04b8 86BB     		.short	-17530
 2561 04ba DDBA     		.short	-17699
 2562 04bc 34BA     		.short	-17868
 2563 04be 8CB9     		.short	-18036
 2564 04c0 E4B8     		.short	-18204
 2565 04c2 3DB8     		.short	-18371
 2566 04c4 97B7     		.short	-18537
 2567 04c6 F2B6     		.short	-18702
 2568 04c8 4DB6     		.short	-18867
 2569 04ca A9B5     		.short	-19031
 2570 04cc 06B5     		.short	-19194
 2571 04ce 63B4     		.short	-19357
 2572 04d0 C1B3     		.short	-19519
 2573 04d2 20B3     		.short	-19680
 2574 04d4 80B2     		.short	-19840
 2575 04d6 E0B1     		.short	-20000
 2576 04d8 41B1     		.short	-20159
 2577 04da A3B0     		.short	-20317
 2578 04dc 06B0     		.short	-20474
 2579 04de 69AF     		.short	-20631
 2580 04e0 CDAE     		.short	-20787
 2581 04e2 32AE     		.short	-20942
 2582 04e4 98AD     		.short	-21096
 2583 04e6 FFAC     		.short	-21249
 2584 04e8 66AC     		.short	-21402
 2585 04ea CEAB     		.short	-21554
 2586 04ec 37AB     		.short	-21705
 2587 04ee A1AA     		.short	-21855
 2588 04f0 0CAA     		.short	-22004
 2589 04f2 77A9     		.short	-22153
 2590 04f4 E3A8     		.short	-22301
 2591 04f6 50A8     		.short	-22448
 2592 04f8 BEA7     		.short	-22594
 2593 04fa 2DA7     		.short	-22739
 2594 04fc 9DA6     		.short	-22883
 2595 04fe 0DA6     		.short	-23027
 2596 0500 7FA5     		.short	-23169
 2597 0502 F1A4     		.short	-23311
 2598 0504 64A4     		.short	-23452
 2599 0506 D8A3     		.short	-23592
 2600 0508 4DA3     		.short	-23731
 2601 050a C3A2     		.short	-23869
 2602 050c 3AA2     		.short	-24006
 2603 050e B1A1     		.short	-24143
ARM GAS  /tmp/ccVzq0iG.s 			page 47


 2604 0510 2AA1     		.short	-24278
 2605 0512 A3A0     		.short	-24413
 2606 0514 1EA0     		.short	-24546
 2607 0516 999F     		.short	-24679
 2608 0518 159F     		.short	-24811
 2609 051a 929E     		.short	-24942
 2610 051c 109E     		.short	-25072
 2611 051e 8F9D     		.short	-25201
 2612 0520 0F9D     		.short	-25329
 2613 0522 909C     		.short	-25456
 2614 0524 129C     		.short	-25582
 2615 0526 959B     		.short	-25707
 2616 0528 199B     		.short	-25831
 2617 052a 9E9A     		.short	-25954
 2618 052c 239A     		.short	-26077
 2619 052e AA99     		.short	-26198
 2620 0530 3299     		.short	-26318
 2621 0532 BB98     		.short	-26437
 2622 0534 4498     		.short	-26556
 2623 0536 CF97     		.short	-26673
 2624 0538 5B97     		.short	-26789
 2625 053a E796     		.short	-26905
 2626 053c 7596     		.short	-27019
 2627 053e 0496     		.short	-27132
 2628 0540 9495     		.short	-27244
 2629 0542 2595     		.short	-27355
 2630 0544 B694     		.short	-27466
 2631 0546 4994     		.short	-27575
 2632 0548 DD93     		.short	-27683
 2633 054a 7293     		.short	-27790
 2634 054c 0893     		.short	-27896
 2635 054e 9F92     		.short	-28001
 2636 0550 3792     		.short	-28105
 2637 0552 D091     		.short	-28208
 2638 0554 6B91     		.short	-28309
 2639 0556 0691     		.short	-28410
 2640 0558 A290     		.short	-28510
 2641 055a 4090     		.short	-28608
 2642 055c DE8F     		.short	-28706
 2643 055e 7E8F     		.short	-28802
 2644 0560 1F8F     		.short	-28897
 2645 0562 C08E     		.short	-28992
 2646 0564 638E     		.short	-29085
 2647 0566 078E     		.short	-29177
 2648 0568 AC8D     		.short	-29268
 2649 056a 528D     		.short	-29358
 2650 056c FA8C     		.short	-29446
 2651 056e A28C     		.short	-29534
 2652 0570 4B8C     		.short	-29621
 2653 0572 F68B     		.short	-29706
 2654 0574 A28B     		.short	-29790
 2655 0576 4F8B     		.short	-29873
 2656 0578 FD8A     		.short	-29955
 2657 057a AC8A     		.short	-30036
 2658 057c 5C8A     		.short	-30116
 2659 057e 0D8A     		.short	-30195
 2660 0580 C089     		.short	-30272
ARM GAS  /tmp/ccVzq0iG.s 			page 48


 2661 0582 7389     		.short	-30349
 2662 0584 2889     		.short	-30424
 2663 0586 DE88     		.short	-30498
 2664 0588 9588     		.short	-30571
 2665 058a 4D88     		.short	-30643
 2666 058c 0788     		.short	-30713
 2667 058e C187     		.short	-30783
 2668 0590 7D87     		.short	-30851
 2669 0592 3A87     		.short	-30918
 2670 0594 F886     		.short	-30984
 2671 0596 B786     		.short	-31049
 2672 0598 7786     		.short	-31113
 2673 059a 3986     		.short	-31175
 2674 059c FC85     		.short	-31236
 2675 059e BF85     		.short	-31297
 2676 05a0 8485     		.short	-31356
 2677 05a2 4B85     		.short	-31413
 2678 05a4 1285     		.short	-31470
 2679 05a6 DB84     		.short	-31525
 2680 05a8 A484     		.short	-31580
 2681 05aa 6F84     		.short	-31633
 2682 05ac 3C84     		.short	-31684
 2683 05ae 0984     		.short	-31735
 2684 05b0 D783     		.short	-31785
 2685 05b2 A783     		.short	-31833
 2686 05b4 7883     		.short	-31880
 2687 05b6 4A83     		.short	-31926
 2688 05b8 1E83     		.short	-31970
 2689 05ba F282     		.short	-32014
 2690 05bc C882     		.short	-32056
 2691 05be 9F82     		.short	-32097
 2692 05c0 7782     		.short	-32137
 2693 05c2 5082     		.short	-32176
 2694 05c4 2B82     		.short	-32213
 2695 05c6 0782     		.short	-32249
 2696 05c8 E481     		.short	-32284
 2697 05ca C281     		.short	-32318
 2698 05cc A281     		.short	-32350
 2699 05ce 8281     		.short	-32382
 2700 05d0 6481     		.short	-32412
 2701 05d2 4781     		.short	-32441
 2702 05d4 2C81     		.short	-32468
 2703 05d6 1181     		.short	-32495
 2704 05d8 F880     		.short	-32520
 2705 05da E080     		.short	-32544
 2706 05dc C980     		.short	-32567
 2707 05de B480     		.short	-32588
 2708 05e0 9F80     		.short	-32609
 2709 05e2 8C80     		.short	-32628
 2710 05e4 7A80     		.short	-32646
 2711 05e6 6A80     		.short	-32662
 2712 05e8 5A80     		.short	-32678
 2713 05ea 4C80     		.short	-32692
 2714 05ec 3F80     		.short	-32705
 2715 05ee 3380     		.short	-32717
 2716 05f0 2980     		.short	-32727
 2717 05f2 2080     		.short	-32736
ARM GAS  /tmp/ccVzq0iG.s 			page 49


 2718 05f4 1880     		.short	-32744
 2719 05f6 1180     		.short	-32751
 2720 05f8 0B80     		.short	-32757
 2721 05fa 0780     		.short	-32761
 2722 05fc 0480     		.short	-32764
 2723 05fe 0280     		.short	-32766
 2724 0600 0180     		.short	-32767
 2725 0602 0280     		.short	-32766
 2726 0604 0480     		.short	-32764
 2727 0606 0780     		.short	-32761
 2728 0608 0B80     		.short	-32757
 2729 060a 1180     		.short	-32751
 2730 060c 1880     		.short	-32744
 2731 060e 2080     		.short	-32736
 2732 0610 2980     		.short	-32727
 2733 0612 3380     		.short	-32717
 2734 0614 3F80     		.short	-32705
 2735 0616 4C80     		.short	-32692
 2736 0618 5A80     		.short	-32678
 2737 061a 6A80     		.short	-32662
 2738 061c 7A80     		.short	-32646
 2739 061e 8C80     		.short	-32628
 2740 0620 9F80     		.short	-32609
 2741 0622 B480     		.short	-32588
 2742 0624 C980     		.short	-32567
 2743 0626 E080     		.short	-32544
 2744 0628 F880     		.short	-32520
 2745 062a 1181     		.short	-32495
 2746 062c 2C81     		.short	-32468
 2747 062e 4781     		.short	-32441
 2748 0630 6481     		.short	-32412
 2749 0632 8281     		.short	-32382
 2750 0634 A281     		.short	-32350
 2751 0636 C281     		.short	-32318
 2752 0638 E481     		.short	-32284
 2753 063a 0782     		.short	-32249
 2754 063c 2B82     		.short	-32213
 2755 063e 5082     		.short	-32176
 2756 0640 7782     		.short	-32137
 2757 0642 9F82     		.short	-32097
 2758 0644 C882     		.short	-32056
 2759 0646 F282     		.short	-32014
 2760 0648 1E83     		.short	-31970
 2761 064a 4A83     		.short	-31926
 2762 064c 7883     		.short	-31880
 2763 064e A783     		.short	-31833
 2764 0650 D783     		.short	-31785
 2765 0652 0984     		.short	-31735
 2766 0654 3C84     		.short	-31684
 2767 0656 6F84     		.short	-31633
 2768 0658 A484     		.short	-31580
 2769 065a DB84     		.short	-31525
 2770 065c 1285     		.short	-31470
 2771 065e 4B85     		.short	-31413
 2772 0660 8485     		.short	-31356
 2773 0662 BF85     		.short	-31297
 2774 0664 FC85     		.short	-31236
ARM GAS  /tmp/ccVzq0iG.s 			page 50


 2775 0666 3986     		.short	-31175
 2776 0668 7786     		.short	-31113
 2777 066a B786     		.short	-31049
 2778 066c F886     		.short	-30984
 2779 066e 3A87     		.short	-30918
 2780 0670 7D87     		.short	-30851
 2781 0672 C187     		.short	-30783
 2782 0674 0788     		.short	-30713
 2783 0676 4D88     		.short	-30643
 2784 0678 9588     		.short	-30571
 2785 067a DE88     		.short	-30498
 2786 067c 2889     		.short	-30424
 2787 067e 7389     		.short	-30349
 2788 0680 C089     		.short	-30272
 2789 0682 0D8A     		.short	-30195
 2790 0684 5C8A     		.short	-30116
 2791 0686 AC8A     		.short	-30036
 2792 0688 FD8A     		.short	-29955
 2793 068a 4F8B     		.short	-29873
 2794 068c A28B     		.short	-29790
 2795 068e F68B     		.short	-29706
 2796 0690 4B8C     		.short	-29621
 2797 0692 A28C     		.short	-29534
 2798 0694 FA8C     		.short	-29446
 2799 0696 528D     		.short	-29358
 2800 0698 AC8D     		.short	-29268
 2801 069a 078E     		.short	-29177
 2802 069c 638E     		.short	-29085
 2803 069e C08E     		.short	-28992
 2804 06a0 1F8F     		.short	-28897
 2805 06a2 7E8F     		.short	-28802
 2806 06a4 DE8F     		.short	-28706
 2807 06a6 4090     		.short	-28608
 2808 06a8 A290     		.short	-28510
 2809 06aa 0691     		.short	-28410
 2810 06ac 6B91     		.short	-28309
 2811 06ae D091     		.short	-28208
 2812 06b0 3792     		.short	-28105
 2813 06b2 9F92     		.short	-28001
 2814 06b4 0893     		.short	-27896
 2815 06b6 7293     		.short	-27790
 2816 06b8 DD93     		.short	-27683
 2817 06ba 4994     		.short	-27575
 2818 06bc B694     		.short	-27466
 2819 06be 2595     		.short	-27355
 2820 06c0 9495     		.short	-27244
 2821 06c2 0496     		.short	-27132
 2822 06c4 7596     		.short	-27019
 2823 06c6 E796     		.short	-26905
 2824 06c8 5B97     		.short	-26789
 2825 06ca CF97     		.short	-26673
 2826 06cc 4498     		.short	-26556
 2827 06ce BB98     		.short	-26437
 2828 06d0 3299     		.short	-26318
 2829 06d2 AA99     		.short	-26198
 2830 06d4 239A     		.short	-26077
 2831 06d6 9E9A     		.short	-25954
ARM GAS  /tmp/ccVzq0iG.s 			page 51


 2832 06d8 199B     		.short	-25831
 2833 06da 959B     		.short	-25707
 2834 06dc 129C     		.short	-25582
 2835 06de 909C     		.short	-25456
 2836 06e0 0F9D     		.short	-25329
 2837 06e2 8F9D     		.short	-25201
 2838 06e4 109E     		.short	-25072
 2839 06e6 929E     		.short	-24942
 2840 06e8 159F     		.short	-24811
 2841 06ea 999F     		.short	-24679
 2842 06ec 1EA0     		.short	-24546
 2843 06ee A3A0     		.short	-24413
 2844 06f0 2AA1     		.short	-24278
 2845 06f2 B1A1     		.short	-24143
 2846 06f4 3AA2     		.short	-24006
 2847 06f6 C3A2     		.short	-23869
 2848 06f8 4DA3     		.short	-23731
 2849 06fa D8A3     		.short	-23592
 2850 06fc 64A4     		.short	-23452
 2851 06fe F1A4     		.short	-23311
 2852 0700 7FA5     		.short	-23169
 2853 0702 0DA6     		.short	-23027
 2854 0704 9DA6     		.short	-22883
 2855 0706 2DA7     		.short	-22739
 2856 0708 BEA7     		.short	-22594
 2857 070a 50A8     		.short	-22448
 2858 070c E3A8     		.short	-22301
 2859 070e 77A9     		.short	-22153
 2860 0710 0CAA     		.short	-22004
 2861 0712 A1AA     		.short	-21855
 2862 0714 37AB     		.short	-21705
 2863 0716 CEAB     		.short	-21554
 2864 0718 66AC     		.short	-21402
 2865 071a FFAC     		.short	-21249
 2866 071c 98AD     		.short	-21096
 2867 071e 32AE     		.short	-20942
 2868 0720 CDAE     		.short	-20787
 2869 0722 69AF     		.short	-20631
 2870 0724 06B0     		.short	-20474
 2871 0726 A3B0     		.short	-20317
 2872 0728 41B1     		.short	-20159
 2873 072a E0B1     		.short	-20000
 2874 072c 80B2     		.short	-19840
 2875 072e 20B3     		.short	-19680
 2876 0730 C1B3     		.short	-19519
 2877 0732 63B4     		.short	-19357
 2878 0734 06B5     		.short	-19194
 2879 0736 A9B5     		.short	-19031
 2880 0738 4DB6     		.short	-18867
 2881 073a F2B6     		.short	-18702
 2882 073c 97B7     		.short	-18537
 2883 073e 3DB8     		.short	-18371
 2884 0740 E4B8     		.short	-18204
 2885 0742 8CB9     		.short	-18036
 2886 0744 34BA     		.short	-17868
 2887 0746 DDBA     		.short	-17699
 2888 0748 86BB     		.short	-17530
ARM GAS  /tmp/ccVzq0iG.s 			page 52


 2889 074a 30BC     		.short	-17360
 2890 074c DBBC     		.short	-17189
 2891 074e 87BD     		.short	-17017
 2892 0750 33BE     		.short	-16845
 2893 0752 E0BE     		.short	-16672
 2894 0754 8DBF     		.short	-16499
 2895 0756 3BC0     		.short	-16325
 2896 0758 EAC0     		.short	-16150
 2897 075a 99C1     		.short	-15975
 2898 075c 49C2     		.short	-15799
 2899 075e F9C2     		.short	-15623
 2900 0760 AAC3     		.short	-15446
 2901 0762 5CC4     		.short	-15268
 2902 0764 0EC5     		.short	-15090
 2903 0766 C1C5     		.short	-14911
 2904 0768 74C6     		.short	-14732
 2905 076a 28C7     		.short	-14552
 2906 076c DCC7     		.short	-14372
 2907 076e 91C8     		.short	-14191
 2908 0770 47C9     		.short	-14009
 2909 0772 FDC9     		.short	-13827
 2910 0774 B3CA     		.short	-13645
 2911 0776 6ACB     		.short	-13462
 2912 0778 22CC     		.short	-13278
 2913 077a DACC     		.short	-13094
 2914 077c 93CD     		.short	-12909
 2915 077e 4CCE     		.short	-12724
 2916 0780 05CF     		.short	-12539
 2917 0782 BFCF     		.short	-12353
 2918 0784 7AD0     		.short	-12166
 2919 0786 34D1     		.short	-11980
 2920 0788 F0D1     		.short	-11792
 2921 078a ACD2     		.short	-11604
 2922 078c 68D3     		.short	-11416
 2923 078e 25D4     		.short	-11227
 2924 0790 E2D4     		.short	-11038
 2925 0792 9FD5     		.short	-10849
 2926 0794 5DD6     		.short	-10659
 2927 0796 1BD7     		.short	-10469
 2928 0798 DAD7     		.short	-10278
 2929 079a 99D8     		.short	-10087
 2930 079c 59D9     		.short	-9895
 2931 079e 19DA     		.short	-9703
 2932 07a0 D9DA     		.short	-9511
 2933 07a2 99DB     		.short	-9319
 2934 07a4 5ADC     		.short	-9126
 2935 07a6 1CDD     		.short	-8932
 2936 07a8 DDDD     		.short	-8739
 2937 07aa 9FDE     		.short	-8545
 2938 07ac 61DF     		.short	-8351
 2939 07ae 24E0     		.short	-8156
 2940 07b0 E7E0     		.short	-7961
 2941 07b2 AAE1     		.short	-7766
 2942 07b4 6DE2     		.short	-7571
 2943 07b6 31E3     		.short	-7375
 2944 07b8 F5E3     		.short	-7179
 2945 07ba BAE4     		.short	-6982
ARM GAS  /tmp/ccVzq0iG.s 			page 53


 2946 07bc 7EE5     		.short	-6786
 2947 07be 43E6     		.short	-6589
 2948 07c0 08E7     		.short	-6392
 2949 07c2 CDE7     		.short	-6195
 2950 07c4 93E8     		.short	-5997
 2951 07c6 59E9     		.short	-5799
 2952 07c8 1FEA     		.short	-5601
 2953 07ca E5EA     		.short	-5403
 2954 07cc ABEB     		.short	-5205
 2955 07ce 72EC     		.short	-5006
 2956 07d0 39ED     		.short	-4807
 2957 07d2 00EE     		.short	-4608
 2958 07d4 C7EE     		.short	-4409
 2959 07d6 8EEF     		.short	-4210
 2960 07d8 55F0     		.short	-4011
 2961 07da 1DF1     		.short	-3811
 2962 07dc E5F1     		.short	-3611
 2963 07de ADF2     		.short	-3411
 2964 07e0 75F3     		.short	-3211
 2965 07e2 3DF4     		.short	-3011
 2966 07e4 05F5     		.short	-2811
 2967 07e6 CEF5     		.short	-2610
 2968 07e8 96F6     		.short	-2410
 2969 07ea 5FF7     		.short	-2209
 2970 07ec 27F8     		.short	-2009
 2971 07ee F0F8     		.short	-1808
 2972 07f0 B9F9     		.short	-1607
 2973 07f2 82FA     		.short	-1406
 2974 07f4 4AFB     		.short	-1206
 2975 07f6 13FC     		.short	-1005
 2976 07f8 DCFC     		.short	-804
 2977 07fa A5FD     		.short	-603
 2978 07fc 6EFE     		.short	-402
 2979 07fe 37FF     		.short	-201
 2980              		.section	.rodata.str1.4,"aMS",%progbits,1
 2981              		.align	2
 2982              	.LC0:
 2983 0000 626C696E 		.ascii	"blinker\000"
 2983      6B657200 
 2984              	.LC1:
 2985 0008 256300   		.ascii	"%c\000"
 2986 000b 00       		.space	1
 2987              	.LC2:
 2988 000c 2000     		.ascii	" \000"
 2989 000e 0000     		.space	2
 2990              	.LC3:
 2991 0010 41542B43 		.ascii	"AT+CIPSTART=\"TCP\",\"192.168.0.15\",80\015\012\000"
 2991      49505354 
 2991      4152543D 
 2991      22544350 
 2991      222C2231 
 2992 0036 0000     		.space	2
 2993              	.LC4:
 2994 0038 41542B43 		.ascii	"AT+CIPSEND=395\015\012\000"
 2994      49505345 
 2994      4E443D33 
 2994      39350D0A 
ARM GAS  /tmp/ccVzq0iG.s 			page 54


 2994      00
 2995 0049 000000   		.space	3
 2996              	.LC5:
 2997 004c 202000   		.ascii	"  \000"
 2998 004f 00       		.space	1
 2999              	.LC6:
 3000 0050 47455420 		.ascii	"GET /~sssilvar/Web_Platform/php/db.php?va=[\000"
 3000      2F7E7373 
 3000      73696C76 
 3000      61722F57 
 3000      65625F50 
 3001              	.LC7:
 3002 007c 5D204854 		.ascii	"] HTTP/1.0\015\012\015\012\000"
 3002      54502F31 
 3002      2E300D0A 
 3002      0D0A00
 3003 008b 00       		.space	1
 3004              	.LC8:
 3005 008c 2C00     		.ascii	",\000"
 3006 008e 0000     		.section	.rodata.adcgrpcfg1,"a",%progbits
 3007              		.align	2
 3008              		.set	.LANCHOR4,. + 0
 3009              		.type	adcgrpcfg1, %object
 3010              		.size	adcgrpcfg1, 40
 3011              	adcgrpcfg1:
 3012 0000 00       		.byte	0
 3013 0001 00       		.space	1
 3014 0002 0100     		.short	1
 3015 0004 00000000 		.word	0
 3016 0008 00000000 		.word	adcerrorcallback
 3017 000c 00000000 		.word	0
 3018 0010 00000040 		.word	1073741824
 3019 0014 00000000 		.word	0
 3020 0018 00000000 		.word	0
 3021 001c 00000000 		.word	0
 3022 0020 00000000 		.word	0
 3023 0024 01000000 		.word	1
 3024              		.section	.bss.samples1,"aw",%nobits
 3025              		.align	2
 3026              		.set	.LANCHOR3,. + 0
 3027              		.type	samples1, %object
 3028              		.size	samples1, 8
 3029              	samples1:
 3030 0000 00000000 		.space	8
 3030      00000000 
 3031              		.section	.bss.data1,"aw",%nobits
 3032              		.align	2
 3033              		.set	.LANCHOR2,. + 0
 3034              		.type	data1, %object
 3035              		.size	data1, 2048
 3036              	data1:
 3037 0000 00000000 		.space	2048
 3037      00000000 
 3037      00000000 
 3037      00000000 
 3037      00000000 
 3038              		.text
ARM GAS  /tmp/ccVzq0iG.s 			page 55


 3039              	.Letext0:
 3040              		.file 8 "/usr/lib/gcc/arm-none-eabi/5.2.0/include/stddef.h"
 3041              		.file 9 "/usr/arm-none-eabi/include/machine/_default_types.h"
 3042              		.file 10 "/usr/arm-none-eabi/include/stdint.h"
 3043              		.file 11 "../../os/rt/ports/ARMCMx/compilers/GCC/chtypes.h"
 3044              		.file 12 "../../os/rt/include/chsystypes.h"
 3045              		.file 13 "../../os/rt/include/chschd.h"
 3046              		.file 14 "../../os/ext/CMSIS/ST/stm32f401xc.h"
 3047              		.file 15 "../../os/rt/ports/ARMCMx/chcore.h"
 3048              		.file 16 "../../os/rt/ports/ARMCMx/chcore_v7m.h"
 3049              		.file 17 "../../os/rt/include/chtm.h"
 3050              		.file 18 "../../os/rt/include/chsem.h"
 3051              		.file 19 "../../os/rt/include/chmtx.h"
 3052              		.file 20 "../../os/rt/include/chevents.h"
 3053              		.file 21 "../../os/rt/include/chqueues.h"
 3054              		.file 22 "../../os/rt/include/chstreams.h"
 3055              		.file 23 "../../os/hal/ports/STM32/STM32F4xx/stm32_dma.h"
 3056              		.file 24 "../../os/hal/ports/STM32/LLD/GPIOv2/pal_lld.h"
 3057              		.file 25 "../../os/hal/include/adc.h"
 3058              		.file 26 "../../os/hal/ports/STM32/STM32F4xx/adc_lld.h"
 3059              		.file 27 "../../os/hal/include/serial.h"
 3060              		.file 28 "/usr/lib/gcc/arm-none-eabi/5.2.0/include/stdarg.h"
 3061              		.file 29 "<built-in>"
 3062              		.file 30 "../../os/rt/include/chsys.h"
 3063              		.file 31 "../../os/hal/osal/rt/osal.h"
 3064              		.file 32 "../../os/ext/CMSIS/include/core_cm4.h"
 3065              		.file 33 "../../os/hal/ports/STM32/LLD/USARTv1/serial_lld.h"
 3066              		.file 34 "../../os/rt/include/chthreads.h"
 3067              		.file 35 "/usr/arm-none-eabi/include/math.h"
 3068              		.file 36 "../../os/hal/include/hal.h"