ARM GAS  /tmp/ccaRxZi6.s 			page 1


   1              		.syntax unified
   2              		.cpu cortex-m4
   3              		.eabi_attribute 27, 1
   4              		.eabi_attribute 28, 1
   5              		.fpu fpv4-sp-d16
   6              		.eabi_attribute 20, 1
   7              		.eabi_attribute 21, 1
   8              		.eabi_attribute 23, 3
   9              		.eabi_attribute 24, 1
  10              		.eabi_attribute 25, 1
  11              		.eabi_attribute 26, 1
  12              		.eabi_attribute 30, 2
  13              		.eabi_attribute 34, 1
  14              		.eabi_attribute 18, 4
  15              		.thumb
  16              		.syntax unified
  17              		.file	"testmbox.c"
  18              		.text
  19              	.Ltext0:
  20              		.cfi_sections	.debug_frame
  21              		.section	.text.mbox1_execute,"ax",%progbits
  22              		.align	2
  23              		.p2align 4,,15
  24              		.thumb
  25              		.thumb_func
  26              		.type	mbox1_execute, %function
  27              	mbox1_execute:
  28              	.LFB230:
  29              		.file 1 "../../test/rt/testmbox.c"
  30              		.loc 1 76 0
  31              		.cfi_startproc
  32              		@ args = 0, pretend = 0, frame = 8
  33              		@ frame_needed = 0, uses_anonymous_args = 0
  34              	.LVL0:
  35 0000 2DE9F041 		push	{r4, r5, r6, r7, r8, lr}
  36              		.cfi_def_cfa_offset 24
  37              		.cfi_offset 4, -24
  38              		.cfi_offset 5, -20
  39              		.cfi_offset 6, -16
  40              		.cfi_offset 7, -12
  41              		.cfi_offset 8, -8
  42              		.cfi_offset 14, -4
  43              	.LBB335:
  44              	.LBB336:
  45              	.LBB337:
  46              	.LBB338:
  47              		.file 2 "../../os/ext/CMSIS/include/core_cmFunc.h"
  48              		.loc 2 546 0
  49 0004 2023     		movs	r3, #32
  50              	.LBE338:
  51              	.LBE337:
  52              	.LBE336:
  53              	.LBE335:
  54              		.loc 1 76 0
  55 0006 82B0     		sub	sp, sp, #8
  56              		.cfi_def_cfa_offset 32
  57              	.LBB342:
ARM GAS  /tmp/ccaRxZi6.s 			page 2


  58              	.LBB341:
  59              	.LBB340:
  60              	.LBB339:
  61              		.loc 2 546 0
  62              		.syntax unified
  63              	@ 546 "../../os/ext/CMSIS/include/core_cmFunc.h" 1
  64 0008 83F31188 		MSR basepri, r3
  65              	@ 0 "" 2
  66              	.LVL1:
  67              		.thumb
  68              		.syntax unified
  69 000c CB4E     		ldr	r6, .L39
  70              	.LBE339:
  71              	.LBE340:
  72              	.LBE341:
  73              	.LBE342:
  74              		.loc 1 83 0
  75 000e 716A     		ldr	r1, [r6, #36]
  76 0010 A1F10501 		sub	r1, #5
  77 0014 B1FA81F1 		clz	r1, r1
  78 0018 0120     		movs	r0, #1
  79 001a 4909     		lsrs	r1, r1, #5
  80 001c FFF7FEFF 		bl	_test_assert
  81              	.LVL2:
  82 0020 0028     		cmp	r0, #0
  83 0022 40F01881 		bne	.L32
  84              	.LVL3:
  85              	.LBB343:
  86              	.LBB344:
  87              	.LBB345:
  88              	.LBB346:
  89              	.LBB347:
  90              		.loc 2 546 0
  91              		.syntax unified
  92              	@ 546 "../../os/ext/CMSIS/include/core_cmFunc.h" 1
  93 0026 80F31188 		MSR basepri, r0
  94              	@ 0 "" 2
  95              	.LVL4:
  96              		.thumb
  97              		.syntax unified
  98 002a 4224     		movs	r4, #66
  99              	.LVL5:
 100              	.L5:
 101              	.LBE347:
 102              	.LBE346:
 103              	.LBE345:
 104              	.LBE344:
 105              	.LBE343:
 106              		.loc 1 89 0
 107 002c C34D     		ldr	r5, .L39
 108 002e 2146     		mov	r1, r4
 109 0030 4FF0FF32 		mov	r2, #-1
 110 0034 2846     		mov	r0, r5
 111 0036 FFF7FEFF 		bl	chMBPost
 112              	.LVL6:
 113              		.loc 1 90 0
 114 003a B0FA80F1 		clz	r1, r0
ARM GAS  /tmp/ccaRxZi6.s 			page 3


 115 003e 4909     		lsrs	r1, r1, #5
 116 0040 0220     		movs	r0, #2
 117              	.LVL7:
 118 0042 FFF7FEFF 		bl	_test_assert
 119              	.LVL8:
 120 0046 0134     		adds	r4, r4, #1
 121              	.LVL9:
 122 0048 80B9     		cbnz	r0, .L1
 123              		.loc 1 88 0 discriminator 2
 124 004a 462C     		cmp	r4, #70
 125 004c EED1     		bne	.L5
 126              		.loc 1 92 0
 127 004e 4121     		movs	r1, #65
 128 0050 4FF0FF32 		mov	r2, #-1
 129 0054 2846     		mov	r0, r5
 130 0056 FFF7FEFF 		bl	chMBPostAhead
 131              	.LVL10:
 132              		.loc 1 93 0
 133 005a B0FA80F1 		clz	r1, r0
 134 005e 4909     		lsrs	r1, r1, #5
 135 0060 0320     		movs	r0, #3
 136              	.LVL11:
 137 0062 FFF7FEFF 		bl	_test_assert
 138              	.LVL12:
 139 0066 0028     		cmp	r0, #0
 140 0068 00F0FB80 		beq	.L34
 141              	.LVL13:
 142              	.L1:
 143              		.loc 1 220 0
 144 006c 02B0     		add	sp, sp, #8
 145              		.cfi_remember_state
 146              		.cfi_def_cfa_offset 24
 147              		@ sp needed
 148 006e BDE8F081 		pop	{r4, r5, r6, r7, r8, pc}
 149              	.LVL14:
 150              	.L38:
 151              		.cfi_restore_state
 152              	.LBB348:
 153              	.LBB349:
 154              	.LBB350:
 155              	.LBB351:
 156              	.LBB352:
 157              		.loc 2 546 0
 158              		.syntax unified
 159              	@ 546 "../../os/ext/CMSIS/include/core_cmFunc.h" 1
 160 0072 85F31188 		MSR basepri, r5
 161              	@ 0 "" 2
 162              	.LVL15:
 163              		.thumb
 164              		.syntax unified
 165              	.LBE352:
 166              	.LBE351:
 167              	.LBE350:
 168              	.LBE349:
 169              	.LBE348:
 170              	.LBB353:
 171              	.LBB354:
ARM GAS  /tmp/ccaRxZi6.s 			page 4


 172              	.LBB355:
 173              	.LBB356:
 174              		.syntax unified
 175              	@ 546 "../../os/ext/CMSIS/include/core_cmFunc.h" 1
 176 0076 87F31188 		MSR basepri, r7
 177              	@ 0 "" 2
 178              	.LVL16:
 179              		.thumb
 180              		.syntax unified
 181              	.LBE356:
 182              	.LBE355:
 183              	.LBE354:
 184              	.LBE353:
 185              		.loc 1 180 0
 186 007a A169     		ldr	r1, [r4, #24]
 187 007c B1FA81F1 		clz	r1, r1
 188 0080 4909     		lsrs	r1, r1, #5
 189 0082 1F20     		movs	r0, #31
 190 0084 FFF7FEFF 		bl	_test_assert
 191              	.LVL17:
 192 0088 0028     		cmp	r0, #0
 193 008a 40F09C82 		bne	.L31
 194              	.LVL18:
 195              	.LBB357:
 196              	.LBB358:
 197              	.LBB359:
 198              	.LBB360:
 199              	.LBB361:
 200              		.loc 2 546 0
 201              		.syntax unified
 202              	@ 546 "../../os/ext/CMSIS/include/core_cmFunc.h" 1
 203 008e 85F31188 		MSR basepri, r5
 204              	@ 0 "" 2
 205              		.thumb
 206              		.syntax unified
 207              	.LBE361:
 208              	.LBE360:
 209              	.LBE359:
 210              	.LBE358:
 211              	.LBE357:
 212              		.loc 1 181 0
 213 0092 E168     		ldr	r1, [r4, #12]
 214 0094 A368     		ldr	r3, [r4, #8]
 215 0096 CB1A     		subs	r3, r1, r3
 216 0098 5942     		rsbs	r1, r3, #0
 217 009a 5941     		adcs	r1, r1, r3
 218 009c 3846     		mov	r0, r7
 219 009e FFF7FEFF 		bl	_test_assert
 220              	.LVL19:
 221 00a2 0028     		cmp	r0, #0
 222 00a4 E2D1     		bne	.L1
 223              	.LVL20:
 224              	.LBB362:
 225              	.LBB363:
 226              	.LBB364:
 227              	.LBB365:
 228              		.loc 2 546 0
ARM GAS  /tmp/ccaRxZi6.s 			page 5


 229              		.syntax unified
 230              	@ 546 "../../os/ext/CMSIS/include/core_cmFunc.h" 1
 231 00a6 87F31188 		MSR basepri, r7
 232              	@ 0 "" 2
 233              		.thumb
 234              		.syntax unified
 235              	.LBE365:
 236              	.LBE364:
 237              	.LBE363:
 238              	.LBE362:
 239              		.loc 1 184 0
 240 00aa 4521     		movs	r1, #69
 241 00ac 2046     		mov	r0, r4
 242 00ae FFF7FEFF 		bl	chMBPostAheadI
 243              	.LVL21:
 244              		.loc 1 185 0
 245 00b2 B0FA80F1 		clz	r1, r0
 246 00b6 4909     		lsrs	r1, r1, #5
 247 00b8 2120     		movs	r0, #33
 248              	.LVL22:
 249 00ba FFF7FEFF 		bl	_test_assert
 250              	.LVL23:
 251 00be 0028     		cmp	r0, #0
 252 00c0 D4D1     		bne	.L1
 253              		.loc 1 186 0
 254 00c2 4421     		movs	r1, #68
 255 00c4 2046     		mov	r0, r4
 256 00c6 FFF7FEFF 		bl	chMBPostAheadI
 257              	.LVL24:
 258              		.loc 1 187 0
 259 00ca B0FA80F1 		clz	r1, r0
 260 00ce 4909     		lsrs	r1, r1, #5
 261 00d0 2220     		movs	r0, #34
 262              	.LVL25:
 263 00d2 FFF7FEFF 		bl	_test_assert
 264              	.LVL26:
 265 00d6 0028     		cmp	r0, #0
 266 00d8 C8D1     		bne	.L1
 267              		.loc 1 188 0
 268 00da 4321     		movs	r1, #67
 269 00dc 2046     		mov	r0, r4
 270 00de FFF7FEFF 		bl	chMBPostAheadI
 271              	.LVL27:
 272              		.loc 1 189 0
 273 00e2 B0FA80F1 		clz	r1, r0
 274 00e6 4909     		lsrs	r1, r1, #5
 275 00e8 2320     		movs	r0, #35
 276              	.LVL28:
 277 00ea FFF7FEFF 		bl	_test_assert
 278              	.LVL29:
 279 00ee 0028     		cmp	r0, #0
 280 00f0 BCD1     		bne	.L1
 281              		.loc 1 190 0
 282 00f2 4221     		movs	r1, #66
 283 00f4 2046     		mov	r0, r4
 284 00f6 FFF7FEFF 		bl	chMBPostAheadI
 285              	.LVL30:
ARM GAS  /tmp/ccaRxZi6.s 			page 6


 286              		.loc 1 191 0
 287 00fa B0FA80F1 		clz	r1, r0
 288 00fe 4909     		lsrs	r1, r1, #5
 289 0100 2420     		movs	r0, #36
 290              	.LVL31:
 291 0102 FFF7FEFF 		bl	_test_assert
 292              	.LVL32:
 293 0106 0028     		cmp	r0, #0
 294 0108 B0D1     		bne	.L1
 295              		.loc 1 192 0
 296 010a 8C4C     		ldr	r4, .L39
 297 010c 4121     		movs	r1, #65
 298 010e 2046     		mov	r0, r4
 299 0110 FFF7FEFF 		bl	chMBPostAheadI
 300              	.LVL33:
 301              	.LBB366:
 302              	.LBB367:
 303              	.LBB368:
 304              	.LBB369:
 305              	.LBB370:
 306              		.loc 2 546 0
 307 0114 0023     		movs	r3, #0
 308              		.syntax unified
 309              	@ 546 "../../os/ext/CMSIS/include/core_cmFunc.h" 1
 310 0116 83F31188 		MSR basepri, r3
 311              	@ 0 "" 2
 312              		.thumb
 313              		.syntax unified
 314              	.LBE370:
 315              	.LBE369:
 316              	.LBE368:
 317              	.LBE367:
 318              	.LBE366:
 319              		.loc 1 194 0
 320 011a B0FA80F1 		clz	r1, r0
 321 011e 4909     		lsrs	r1, r1, #5
 322 0120 2520     		movs	r0, #37
 323              	.LVL34:
 324 0122 FFF7FEFF 		bl	_test_assert
 325              	.LVL35:
 326 0126 0028     		cmp	r0, #0
 327 0128 A0D1     		bne	.L1
 328              		.loc 1 195 0
 329 012a E168     		ldr	r1, [r4, #12]
 330 012c A368     		ldr	r3, [r4, #8]
 331 012e C3EB0108 		rsb	r8, r3, r1
 332 0132 D8F10001 		rsbs	r1, r8, #0
 333 0136 41EB0801 		adc	r1, r1, r8
 334 013a 2620     		movs	r0, #38
 335 013c FFF7FEFF 		bl	_test_assert
 336              	.LVL36:
 337 0140 0028     		cmp	r0, #0
 338 0142 93D1     		bne	.L1
 339              	.LBB371:
 340              	.LBB372:
 341              	.LBB373:
 342              	.LBB374:
ARM GAS  /tmp/ccaRxZi6.s 			page 7


 343              	.LBB375:
 344              		.loc 2 546 0
 345 0144 0746     		mov	r7, r0
 346              	.LBE375:
 347              	.LBE374:
 348              	.LBE373:
 349              	.LBE372:
 350              	.LBE371:
 351 0146 0524     		movs	r4, #5
 352              	.LBB380:
 353              	.LBB381:
 354              	.LBB382:
 355              	.LBB383:
 356 0148 4FF02008 		mov	r8, #32
 357              	.LVL37:
 358              	.L16:
 359 014c 2026     		movs	r6, #32
 360              		.syntax unified
 361              	@ 546 "../../os/ext/CMSIS/include/core_cmFunc.h" 1
 362 014e 88F31188 		MSR basepri, r8
 363              	@ 0 "" 2
 364              		.thumb
 365              		.syntax unified
 366              	.LBE383:
 367              	.LBE382:
 368              	.LBE381:
 369              	.LBE380:
 370              		.loc 1 198 0
 371 0152 7A4D     		ldr	r5, .L39
 372 0154 01A9     		add	r1, sp, #4
 373 0156 2846     		mov	r0, r5
 374 0158 FFF7FEFF 		bl	chMBFetchI
 375              	.LVL38:
 376              	.LBB384:
 377              	.LBB379:
 378              	.LBB378:
 379              	.LBB377:
 380              	.LBB376:
 381              		.loc 2 546 0
 382              		.syntax unified
 383              	@ 546 "../../os/ext/CMSIS/include/core_cmFunc.h" 1
 384 015c 87F31188 		MSR basepri, r7
 385              	@ 0 "" 2
 386              		.thumb
 387              		.syntax unified
 388              	.LBE376:
 389              	.LBE377:
 390              	.LBE378:
 391              	.LBE379:
 392              	.LBE384:
 393              		.loc 1 200 0
 394 0160 B0FA80F1 		clz	r1, r0
 395 0164 4909     		lsrs	r1, r1, #5
 396 0166 2720     		movs	r0, #39
 397              	.LVL39:
 398 0168 FFF7FEFF 		bl	_test_assert
 399              	.LVL40:
ARM GAS  /tmp/ccaRxZi6.s 			page 8


 400 016c 0028     		cmp	r0, #0
 401 016e 7FF47DAF 		bne	.L1
 402              		.loc 1 201 0 discriminator 2
 403 0172 9DF80400 		ldrb	r0, [sp, #4]	@ zero_extendqisi2
 404 0176 FFF7FEFF 		bl	test_emit_token
 405              	.LVL41:
 406              		.loc 1 196 0 discriminator 2
 407 017a 013C     		subs	r4, r4, #1
 408              	.LVL42:
 409 017c E6D1     		bne	.L16
 410              		.loc 1 203 0
 411 017e 7049     		ldr	r1, .L39+4
 412 0180 2820     		movs	r0, #40
 413 0182 FFF7FEFF 		bl	_test_assert_sequence
 414              	.LVL43:
 415 0186 0028     		cmp	r0, #0
 416 0188 7FF470AF 		bne	.L1
 417              	.LVL44:
 418              	.LBB385:
 419              	.LBB386:
 420              	.LBB387:
 421              	.LBB388:
 422              		.loc 2 546 0
 423              		.syntax unified
 424              	@ 546 "../../os/ext/CMSIS/include/core_cmFunc.h" 1
 425 018c 86F31188 		MSR basepri, r6
 426              	@ 0 "" 2
 427              	.LVL45:
 428              		.thumb
 429              		.syntax unified
 430              	.LBE388:
 431              	.LBE387:
 432              	.LBE386:
 433              	.LBE385:
 434              		.loc 1 204 0
 435 0190 696A     		ldr	r1, [r5, #36]
 436 0192 A1F1050C 		sub	ip, r1, #5
 437 0196 DCF10001 		rsbs	r1, ip, #0
 438 019a 41EB0C01 		adc	r1, r1, ip
 439 019e 2920     		movs	r0, #41
 440 01a0 FFF7FEFF 		bl	_test_assert
 441              	.LVL46:
 442 01a4 0028     		cmp	r0, #0
 443 01a6 40F0C580 		bne	.L30
 444              	.LVL47:
 445              	.LBB389:
 446              	.LBB390:
 447              	.LBB391:
 448              	.LBB392:
 449              	.LBB393:
 450              		.loc 2 546 0
 451              		.syntax unified
 452              	@ 546 "../../os/ext/CMSIS/include/core_cmFunc.h" 1
 453 01aa 84F31188 		MSR basepri, r4
 454              	@ 0 "" 2
 455              	.LVL48:
 456              		.thumb
ARM GAS  /tmp/ccaRxZi6.s 			page 9


 457              		.syntax unified
 458              	.LBE393:
 459              	.LBE392:
 460              	.LBE391:
 461              	.LBE390:
 462              	.LBE389:
 463              	.LBB394:
 464              	.LBB395:
 465              	.LBB396:
 466              	.LBB397:
 467              		.syntax unified
 468              	@ 546 "../../os/ext/CMSIS/include/core_cmFunc.h" 1
 469 01ae 86F31188 		MSR basepri, r6
 470              	@ 0 "" 2
 471              	.LVL49:
 472              		.thumb
 473              		.syntax unified
 474              	.LBE397:
 475              	.LBE396:
 476              	.LBE395:
 477              	.LBE394:
 478              		.loc 1 205 0
 479 01b2 A969     		ldr	r1, [r5, #24]
 480 01b4 B1FA81F1 		clz	r1, r1
 481 01b8 4909     		lsrs	r1, r1, #5
 482 01ba 2A20     		movs	r0, #42
 483 01bc FFF7FEFF 		bl	_test_assert
 484              	.LVL50:
 485 01c0 0028     		cmp	r0, #0
 486 01c2 40F0B780 		bne	.L30
 487              	.LVL51:
 488              	.LBB398:
 489              	.LBB399:
 490              	.LBB400:
 491              	.LBB401:
 492              	.LBB402:
 493              		.loc 2 546 0
 494              		.syntax unified
 495              	@ 546 "../../os/ext/CMSIS/include/core_cmFunc.h" 1
 496 01c6 84F31188 		MSR basepri, r4
 497              	@ 0 "" 2
 498              		.thumb
 499              		.syntax unified
 500              	.LBE402:
 501              	.LBE401:
 502              	.LBE400:
 503              	.LBE399:
 504              	.LBE398:
 505              		.loc 1 206 0
 506 01ca E968     		ldr	r1, [r5, #12]
 507 01cc AB68     		ldr	r3, [r5, #8]
 508 01ce C3EB010E 		rsb	lr, r3, r1
 509 01d2 DEF10001 		rsbs	r1, lr, #0
 510 01d6 41EB0E01 		adc	r1, r1, lr
 511 01da 2B20     		movs	r0, #43
 512 01dc FFF7FEFF 		bl	_test_assert
 513              	.LVL52:
ARM GAS  /tmp/ccaRxZi6.s 			page 10


 514 01e0 0028     		cmp	r0, #0
 515 01e2 7FF443AF 		bne	.L1
 516              		.loc 1 211 0
 517 01e6 2846     		mov	r0, r5
 518 01e8 FFF7FEFF 		bl	chMBReset
 519              	.LVL53:
 520              	.LBB403:
 521              	.LBB404:
 522              	.LBB405:
 523              	.LBB406:
 524              		.loc 2 546 0
 525              		.syntax unified
 526              	@ 546 "../../os/ext/CMSIS/include/core_cmFunc.h" 1
 527 01ec 86F31188 		MSR basepri, r6
 528              	@ 0 "" 2
 529              	.LVL54:
 530              		.thumb
 531              		.syntax unified
 532              	.LBE406:
 533              	.LBE405:
 534              	.LBE404:
 535              	.LBE403:
 536              		.loc 1 216 0
 537 01f0 696A     		ldr	r1, [r5, #36]
 538 01f2 4F1F     		subs	r7, r1, #5
 539 01f4 7942     		rsbs	r1, r7, #0
 540 01f6 7941     		adcs	r1, r1, r7
 541 01f8 2C20     		movs	r0, #44
 542 01fa FFF7FEFF 		bl	_test_assert
 543              	.LVL55:
 544 01fe 0028     		cmp	r0, #0
 545 0200 40F09880 		bne	.L30
 546              	.LVL56:
 547              	.LBB407:
 548              	.LBB408:
 549              	.LBB409:
 550              	.LBB410:
 551              	.LBB411:
 552              		.loc 2 546 0
 553              		.syntax unified
 554              	@ 546 "../../os/ext/CMSIS/include/core_cmFunc.h" 1
 555 0204 84F31188 		MSR basepri, r4
 556              	@ 0 "" 2
 557              	.LVL57:
 558              		.thumb
 559              		.syntax unified
 560              	.LBE411:
 561              	.LBE410:
 562              	.LBE409:
 563              	.LBE408:
 564              	.LBE407:
 565              	.LBB412:
 566              	.LBB413:
 567              	.LBB414:
 568              	.LBB415:
 569              		.syntax unified
 570              	@ 546 "../../os/ext/CMSIS/include/core_cmFunc.h" 1
ARM GAS  /tmp/ccaRxZi6.s 			page 11


 571 0208 86F31188 		MSR basepri, r6
 572              	@ 0 "" 2
 573              	.LVL58:
 574              		.thumb
 575              		.syntax unified
 576              	.LBE415:
 577              	.LBE414:
 578              	.LBE413:
 579              	.LBE412:
 580              		.loc 1 217 0
 581 020c A969     		ldr	r1, [r5, #24]
 582 020e B1FA81F1 		clz	r1, r1
 583 0212 4909     		lsrs	r1, r1, #5
 584 0214 2D20     		movs	r0, #45
 585 0216 FFF7FEFF 		bl	_test_assert
 586              	.LVL59:
 587 021a 0028     		cmp	r0, #0
 588 021c 40F08A80 		bne	.L30
 589              	.LVL60:
 590              	.LBB416:
 591              	.LBB417:
 592              	.LBB418:
 593              	.LBB419:
 594              	.LBB420:
 595              		.loc 2 546 0
 596              		.syntax unified
 597              	@ 546 "../../os/ext/CMSIS/include/core_cmFunc.h" 1
 598 0220 84F31188 		MSR basepri, r4
 599              	@ 0 "" 2
 600              	.LVL61:
 601              		.thumb
 602              		.syntax unified
 603              	.LBE420:
 604              	.LBE419:
 605              	.LBE418:
 606              	.LBE417:
 607              	.LBE416:
 608              	.LBB421:
 609              	.LBB422:
 610              	.LBB423:
 611              	.LBB424:
 612              		.syntax unified
 613              	@ 546 "../../os/ext/CMSIS/include/core_cmFunc.h" 1
 614 0224 86F31188 		MSR basepri, r6
 615              	@ 0 "" 2
 616              		.thumb
 617              		.syntax unified
 618              	.LBE424:
 619              	.LBE423:
 620              	.LBE422:
 621              	.LBE421:
 622              		.loc 1 218 0
 623 0228 2968     		ldr	r1, [r5]
 624 022a AB68     		ldr	r3, [r5, #8]
 625 022c CA1A     		subs	r2, r1, r3
 626 022e 5142     		rsbs	r1, r2, #0
 627 0230 5141     		adcs	r1, r1, r2
ARM GAS  /tmp/ccaRxZi6.s 			page 12


 628 0232 2E20     		movs	r0, #46
 629 0234 FFF7FEFF 		bl	_test_assert
 630              	.LVL62:
 631 0238 0028     		cmp	r0, #0
 632 023a 7BD1     		bne	.L30
 633              	.LVL63:
 634              	.LBB425:
 635              	.LBB426:
 636              	.LBB427:
 637              	.LBB428:
 638              	.LBB429:
 639              		.loc 2 546 0
 640              		.syntax unified
 641              	@ 546 "../../os/ext/CMSIS/include/core_cmFunc.h" 1
 642 023c 84F31188 		MSR basepri, r4
 643              	@ 0 "" 2
 644              	.LVL64:
 645              		.thumb
 646              		.syntax unified
 647              	.LBE429:
 648              	.LBE428:
 649              	.LBE427:
 650              	.LBE426:
 651              	.LBE425:
 652              	.LBB430:
 653              	.LBB431:
 654              	.LBB432:
 655              	.LBB433:
 656              		.syntax unified
 657              	@ 546 "../../os/ext/CMSIS/include/core_cmFunc.h" 1
 658 0240 86F31188 		MSR basepri, r6
 659              	@ 0 "" 2
 660              		.thumb
 661              		.syntax unified
 662              	.LBE433:
 663              	.LBE432:
 664              	.LBE431:
 665              	.LBE430:
 666              		.loc 1 219 0
 667 0244 2968     		ldr	r1, [r5]
 668 0246 EB68     		ldr	r3, [r5, #12]
 669 0248 CB1A     		subs	r3, r1, r3
 670 024a 5942     		rsbs	r1, r3, #0
 671 024c 4FF02F00 		mov	r0, #47
 672 0250 5941     		adcs	r1, r1, r3
 673 0252 FFF7FEFF 		bl	_test_assert
 674              	.LVL65:
 675              	.L32:
 676              	.LBB434:
 677              	.LBB435:
 678              	.LBB436:
 679              	.LBB437:
 680              	.LBB438:
 681              		.loc 2 546 0
 682 0256 0023     		movs	r3, #0
 683              	.L22:
 684              	.LVL66:
ARM GAS  /tmp/ccaRxZi6.s 			page 13


 685              	.LBE438:
 686              	.LBE437:
 687              	.LBE436:
 688              	.LBE435:
 689              	.LBE434:
 690              	.LBB439:
 691              	.LBB440:
 692              	.LBB441:
 693              	.LBB442:
 694              	.LBB443:
 695              		.syntax unified
 696              	@ 546 "../../os/ext/CMSIS/include/core_cmFunc.h" 1
 697 0258 83F31188 		MSR basepri, r3
 698              	@ 0 "" 2
 699              		.thumb
 700              		.syntax unified
 701              	.LBE443:
 702              	.LBE442:
 703              	.LBE441:
 704              	.LBE440:
 705              	.LBE439:
 706              		.loc 1 220 0
 707 025c 02B0     		add	sp, sp, #8
 708              		.cfi_remember_state
 709              		.cfi_def_cfa_offset 24
 710              		@ sp needed
 711 025e BDE8F081 		pop	{r4, r5, r6, r7, r8, pc}
 712              	.LVL67:
 713              	.L34:
 714              		.cfi_restore_state
 715              		.loc 1 98 0
 716 0262 0122     		movs	r2, #1
 717 0264 5821     		movs	r1, #88
 718 0266 2846     		mov	r0, r5
 719 0268 FFF7FEFF 		bl	chMBPost
 720              	.LVL68:
 721              		.loc 1 99 0
 722 026c A0F1FF31 		sub	r1, r0, #-1
 723 0270 B1FA81F1 		clz	r1, r1
 724 0274 4909     		lsrs	r1, r1, #5
 725 0276 0420     		movs	r0, #4
 726              	.LVL69:
 727 0278 FFF7FEFF 		bl	_test_assert
 728              	.LVL70:
 729 027c 0446     		mov	r4, r0
 730              	.LVL71:
 731 027e 0028     		cmp	r0, #0
 732 0280 7FF4F4AE 		bne	.L1
 733              	.LVL72:
 734              	.LBB444:
 735              	.LBB445:
 736              	.LBB446:
 737              	.LBB447:
 738              		.loc 2 546 0
 739 0284 2027     		movs	r7, #32
 740              		.syntax unified
 741              	@ 546 "../../os/ext/CMSIS/include/core_cmFunc.h" 1
ARM GAS  /tmp/ccaRxZi6.s 			page 14


 742 0286 87F31188 		MSR basepri, r7
 743              	@ 0 "" 2
 744              		.thumb
 745              		.syntax unified
 746              	.LBE447:
 747              	.LBE446:
 748              	.LBE445:
 749              	.LBE444:
 750              		.loc 1 101 0
 751 028a 5821     		movs	r1, #88
 752 028c 2846     		mov	r0, r5
 753 028e FFF7FEFF 		bl	chMBPostI
 754              	.LVL73:
 755 0292 0146     		mov	r1, r0
 756              	.LVL74:
 757              	.LBB448:
 758              	.LBB449:
 759              	.LBB450:
 760              	.LBB451:
 761              	.LBB452:
 762              		.loc 2 546 0
 763              		.syntax unified
 764              	@ 546 "../../os/ext/CMSIS/include/core_cmFunc.h" 1
 765 0294 84F31188 		MSR basepri, r4
 766              	@ 0 "" 2
 767              		.thumb
 768              		.syntax unified
 769              	.LBE452:
 770              	.LBE451:
 771              	.LBE450:
 772              	.LBE449:
 773              	.LBE448:
 774              		.loc 1 103 0
 775 0298 A1F1FF31 		sub	r1, r1, #-1
 776 029c B1FA81F1 		clz	r1, r1
 777 02a0 0520     		movs	r0, #5
 778              	.LVL75:
 779 02a2 4909     		lsrs	r1, r1, #5
 780 02a4 FFF7FEFF 		bl	_test_assert
 781              	.LVL76:
 782 02a8 0028     		cmp	r0, #0
 783 02aa 7FF4DFAE 		bne	.L1
 784              		.loc 1 104 0
 785 02ae 0122     		movs	r2, #1
 786 02b0 5821     		movs	r1, #88
 787 02b2 2846     		mov	r0, r5
 788 02b4 FFF7FEFF 		bl	chMBPostAhead
 789              	.LVL77:
 790              		.loc 1 105 0
 791 02b8 A0F1FF31 		sub	r1, r0, #-1
 792 02bc B1FA81F1 		clz	r1, r1
 793 02c0 4909     		lsrs	r1, r1, #5
 794 02c2 0620     		movs	r0, #6
 795              	.LVL78:
 796 02c4 FFF7FEFF 		bl	_test_assert
 797              	.LVL79:
 798 02c8 0446     		mov	r4, r0
ARM GAS  /tmp/ccaRxZi6.s 			page 15


 799 02ca 0028     		cmp	r0, #0
 800 02cc 7FF4CEAE 		bne	.L1
 801              	.LVL80:
 802              	.LBB453:
 803              	.LBB454:
 804              	.LBB455:
 805              	.LBB456:
 806              		.loc 2 546 0
 807              		.syntax unified
 808              	@ 546 "../../os/ext/CMSIS/include/core_cmFunc.h" 1
 809 02d0 87F31188 		MSR basepri, r7
 810              	@ 0 "" 2
 811              		.thumb
 812              		.syntax unified
 813              	.LBE456:
 814              	.LBE455:
 815              	.LBE454:
 816              	.LBE453:
 817              		.loc 1 107 0
 818 02d4 5821     		movs	r1, #88
 819 02d6 2846     		mov	r0, r5
 820 02d8 FFF7FEFF 		bl	chMBPostAheadI
 821              	.LVL81:
 822 02dc 0146     		mov	r1, r0
 823              	.LVL82:
 824              	.LBB457:
 825              	.LBB458:
 826              	.LBB459:
 827              	.LBB460:
 828              	.LBB461:
 829              		.loc 2 546 0
 830              		.syntax unified
 831              	@ 546 "../../os/ext/CMSIS/include/core_cmFunc.h" 1
 832 02de 84F31188 		MSR basepri, r4
 833              	@ 0 "" 2
 834              		.thumb
 835              		.syntax unified
 836              	.LBE461:
 837              	.LBE460:
 838              	.LBE459:
 839              	.LBE458:
 840              	.LBE457:
 841              		.loc 1 109 0
 842 02e2 A1F1FF31 		sub	r1, r1, #-1
 843 02e6 B1FA81F1 		clz	r1, r1
 844 02ea 0720     		movs	r0, #7
 845              	.LVL83:
 846 02ec 4909     		lsrs	r1, r1, #5
 847 02ee FFF7FEFF 		bl	_test_assert
 848              	.LVL84:
 849 02f2 8046     		mov	r8, r0
 850 02f4 0028     		cmp	r0, #0
 851 02f6 7FF4B9AE 		bne	.L1
 852              	.LVL85:
 853              	.LBB462:
 854              	.LBB463:
 855              	.LBB464:
ARM GAS  /tmp/ccaRxZi6.s 			page 16


 856              	.LBB465:
 857              		.loc 2 546 0
 858              		.syntax unified
 859              	@ 546 "../../os/ext/CMSIS/include/core_cmFunc.h" 1
 860 02fa 87F31188 		MSR basepri, r7
 861              	@ 0 "" 2
 862              	.LVL86:
 863              		.thumb
 864              		.syntax unified
 865              	.LBE465:
 866              	.LBE464:
 867              	.LBE463:
 868              	.LBE462:
 869              		.loc 1 114 0
 870 02fe 696A     		ldr	r1, [r5, #36]
 871 0300 B1FA81F1 		clz	r1, r1
 872 0304 4909     		lsrs	r1, r1, #5
 873 0306 0820     		movs	r0, #8
 874 0308 FFF7FEFF 		bl	_test_assert
 875              	.LVL87:
 876 030c 0446     		mov	r4, r0
 877 030e 10B1     		cbz	r0, .L6
 878              	.LVL88:
 879              	.LBB466:
 880              	.LBB467:
 881              	.LBB468:
 882              	.LBB469:
 883              	.LBB470:
 884              		.loc 2 546 0
 885              		.syntax unified
 886              	@ 546 "../../os/ext/CMSIS/include/core_cmFunc.h" 1
 887 0310 88F31188 		MSR basepri, r8
 888              	@ 0 "" 2
 889              		.thumb
 890              		.syntax unified
 891 0314 AAE6     		b	.L1
 892              	.LVL89:
 893              	.L6:
 894              	.LBE470:
 895              	.LBE469:
 896              	.LBE468:
 897              	.LBE467:
 898              	.LBE466:
 899              	.LBB471:
 900              	.LBB472:
 901              	.LBB473:
 902              	.LBB474:
 903              	.LBB475:
 904              		.syntax unified
 905              	@ 546 "../../os/ext/CMSIS/include/core_cmFunc.h" 1
 906 0316 80F31188 		MSR basepri, r0
 907              	@ 0 "" 2
 908              	.LVL90:
 909              		.thumb
 910              		.syntax unified
 911              	.LBE475:
 912              	.LBE474:
ARM GAS  /tmp/ccaRxZi6.s 			page 17


 913              	.LBE473:
 914              	.LBE472:
 915              	.LBE471:
 916              	.LBB476:
 917              	.LBB477:
 918              	.LBB478:
 919              	.LBB479:
 920              		.syntax unified
 921              	@ 546 "../../os/ext/CMSIS/include/core_cmFunc.h" 1
 922 031a 87F31188 		MSR basepri, r7
 923              	@ 0 "" 2
 924              	.LVL91:
 925              		.thumb
 926              		.syntax unified
 927              	.LBE479:
 928              	.LBE478:
 929              	.LBE477:
 930              	.LBE476:
 931              		.loc 1 115 0
 932 031e A969     		ldr	r1, [r5, #24]
 933 0320 A1F1050E 		sub	lr, r1, #5
 934 0324 DEF10001 		rsbs	r1, lr, #0
 935 0328 41EB0E01 		adc	r1, r1, lr
 936 032c 0920     		movs	r0, #9
 937 032e FFF7FEFF 		bl	_test_assert
 938              	.LVL92:
 939 0332 38B1     		cbz	r0, .L35
 940              	.LVL93:
 941              	.L30:
 942              	.LBB480:
 943              	.LBB481:
 944              	.LBB482:
 945              	.LBB483:
 946              	.LBB484:
 947              		.loc 2 546 0
 948              		.syntax unified
 949              	@ 546 "../../os/ext/CMSIS/include/core_cmFunc.h" 1
 950 0334 84F31188 		MSR basepri, r4
 951              	@ 0 "" 2
 952              		.thumb
 953              		.syntax unified
 954 0338 98E6     		b	.L1
 955              	.L40:
 956 033a 00BF     		.align	2
 957              	.L39:
 958 033c 00000000 		.word	.LANCHOR0
 959 0340 00000000 		.word	.LC0
 960              	.LVL94:
 961              	.L35:
 962              	.LBE484:
 963              	.LBE483:
 964              	.LBE482:
 965              	.LBE481:
 966              	.LBE480:
 967              	.LBB485:
 968              	.LBB486:
 969              	.LBB487:
ARM GAS  /tmp/ccaRxZi6.s 			page 18


 970              	.LBB488:
 971              	.LBB489:
 972              		.syntax unified
 973              	@ 546 "../../os/ext/CMSIS/include/core_cmFunc.h" 1
 974 0344 80F31188 		MSR basepri, r0
 975              	@ 0 "" 2
 976              	.LVL95:
 977              		.thumb
 978              		.syntax unified
 979              	.LBE489:
 980              	.LBE488:
 981              	.LBE487:
 982              	.LBE486:
 983              	.LBE485:
 984              	.LBB490:
 985              	.LBB491:
 986              	.LBB492:
 987              	.LBB493:
 988              		.syntax unified
 989              	@ 546 "../../os/ext/CMSIS/include/core_cmFunc.h" 1
 990 0348 87F31188 		MSR basepri, r7
 991              	@ 0 "" 2
 992              		.thumb
 993              		.syntax unified
 994              	.LBE493:
 995              	.LBE492:
 996              	.LBE491:
 997              	.LBE490:
 998              		.loc 1 116 0
 999 034c E968     		ldr	r1, [r5, #12]
 1000 034e AB68     		ldr	r3, [r5, #8]
 1001 0350 CC1A     		subs	r4, r1, r3
 1002 0352 6142     		rsbs	r1, r4, #0
 1003 0354 4FF00A00 		mov	r0, #10
 1004 0358 6141     		adcs	r1, r1, r4
 1005 035a FFF7FEFF 		bl	_test_assert
 1006              	.LVL96:
 1007              	.LBB494:
 1008              	.LBB495:
 1009              	.LBB496:
 1010              	.LBB497:
 1011              	.LBB498:
 1012              		.loc 2 546 0
 1013 035e 0023     		movs	r3, #0
 1014              	.LBE498:
 1015              	.LBE497:
 1016              	.LBE496:
 1017              	.LBE495:
 1018              	.LBE494:
 1019              		.loc 1 116 0
 1020 0360 0028     		cmp	r0, #0
 1021 0362 7FF479AF 		bne	.L22
 1022              	.LVL97:
 1023              	.LBB499:
 1024              	.LBB500:
 1025              	.LBB501:
 1026              	.LBB502:
ARM GAS  /tmp/ccaRxZi6.s 			page 19


 1027              	.LBB503:
 1028              		.loc 2 546 0
 1029              		.syntax unified
 1030              	@ 546 "../../os/ext/CMSIS/include/core_cmFunc.h" 1
 1031 0366 83F31188 		MSR basepri, r3
 1032              	@ 0 "" 2
 1033              	.LVL98:
 1034              		.thumb
 1035              		.syntax unified
 1036 036a 0525     		movs	r5, #5
 1037 036c 05E0     		b	.L9
 1038              	.LVL99:
 1039              	.L37:
 1040              	.LBE503:
 1041              	.LBE502:
 1042              	.LBE501:
 1043              	.LBE500:
 1044              	.LBE499:
 1045              		.loc 1 124 0 discriminator 2
 1046 036e 9DF80400 		ldrb	r0, [sp, #4]	@ zero_extendqisi2
 1047 0372 FFF7FEFF 		bl	test_emit_token
 1048              	.LVL100:
 1049              		.loc 1 121 0 discriminator 2
 1050 0376 013D     		subs	r5, r5, #1
 1051              	.LVL101:
 1052 0378 0FD0     		beq	.L36
 1053              	.LVL102:
 1054              	.L9:
 1055              		.loc 1 122 0
 1056 037a 944C     		ldr	r4, .L41
 1057 037c 01A9     		add	r1, sp, #4
 1058 037e 4FF0FF32 		mov	r2, #-1
 1059 0382 2046     		mov	r0, r4
 1060 0384 FFF7FEFF 		bl	chMBFetch
 1061              	.LVL103:
 1062              		.loc 1 123 0
 1063 0388 B0FA80F1 		clz	r1, r0
 1064 038c 4909     		lsrs	r1, r1, #5
 1065 038e 0B20     		movs	r0, #11
 1066              	.LVL104:
 1067 0390 FFF7FEFF 		bl	_test_assert
 1068              	.LVL105:
 1069 0394 0028     		cmp	r0, #0
 1070 0396 EAD0     		beq	.L37
 1071 0398 68E6     		b	.L1
 1072              	.L36:
 1073              		.loc 1 126 0
 1074 039a 8D49     		ldr	r1, .L41+4
 1075 039c 0C20     		movs	r0, #12
 1076 039e FFF7FEFF 		bl	_test_assert_sequence
 1077              	.LVL106:
 1078 03a2 0028     		cmp	r0, #0
 1079 03a4 7FF462AE 		bne	.L1
 1080              		.loc 1 131 0
 1081 03a8 4721     		movs	r1, #71
 1082 03aa 4FF0FF32 		mov	r2, #-1
 1083 03ae 2046     		mov	r0, r4
ARM GAS  /tmp/ccaRxZi6.s 			page 20


 1084 03b0 FFF7FEFF 		bl	chMBPost
 1085              	.LVL107:
 1086              		.loc 1 132 0
 1087 03b4 B0FA80F1 		clz	r1, r0
 1088 03b8 4909     		lsrs	r1, r1, #5
 1089 03ba 0D20     		movs	r0, #13
 1090              	.LVL108:
 1091 03bc FFF7FEFF 		bl	_test_assert
 1092              	.LVL109:
 1093 03c0 0028     		cmp	r0, #0
 1094 03c2 7FF453AE 		bne	.L1
 1095              		.loc 1 133 0
 1096 03c6 01A9     		add	r1, sp, #4
 1097 03c8 4FF0FF32 		mov	r2, #-1
 1098 03cc 2046     		mov	r0, r4
 1099 03ce FFF7FEFF 		bl	chMBFetch
 1100              	.LVL110:
 1101              		.loc 1 134 0
 1102 03d2 B0FA80F1 		clz	r1, r0
 1103 03d6 4909     		lsrs	r1, r1, #5
 1104 03d8 0E20     		movs	r0, #14
 1105              	.LVL111:
 1106 03da FFF7FEFF 		bl	_test_assert
 1107              	.LVL112:
 1108 03de 0028     		cmp	r0, #0
 1109 03e0 7FF444AE 		bne	.L1
 1110              		.loc 1 135 0
 1111 03e4 2168     		ldr	r1, [r4]
 1112 03e6 A368     		ldr	r3, [r4, #8]
 1113 03e8 CA1A     		subs	r2, r1, r3
 1114 03ea 5142     		rsbs	r1, r2, #0
 1115 03ec 5141     		adcs	r1, r1, r2
 1116 03ee 0F20     		movs	r0, #15
 1117 03f0 FFF7FEFF 		bl	_test_assert
 1118              	.LVL113:
 1119 03f4 0028     		cmp	r0, #0
 1120 03f6 7FF439AE 		bne	.L1
 1121              		.loc 1 136 0
 1122 03fa 2168     		ldr	r1, [r4]
 1123 03fc E368     		ldr	r3, [r4, #12]
 1124 03fe CB1A     		subs	r3, r1, r3
 1125 0400 5942     		rsbs	r1, r3, #0
 1126 0402 5941     		adcs	r1, r1, r3
 1127 0404 1020     		movs	r0, #16
 1128 0406 FFF7FEFF 		bl	_test_assert
 1129              	.LVL114:
 1130 040a 0028     		cmp	r0, #0
 1131 040c 7FF42EAE 		bne	.L1
 1132              		.loc 1 141 0
 1133 0410 01A9     		add	r1, sp, #4
 1134 0412 0122     		movs	r2, #1
 1135 0414 2046     		mov	r0, r4
 1136 0416 FFF7FEFF 		bl	chMBFetch
 1137              	.LVL115:
 1138              		.loc 1 142 0
 1139 041a 00F10108 		add	r8, r0, #1
 1140 041e D8F10001 		rsbs	r1, r8, #0
ARM GAS  /tmp/ccaRxZi6.s 			page 21


 1141 0422 41EB0801 		adc	r1, r1, r8
 1142 0426 1120     		movs	r0, #17
 1143              	.LVL116:
 1144 0428 FFF7FEFF 		bl	_test_assert
 1145              	.LVL117:
 1146 042c 0028     		cmp	r0, #0
 1147 042e 7FF41DAE 		bne	.L1
 1148              	.LVL118:
 1149              	.LBB504:
 1150              	.LBB505:
 1151              	.LBB506:
 1152              	.LBB507:
 1153              		.loc 2 546 0
 1154 0432 2027     		movs	r7, #32
 1155              		.syntax unified
 1156              	@ 546 "../../os/ext/CMSIS/include/core_cmFunc.h" 1
 1157 0434 87F31188 		MSR basepri, r7
 1158              	@ 0 "" 2
 1159              		.thumb
 1160              		.syntax unified
 1161              	.LBE507:
 1162              	.LBE506:
 1163              	.LBE505:
 1164              	.LBE504:
 1165              		.loc 1 144 0
 1166 0438 01A9     		add	r1, sp, #4
 1167 043a 2046     		mov	r0, r4
 1168 043c FFF7FEFF 		bl	chMBFetchI
 1169              	.LVL119:
 1170 0440 0146     		mov	r1, r0
 1171              	.LVL120:
 1172              	.LBB508:
 1173              	.LBB509:
 1174              	.LBB510:
 1175              	.LBB511:
 1176              	.LBB512:
 1177              		.loc 2 546 0
 1178              		.syntax unified
 1179              	@ 546 "../../os/ext/CMSIS/include/core_cmFunc.h" 1
 1180 0442 85F31188 		MSR basepri, r5
 1181              	@ 0 "" 2
 1182              		.thumb
 1183              		.syntax unified
 1184              	.LBE512:
 1185              	.LBE511:
 1186              	.LBE510:
 1187              	.LBE509:
 1188              	.LBE508:
 1189              		.loc 1 146 0
 1190 0446 01F1010C 		add	ip, r1, #1
 1191 044a DCF10001 		rsbs	r1, ip, #0
 1192 044e 41EB0C01 		adc	r1, r1, ip
 1193 0452 1220     		movs	r0, #18
 1194              	.LVL121:
 1195 0454 FFF7FEFF 		bl	_test_assert
 1196              	.LVL122:
 1197 0458 0028     		cmp	r0, #0
ARM GAS  /tmp/ccaRxZi6.s 			page 22


 1198 045a 7FF407AE 		bne	.L1
 1199              	.LVL123:
 1200              	.LBB513:
 1201              	.LBB514:
 1202              	.LBB515:
 1203              	.LBB516:
 1204              		.loc 2 546 0
 1205              		.syntax unified
 1206              	@ 546 "../../os/ext/CMSIS/include/core_cmFunc.h" 1
 1207 045e 87F31188 		MSR basepri, r7
 1208              	@ 0 "" 2
 1209              	.LVL124:
 1210              		.thumb
 1211              		.syntax unified
 1212              	.LBE516:
 1213              	.LBE515:
 1214              	.LBE514:
 1215              	.LBE513:
 1216              		.loc 1 151 0
 1217 0462 616A     		ldr	r1, [r4, #36]
 1218 0464 A1F1050E 		sub	lr, r1, #5
 1219 0468 DEF10001 		rsbs	r1, lr, #0
 1220 046c 41EB0E01 		adc	r1, r1, lr
 1221 0470 1320     		movs	r0, #19
 1222 0472 FFF7FEFF 		bl	_test_assert
 1223              	.LVL125:
 1224 0476 0028     		cmp	r0, #0
 1225 0478 7FF4EDAE 		bne	.L32
 1226              	.LVL126:
 1227              	.LBB517:
 1228              	.LBB518:
 1229              	.LBB519:
 1230              	.LBB520:
 1231              	.LBB521:
 1232              		.loc 2 546 0
 1233 047c 0027     		movs	r7, #0
 1234              		.syntax unified
 1235              	@ 546 "../../os/ext/CMSIS/include/core_cmFunc.h" 1
 1236 047e 87F31188 		MSR basepri, r7
 1237              	@ 0 "" 2
 1238              	.LVL127:
 1239              		.thumb
 1240              		.syntax unified
 1241              	.LBE521:
 1242              	.LBE520:
 1243              	.LBE519:
 1244              	.LBE518:
 1245              	.LBE517:
 1246              	.LBB522:
 1247              	.LBB523:
 1248              	.LBB524:
 1249              	.LBB525:
 1250 0482 2025     		movs	r5, #32
 1251              	.LVL128:
 1252              		.syntax unified
 1253              	@ 546 "../../os/ext/CMSIS/include/core_cmFunc.h" 1
 1254 0484 85F31188 		MSR basepri, r5
ARM GAS  /tmp/ccaRxZi6.s 			page 23


 1255              	@ 0 "" 2
 1256              	.LVL129:
 1257              		.thumb
 1258              		.syntax unified
 1259              	.LBE525:
 1260              	.LBE524:
 1261              	.LBE523:
 1262              	.LBE522:
 1263              		.loc 1 152 0
 1264 0488 B169     		ldr	r1, [r6, #24]
 1265 048a 504C     		ldr	r4, .L41
 1266 048c B1FA81F1 		clz	r1, r1
 1267 0490 4909     		lsrs	r1, r1, #5
 1268 0492 1420     		movs	r0, #20
 1269 0494 FFF7FEFF 		bl	_test_assert
 1270              	.LVL130:
 1271 0498 0646     		mov	r6, r0
 1272 049a 10B1     		cbz	r0, .L11
 1273              	.LVL131:
 1274              	.LBB526:
 1275              	.LBB527:
 1276              	.LBB528:
 1277              	.LBB529:
 1278              	.LBB530:
 1279              		.loc 2 546 0
 1280              		.syntax unified
 1281              	@ 546 "../../os/ext/CMSIS/include/core_cmFunc.h" 1
 1282 049c 87F31188 		MSR basepri, r7
 1283              	@ 0 "" 2
 1284              		.thumb
 1285              		.syntax unified
 1286 04a0 E4E5     		b	.L1
 1287              	.LVL132:
 1288              	.L11:
 1289              	.LBE530:
 1290              	.LBE529:
 1291              	.LBE528:
 1292              	.LBE527:
 1293              	.LBE526:
 1294              	.LBB531:
 1295              	.LBB532:
 1296              	.LBB533:
 1297              	.LBB534:
 1298              	.LBB535:
 1299              		.syntax unified
 1300              	@ 546 "../../os/ext/CMSIS/include/core_cmFunc.h" 1
 1301 04a2 80F31188 		MSR basepri, r0
 1302              	@ 0 "" 2
 1303              	.LVL133:
 1304              		.thumb
 1305              		.syntax unified
 1306              	.LBE535:
 1307              	.LBE534:
 1308              	.LBE533:
 1309              	.LBE532:
 1310              	.LBE531:
 1311              	.LBB536:
ARM GAS  /tmp/ccaRxZi6.s 			page 24


 1312              	.LBB537:
 1313              	.LBB538:
 1314              	.LBB539:
 1315              		.syntax unified
 1316              	@ 546 "../../os/ext/CMSIS/include/core_cmFunc.h" 1
 1317 04a6 85F31188 		MSR basepri, r5
 1318              	@ 0 "" 2
 1319              		.thumb
 1320              		.syntax unified
 1321              	.LBE539:
 1322              	.LBE538:
 1323              	.LBE537:
 1324              	.LBE536:
 1325              		.loc 1 153 0
 1326 04aa E168     		ldr	r1, [r4, #12]
 1327 04ac A368     		ldr	r3, [r4, #8]
 1328 04ae CF1A     		subs	r7, r1, r3
 1329 04b0 7942     		rsbs	r1, r7, #0
 1330 04b2 7941     		adcs	r1, r1, r7
 1331 04b4 1520     		movs	r0, #21
 1332 04b6 FFF7FEFF 		bl	_test_assert
 1333              	.LVL134:
 1334 04ba 10B1     		cbz	r0, .L12
 1335              	.LVL135:
 1336              	.LBB540:
 1337              	.LBB541:
 1338              	.LBB542:
 1339              	.LBB543:
 1340              	.LBB544:
 1341              		.loc 2 546 0
 1342              		.syntax unified
 1343              	@ 546 "../../os/ext/CMSIS/include/core_cmFunc.h" 1
 1344 04bc 86F31188 		MSR basepri, r6
 1345              	@ 0 "" 2
 1346              		.thumb
 1347              		.syntax unified
 1348 04c0 D4E5     		b	.L1
 1349              	.LVL136:
 1350              	.L12:
 1351              	.LBE544:
 1352              	.LBE543:
 1353              	.LBE542:
 1354              	.LBE541:
 1355              	.LBE540:
 1356              	.LBB545:
 1357              	.LBB546:
 1358              	.LBB547:
 1359              	.LBB548:
 1360              	.LBB549:
 1361              		.syntax unified
 1362              	@ 546 "../../os/ext/CMSIS/include/core_cmFunc.h" 1
 1363 04c2 80F31188 		MSR basepri, r0
 1364              	@ 0 "" 2
 1365              	.LVL137:
 1366              		.thumb
 1367              		.syntax unified
 1368              	.LBE549:
ARM GAS  /tmp/ccaRxZi6.s 			page 25


 1369              	.LBE548:
 1370              	.LBE547:
 1371              	.LBE546:
 1372              	.LBE545:
 1373              	.LBB550:
 1374              	.LBB551:
 1375              	.LBB552:
 1376              	.LBB553:
 1377              		.syntax unified
 1378              	@ 546 "../../os/ext/CMSIS/include/core_cmFunc.h" 1
 1379 04c6 85F31188 		MSR basepri, r5
 1380              	@ 0 "" 2
 1381              		.thumb
 1382              		.syntax unified
 1383              	.LBE553:
 1384              	.LBE552:
 1385              	.LBE551:
 1386              	.LBE550:
 1387              		.loc 1 159 0
 1388 04ca 4121     		movs	r1, #65
 1389 04cc 2046     		mov	r0, r4
 1390 04ce FFF7FEFF 		bl	chMBPostI
 1391              	.LVL138:
 1392              		.loc 1 160 0
 1393 04d2 B0FA80F1 		clz	r1, r0
 1394 04d6 4909     		lsrs	r1, r1, #5
 1395 04d8 1620     		movs	r0, #22
 1396              	.LVL139:
 1397 04da FFF7FEFF 		bl	_test_assert
 1398              	.LVL140:
 1399 04de 0028     		cmp	r0, #0
 1400 04e0 7FF4C4AD 		bne	.L1
 1401              		.loc 1 161 0
 1402 04e4 4221     		movs	r1, #66
 1403 04e6 2046     		mov	r0, r4
 1404 04e8 FFF7FEFF 		bl	chMBPostI
 1405              	.LVL141:
 1406              		.loc 1 162 0
 1407 04ec B0FA80F1 		clz	r1, r0
 1408 04f0 4909     		lsrs	r1, r1, #5
 1409 04f2 1720     		movs	r0, #23
 1410              	.LVL142:
 1411 04f4 FFF7FEFF 		bl	_test_assert
 1412              	.LVL143:
 1413 04f8 0028     		cmp	r0, #0
 1414 04fa 7FF4B7AD 		bne	.L1
 1415              		.loc 1 163 0
 1416 04fe 4321     		movs	r1, #67
 1417 0500 2046     		mov	r0, r4
 1418 0502 FFF7FEFF 		bl	chMBPostI
 1419              	.LVL144:
 1420              		.loc 1 164 0
 1421 0506 B0FA80F1 		clz	r1, r0
 1422 050a 4909     		lsrs	r1, r1, #5
 1423 050c 1820     		movs	r0, #24
 1424              	.LVL145:
 1425 050e FFF7FEFF 		bl	_test_assert
ARM GAS  /tmp/ccaRxZi6.s 			page 26


 1426              	.LVL146:
 1427 0512 0028     		cmp	r0, #0
 1428 0514 7FF4AAAD 		bne	.L1
 1429              		.loc 1 165 0
 1430 0518 4421     		movs	r1, #68
 1431 051a 2046     		mov	r0, r4
 1432 051c FFF7FEFF 		bl	chMBPostI
 1433              	.LVL147:
 1434              		.loc 1 166 0
 1435 0520 B0FA80F1 		clz	r1, r0
 1436 0524 4909     		lsrs	r1, r1, #5
 1437 0526 1920     		movs	r0, #25
 1438              	.LVL148:
 1439 0528 FFF7FEFF 		bl	_test_assert
 1440              	.LVL149:
 1441 052c 0646     		mov	r6, r0
 1442 052e 0028     		cmp	r0, #0
 1443 0530 7FF49CAD 		bne	.L1
 1444              		.loc 1 167 0
 1445 0534 4521     		movs	r1, #69
 1446 0536 2046     		mov	r0, r4
 1447 0538 FFF7FEFF 		bl	chMBPostI
 1448              	.LVL150:
 1449              	.LBB554:
 1450              	.LBB555:
 1451              	.LBB556:
 1452              	.LBB557:
 1453              	.LBB558:
 1454              		.loc 2 546 0
 1455              		.syntax unified
 1456              	@ 546 "../../os/ext/CMSIS/include/core_cmFunc.h" 1
 1457 053c 86F31188 		MSR basepri, r6
 1458              	@ 0 "" 2
 1459              		.thumb
 1460              		.syntax unified
 1461              	.LBE558:
 1462              	.LBE557:
 1463              	.LBE556:
 1464              	.LBE555:
 1465              	.LBE554:
 1466              		.loc 1 169 0
 1467 0540 B0FA80F1 		clz	r1, r0
 1468 0544 4909     		lsrs	r1, r1, #5
 1469 0546 1A20     		movs	r0, #26
 1470              	.LVL151:
 1471 0548 FFF7FEFF 		bl	_test_assert
 1472              	.LVL152:
 1473 054c 0028     		cmp	r0, #0
 1474 054e 7FF48DAD 		bne	.L1
 1475              		.loc 1 170 0
 1476 0552 E168     		ldr	r1, [r4, #12]
 1477 0554 A368     		ldr	r3, [r4, #8]
 1478 0556 CC1A     		subs	r4, r1, r3
 1479 0558 6142     		rsbs	r1, r4, #0
 1480 055a 6141     		adcs	r1, r1, r4
 1481 055c 1B20     		movs	r0, #27
 1482 055e FFF7FEFF 		bl	_test_assert
ARM GAS  /tmp/ccaRxZi6.s 			page 27


 1483              	.LVL153:
 1484 0562 0028     		cmp	r0, #0
 1485 0564 7FF482AD 		bne	.L1
 1486              	.LBB559:
 1487              	.LBB560:
 1488              	.LBB561:
 1489              	.LBB562:
 1490              		.loc 2 546 0
 1491 0568 2E46     		mov	r6, r5
 1492              	.LBE562:
 1493              	.LBE561:
 1494              	.LBE560:
 1495              	.LBE559:
 1496              	.LBB566:
 1497              	.LBB567:
 1498              	.LBB568:
 1499              	.LBB569:
 1500              	.LBB570:
 1501 056a 8046     		mov	r8, r0
 1502              	.LBE570:
 1503              	.LBE569:
 1504              	.LBE568:
 1505              	.LBE567:
 1506              	.LBE566:
 1507 056c 0525     		movs	r5, #5
 1508              	.L13:
 1509              	.LVL154:
 1510              	.LBB575:
 1511              	.LBB565:
 1512              	.LBB564:
 1513              	.LBB563:
 1514 056e 2027     		movs	r7, #32
 1515              		.syntax unified
 1516              	@ 546 "../../os/ext/CMSIS/include/core_cmFunc.h" 1
 1517 0570 86F31188 		MSR basepri, r6
 1518              	@ 0 "" 2
 1519              		.thumb
 1520              		.syntax unified
 1521              	.LBE563:
 1522              	.LBE564:
 1523              	.LBE565:
 1524              	.LBE575:
 1525              		.loc 1 173 0
 1526 0574 154C     		ldr	r4, .L41
 1527 0576 01A9     		add	r1, sp, #4
 1528 0578 2046     		mov	r0, r4
 1529 057a FFF7FEFF 		bl	chMBFetchI
 1530              	.LVL155:
 1531              	.LBB576:
 1532              	.LBB574:
 1533              	.LBB573:
 1534              	.LBB572:
 1535              	.LBB571:
 1536              		.loc 2 546 0
 1537              		.syntax unified
 1538              	@ 546 "../../os/ext/CMSIS/include/core_cmFunc.h" 1
 1539 057e 88F31188 		MSR basepri, r8
ARM GAS  /tmp/ccaRxZi6.s 			page 28


 1540              	@ 0 "" 2
 1541              		.thumb
 1542              		.syntax unified
 1543              	.LBE571:
 1544              	.LBE572:
 1545              	.LBE573:
 1546              	.LBE574:
 1547              	.LBE576:
 1548              		.loc 1 175 0
 1549 0582 B0FA80F1 		clz	r1, r0
 1550 0586 4909     		lsrs	r1, r1, #5
 1551 0588 1C20     		movs	r0, #28
 1552              	.LVL156:
 1553 058a FFF7FEFF 		bl	_test_assert
 1554              	.LVL157:
 1555 058e 0028     		cmp	r0, #0
 1556 0590 7FF46CAD 		bne	.L1
 1557              		.loc 1 176 0 discriminator 2
 1558 0594 9DF80400 		ldrb	r0, [sp, #4]	@ zero_extendqisi2
 1559 0598 FFF7FEFF 		bl	test_emit_token
 1560              	.LVL158:
 1561              		.loc 1 171 0 discriminator 2
 1562 059c 013D     		subs	r5, r5, #1
 1563              	.LVL159:
 1564 059e E6D1     		bne	.L13
 1565              		.loc 1 178 0
 1566 05a0 0B49     		ldr	r1, .L41+4
 1567 05a2 1D20     		movs	r0, #29
 1568 05a4 FFF7FEFF 		bl	_test_assert_sequence
 1569              	.LVL160:
 1570 05a8 0028     		cmp	r0, #0
 1571 05aa 7FF45FAD 		bne	.L1
 1572              	.LVL161:
 1573              	.LBB577:
 1574              	.LBB578:
 1575              	.LBB579:
 1576              	.LBB580:
 1577              		.loc 2 546 0
 1578              		.syntax unified
 1579              	@ 546 "../../os/ext/CMSIS/include/core_cmFunc.h" 1
 1580 05ae 87F31188 		MSR basepri, r7
 1581              	@ 0 "" 2
 1582              	.LVL162:
 1583              		.thumb
 1584              		.syntax unified
 1585              	.LBE580:
 1586              	.LBE579:
 1587              	.LBE578:
 1588              	.LBE577:
 1589              		.loc 1 179 0
 1590 05b2 616A     		ldr	r1, [r4, #36]
 1591 05b4 4A1F     		subs	r2, r1, #5
 1592 05b6 5142     		rsbs	r1, r2, #0
 1593 05b8 5141     		adcs	r1, r1, r2
 1594 05ba 1E20     		movs	r0, #30
 1595 05bc FFF7FEFF 		bl	_test_assert
 1596              	.LVL163:
ARM GAS  /tmp/ccaRxZi6.s 			page 29


 1597 05c0 0028     		cmp	r0, #0
 1598 05c2 3FF456AD 		beq	.L38
 1599              	.LVL164:
 1600              	.L31:
 1601              	.LBB581:
 1602              	.LBB582:
 1603              	.LBB583:
 1604              	.LBB584:
 1605              	.LBB585:
 1606              		.loc 2 546 0
 1607              		.syntax unified
 1608              	@ 546 "../../os/ext/CMSIS/include/core_cmFunc.h" 1
 1609 05c6 85F31188 		MSR basepri, r5
 1610              	@ 0 "" 2
 1611              		.thumb
 1612              		.syntax unified
 1613 05ca 4FE5     		b	.L1
 1614              	.L42:
 1615              		.align	2
 1616              	.L41:
 1617 05cc 00000000 		.word	.LANCHOR0
 1618 05d0 00000000 		.word	.LC0
 1619              	.LBE585:
 1620              	.LBE584:
 1621              	.LBE583:
 1622              	.LBE582:
 1623              	.LBE581:
 1624              		.cfi_endproc
 1625              	.LFE230:
 1626              		.size	mbox1_execute, .-mbox1_execute
 1627 05d4 AFF30080 		.section	.text.mbox1_setup,"ax",%progbits
 1627      AFF30080 
 1627      AFF30080 
 1628              		.align	2
 1629              		.p2align 4,,15
 1630              		.thumb
 1631              		.thumb_func
 1632              		.type	mbox1_setup, %function
 1633              	mbox1_setup:
 1634              	.LFB229:
 1635              		.loc 1 71 0
 1636              		.cfi_startproc
 1637              		@ args = 0, pretend = 0, frame = 0
 1638              		@ frame_needed = 0, uses_anonymous_args = 0
 1639              		@ link register save eliminated.
 1640              		.loc 1 73 0
 1641 0000 0522     		movs	r2, #5
 1642 0002 0249     		ldr	r1, .L44
 1643 0004 0248     		ldr	r0, .L44+4
 1644 0006 FFF7FEBF 		b	chMBObjectInit
 1645              	.LVL165:
 1646              	.L45:
 1647 000a 00BF     		.align	2
 1648              	.L44:
 1649 000c 00000000 		.word	test
 1650 0010 00000000 		.word	.LANCHOR0
 1651              		.cfi_endproc
ARM GAS  /tmp/ccaRxZi6.s 			page 30


 1652              	.LFE229:
 1653              		.size	mbox1_setup, .-mbox1_setup
 1654              		.global	patternmbox
 1655              		.global	testmbox1
 1656 0014 AFF30080 		.section	.data.mb1,"aw",%progbits
 1656      AFF30080 
 1656      AFF30080 
 1657              		.align	2
 1658              		.set	.LANCHOR0,. + 0
 1659              		.type	mb1, %object
 1660              		.size	mb1, 40
 1661              	mb1:
 1662 0000 00000000 		.word	test
 1663 0004 14000000 		.word	test+20
 1664 0008 00000000 		.word	test
 1665 000c 00000000 		.word	test
 1666 0010 10000000 		.word	mb1+16
 1667 0014 10000000 		.word	mb1+16
 1668 0018 00000000 		.word	0
 1669 001c 1C000000 		.word	mb1+28
 1670 0020 1C000000 		.word	mb1+28
 1671 0024 05000000 		.word	5
 1672              		.section	.rodata.patternmbox,"a",%progbits
 1673              		.align	2
 1674              		.type	patternmbox, %object
 1675              		.size	patternmbox, 8
 1676              	patternmbox:
 1677 0000 00000000 		.word	testmbox1
 1678 0004 00000000 		.word	0
 1679              		.section	.rodata.str1.4,"aMS",%progbits,1
 1680              		.align	2
 1681              	.LC0:
 1682 0000 41424344 		.ascii	"ABCDE\000"
 1682      4500
 1683 0006 0000     		.space	2
 1684              	.LC1:
 1685 0008 4D61696C 		.ascii	"Mailboxes, queuing and timeouts\000"
 1685      626F7865 
 1685      732C2071 
 1685      75657569 
 1685      6E672061 
 1686              		.section	.rodata.testmbox1,"a",%progbits
 1687              		.align	2
 1688              		.type	testmbox1, %object
 1689              		.size	testmbox1, 16
 1690              	testmbox1:
 1691 0000 08000000 		.word	.LC1
 1692 0004 00000000 		.word	mbox1_setup
 1693 0008 00000000 		.word	0
 1694 000c 00000000 		.word	mbox1_execute
 1695              		.text
 1696              	.Letext0:
 1697              		.file 3 "/usr/lib/gcc/arm-none-eabi/5.2.0/include/stddef.h"
 1698              		.file 4 "/usr/arm-none-eabi/include/machine/_default_types.h"
 1699              		.file 5 "/usr/arm-none-eabi/include/stdint.h"
 1700              		.file 6 "../../os/rt/ports/ARMCMx/compilers/GCC/chtypes.h"
 1701              		.file 7 "../../os/rt/include/chsystypes.h"
ARM GAS  /tmp/ccaRxZi6.s 			page 31


 1702              		.file 8 "../../os/rt/include/chschd.h"
 1703              		.file 9 "../../os/rt/ports/ARMCMx/chcore.h"
 1704              		.file 10 "../../os/rt/ports/ARMCMx/chcore_v7m.h"
 1705              		.file 11 "../../os/rt/include/chtm.h"
 1706              		.file 12 "../../os/rt/include/chsem.h"
 1707              		.file 13 "../../os/rt/include/chmtx.h"
 1708              		.file 14 "../../os/rt/include/chmboxes.h"
 1709              		.file 15 "../../test/rt/test.h"
 1710              		.file 16 "../../os/rt/include/chsys.h"
 1711              		.file 17 "../../os/ext/CMSIS/include/core_cm4.h"