ARM GAS  /tmp/cc24WkUd.s 			page 1


   1              		.syntax unified
   2              		.cpu cortex-m4
   3              		.eabi_attribute 27, 1
   4              		.eabi_attribute 28, 1
   5              		.fpu fpv4-sp-d16
   6              		.eabi_attribute 20, 1
   7              		.eabi_attribute 21, 1
   8              		.eabi_attribute 23, 3
   9              		.eabi_attribute 24, 1
  10              		.eabi_attribute 25, 1
  11              		.eabi_attribute 26, 1
  12              		.eabi_attribute 30, 2
  13              		.eabi_attribute 34, 1
  14              		.eabi_attribute 18, 4
  15              		.thumb
  16              		.syntax unified
  17              		.file	"adc.c"
  18              		.text
  19              	.Ltext0:
  20              		.cfi_sections	.debug_frame
  21              		.section	.text.adcInit,"ax",%progbits
  22              		.align	2
  23              		.p2align 4,,15
  24              		.global	adcInit
  25              		.thumb
  26              		.thumb_func
  27              		.type	adcInit, %function
  28              	adcInit:
  29              	.LFB260:
  30              		.file 1 "../../os/hal/src/adc.c"
  31              		.loc 1 56 0
  32              		.cfi_startproc
  33              		@ args = 0, pretend = 0, frame = 0
  34              		@ frame_needed = 0, uses_anonymous_args = 0
  35              		@ link register save eliminated.
  36              		.loc 1 58 0
  37 0000 FFF7FEBF 		b	adc_lld_init
  38              	.LVL0:
  39              		.cfi_endproc
  40              	.LFE260:
  41              		.size	adcInit, .-adcInit
  42 0004 AFF30080 		.section	.text.adcObjectInit,"ax",%progbits
  42      AFF30080 
  42      AFF30080 
  43              		.align	2
  44              		.p2align 4,,15
  45              		.global	adcObjectInit
  46              		.thumb
  47              		.thumb_func
  48              		.type	adcObjectInit, %function
  49              	adcObjectInit:
  50              	.LFB261:
  51              		.loc 1 68 0
  52              		.cfi_startproc
  53              		@ args = 0, pretend = 0, frame = 0
  54              		@ frame_needed = 0, uses_anonymous_args = 0
  55              		@ link register save eliminated.
ARM GAS  /tmp/cc24WkUd.s 			page 2


  56              	.LVL1:
  57              		.loc 1 71 0
  58 0000 0023     		movs	r3, #0
  59              		.loc 1 70 0
  60 0002 0122     		movs	r2, #1
  61 0004 0270     		strb	r2, [r0]
  62              		.loc 1 71 0
  63 0006 4360     		str	r3, [r0, #4]
  64              		.loc 1 72 0
  65 0008 8360     		str	r3, [r0, #8]
  66              		.loc 1 73 0
  67 000a C360     		str	r3, [r0, #12]
  68              		.loc 1 74 0
  69 000c 0361     		str	r3, [r0, #16]
  70              		.loc 1 76 0
  71 000e 4361     		str	r3, [r0, #20]
  72              	.LVL2:
  73              	.LBB105:
  74              	.LBB106:
  75              		.file 2 "../../os/hal/osal/rt/osal.h"
  76              		.loc 2 841 0
  77 0010 1830     		adds	r0, r0, #24
  78              	.LVL3:
  79 0012 FFF7FEBF 		b	chMtxObjectInit
  80              	.LVL4:
  81              	.LBE106:
  82              	.LBE105:
  83              		.cfi_endproc
  84              	.LFE261:
  85              		.size	adcObjectInit, .-adcObjectInit
  86 0016 00BFAFF3 		.section	.text.adcStart,"ax",%progbits
  86      0080AFF3 
  86      0080
  87              		.align	2
  88              		.p2align 4,,15
  89              		.global	adcStart
  90              		.thumb
  91              		.thumb_func
  92              		.type	adcStart, %function
  93              	adcStart:
  94              	.LFB262:
  95              		.loc 1 95 0
  96              		.cfi_startproc
  97              		@ args = 0, pretend = 0, frame = 0
  98              		@ frame_needed = 0, uses_anonymous_args = 0
  99              	.LVL5:
 100 0000 10B5     		push	{r4, lr}
 101              		.cfi_def_cfa_offset 8
 102              		.cfi_offset 4, -8
 103              		.cfi_offset 14, -4
 104              	.LBB107:
 105              	.LBB108:
 106              	.LBB109:
 107              	.LBB110:
 108              	.LBB111:
 109              		.file 3 "../../os/ext/CMSIS/include/core_cmFunc.h"
 110              		.loc 3 546 0
ARM GAS  /tmp/cc24WkUd.s 			page 3


 111 0002 2023     		movs	r3, #32
 112              	.LBE111:
 113              	.LBE110:
 114              	.LBE109:
 115              	.LBE108:
 116              	.LBE107:
 117              		.loc 1 95 0
 118 0004 0446     		mov	r4, r0
 119              	.LBB116:
 120              	.LBB115:
 121              	.LBB114:
 122              	.LBB113:
 123              	.LBB112:
 124              		.loc 3 546 0
 125              		.syntax unified
 126              	@ 546 "../../os/ext/CMSIS/include/core_cmFunc.h" 1
 127 0006 83F31188 		MSR basepri, r3
 128              	@ 0 "" 2
 129              		.thumb
 130              		.syntax unified
 131              	.LBE112:
 132              	.LBE113:
 133              	.LBE114:
 134              	.LBE115:
 135              	.LBE116:
 136              		.loc 1 102 0
 137 000a 4160     		str	r1, [r0, #4]
 138              		.loc 1 103 0
 139 000c FFF7FEFF 		bl	adc_lld_start
 140              	.LVL6:
 141              		.loc 1 104 0
 142 0010 0223     		movs	r3, #2
 143 0012 2370     		strb	r3, [r4]
 144              	.LVL7:
 145              	.LBB117:
 146              	.LBB118:
 147              	.LBB119:
 148              	.LBB120:
 149              	.LBB121:
 150              	.LBB122:
 151              		.loc 3 546 0
 152 0014 0023     		movs	r3, #0
 153              		.syntax unified
 154              	@ 546 "../../os/ext/CMSIS/include/core_cmFunc.h" 1
 155 0016 83F31188 		MSR basepri, r3
 156              	@ 0 "" 2
 157              		.thumb
 158              		.syntax unified
 159 001a 10BD     		pop	{r4, pc}
 160              	.LBE122:
 161              	.LBE121:
 162              	.LBE120:
 163              	.LBE119:
 164              	.LBE118:
 165              	.LBE117:
 166              		.cfi_endproc
 167              	.LFE262:
ARM GAS  /tmp/cc24WkUd.s 			page 4


 168              		.size	adcStart, .-adcStart
 169 001c AFF30080 		.section	.text.adcStop,"ax",%progbits
 170              		.align	2
 171              		.p2align 4,,15
 172              		.global	adcStop
 173              		.thumb
 174              		.thumb_func
 175              		.type	adcStop, %function
 176              	adcStop:
 177              	.LFB263:
 178              		.loc 1 115 0
 179              		.cfi_startproc
 180              		@ args = 0, pretend = 0, frame = 0
 181              		@ frame_needed = 0, uses_anonymous_args = 0
 182              	.LVL8:
 183 0000 10B5     		push	{r4, lr}
 184              		.cfi_def_cfa_offset 8
 185              		.cfi_offset 4, -8
 186              		.cfi_offset 14, -4
 187              	.LBB123:
 188              	.LBB124:
 189              	.LBB125:
 190              	.LBB126:
 191              	.LBB127:
 192              		.loc 3 546 0
 193 0002 2023     		movs	r3, #32
 194              	.LBE127:
 195              	.LBE126:
 196              	.LBE125:
 197              	.LBE124:
 198              	.LBE123:
 199              		.loc 1 115 0
 200 0004 0446     		mov	r4, r0
 201              	.LBB132:
 202              	.LBB131:
 203              	.LBB130:
 204              	.LBB129:
 205              	.LBB128:
 206              		.loc 3 546 0
 207              		.syntax unified
 208              	@ 546 "../../os/ext/CMSIS/include/core_cmFunc.h" 1
 209 0006 83F31188 		MSR basepri, r3
 210              	@ 0 "" 2
 211              		.thumb
 212              		.syntax unified
 213              	.LBE128:
 214              	.LBE129:
 215              	.LBE130:
 216              	.LBE131:
 217              	.LBE132:
 218              		.loc 1 122 0
 219 000a FFF7FEFF 		bl	adc_lld_stop
 220              	.LVL9:
 221              		.loc 1 123 0
 222 000e 0123     		movs	r3, #1
 223 0010 2370     		strb	r3, [r4]
 224              	.LVL10:
ARM GAS  /tmp/cc24WkUd.s 			page 5


 225              	.LBB133:
 226              	.LBB134:
 227              	.LBB135:
 228              	.LBB136:
 229              	.LBB137:
 230              	.LBB138:
 231              		.loc 3 546 0
 232 0012 0023     		movs	r3, #0
 233              		.syntax unified
 234              	@ 546 "../../os/ext/CMSIS/include/core_cmFunc.h" 1
 235 0014 83F31188 		MSR basepri, r3
 236              	@ 0 "" 2
 237              		.thumb
 238              		.syntax unified
 239 0018 10BD     		pop	{r4, pc}
 240              	.LBE138:
 241              	.LBE137:
 242              	.LBE136:
 243              	.LBE135:
 244              	.LBE134:
 245              	.LBE133:
 246              		.cfi_endproc
 247              	.LFE263:
 248              		.size	adcStop, .-adcStop
 249 001a 00BFAFF3 		.section	.text.adcStartConversion,"ax",%progbits
 249      0080
 250              		.align	2
 251              		.p2align 4,,15
 252              		.global	adcStartConversion
 253              		.thumb
 254              		.thumb_func
 255              		.type	adcStartConversion, %function
 256              	adcStartConversion:
 257              	.LFB264:
 258              		.loc 1 146 0
 259              		.cfi_startproc
 260              		@ args = 0, pretend = 0, frame = 0
 261              		@ frame_needed = 0, uses_anonymous_args = 0
 262              	.LVL11:
 263 0000 38B5     		push	{r3, r4, r5, lr}
 264              		.cfi_def_cfa_offset 16
 265              		.cfi_offset 3, -16
 266              		.cfi_offset 4, -12
 267              		.cfi_offset 5, -8
 268              		.cfi_offset 14, -4
 269              	.LBB139:
 270              	.LBB140:
 271              	.LBB141:
 272              	.LBB142:
 273              	.LBB143:
 274              		.loc 3 546 0
 275 0002 2025     		movs	r5, #32
 276              		.syntax unified
 277              	@ 546 "../../os/ext/CMSIS/include/core_cmFunc.h" 1
 278 0004 85F31188 		MSR basepri, r5
 279              	@ 0 "" 2
 280              	.LVL12:
ARM GAS  /tmp/cc24WkUd.s 			page 6


 281              		.thumb
 282              		.syntax unified
 283              	.LBE143:
 284              	.LBE142:
 285              	.LBE141:
 286              	.LBE140:
 287              	.LBE139:
 288              	.LBB144:
 289              	.LBB145:
 290              		.loc 1 187 0
 291 0008 0325     		movs	r5, #3
 292              		.loc 1 185 0
 293 000a C360     		str	r3, [r0, #12]
 294              		.loc 1 184 0
 295 000c 8260     		str	r2, [r0, #8]
 296              		.loc 1 186 0
 297 000e 0161     		str	r1, [r0, #16]
 298              		.loc 1 187 0
 299 0010 0570     		strb	r5, [r0]
 300              		.loc 1 188 0
 301 0012 FFF7FEFF 		bl	adc_lld_start_conversion
 302              	.LVL13:
 303              	.LBE145:
 304              	.LBE144:
 305              	.LBB146:
 306              	.LBB147:
 307              	.LBB148:
 308              	.LBB149:
 309              	.LBB150:
 310              	.LBB151:
 311              		.loc 3 546 0
 312 0016 0023     		movs	r3, #0
 313              		.syntax unified
 314              	@ 546 "../../os/ext/CMSIS/include/core_cmFunc.h" 1
 315 0018 83F31188 		MSR basepri, r3
 316              	@ 0 "" 2
 317              		.thumb
 318              		.syntax unified
 319 001c 38BD     		pop	{r3, r4, r5, pc}
 320              	.LBE151:
 321              	.LBE150:
 322              	.LBE149:
 323              	.LBE148:
 324              	.LBE147:
 325              	.LBE146:
 326              		.cfi_endproc
 327              	.LFE264:
 328              		.size	adcStartConversion, .-adcStartConversion
 329 001e 00BF     		.section	.text.adcStartConversionI,"ax",%progbits
 330              		.align	2
 331              		.p2align 4,,15
 332              		.global	adcStartConversionI
 333              		.thumb
 334              		.thumb_func
 335              		.type	adcStartConversionI, %function
 336              	adcStartConversionI:
 337              	.LFB265:
ARM GAS  /tmp/cc24WkUd.s 			page 7


 338              		.loc 1 174 0
 339              		.cfi_startproc
 340              		@ args = 0, pretend = 0, frame = 0
 341              		@ frame_needed = 0, uses_anonymous_args = 0
 342              		@ link register save eliminated.
 343              	.LVL14:
 344 0000 30B4     		push	{r4, r5}
 345              		.cfi_def_cfa_offset 8
 346              		.cfi_offset 4, -8
 347              		.cfi_offset 5, -4
 348              		.loc 1 187 0
 349 0002 0325     		movs	r5, #3
 350 0004 0570     		strb	r5, [r0]
 351              		.loc 1 184 0
 352 0006 8260     		str	r2, [r0, #8]
 353              		.loc 1 185 0
 354 0008 C360     		str	r3, [r0, #12]
 355              		.loc 1 186 0
 356 000a 0161     		str	r1, [r0, #16]
 357              		.loc 1 189 0
 358 000c 30BC     		pop	{r4, r5}
 359              		.cfi_restore 5
 360              		.cfi_restore 4
 361              		.cfi_def_cfa_offset 0
 362              		.loc 1 188 0
 363 000e FFF7FEBF 		b	adc_lld_start_conversion
 364              	.LVL15:
 365              		.cfi_endproc
 366              	.LFE265:
 367              		.size	adcStartConversionI, .-adcStartConversionI
 368 0012 00BFAFF3 		.section	.text.adcStopConversion,"ax",%progbits
 368      0080AFF3 
 368      0080AFF3 
 368      0080
 369              		.align	2
 370              		.p2align 4,,15
 371              		.global	adcStopConversion
 372              		.thumb
 373              		.thumb_func
 374              		.type	adcStopConversion, %function
 375              	adcStopConversion:
 376              	.LFB266:
 377              		.loc 1 201 0
 378              		.cfi_startproc
 379              		@ args = 0, pretend = 0, frame = 0
 380              		@ frame_needed = 0, uses_anonymous_args = 0
 381              	.LVL16:
 382              	.LBB152:
 383              	.LBB153:
 384              	.LBB154:
 385              	.LBB155:
 386              	.LBB156:
 387              		.loc 3 546 0
 388 0000 2022     		movs	r2, #32
 389              		.syntax unified
 390              	@ 546 "../../os/ext/CMSIS/include/core_cmFunc.h" 1
 391 0002 82F31188 		MSR basepri, r2
ARM GAS  /tmp/cc24WkUd.s 			page 8


 392              	@ 0 "" 2
 393              		.thumb
 394              		.syntax unified
 395              	.LBE156:
 396              	.LBE155:
 397              	.LBE154:
 398              	.LBE153:
 399              	.LBE152:
 400              		.loc 1 208 0
 401 0006 0278     		ldrb	r2, [r0]	@ zero_extendqisi2
 402 0008 022A     		cmp	r2, #2
 403 000a 11D0     		beq	.L17
 404              		.loc 1 201 0
 405 000c 10B5     		push	{r4, lr}
 406              		.cfi_def_cfa_offset 8
 407              		.cfi_offset 4, -8
 408              		.cfi_offset 14, -4
 409 000e 0446     		mov	r4, r0
 410              		.loc 1 209 0
 411 0010 FFF7FEFF 		bl	adc_lld_stop_conversion
 412              	.LVL17:
 413              		.loc 1 211 0
 414 0014 2046     		mov	r0, r4
 415              		.loc 1 210 0
 416 0016 0022     		movs	r2, #0
 417              		.loc 1 211 0
 418 0018 0223     		movs	r3, #2
 419              		.loc 1 210 0
 420 001a 2261     		str	r2, [r4, #16]
 421              	.LBB157:
 422              	.LBB158:
 423              		.loc 2 697 0
 424 001c 6FF00101 		mvn	r1, #1
 425              	.LBE158:
 426              	.LBE157:
 427              		.loc 1 211 0
 428 0020 00F8143B 		strb	r3, [r0], #20
 429              	.LVL18:
 430              	.LBB160:
 431              	.LBB159:
 432              		.loc 2 697 0
 433 0024 FFF7FEFF 		bl	chThdResumeS
 434              	.LVL19:
 435              	.LBE159:
 436              	.LBE160:
 437              	.LBB161:
 438              	.LBB162:
 439              	.LBB163:
 440              	.LBB164:
 441              	.LBB165:
 442              	.LBB166:
 443              		.loc 3 546 0
 444 0028 0023     		movs	r3, #0
 445              		.syntax unified
 446              	@ 546 "../../os/ext/CMSIS/include/core_cmFunc.h" 1
 447 002a 83F31188 		MSR basepri, r3
 448              	@ 0 "" 2
ARM GAS  /tmp/cc24WkUd.s 			page 9


 449              		.thumb
 450              		.syntax unified
 451 002e 10BD     		pop	{r4, pc}
 452              	.LVL20:
 453              	.L17:
 454              		.cfi_def_cfa_offset 0
 455              		.cfi_restore 4
 456              		.cfi_restore 14
 457 0030 0023     		movs	r3, #0
 458              		.syntax unified
 459              	@ 546 "../../os/ext/CMSIS/include/core_cmFunc.h" 1
 460 0032 83F31188 		MSR basepri, r3
 461              	@ 0 "" 2
 462              		.thumb
 463              		.syntax unified
 464 0036 7047     		bx	lr
 465              	.LBE166:
 466              	.LBE165:
 467              	.LBE164:
 468              	.LBE163:
 469              	.LBE162:
 470              	.LBE161:
 471              		.cfi_endproc
 472              	.LFE266:
 473              		.size	adcStopConversion, .-adcStopConversion
 474 0038 AFF30080 		.section	.text.adcStopConversionI,"ax",%progbits
 474      AFF30080 
 475              		.align	2
 476              		.p2align 4,,15
 477              		.global	adcStopConversionI
 478              		.thumb
 479              		.thumb_func
 480              		.type	adcStopConversionI, %function
 481              	adcStopConversionI:
 482              	.LFB267:
 483              		.loc 1 227 0
 484              		.cfi_startproc
 485              		@ args = 0, pretend = 0, frame = 0
 486              		@ frame_needed = 0, uses_anonymous_args = 0
 487              	.LVL21:
 488              		.loc 1 236 0
 489 0000 0278     		ldrb	r2, [r0]	@ zero_extendqisi2
 490 0002 022A     		cmp	r2, #2
 491 0004 0FD0     		beq	.L22
 492              		.loc 1 227 0
 493 0006 10B5     		push	{r4, lr}
 494              		.cfi_def_cfa_offset 8
 495              		.cfi_offset 4, -8
 496              		.cfi_offset 14, -4
 497 0008 0446     		mov	r4, r0
 498              		.loc 1 237 0
 499 000a FFF7FEFF 		bl	adc_lld_stop_conversion
 500              	.LVL22:
 501              		.loc 1 239 0
 502 000e 2046     		mov	r0, r4
 503              		.loc 1 238 0
 504 0010 0022     		movs	r2, #0
ARM GAS  /tmp/cc24WkUd.s 			page 10


 505              		.loc 1 239 0
 506 0012 0223     		movs	r3, #2
 507              		.loc 1 238 0
 508 0014 2261     		str	r2, [r4, #16]
 509              	.LBB167:
 510              	.LBB168:
 511              		.loc 2 682 0
 512 0016 6FF00101 		mvn	r1, #1
 513              	.LBE168:
 514              	.LBE167:
 515              		.loc 1 239 0
 516 001a 00F8143B 		strb	r3, [r0], #20
 517              	.LVL23:
 518              		.loc 1 242 0
 519 001e BDE81040 		pop	{r4, lr}
 520              		.cfi_restore 14
 521              		.cfi_restore 4
 522              		.cfi_def_cfa_offset 0
 523              	.LVL24:
 524              	.LBB170:
 525              	.LBB169:
 526              		.loc 2 682 0
 527 0022 FFF7FEBF 		b	chThdResumeI
 528              	.LVL25:
 529              	.L22:
 530 0026 7047     		bx	lr
 531              	.LBE169:
 532              	.LBE170:
 533              		.cfi_endproc
 534              	.LFE267:
 535              		.size	adcStopConversionI, .-adcStopConversionI
 536 0028 AFF30080 		.section	.text.adcConvert,"ax",%progbits
 536      AFF30080 
 537              		.align	2
 538              		.p2align 4,,15
 539              		.global	adcConvert
 540              		.thumb
 541              		.thumb_func
 542              		.type	adcConvert, %function
 543              	adcConvert:
 544              	.LFB268:
 545              		.loc 1 271 0
 546              		.cfi_startproc
 547              		@ args = 0, pretend = 0, frame = 0
 548              		@ frame_needed = 0, uses_anonymous_args = 0
 549              	.LVL26:
 550 0000 70B5     		push	{r4, r5, r6, lr}
 551              		.cfi_def_cfa_offset 16
 552              		.cfi_offset 4, -16
 553              		.cfi_offset 5, -12
 554              		.cfi_offset 6, -8
 555              		.cfi_offset 14, -4
 556              	.LBB171:
 557              	.LBB172:
 558              	.LBB173:
 559              	.LBB174:
 560              	.LBB175:
ARM GAS  /tmp/cc24WkUd.s 			page 11


 561              		.loc 3 546 0
 562 0002 2025     		movs	r5, #32
 563              		.syntax unified
 564              	@ 546 "../../os/ext/CMSIS/include/core_cmFunc.h" 1
 565 0004 85F31188 		MSR basepri, r5
 566              	@ 0 "" 2
 567              	.LVL27:
 568              		.thumb
 569              		.syntax unified
 570              	.LBE175:
 571              	.LBE174:
 572              	.LBE173:
 573              	.LBE172:
 574              	.LBE171:
 575              	.LBB176:
 576              	.LBB177:
 577              		.loc 1 187 0
 578 0008 0546     		mov	r5, r0
 579 000a 0326     		movs	r6, #3
 580              		.loc 1 184 0
 581 000c 8260     		str	r2, [r0, #8]
 582              		.loc 1 185 0
 583 000e C360     		str	r3, [r0, #12]
 584              		.loc 1 186 0
 585 0010 0161     		str	r1, [r0, #16]
 586              		.loc 1 187 0
 587 0012 05F8146B 		strb	r6, [r5], #20
 588              		.loc 1 188 0
 589 0016 FFF7FEFF 		bl	adc_lld_start_conversion
 590              	.LVL28:
 591              	.LBE177:
 592              	.LBE176:
 593              	.LBB178:
 594              	.LBB179:
 595              		.loc 2 642 0
 596 001a 2846     		mov	r0, r5
 597 001c FFF7FEFF 		bl	chThdSuspendS
 598              	.LVL29:
 599              	.LBE179:
 600              	.LBE178:
 601              	.LBB180:
 602              	.LBB181:
 603              	.LBB182:
 604              	.LBB183:
 605              	.LBB184:
 606              	.LBB185:
 607              		.loc 3 546 0
 608 0020 0023     		movs	r3, #0
 609              		.syntax unified
 610              	@ 546 "../../os/ext/CMSIS/include/core_cmFunc.h" 1
 611 0022 83F31188 		MSR basepri, r3
 612              	@ 0 "" 2
 613              		.thumb
 614              		.syntax unified
 615              	.LBE185:
 616              	.LBE184:
 617              	.LBE183:
ARM GAS  /tmp/cc24WkUd.s 			page 12


 618              	.LBE182:
 619              	.LBE181:
 620              	.LBE180:
 621              		.loc 1 280 0
 622 0026 70BD     		pop	{r4, r5, r6, pc}
 623              		.cfi_endproc
 624              	.LFE268:
 625              		.size	adcConvert, .-adcConvert
 626 0028 AFF30080 		.section	.text.adcAcquireBus,"ax",%progbits
 626      AFF30080 
 627              		.align	2
 628              		.p2align 4,,15
 629              		.global	adcAcquireBus
 630              		.thumb
 631              		.thumb_func
 632              		.type	adcAcquireBus, %function
 633              	adcAcquireBus:
 634              	.LFB269:
 635              		.loc 1 295 0
 636              		.cfi_startproc
 637              		@ args = 0, pretend = 0, frame = 0
 638              		@ frame_needed = 0, uses_anonymous_args = 0
 639              		@ link register save eliminated.
 640              	.LVL30:
 641              	.LBB186:
 642              	.LBB187:
 643              		.loc 2 861 0
 644 0000 1830     		adds	r0, r0, #24
 645              	.LVL31:
 646 0002 FFF7FEBF 		b	chMtxLock
 647              	.LVL32:
 648              	.LBE187:
 649              	.LBE186:
 650              		.cfi_endproc
 651              	.LFE269:
 652              		.size	adcAcquireBus, .-adcAcquireBus
 653 0006 00BFAFF3 		.section	.text.adcReleaseBus,"ax",%progbits
 653      0080AFF3 
 653      0080
 654              		.align	2
 655              		.p2align 4,,15
 656              		.global	adcReleaseBus
 657              		.thumb
 658              		.thumb_func
 659              		.type	adcReleaseBus, %function
 660              	adcReleaseBus:
 661              	.LFB270:
 662              		.loc 1 311 0
 663              		.cfi_startproc
 664              		@ args = 0, pretend = 0, frame = 0
 665              		@ frame_needed = 0, uses_anonymous_args = 0
 666              		@ link register save eliminated.
 667              	.LVL33:
 668              	.LBB188:
 669              	.LBB189:
 670              		.loc 2 885 0
 671 0000 1830     		adds	r0, r0, #24
ARM GAS  /tmp/cc24WkUd.s 			page 13


 672              	.LVL34:
 673 0002 FFF7FEBF 		b	chMtxUnlock
 674              	.LVL35:
 675              	.LBE189:
 676              	.LBE188:
 677              		.cfi_endproc
 678              	.LFE270:
 679              		.size	adcReleaseBus, .-adcReleaseBus
 680 0006 00BFAFF3 		.text
 680      0080AFF3 
 680      0080
 681              	.Letext0:
 682              		.file 4 "/usr/lib/gcc/arm-none-eabi/5.2.0/include/stddef.h"
 683              		.file 5 "/usr/arm-none-eabi/include/machine/_default_types.h"
 684              		.file 6 "/usr/arm-none-eabi/include/stdint.h"
 685              		.file 7 "../../os/rt/ports/ARMCMx/compilers/GCC/chtypes.h"
 686              		.file 8 "../../os/rt/include/chsystypes.h"
 687              		.file 9 "../../os/rt/include/chschd.h"
 688              		.file 10 "../../os/ext/CMSIS/ST/stm32f401xc.h"
 689              		.file 11 "../../os/rt/ports/ARMCMx/chcore.h"
 690              		.file 12 "../../os/rt/ports/ARMCMx/chcore_v7m.h"
 691              		.file 13 "../../os/rt/include/chtm.h"
 692              		.file 14 "../../os/rt/include/chsem.h"
 693              		.file 15 "../../os/rt/include/chmtx.h"
 694              		.file 16 "../../os/hal/ports/STM32/STM32F4xx/stm32_dma.h"
 695              		.file 17 "../../os/hal/include/adc.h"
 696              		.file 18 "../../os/hal/ports/STM32/STM32F4xx/adc_lld.h"
 697              		.file 19 "../../os/rt/include/chsys.h"
 698              		.file 20 "../../os/rt/include/chthreads.h"
 699              		.file 21 "../../os/ext/CMSIS/include/core_cm4.h"