ARM GAS  /tmp/cc24WkUd.s 			page 1


   1              		.syntax unified
   2              		.cpu cortex-m4
   3              		.eabi_attribute 27, 1
   4              		.eabi_attribute 28, 1
   5              		.fpu fpv4-sp-d16
   6              		.eabi_attribute 20, 1
   7              		.eabi_attribute 21, 1
   8              		.eabi_attribute 23, 3
   9              		.eabi_attribute 24, 1
  10              		.eabi_attribute 25, 1
  11              		.eabi_attribute 26, 1
  12              		.eabi_attribute 30, 2
  13              		.eabi_attribute 34, 1
  14              		.eabi_attribute 18, 4
  15              		.thumb
  16              		.syntax unified
  17              		.file	"adc.c"
  18              		.text
  19              	.Ltext0:
  20              		.cfi_sections	.debug_frame
  21              		.section	.text.adcInit,"ax",%progbits
  22              		.align	2
  23              		.p2align 4,,15
  24              		.global	adcInit
  25              		.thumb
  26              		.thumb_func
  27              		.type	adcInit, %function
  28              	adcInit:
  29              	.LFB260:
  30              		.file 1 "../../os/hal/src/adc.c"
  31              		.loc 1 56 0
  32              		.cfi_startproc
  33              		@ args = 0, pretend = 0, frame = 0
  34              		@ frame_needed = 0, uses_anonymous_args = 0
  35              		@ link register save eliminated.
  36              		.loc 1 58 0
  37 0000 FFF7FEBF 		b	adc_lld_init
  38              	.LVL0:
  39              		.cfi_endproc
  40              	.LFE260:
  41              		.size	adcInit, .-adcInit
  42 0004 AFF30080 		.section	.text.adcObjectInit,"ax",%progbits
  42      AFF30080 
  42      AFF30080 
  43              		.align	2
  44              		.p2align 4,,15
  45              		.global	adcObjectInit
  46              		.thumb
  47              		.thumb_func
  48              		.type	adcObjectInit, %function
  49              	adcObjectInit:
  50              	.LFB261:
  51              		.loc 1 68 0
  52              		.cfi_startproc
  53              		@ args = 0, pretend = 0, frame = 0
  54              		@ frame_needed = 0, uses_anonymous_args = 0
  55              		@ link register save eliminated.
ARM GAS  /tmp/cc24WkUd.s 			page 2


  56              	.LVL1:
  57              		.loc 1 71 0
  58 0000 0023     		movs	r3, #0
  59              		.loc 1 70 0
  60 0002 0122     		movs	r2, #1
  61 0004 0270     		strb	r2, [r0]
  62              		.loc 1 71 0
  63 0006 4360     		str	r3, [r0, #4]
  64              		.loc 1 72 0
  65 0008 8360     		str	r3, [r0, #8]
  66              		.loc 1 73 0
  67 000a C360     		str	r3, [r0, #12]
  68              		.loc 1 74 0
  69 000c 0361     		str	r3, [r0, #16]
  70              		.loc 1 76 0
  71 000e 4361     		str	r3, [r0, #20]
  72              	.LVL2:
  73              	.LBB105:
  74              	.LBB106:
  75              		.file 2 "../../os/hal/osal/rt/osal.h"
  76              		.loc 2 841 0
  77 0010 1830     		adds	r0, r0, #24
  78              	.LVL3:
  79 0012 FFF7FEBF 		b	chMtxObjectInit
  80              	.LVL4:
  81              	.LBE106:
  82              	.LBE105:
  83              		.cfi_endproc
  84              	.LFE261:
  85              		.size	adcObjectInit, .-adcObjectInit
  86 0016 00BFAFF3 		.section	.text.adcStart,"ax",%progbits
  86      0080AFF3 
  86      0080
  87              		.align	2
  88              		.p2align 4,,15
  89              		.global	adcStart
  90              		.thumb
  91              		.thumb_func
  92              		.type	adcStart, %function
  93              	adcStart:
  94              	.LFB262:
  95              		.loc 1 95 0
  96              		.cfi_startproc
  97              		@ args = 0, pretend = 0, frame = 0
  98              		@ frame_needed = 0, uses_anonymous_args = 0
  99              	.LVL5:
 100 0000 10B5     		push	{r4, lr}
 101              		.cfi_def_cfa_offset 8
 102              		.cfi_offset 4, -8
 103              		.cfi_offset 14, -4
 104              	.LBB107:
 105              	.LBB108:
 106              	.LBB109:
 107              	.LBB110:
 108              	.LBB111:
 109              		.file 3 "../../os/ext/CMSIS/include/core_cmFunc.h"
 110              		.loc 3 546 0
ARM GAS  /tmp/cc24WkUd.s 			page 3


 111 0002 2023     		movs	r3, #32
 112              	.LBE111:
 113              	.LBE110:
 114              	.LBE109:
 115              	.LBE108:
 116              	.LBE107:
 117              		.loc 1 95 0
 118 0004 0446     		mov	r4, r0
 119              	.LBB116:
 120              	.LBB115:
 121              	.LBB114:
 122              	.LBB113:
 123              	.LBB112:
 124              		.loc 3 546 0
 125              		.syntax unified
 126              	@ 546 "../../os/ext/CMSIS/include/core_cmFunc.h" 1
 127 0006 83F31188 		MSR basepri, r3
 128              	@ 0 "" 2
 129              		.thumb
 130              		.syntax unified
 131              	.LBE112:
 132              	.LBE113:
 133              	.LBE114:
 134              	.LBE115:
 135              	.LBE116:
 136              		.loc 1 102 0
 137 000a 4160     		str	r1, [r0, #4]
 138              		.loc 1 103 0
 139 000c FFF7FEFF 		bl	adc_lld_start
 140              	.LVL6:
 141              		.loc 1 104 0
 142 0010 0223     		movs	r3, #2
 143 0012 2370     		strb	r3, [r4]
 144              	.LVL7:
 145              	.LBB117:
 146              	.LBB118:
 147              	.LBB119:
 148              	.LBB120:
 149              	.LBB121:
 150              	.LBB122:
 151              		.loc 3 546 0
 152 0014 0023     		movs	r3, #0
 153              		.syntax unified
 154              	@ 546 "../../os/ext/CMSIS/include/core_cmFunc.h" 1
 155 0016 83F31188 		MSR basepri, r3
 156              	@ 0 "" 2
 157              		.thumb
 158              		.syntax unified
 159 001a 10BD     		pop	{r4, pc}
 160              	.LBE122:
 161              	.LBE121:
 162              	.LBE120:
 163              	.LBE119:
 164              	.LBE118:
 165              	.LBE117:
 166              		.cfi_endproc
 167              	.LFE262:
ARM GAS  /tmp/cc24WkUd.s 			page 4


 168              		.size	adcStart, .-adcStart
 169 001c AFF30080 		.section	.text.adcStop,"ax",%progbits
 170              		.align	2
 171              		.p2align 4,,15
 172              		.global	adcStop
 173              		.thumb
 174              		.thumb_func
 175              		.type	adcStop, %function
 176              	adcStop:
 177              	.LFB263:
 178              		.loc 1 115 0
 179              		.cfi_startproc
 180              		@ args = 0, pretend = 0, frame = 0
 181              		@ frame_needed = 0, uses_anonymous_args = 0
 182              	.LVL8:
 183 0000 10B5     		push	{r4, lr}
 184              		.cfi_def_cfa_offset 8
 185              		.cfi_offset 4, -8
 186              		.cfi_offset 14, -4
 187              	.LBB123:
 188              	.LBB124:
 189              	.LBB125:
 190              	.LBB126:
 191              	.LBB127:
 192              		.loc 3 546 0
 193 0002 2023     		movs	r3, #32
 194              	.LBE127:
 195              	.LBE126:
 196              	.LBE125:
 197              	.LBE124:
 198              	.LBE123:
 199              		.loc 1 115 0
 200 0004 0446     		mov	r4, r0
 201              	.LBB132:
 202              	.LBB131:
 203              	.LBB130:
 204              	.LBB129:
 205              	.LBB128:
 206              		.loc 3 546 0
 207              		.syntax unified
 208              	@ 546 "../../os/ext/CMSIS/include/core_cmFunc.h" 1
 209 0006 83F31188 		MSR basepri, r3
 210              	@ 0 "" 2
 211              		.thumb
 212              		.syntax unified
 213              	.LBE128:
 214              	.LBE129:
 215              	.LBE130:
 216              	.LBE131:
 217              	.LBE132:
 218              		.loc 1 122 0
 219 000a FFF7FEFF 		bl	adc_lld_stop
 220              	.LVL9:
 221              		.loc 1 123 0
 222 000e 0123     		movs	r3, #1
 223 0010 2370     		strb	r3, [r4]
 224              	.LVL10:
ARM GAS  /tmp/cc24WkUd.s 			page 5


 225              	.LBB133:
 226              	.LBB134:
 227              	.LBB135:
 228              	.LBB136:
 229              	.LBB137:
 230              	.LBB138:
 231              		.loc 3 546 0
 232 0012 0023     		movs	r3, #0
 233              		.syntax unified
 234              	@ 546 "../../os/ext/CMSIS/include/core_cmFunc.h" 1
 235 0014 83F31188 		MSR basepri, r3
 236              	@ 0 "" 2
 237              		.thumb
 238              		.syntax unified
 239 0018 10BD     		pop	{r4, pc}
 240              	.LBE138:
 241              	.LBE137:
 242              	.LBE136:
 243              	.LBE135:
 244              	.LBE134:
 245              	.LBE133:
 246              		.cfi_endproc
 247              	.LFE263:
 248              		.size	adcStop, .-adcStop
 249 001a 00BFAFF3 		.section	.text.adcStartConversion,"ax",%progbits
 249      0080
 250              		.align	2
 251              		.p2align 4,,15
 252              		.global	adcStartConversion
 253              		.thumb
 254              		.thumb_func
 255              		.type	adcStartConversion, %function
 256              	adcStartConversion:
 257              	.LFB264:
 258              		.loc 1 146 0
 259              		.cfi_startproc
 260              		@ args = 0, pretend = 0, frame = 0
 261              		@ frame_needed = 0, uses_anonymous_args = 0
 262              	.LVL11:
 263 0000 38B5     		push	{r3, r4, r5, lr}
 264              		.cfi_def_cfa_offset 16
 265              		.cfi_offset 3, -16
 266              		.cfi_offset 4, -12
 267              		.cfi_offset 5, -8
 268              		.cfi_offset 14, -4
 269              	.LBB139:
 270              	.LBB140:
 271              	.LBB141:
 272              	.LBB142:
 273              	.LBB143:
 274              		.loc 3 546 0
 275 0002 2025     		movs	r5, #32
 276              		.syntax unified
 277              	@ 546 "../../os/ext/CMSIS/include/core_cmFunc.h" 1
 278 0004 85F31188 		MSR basepri, r5
 279              	@ 0 "" 2
 280              	.LVL12:
ARM GAS  /tmp/cc24WkUd.s 			page 6


 281              		.thumb
 282              		.syntax unified
 283              	.LBE143:
 284              	.LBE142:
 285              	.LBE141:
 286              	.LBE140:
 287              	.LBE139:
 288              	.LBB144:
 289              	.LBB145:
 290              		.loc 1 187 0
 291 0008 0325     		movs	r5, #3
 292              		.loc 1 185 0
 293 000a C360     		str	r3, [r0, #12]
 294              		.loc 1 184 0
 295 000c 8260     		str	r2, [r0, #8]
 296              		.loc 1 186 0
 297 000e 0161     		str	r1, [r0, #16]
 298              		.loc 1 187 0
 299 0010 0570     		strb	r5, [r0]
 300              		.loc 1 188 0
 301 0012 FFF7FEFF 		bl	adc_lld_start_conversion
 302              	.LVL13:
 303              	.LBE145:
 304              	.LBE144:
 305              	.LBB146:
 306              	.LBB147:
 307              	.LBB148:
 308              	.LBB149:
 309              	.LBB150:
 310              	.LBB151:
 311              		.loc 3 546 0
 312 0016 0023     		movs	r3, #0
 313              		.syntax unified
 314              	@ 546 "../../os/ext/CMSIS/include/core_cmFunc.h" 1
 315 0018 83F31188 		MSR basepri, r3
 316              	@ 0 "" 2
 317              		.thumb
 318              		.syntax unified
 319 001c 38BD     		pop	{r3, r4, r5, pc}
 320              	.LBE151:
 321              	.LBE150:
 322              	.LBE149:
 323              	.LBE148:
 324              	.LBE147:
 325              	.LBE146:
 326              		.cfi_endproc
 327              	.LFE264:
 328              		.size	adcStartConversion, .-adcStartConversion
 329 001e 00BF     		.section	.text.adcStartConversionI,"ax",%progbits
 330              		.align	2
 331              		.p2align 4,,15
 332              		.global	adcStartConversionI
 333              		.thumb
 334              		.thumb_func
 335              		.type	adcStartConversionI, %function
 336              	adcStartConversionI:
 337              	.LFB265:
ARM GAS  /tmp/cc24WkUd.s 			page 7


 338              		.loc 1 174 0
 339              		.cfi_startproc
 340              		@ args = 0, pretend = 0, frame = 0
 341              		@ frame_needed = 0, uses_anonymous_args = 0
 342              		@ link register save eliminated.
 343              	.LVL14:
 344 0000 30B4     		push	{r4, r5}
 345              		.cfi_def_cfa_offset 8
 346              		.cfi_offset 4, -8
 347              		.cfi_offset 5, -4
 348              		.loc 1 187 0
 349 0002 0325     		movs	r5, #3
 350 0004 0570     		strb	r5, [r0]
 351              		.loc 1 184 0
 352 0006 8260     		str	r2, [r0, #8]
 353              		.loc 1 185 0
 354 0008 C360     		str	r3, [r0, #12]
 355              		.loc 1 186 0
 356 000a 0161     		str	r1, [r0, #16]
 357              		.loc 1 189 0
 358 000c 30BC     		pop	{r4, r5}
 359              		.cfi_restore 5
 360              		.cfi_restore 4
 361              		.cfi_def_cfa_offset 0
 362              		.loc 1 188 0
 363 000e FFF7FEBF 		b	adc_lld_start_conversion
 364              	.LVL15:
 365              		.cfi_endproc
 366              	.LFE265:
 367              		.size	adcStartConversionI, .-adcStartConversionI
 368 0012 00BFAFF3 		.section	.text.adcStopConversion,"ax",%progbits
 368      0080AFF3 
 368      0080AFF3 
 368      0080
 369              		.align	2
 370              		.p2align 4,,15
 371              		.global	adcStopConversion
 372              		.thumb
 373              		.thumb_func
 374              		.type	adcStopConversion, %function
 375              	adcStopConversion:
 376              	.LFB266:
 377              		.loc 1 201 0
 378              		.cfi_startproc
 379              		@ args = 0, pretend = 0, frame = 0
 380              		@ frame_needed = 0, uses_anonymous_args = 0
 381              	.LVL16:
 382              	.LBB152:
 383              	.LBB153:
 384              	.LBB154:
 385              	.LBB155:
 386              	.LBB156:
 387              		.loc 3 546 0
 388 0000 2022     		movs	r2, #32
 389              		.syntax unified
 390              	@ 546 "../../os/ext/CMSIS/include/core_cmFunc.h" 1
 391 0002 82F31188 		MSR basepri, r2
ARM GAS  /tmp/cc24WkUd.s 			page 8


 392              	@ 0 "" 2
 393              		.thumb
 394              		.syntax unified
 395              	.LBE156:
 396              	.LBE155:
 397              	.LBE154:
 398              	.LBE153:
 399              	.LBE152:
 400              		.loc 1 208 0
 401 0006 0278     		ldrb	r2, [r0]	@ zero_extendqisi2
 402 0008 022A     		cmp	r2, #2
 403 000a 11D0     		beq	.L17
 404              		.loc 1 201 0
 405 000c 10B5     		push	{r4, lr}
 406              		.cfi_def_cfa_offset 8
 407              		.cfi_offset 4, -8
 408              		.cfi_offset 14, -4
 409 000e 0446     		mov	r4, r0
 410              		.loc 1 209 0
 411 0010 FFF7FEFF 		bl	adc_lld_stop_conversion
 412              	.LVL17:
 413              		.loc 1 211 0
 414 0014 2046     		mov	r0, r4
 415              		.loc 1 210 0
 416 0016 0022     		movs	r2, #0
 417              		.loc 1 211 0
 418 0018 0223     		movs	r3, #2
 419              		.loc 1 210 0
 420 001a 2261     		str	r2, [r4, #16]
 421              	.LBB157:
 422              	.LBB158:
 423              		.loc 2 697 0
 424 001c 6FF00101 		mvn	r1, #1
 425              	.LBE158:
 426              	.LBE157:
 427              		.loc 1 211 0
 428 0020 00F8143B 		strb	r3, [r0], #20
 429              	.LVL18:
 430              	.LBB160:
 431              	.LBB159:
 432              		.loc 2 697 0
 433 0024 FFF7FEFF 		bl	chThdResumeS
 434              	.LVL19:
 435              	.LBE159:
 436              	.LBE160:
 437              	.LBB161:
 438              	.LBB162:
 439              	.LBB163:
 440              	.LBB164:
 441              	.LBB165:
 442              	.LBB166:
 443              		.loc 3 546 0
 444 0028 0023     		movs	r3, #0
 445              		.syntax unified
 446              	@ 546 "../../os/ext/CMSIS/include/core_cmFunc.h" 1
 447 002a 83F31188 		MSR basepri, r3
 448              	@ 0 "" 2
ARM GAS  /tmp/cc24WkUd.s 			page 9


 449              		.thumb
 450              		.syntax unified
 451 002e 10BD     		pop	{r4, pc}
 452              	.LVL20:
 453              	.L17:
 454              		.cfi_def_cfa_offset 0
 455              		.cfi_restore 4
 456              		.cfi_restore 14
 457 0030 0023     		movs	r3, #0
 458              		.syntax unified
 459              	@ 546 "../../os/ext/CMSIS/include/core_cmFunc.h" 1
 460 0032 83F31188 		MSR basepri, r3
 461              	@ 0 "" 2
 462              		.thumb
 463              		.syntax unified
 464 0036 7047     		bx	lr
 465              	.LBE166:
 466              	.LBE165:
 467              	.LBE164:
 468              	.LBE163:
 469              	.LBE162:
 470              	.LBE161:
 471              		.cfi_endproc
 472              	.LFE266:
 473              		.size	adcStopConversion, .-adcStopConversion
 474 0038 AFF30080 		.section	.text.adcStopConversionI,"ax",%progbits
 474      AFF30080 
 475              		.align	2
 476              		.p2align 4,,15
 477              		.global	adcStopConversionI
 478              		.thumb
 479              		.thumb_func
 480              		.type	adcStopConversionI, %function
 481              	adcStopConversionI:
 482              	.LFB267:
 483              		.loc 1 227 0
 484              		.cfi_startproc
 485              		@ args = 0, pretend = 0, frame = 0
 486              		@ frame_needed = 0, uses_anonymous_args = 0
 487              	.LVL21:
 488              		.loc 1 236 0
 489 0000 0278     		ldrb	r2, [r0]	@ zero_extendqisi2
 490 0002 022A     		cmp	r2, #2
 491 0004 0FD0     		beq	.L22
 492              		.loc 1 227 0
 493 0006 10B5     		push	{r4, lr}
 494              		.cfi_def_cfa_offset 8
 495              		.cfi_offset 4, -8
 496              		.cfi_offset 14, -4
 497 0008 0446     		mov	r4, r0
 498              		.loc 1 237 0
 499 000a FFF7FEFF 		bl	adc_lld_stop_conversion
 500              	.LVL22:
 501              		.loc 1 239 0
 502 000e 2046     		mov	r0, r4
 503              		.loc 1 238 0
 504 0010 0022     		movs	r2, #0
ARM GAS  /tmp/cc24WkUd.s 			page 10


 505              		.loc 1 239 0
 506 0012 0223     		movs	r3, #2
 507              		.loc 1 238 0
 508 0014 2261     		str	r2, [r4, #16]
 509              	.LBB167:
 510              	.LBB168:
 511              		.loc 2 682 0
 512 0016 6FF00101 		mvn	r1, #1
 513              	.LBE168:
 514              	.LBE167:
 515              		.loc 1 239 0
 516 001a 00F8143B 		strb	r3, [r0], #20
 517              	.LVL23:
 518              		.loc 1 242 0
 519 001e BDE81040 		pop	{r4, lr}
 520              		.cfi_restore 14
 521              		.cfi_restore 4
 522              		.cfi_def_cfa_offset 0
 523              	.LVL24:
 524              	.LBB170:
 525              	.LBB169:
 526              		.loc 2 682 0
 527 0022 FFF7FEBF 		b	chThdResumeI
 528              	.LVL25:
 529              	.L22:
 530 0026 7047     		bx	lr
 531              	.LBE169:
 532              	.LBE170:
 533              		.cfi_endproc
 534              	.LFE267:
 535              		.size	adcStopConversionI, .-adcStopConversionI
 536 0028 AFF30080 		.section	.text.adcConvert,"ax",%progbits
 536      AFF30080 
 537              		.align	2
 538              		.p2align 4,,15
 539              		.global	adcConvert
 540              		.thumb
 541              		.thumb_func
 542              		.type	adcConvert, %function
 543              	adcConvert:
 544              	.LFB268:
 545              		.loc 1 271 0
 546              		.cfi_startproc
 547              		@ args = 0, pretend = 0, frame = 0
 548              		@ frame_needed = 0, uses_anonymous_args = 0
 549              	.LVL26:
 550 0000 70B5     		push	{r4, r5, r6, lr}
 551              		.cfi_def_cfa_offset 16
 552              		.cfi_offset 4, -16
 553              		.cfi_offset 5, -12
 554              		.cfi_offset 6, -8
 555              		.cfi_offset 14, -4
 556              	.LBB171:
 557              	.LBB172:
 558              	.LBB173:
 559              	.LBB174:
 560              	.LBB175:
ARM GAS  /tmp/cc24WkUd.s 			page 11


 561              		.loc 3 546 0
 562 0002 2025     		movs	r5, #32
 563              		.syntax unified
 564              	@ 546 "../../os/ext/CMSIS/include/core_cmFunc.h" 1
 565 0004 85F31188 		MSR basepri, r5
 566              	@ 0 "" 2
 567              	.LVL27:
 568              		.thumb
 569              		.syntax unified
 570              	.LBE175:
 571              	.LBE174:
 572              	.LBE173:
 573              	.LBE172:
 574              	.LBE171:
 575              	.LBB176:
 576              	.LBB177:
 577              		.loc 1 187 0
 578 0008 0546     		mov	r5, r0
 579 000a 0326     		movs	r6, #3
 580              		.loc 1 184 0
 581 000c 8260     		str	r2, [r0, #8]
 582              		.loc 1 185 0
 583 000e C360     		str	r3, [r0, #12]
 584              		.loc 1 186 0
 585 0010 0161     		str	r1, [r0, #16]
 586              		.loc 1 187 0
 587 0012 05F8146B 		strb	r6, [r5], #20
 588              		.loc 1 188 0
 589 0016 FFF7FEFF 		bl	adc_lld_start_conversion
 590              	.LVL28:
 591              	.LBE177:
 592              	.LBE176:
 593              	.LBB178:
 594              	.LBB179:
 595              		.loc 2 642 0
 596 001a 2846     		mov	r0, r5
 597 001c FFF7FEFF 		bl	chThdSuspendS
 598              	.LVL29:
 599              	.LBE179:
 600              	.LBE178:
 601              	.LBB180:
 602              	.LBB181:
 603              	.LBB182:
 604              	.LBB183:
 605              	.LBB184:
 606              	.LBB185:
 607              		.loc 3 546 0
 608 0020 0023     		movs	r3, #0
 609              		.syntax unified
 610              	@ 546 "../../os/ext/CMSIS/include/core_cmFunc.h" 1
 611 0022 83F31188 		MSR basepri, r3
 612              	@ 0 "" 2
 613              		.thumb
 614              		.syntax unified
 615              	.LBE185:
 616              	.LBE184:
 617              	.LBE183:
ARM GAS  /tmp/cc24WkUd.s 			page 12


 618              	.LBE182:
 619              	.LBE181:
 620              	.LBE180:
 621              		.loc 1 280 0
 622 0026 70BD     		pop	{r4, r5, r6, pc}
 623              		.cfi_endproc
 624              	.LFE268:
 625              		.size	adcConvert, .-adcConvert
 626 0028 AFF30080 		.section	.text.adcAcquireBus,"ax",%progbits
 626      AFF30080 
 627              		.align	2
 628              		.p2align 4,,15
 629              		.global	adcAcquireBus
 630              		.thumb
 631              		.thumb_func
 632              		.type	adcAcquireBus, %function
 633              	adcAcquireBus:
 634              	.LFB269:
 635              		.loc 1 295 0
 636              		.cfi_startproc
 637              		@ args = 0, pretend = 0, frame = 0
 638              		@ frame_needed = 0, uses_anonymous_args = 0
 639              		@ link register save eliminated.
 640              	.LVL30:
 641              	.LBB186:
 642              	.LBB187:
 643              		.loc 2 861 0
 644 0000 1830     		adds	r0, r0, #24
 645              	.LVL31:
 646 0002 FFF7FEBF 		b	chMtxLock
 647              	.LVL32:
 648              	.LBE187:
 649              	.LBE186:
 650              		.cfi_endproc
 651              	.LFE269:
 652              		.size	adcAcquireBus, .-adcAcquireBus
 653 0006 00BFAFF3 		.section	.text.adcReleaseBus,"ax",%progbits
 653      0080AFF3 
 653      0080
 654              		.align	2
 655              		.p2align 4,,15
 656              		.global	adcReleaseBus
 657              		.thumb
 658              		.thumb_func
 659              		.type	adcReleaseBus, %function
 660              	adcReleaseBus:
 661              	.LFB270:
 662              		.loc 1 311 0
 663              		.cfi_startproc
 664              		@ args = 0, pretend = 0, frame = 0
 665              		@ frame_needed = 0, uses_anonymous_args = 0
 666              		@ link register save eliminated.
 667              	.LVL33:
 668              	.LBB188:
 669              	.LBB189:
 670              		.loc 2 885 0
 671 0000 1830     		adds	r0, r0, #24
ARM GAS  /tmp/cc24WkUd.s 			page 13


 672              	.LVL34:
 673 0002 FFF7FEBF 		b	chMtxUnlock
 674              	.LVL35:
 675              	.LBE189:
 676              	.LBE188:
 677              		.cfi_endproc
 678              	.LFE270:
 679              		.size	adcReleaseBus, .-adcReleaseBus
 680 0006 00BFAFF3 		.text
 680      0080AFF3 
 680      0080
 681              	.Letext0:
 682              		.file 4 "/usr/lib/gcc/arm-none-eabi/5.2.0/include/stddef.h"
 683              		.file 5 "/usr/arm-none-eabi/include/machine/_default_types.h"
 684              		.file 6 "/usr/arm-none-eabi/include/stdint.h"
 685              		.file 7 "../../os/rt/ports/ARMCMx/compilers/GCC/chtypes.h"
 686              		.file 8 "../../os/rt/include/chsystypes.h"
 687              		.file 9 "../../os/rt/include/chschd.h"
 688              		.file 10 "../../os/ext/CMSIS/ST/stm32f401xc.h"
 689              		.file 11 "../../os/rt/ports/ARMCMx/chcore.h"
 690              		.file 12 "../../os/rt/ports/ARMCMx/chcore_v7m.h"
 691              		.file 13 "../../os/rt/include/chtm.h"
 692              		.file 14 "../../os/rt/include/chsem.h"
 693              		.file 15 "../../os/rt/include/chmtx.h"
 694              		.file 16 "../../os/hal/ports/STM32/STM32F4xx/stm32_dma.h"
 695              		.file 17 "../../os/hal/include/adc.h"
 696              		.file 18 "../../os/hal/ports/STM32/STM32F4xx/adc_lld.h"
 697              		.file 19 "../../os/rt/include/chsys.h"
 698              		.file 20 "../../os/rt/include/chthreads.h"
 699              		.file 21 "../../os/ext/CMSIS/include/core_cm4.h"
 700              		.section	.debug_info,"",%progbits
 701              	.Ldebug_info0:
 702 0000 A3150000 		.4byte	0x15a3
 703 0004 0400     		.2byte	0x4
 704 0006 00000000 		.4byte	.Ldebug_abbrev0
 705 000a 04       		.byte	0x4
 706 000b 01       		.uleb128 0x1
 707 000c 8D010000 		.4byte	.LASF204
 708 0010 0C       		.byte	0xc
 709 0011 46060000 		.4byte	.LASF205
 710 0015 02040000 		.4byte	.LASF206
 711 0019 60000000 		.4byte	.Ldebug_ranges0+0x60
 712 001d 00000000 		.4byte	0
 713 0021 00000000 		.4byte	.Ldebug_line0
 714 0025 02       		.uleb128 0x2
 715 0026 04       		.byte	0x4
 716 0027 05       		.byte	0x5
 717 0028 696E7400 		.ascii	"int\000"
 718 002c 03       		.uleb128 0x3
 719 002d 18000000 		.4byte	.LASF4
 720 0031 04       		.byte	0x4
 721 0032 D8       		.byte	0xd8
 722 0033 37000000 		.4byte	0x37
 723 0037 04       		.uleb128 0x4
 724 0038 04       		.byte	0x4
 725 0039 07       		.byte	0x7
 726 003a 0E060000 		.4byte	.LASF0
ARM GAS  /tmp/cc24WkUd.s 			page 14


 727 003e 04       		.uleb128 0x4
 728 003f 08       		.byte	0x8
 729 0040 05       		.byte	0x5
 730 0041 74050000 		.4byte	.LASF1
 731 0045 04       		.uleb128 0x4
 732 0046 08       		.byte	0x8
 733 0047 04       		.byte	0x4
 734 0048 9B060000 		.4byte	.LASF2
 735 004c 04       		.uleb128 0x4
 736 004d 01       		.byte	0x1
 737 004e 06       		.byte	0x6
 738 004f C3020000 		.4byte	.LASF3
 739 0053 03       		.uleb128 0x3
 740 0054 5D010000 		.4byte	.LASF5
 741 0058 05       		.byte	0x5
 742 0059 1D       		.byte	0x1d
 743 005a 5E000000 		.4byte	0x5e
 744 005e 04       		.uleb128 0x4
 745 005f 01       		.byte	0x1
 746 0060 08       		.byte	0x8
 747 0061 F8020000 		.4byte	.LASF6
 748 0065 04       		.uleb128 0x4
 749 0066 02       		.byte	0x2
 750 0067 05       		.byte	0x5
 751 0068 21080000 		.4byte	.LASF7
 752 006c 03       		.uleb128 0x3
 753 006d 67030000 		.4byte	.LASF8
 754 0071 05       		.byte	0x5
 755 0072 2B       		.byte	0x2b
 756 0073 77000000 		.4byte	0x77
 757 0077 04       		.uleb128 0x4
 758 0078 02       		.byte	0x2
 759 0079 07       		.byte	0x7
 760 007a 10090000 		.4byte	.LASF9
 761 007e 03       		.uleb128 0x3
 762 007f 56090000 		.4byte	.LASF10
 763 0083 05       		.byte	0x5
 764 0084 3F       		.byte	0x3f
 765 0085 89000000 		.4byte	0x89
 766 0089 04       		.uleb128 0x4
 767 008a 04       		.byte	0x4
 768 008b 05       		.byte	0x5
 769 008c 7D010000 		.4byte	.LASF11
 770 0090 03       		.uleb128 0x3
 771 0091 69050000 		.4byte	.LASF12
 772 0095 05       		.byte	0x5
 773 0096 41       		.byte	0x41
 774 0097 9B000000 		.4byte	0x9b
 775 009b 04       		.uleb128 0x4
 776 009c 04       		.byte	0x4
 777 009d 07       		.byte	0x7
 778 009e 78040000 		.4byte	.LASF13
 779 00a2 03       		.uleb128 0x3
 780 00a3 61040000 		.4byte	.LASF14
 781 00a7 05       		.byte	0x5
 782 00a8 5B       		.byte	0x5b
 783 00a9 AD000000 		.4byte	0xad
ARM GAS  /tmp/cc24WkUd.s 			page 15


 784 00ad 04       		.uleb128 0x4
 785 00ae 08       		.byte	0x8
 786 00af 07       		.byte	0x7
 787 00b0 14070000 		.4byte	.LASF15
 788 00b4 03       		.uleb128 0x3
 789 00b5 D6020000 		.4byte	.LASF16
 790 00b9 06       		.byte	0x6
 791 00ba 15       		.byte	0x15
 792 00bb 53000000 		.4byte	0x53
 793 00bf 03       		.uleb128 0x3
 794 00c0 33070000 		.4byte	.LASF17
 795 00c4 06       		.byte	0x6
 796 00c5 21       		.byte	0x21
 797 00c6 6C000000 		.4byte	0x6c
 798 00ca 03       		.uleb128 0x3
 799 00cb 8D000000 		.4byte	.LASF18
 800 00cf 06       		.byte	0x6
 801 00d0 2C       		.byte	0x2c
 802 00d1 7E000000 		.4byte	0x7e
 803 00d5 03       		.uleb128 0x3
 804 00d6 F4080000 		.4byte	.LASF19
 805 00da 06       		.byte	0x6
 806 00db 2D       		.byte	0x2d
 807 00dc 90000000 		.4byte	0x90
 808 00e0 03       		.uleb128 0x3
 809 00e1 2B080000 		.4byte	.LASF20
 810 00e5 06       		.byte	0x6
 811 00e6 39       		.byte	0x39
 812 00e7 A2000000 		.4byte	0xa2
 813 00eb 05       		.uleb128 0x5
 814 00ec CA000000 		.4byte	0xca
 815 00f0 05       		.uleb128 0x5
 816 00f1 D5000000 		.4byte	0xd5
 817 00f5 03       		.uleb128 0x3
 818 00f6 1B060000 		.4byte	.LASF21
 819 00fa 07       		.byte	0x7
 820 00fb 45       		.byte	0x45
 821 00fc D5000000 		.4byte	0xd5
 822 0100 03       		.uleb128 0x3
 823 0101 C6070000 		.4byte	.LASF22
 824 0105 07       		.byte	0x7
 825 0106 48       		.byte	0x48
 826 0107 B4000000 		.4byte	0xb4
 827 010b 03       		.uleb128 0x3
 828 010c 7E020000 		.4byte	.LASF23
 829 0110 07       		.byte	0x7
 830 0111 49       		.byte	0x49
 831 0112 B4000000 		.4byte	0xb4
 832 0116 03       		.uleb128 0x3
 833 0117 C8080000 		.4byte	.LASF24
 834 011b 07       		.byte	0x7
 835 011c 4A       		.byte	0x4a
 836 011d B4000000 		.4byte	0xb4
 837 0121 03       		.uleb128 0x3
 838 0122 57000000 		.4byte	.LASF25
 839 0126 07       		.byte	0x7
 840 0127 4C       		.byte	0x4c
ARM GAS  /tmp/cc24WkUd.s 			page 16


 841 0128 D5000000 		.4byte	0xd5
 842 012c 03       		.uleb128 0x3
 843 012d 3C070000 		.4byte	.LASF26
 844 0131 07       		.byte	0x7
 845 0132 4D       		.byte	0x4d
 846 0133 CA000000 		.4byte	0xca
 847 0137 03       		.uleb128 0x3
 848 0138 DE020000 		.4byte	.LASF27
 849 013c 07       		.byte	0x7
 850 013d 4F       		.byte	0x4f
 851 013e D5000000 		.4byte	0xd5
 852 0142 03       		.uleb128 0x3
 853 0143 E0030000 		.4byte	.LASF28
 854 0147 07       		.byte	0x7
 855 0148 51       		.byte	0x51
 856 0149 CA000000 		.4byte	0xca
 857 014d 03       		.uleb128 0x3
 858 014e 47000000 		.4byte	.LASF29
 859 0152 08       		.byte	0x8
 860 0153 33       		.byte	0x33
 861 0154 D5000000 		.4byte	0xd5
 862 0158 03       		.uleb128 0x3
 863 0159 92060000 		.4byte	.LASF30
 864 015d 08       		.byte	0x8
 865 015e 3F       		.byte	0x3f
 866 015f 63010000 		.4byte	0x163
 867 0163 06       		.uleb128 0x6
 868 0164 A8040000 		.4byte	.LASF50
 869 0168 44       		.byte	0x44
 870 0169 09       		.byte	0x9
 871 016a C2       		.byte	0xc2
 872 016b 50020000 		.4byte	0x250
 873 016f 07       		.uleb128 0x7
 874 0170 86010000 		.4byte	.LASF31
 875 0174 09       		.byte	0x9
 876 0175 C3       		.byte	0xc3
 877 0176 5B020000 		.4byte	0x25b
 878 017a 00       		.byte	0
 879 017b 07       		.uleb128 0x7
 880 017c 77020000 		.4byte	.LASF32
 881 0180 09       		.byte	0x9
 882 0181 C5       		.byte	0xc5
 883 0182 5B020000 		.4byte	0x25b
 884 0186 04       		.byte	0x4
 885 0187 07       		.uleb128 0x7
 886 0188 60030000 		.4byte	.LASF33
 887 018c 09       		.byte	0x9
 888 018d C7       		.byte	0xc7
 889 018e 21010000 		.4byte	0x121
 890 0192 08       		.byte	0x8
 891 0193 07       		.uleb128 0x7
 892 0194 51000000 		.4byte	.LASF34
 893 0198 09       		.byte	0x9
 894 0199 C8       		.byte	0xc8
 895 019a E8050000 		.4byte	0x5e8
 896 019e 0C       		.byte	0xc
 897 019f 07       		.uleb128 0x7
ARM GAS  /tmp/cc24WkUd.s 			page 17


 898 01a0 75010000 		.4byte	.LASF35
 899 01a4 09       		.byte	0x9
 900 01a5 CA       		.byte	0xca
 901 01a6 5B020000 		.4byte	0x25b
 902 01aa 10       		.byte	0x10
 903 01ab 07       		.uleb128 0x7
 904 01ac 2B070000 		.4byte	.LASF36
 905 01b0 09       		.byte	0x9
 906 01b1 CB       		.byte	0xcb
 907 01b2 5B020000 		.4byte	0x25b
 908 01b6 14       		.byte	0x14
 909 01b7 07       		.uleb128 0x7
 910 01b8 7A090000 		.4byte	.LASF37
 911 01bc 09       		.byte	0x9
 912 01bd D2       		.byte	0xd2
 913 01be 2D080000 		.4byte	0x82d
 914 01c2 18       		.byte	0x18
 915 01c3 07       		.uleb128 0x7
 916 01c4 98090000 		.4byte	.LASF38
 917 01c8 09       		.byte	0x9
 918 01c9 DD       		.byte	0xdd
 919 01ca 0B010000 		.4byte	0x10b
 920 01ce 1C       		.byte	0x1c
 921 01cf 07       		.uleb128 0x7
 922 01d0 F7050000 		.4byte	.LASF39
 923 01d4 09       		.byte	0x9
 924 01d5 E1       		.byte	0xe1
 925 01d6 00010000 		.4byte	0x100
 926 01da 1D       		.byte	0x1d
 927 01db 07       		.uleb128 0x7
 928 01dc 2B060000 		.4byte	.LASF40
 929 01e0 09       		.byte	0x9
 930 01e1 E6       		.byte	0xe6
 931 01e2 16010000 		.4byte	0x116
 932 01e6 1E       		.byte	0x1e
 933 01e7 08       		.uleb128 0x8
 934 01e8 705F7500 		.ascii	"p_u\000"
 935 01ec 09       		.byte	0x9
 936 01ed 3101     		.2byte	0x131
 937 01ef 68070000 		.4byte	0x768
 938 01f3 20       		.byte	0x20
 939 01f4 09       		.uleb128 0x9
 940 01f5 DF050000 		.4byte	.LASF41
 941 01f9 09       		.byte	0x9
 942 01fa 3601     		.2byte	0x136
 943 01fc 61020000 		.4byte	0x261
 944 0200 24       		.byte	0x24
 945 0201 09       		.uleb128 0x9
 946 0202 7C000000 		.4byte	.LASF42
 947 0206 09       		.byte	0x9
 948 0207 3C01     		.2byte	0x13c
 949 0209 85020000 		.4byte	0x285
 950 020d 28       		.byte	0x28
 951 020e 09       		.uleb128 0x9
 952 020f 88090000 		.4byte	.LASF43
 953 0213 09       		.byte	0x9
 954 0214 4001     		.2byte	0x140
ARM GAS  /tmp/cc24WkUd.s 			page 18


 955 0216 2C010000 		.4byte	0x12c
 956 021a 30       		.byte	0x30
 957 021b 09       		.uleb128 0x9
 958 021c 41040000 		.4byte	.LASF44
 959 0220 09       		.byte	0x9
 960 0221 4601     		.2byte	0x146
 961 0223 37010000 		.4byte	0x137
 962 0227 34       		.byte	0x34
 963 0228 09       		.uleb128 0x9
 964 0229 97020000 		.4byte	.LASF45
 965 022d 09       		.byte	0x9
 966 022e 4D01     		.2byte	0x14d
 967 0230 27080000 		.4byte	0x827
 968 0234 38       		.byte	0x38
 969 0235 09       		.uleb128 0x9
 970 0236 BA060000 		.4byte	.LASF46
 971 023a 09       		.byte	0x9
 972 023b 5101     		.2byte	0x151
 973 023d 21010000 		.4byte	0x121
 974 0241 3C       		.byte	0x3c
 975 0242 09       		.uleb128 0x9
 976 0243 23060000 		.4byte	.LASF47
 977 0247 09       		.byte	0x9
 978 0248 5801     		.2byte	0x158
 979 024a 38030000 		.4byte	0x338
 980 024e 40       		.byte	0x40
 981 024f 00       		.byte	0
 982 0250 03       		.uleb128 0x3
 983 0251 A7060000 		.4byte	.LASF48
 984 0255 08       		.byte	0x8
 985 0256 44       		.byte	0x44
 986 0257 5B020000 		.4byte	0x25b
 987 025b 0A       		.uleb128 0xa
 988 025c 04       		.byte	0x4
 989 025d 58010000 		.4byte	0x158
 990 0261 03       		.uleb128 0x3
 991 0262 DB080000 		.4byte	.LASF49
 992 0266 08       		.byte	0x8
 993 0267 49       		.byte	0x49
 994 0268 6C020000 		.4byte	0x26c
 995 026c 06       		.uleb128 0x6
 996 026d 11050000 		.4byte	.LASF51
 997 0271 04       		.byte	0x4
 998 0272 09       		.byte	0x9
 999 0273 B0       		.byte	0xb0
 1000 0274 85020000 		.4byte	0x285
 1001 0278 07       		.uleb128 0x7
 1002 0279 86010000 		.4byte	.LASF31
 1003 027d 09       		.byte	0x9
 1004 027e B1       		.byte	0xb1
 1005 027f 5B020000 		.4byte	0x25b
 1006 0283 00       		.byte	0
 1007 0284 00       		.byte	0
 1008 0285 03       		.uleb128 0x3
 1009 0286 87020000 		.4byte	.LASF52
 1010 028a 08       		.byte	0x8
 1011 028b 50       		.byte	0x50
ARM GAS  /tmp/cc24WkUd.s 			page 19


 1012 028c 90020000 		.4byte	0x290
 1013 0290 06       		.uleb128 0x6
 1014 0291 42070000 		.4byte	.LASF53
 1015 0295 08       		.byte	0x8
 1016 0296 09       		.byte	0x9
 1017 0297 B7       		.byte	0xb7
 1018 0298 B5020000 		.4byte	0x2b5
 1019 029c 07       		.uleb128 0x7
 1020 029d 86010000 		.4byte	.LASF31
 1021 02a1 09       		.byte	0x9
 1022 02a2 B8       		.byte	0xb8
 1023 02a3 5B020000 		.4byte	0x25b
 1024 02a7 00       		.byte	0
 1025 02a8 07       		.uleb128 0x7
 1026 02a9 77020000 		.4byte	.LASF32
 1027 02ad 09       		.byte	0x9
 1028 02ae B9       		.byte	0xb9
 1029 02af 5B020000 		.4byte	0x25b
 1030 02b3 04       		.byte	0x4
 1031 02b4 00       		.byte	0
 1032 02b5 03       		.uleb128 0x3
 1033 02b6 E4040000 		.4byte	.LASF54
 1034 02ba 08       		.byte	0x8
 1035 02bb 57       		.byte	0x57
 1036 02bc C0020000 		.4byte	0x2c0
 1037 02c0 0B       		.uleb128 0xb
 1038 02c1 53040000 		.4byte	.LASF55
 1039 02c5 1C       		.byte	0x1c
 1040 02c6 09       		.byte	0x9
 1041 02c7 9001     		.2byte	0x190
 1042 02c9 1C030000 		.4byte	0x31c
 1043 02cd 09       		.uleb128 0x9
 1044 02ce B8070000 		.4byte	.LASF56
 1045 02d2 09       		.byte	0x9
 1046 02d3 9101     		.2byte	0x191
 1047 02d5 85020000 		.4byte	0x285
 1048 02d9 00       		.byte	0
 1049 02da 09       		.uleb128 0x9
 1050 02db 55080000 		.4byte	.LASF57
 1051 02df 09       		.byte	0x9
 1052 02e0 9201     		.2byte	0x192
 1053 02e2 21010000 		.4byte	0x121
 1054 02e6 08       		.byte	0x8
 1055 02e7 09       		.uleb128 0x9
 1056 02e8 87000000 		.4byte	.LASF58
 1057 02ec 09       		.byte	0x9
 1058 02ed 9401     		.2byte	0x194
 1059 02ef E8050000 		.4byte	0x5e8
 1060 02f3 0C       		.byte	0xc
 1061 02f4 09       		.uleb128 0x9
 1062 02f5 1B030000 		.4byte	.LASF59
 1063 02f9 09       		.byte	0x9
 1064 02fa 9701     		.2byte	0x197
 1065 02fc 5B020000 		.4byte	0x25b
 1066 0300 10       		.byte	0x10
 1067 0301 09       		.uleb128 0x9
 1068 0302 E2070000 		.4byte	.LASF60
ARM GAS  /tmp/cc24WkUd.s 			page 20


 1069 0306 09       		.byte	0x9
 1070 0307 9801     		.2byte	0x198
 1071 0309 5B020000 		.4byte	0x25b
 1072 030d 14       		.byte	0x14
 1073 030e 09       		.uleb128 0x9
 1074 030f 53070000 		.4byte	.LASF61
 1075 0313 09       		.byte	0x9
 1076 0314 9B01     		.2byte	0x19b
 1077 0316 5B020000 		.4byte	0x25b
 1078 031a 18       		.byte	0x18
 1079 031b 00       		.byte	0
 1080 031c 03       		.uleb128 0x3
 1081 031d AD000000 		.4byte	.LASF62
 1082 0321 08       		.byte	0x8
 1083 0322 5C       		.byte	0x5c
 1084 0323 27030000 		.4byte	0x327
 1085 0327 0A       		.uleb128 0xa
 1086 0328 04       		.byte	0x4
 1087 0329 2D030000 		.4byte	0x32d
 1088 032d 0C       		.uleb128 0xc
 1089 032e 38030000 		.4byte	0x338
 1090 0332 0D       		.uleb128 0xd
 1091 0333 38030000 		.4byte	0x338
 1092 0337 00       		.byte	0
 1093 0338 0E       		.uleb128 0xe
 1094 0339 04       		.byte	0x4
 1095 033a 03       		.uleb128 0x3
 1096 033b D4040000 		.4byte	.LASF63
 1097 033f 08       		.byte	0x8
 1098 0340 61       		.byte	0x61
 1099 0341 45030000 		.4byte	0x345
 1100 0345 0B       		.uleb128 0xb
 1101 0346 E5060000 		.4byte	.LASF64
 1102 034a 14       		.byte	0x14
 1103 034b 09       		.byte	0x9
 1104 034c 6B01     		.2byte	0x16b
 1105 034e 94030000 		.4byte	0x394
 1106 0352 09       		.uleb128 0x9
 1107 0353 8A050000 		.4byte	.LASF65
 1108 0357 09       		.byte	0x9
 1109 0358 6C01     		.2byte	0x16c
 1110 035a 3F080000 		.4byte	0x83f
 1111 035e 00       		.byte	0
 1112 035f 09       		.uleb128 0x9
 1113 0360 92050000 		.4byte	.LASF66
 1114 0364 09       		.byte	0x9
 1115 0365 6D01     		.2byte	0x16d
 1116 0367 3F080000 		.4byte	0x83f
 1117 036b 04       		.byte	0x4
 1118 036c 09       		.uleb128 0x9
 1119 036d DC060000 		.4byte	.LASF67
 1120 0371 09       		.byte	0x9
 1121 0372 6E01     		.2byte	0x16e
 1122 0374 4D010000 		.4byte	0x14d
 1123 0378 08       		.byte	0x8
 1124 0379 09       		.uleb128 0x9
 1125 037a E6030000 		.4byte	.LASF68
ARM GAS  /tmp/cc24WkUd.s 			page 21


 1126 037e 09       		.byte	0x9
 1127 037f 6F01     		.2byte	0x16f
 1128 0381 1C030000 		.4byte	0x31c
 1129 0385 0C       		.byte	0xc
 1130 0386 09       		.uleb128 0x9
 1131 0387 34010000 		.4byte	.LASF69
 1132 038b 09       		.byte	0x9
 1133 038c 7101     		.2byte	0x171
 1134 038e 38030000 		.4byte	0x338
 1135 0392 10       		.byte	0x10
 1136 0393 00       		.byte	0
 1137 0394 03       		.uleb128 0x3
 1138 0395 B2040000 		.4byte	.LASF70
 1139 0399 08       		.byte	0x8
 1140 039a 66       		.byte	0x66
 1141 039b 9F030000 		.4byte	0x39f
 1142 039f 0B       		.uleb128 0xb
 1143 03a0 C3000000 		.4byte	.LASF71
 1144 03a4 10       		.byte	0x10
 1145 03a5 09       		.byte	0x9
 1146 03a6 7B01     		.2byte	0x17b
 1147 03a8 E1030000 		.4byte	0x3e1
 1148 03ac 09       		.uleb128 0x9
 1149 03ad 8A050000 		.4byte	.LASF65
 1150 03b1 09       		.byte	0x9
 1151 03b2 7C01     		.2byte	0x17c
 1152 03b4 3F080000 		.4byte	0x83f
 1153 03b8 00       		.byte	0
 1154 03b9 09       		.uleb128 0x9
 1155 03ba 92050000 		.4byte	.LASF66
 1156 03be 09       		.byte	0x9
 1157 03bf 7E01     		.2byte	0x17e
 1158 03c1 3F080000 		.4byte	0x83f
 1159 03c5 04       		.byte	0x4
 1160 03c6 09       		.uleb128 0x9
 1161 03c7 DC060000 		.4byte	.LASF67
 1162 03cb 09       		.byte	0x9
 1163 03cc 8001     		.2byte	0x180
 1164 03ce 4D010000 		.4byte	0x14d
 1165 03d2 08       		.byte	0x8
 1166 03d3 09       		.uleb128 0x9
 1167 03d4 04090000 		.4byte	.LASF72
 1168 03d8 09       		.byte	0x9
 1169 03d9 8801     		.2byte	0x188
 1170 03db 4D010000 		.4byte	0x14d
 1171 03df 0C       		.byte	0xc
 1172 03e0 00       		.byte	0
 1173 03e1 03       		.uleb128 0x3
 1174 03e2 23030000 		.4byte	.LASF73
 1175 03e6 08       		.byte	0x8
 1176 03e7 6B       		.byte	0x6b
 1177 03e8 EC030000 		.4byte	0x3ec
 1178 03ec 0B       		.uleb128 0xb
 1179 03ed 5C080000 		.4byte	.LASF74
 1180 03f1 04       		.byte	0x4
 1181 03f2 09       		.byte	0x9
 1182 03f3 A201     		.2byte	0x1a2
ARM GAS  /tmp/cc24WkUd.s 			page 22


 1183 03f5 07040000 		.4byte	0x407
 1184 03f9 09       		.uleb128 0x9
 1185 03fa 06030000 		.4byte	.LASF75
 1186 03fe 09       		.byte	0x9
 1187 03ff AA01     		.2byte	0x1aa
 1188 0401 45080000 		.4byte	0x845
 1189 0405 00       		.byte	0
 1190 0406 00       		.byte	0
 1191 0407 03       		.uleb128 0x3
 1192 0408 2E090000 		.4byte	.LASF76
 1193 040c 08       		.byte	0x8
 1194 040d 70       		.byte	0x70
 1195 040e 12040000 		.4byte	0x412
 1196 0412 0F       		.uleb128 0xf
 1197 0413 EA080000 		.4byte	.LASF77
 1198 0417 D801     		.2byte	0x1d8
 1199 0419 09       		.byte	0x9
 1200 041a C201     		.2byte	0x1c2
 1201 041c 6E040000 		.4byte	0x46e
 1202 0420 09       		.uleb128 0x9
 1203 0421 C0070000 		.4byte	.LASF78
 1204 0425 09       		.byte	0x9
 1205 0426 C601     		.2byte	0x1c6
 1206 0428 B5020000 		.4byte	0x2b5
 1207 042c 00       		.byte	0
 1208 042d 09       		.uleb128 0x9
 1209 042e A7080000 		.4byte	.LASF79
 1210 0432 09       		.byte	0x9
 1211 0433 CA01     		.2byte	0x1ca
 1212 0435 94030000 		.4byte	0x394
 1213 0439 1C       		.byte	0x1c
 1214 043a 08       		.uleb128 0x8
 1215 043b 64626700 		.ascii	"dbg\000"
 1216 043f 09       		.byte	0x9
 1217 0440 CE01     		.2byte	0x1ce
 1218 0442 E1030000 		.4byte	0x3e1
 1219 0446 2C       		.byte	0x2c
 1220 0447 09       		.uleb128 0x9
 1221 0448 9F070000 		.4byte	.LASF80
 1222 044c 09       		.byte	0x9
 1223 044d D201     		.2byte	0x1d2
 1224 044f 58010000 		.4byte	0x158
 1225 0453 30       		.byte	0x30
 1226 0454 08       		.uleb128 0x8
 1227 0455 746D00   		.ascii	"tm\000"
 1228 0458 09       		.byte	0x9
 1229 0459 D701     		.2byte	0x1d7
 1230 045b 5D070000 		.4byte	0x75d
 1231 045f 74       		.byte	0x74
 1232 0460 09       		.uleb128 0x9
 1233 0461 FF050000 		.4byte	.LASF81
 1234 0465 09       		.byte	0x9
 1235 0466 E301     		.2byte	0x1e3
 1236 0468 4A080000 		.4byte	0x84a
 1237 046c 78       		.byte	0x78
 1238 046d 00       		.byte	0
 1239 046e 04       		.uleb128 0x4
ARM GAS  /tmp/cc24WkUd.s 			page 23


 1240 046f 04       		.byte	0x4
 1241 0470 07       		.byte	0x7
 1242 0471 29000000 		.4byte	.LASF82
 1243 0475 10       		.uleb128 0x10
 1244 0476 50       		.byte	0x50
 1245 0477 0A       		.byte	0xa
 1246 0478 AB       		.byte	0xab
 1247 0479 6C050000 		.4byte	0x56c
 1248 047d 11       		.uleb128 0x11
 1249 047e 535200   		.ascii	"SR\000"
 1250 0481 0A       		.byte	0xa
 1251 0482 AD       		.byte	0xad
 1252 0483 F0000000 		.4byte	0xf0
 1253 0487 00       		.byte	0
 1254 0488 11       		.uleb128 0x11
 1255 0489 43523100 		.ascii	"CR1\000"
 1256 048d 0A       		.byte	0xa
 1257 048e AE       		.byte	0xae
 1258 048f F0000000 		.4byte	0xf0
 1259 0493 04       		.byte	0x4
 1260 0494 11       		.uleb128 0x11
 1261 0495 43523200 		.ascii	"CR2\000"
 1262 0499 0A       		.byte	0xa
 1263 049a AF       		.byte	0xaf
 1264 049b F0000000 		.4byte	0xf0
 1265 049f 08       		.byte	0x8
 1266 04a0 07       		.uleb128 0x7
 1267 04a1 C8040000 		.4byte	.LASF83
 1268 04a5 0A       		.byte	0xa
 1269 04a6 B0       		.byte	0xb0
 1270 04a7 F0000000 		.4byte	0xf0
 1271 04ab 0C       		.byte	0xc
 1272 04ac 07       		.uleb128 0x7
 1273 04ad CE040000 		.4byte	.LASF84
 1274 04b1 0A       		.byte	0xa
 1275 04b2 B1       		.byte	0xb1
 1276 04b3 F0000000 		.4byte	0xf0
 1277 04b7 10       		.byte	0x10
 1278 04b8 07       		.uleb128 0x7
 1279 04b9 3D080000 		.4byte	.LASF85
 1280 04bd 0A       		.byte	0xa
 1281 04be B2       		.byte	0xb2
 1282 04bf F0000000 		.4byte	0xf0
 1283 04c3 14       		.byte	0x14
 1284 04c4 07       		.uleb128 0x7
 1285 04c5 43080000 		.4byte	.LASF86
 1286 04c9 0A       		.byte	0xa
 1287 04ca B3       		.byte	0xb3
 1288 04cb F0000000 		.4byte	0xf0
 1289 04cf 18       		.byte	0x18
 1290 04d0 07       		.uleb128 0x7
 1291 04d1 49080000 		.4byte	.LASF87
 1292 04d5 0A       		.byte	0xa
 1293 04d6 B4       		.byte	0xb4
 1294 04d7 F0000000 		.4byte	0xf0
 1295 04db 1C       		.byte	0x1c
 1296 04dc 07       		.uleb128 0x7
ARM GAS  /tmp/cc24WkUd.s 			page 24


 1297 04dd 4F080000 		.4byte	.LASF88
 1298 04e1 0A       		.byte	0xa
 1299 04e2 B5       		.byte	0xb5
 1300 04e3 F0000000 		.4byte	0xf0
 1301 04e7 20       		.byte	0x20
 1302 04e8 11       		.uleb128 0x11
 1303 04e9 48545200 		.ascii	"HTR\000"
 1304 04ed 0A       		.byte	0xa
 1305 04ee B6       		.byte	0xb6
 1306 04ef F0000000 		.4byte	0xf0
 1307 04f3 24       		.byte	0x24
 1308 04f4 11       		.uleb128 0x11
 1309 04f5 4C545200 		.ascii	"LTR\000"
 1310 04f9 0A       		.byte	0xa
 1311 04fa B7       		.byte	0xb7
 1312 04fb F0000000 		.4byte	0xf0
 1313 04ff 28       		.byte	0x28
 1314 0500 07       		.uleb128 0x7
 1315 0501 6D000000 		.4byte	.LASF89
 1316 0505 0A       		.byte	0xa
 1317 0506 B8       		.byte	0xb8
 1318 0507 F0000000 		.4byte	0xf0
 1319 050b 2C       		.byte	0x2c
 1320 050c 07       		.uleb128 0x7
 1321 050d 72000000 		.4byte	.LASF90
 1322 0511 0A       		.byte	0xa
 1323 0512 B9       		.byte	0xb9
 1324 0513 F0000000 		.4byte	0xf0
 1325 0517 30       		.byte	0x30
 1326 0518 07       		.uleb128 0x7
 1327 0519 77000000 		.4byte	.LASF91
 1328 051d 0A       		.byte	0xa
 1329 051e BA       		.byte	0xba
 1330 051f F0000000 		.4byte	0xf0
 1331 0523 34       		.byte	0x34
 1332 0524 07       		.uleb128 0x7
 1333 0525 A2080000 		.4byte	.LASF92
 1334 0529 0A       		.byte	0xa
 1335 052a BB       		.byte	0xbb
 1336 052b F0000000 		.4byte	0xf0
 1337 052f 38       		.byte	0x38
 1338 0530 07       		.uleb128 0x7
 1339 0531 7A080000 		.4byte	.LASF93
 1340 0535 0A       		.byte	0xa
 1341 0536 BC       		.byte	0xbc
 1342 0537 F0000000 		.4byte	0xf0
 1343 053b 3C       		.byte	0x3c
 1344 053c 07       		.uleb128 0x7
 1345 053d 7F080000 		.4byte	.LASF94
 1346 0541 0A       		.byte	0xa
 1347 0542 BD       		.byte	0xbd
 1348 0543 F0000000 		.4byte	0xf0
 1349 0547 40       		.byte	0x40
 1350 0548 07       		.uleb128 0x7
 1351 0549 84080000 		.4byte	.LASF95
 1352 054d 0A       		.byte	0xa
 1353 054e BE       		.byte	0xbe
ARM GAS  /tmp/cc24WkUd.s 			page 25


 1354 054f F0000000 		.4byte	0xf0
 1355 0553 44       		.byte	0x44
 1356 0554 07       		.uleb128 0x7
 1357 0555 89080000 		.4byte	.LASF96
 1358 0559 0A       		.byte	0xa
 1359 055a BF       		.byte	0xbf
 1360 055b F0000000 		.4byte	0xf0
 1361 055f 48       		.byte	0x48
 1362 0560 11       		.uleb128 0x11
 1363 0561 445200   		.ascii	"DR\000"
 1364 0564 0A       		.byte	0xa
 1365 0565 C0       		.byte	0xc0
 1366 0566 F0000000 		.4byte	0xf0
 1367 056a 4C       		.byte	0x4c
 1368 056b 00       		.byte	0
 1369 056c 03       		.uleb128 0x3
 1370 056d F6030000 		.4byte	.LASF97
 1371 0571 0A       		.byte	0xa
 1372 0572 C1       		.byte	0xc1
 1373 0573 75040000 		.4byte	0x475
 1374 0577 10       		.uleb128 0x10
 1375 0578 18       		.byte	0x18
 1376 0579 0A       		.byte	0xa
 1377 057a E9       		.byte	0xe9
 1378 057b C7050000 		.4byte	0x5c7
 1379 057f 11       		.uleb128 0x11
 1380 0580 435200   		.ascii	"CR\000"
 1381 0583 0A       		.byte	0xa
 1382 0584 EB       		.byte	0xeb
 1383 0585 F0000000 		.4byte	0xf0
 1384 0589 00       		.byte	0
 1385 058a 07       		.uleb128 0x7
 1386 058b 60090000 		.4byte	.LASF98
 1387 058f 0A       		.byte	0xa
 1388 0590 EC       		.byte	0xec
 1389 0591 F0000000 		.4byte	0xf0
 1390 0595 04       		.byte	0x4
 1391 0596 11       		.uleb128 0x11
 1392 0597 50415200 		.ascii	"PAR\000"
 1393 059b 0A       		.byte	0xa
 1394 059c ED       		.byte	0xed
 1395 059d F0000000 		.4byte	0xf0
 1396 05a1 08       		.byte	0x8
 1397 05a2 07       		.uleb128 0x7
 1398 05a3 02080000 		.4byte	.LASF99
 1399 05a7 0A       		.byte	0xa
 1400 05a8 EE       		.byte	0xee
 1401 05a9 F0000000 		.4byte	0xf0
 1402 05ad 0C       		.byte	0xc
 1403 05ae 07       		.uleb128 0x7
 1404 05af 00000000 		.4byte	.LASF100
 1405 05b3 0A       		.byte	0xa
 1406 05b4 EF       		.byte	0xef
 1407 05b5 F0000000 		.4byte	0xf0
 1408 05b9 10       		.byte	0x10
 1409 05ba 11       		.uleb128 0x11
 1410 05bb 46435200 		.ascii	"FCR\000"
ARM GAS  /tmp/cc24WkUd.s 			page 26


 1411 05bf 0A       		.byte	0xa
 1412 05c0 F0       		.byte	0xf0
 1413 05c1 F0000000 		.4byte	0xf0
 1414 05c5 14       		.byte	0x14
 1415 05c6 00       		.byte	0
 1416 05c7 03       		.uleb128 0x3
 1417 05c8 75060000 		.4byte	.LASF101
 1418 05cc 0A       		.byte	0xa
 1419 05cd F1       		.byte	0xf1
 1420 05ce 77050000 		.4byte	0x577
 1421 05d2 03       		.uleb128 0x3
 1422 05d3 A1020000 		.4byte	.LASF102
 1423 05d7 0B       		.byte	0xb
 1424 05d8 65       		.byte	0x65
 1425 05d9 38030000 		.4byte	0x338
 1426 05dd 03       		.uleb128 0x3
 1427 05de 83030000 		.4byte	.LASF103
 1428 05e2 0B       		.byte	0xb
 1429 05e3 6D       		.byte	0x6d
 1430 05e4 E0000000 		.4byte	0xe0
 1431 05e8 06       		.uleb128 0x6
 1432 05e9 EA020000 		.4byte	.LASF104
 1433 05ed 04       		.byte	0x4
 1434 05ee 0B       		.byte	0xb
 1435 05ef 89       		.byte	0x89
 1436 05f0 01060000 		.4byte	0x601
 1437 05f4 11       		.uleb128 0x11
 1438 05f5 72313300 		.ascii	"r13\000"
 1439 05f9 0B       		.byte	0xb
 1440 05fa 8A       		.byte	0x8a
 1441 05fb 42070000 		.4byte	0x742
 1442 05ff 00       		.byte	0
 1443 0600 00       		.byte	0
 1444 0601 06       		.uleb128 0x6
 1445 0602 C5060000 		.4byte	.LASF105
 1446 0606 64       		.byte	0x64
 1447 0607 0C       		.byte	0xc
 1448 0608 F4       		.byte	0xf4
 1449 0609 42070000 		.4byte	0x742
 1450 060d 11       		.uleb128 0x11
 1451 060e 73313600 		.ascii	"s16\000"
 1452 0612 0C       		.byte	0xc
 1453 0613 F6       		.byte	0xf6
 1454 0614 D2050000 		.4byte	0x5d2
 1455 0618 00       		.byte	0
 1456 0619 11       		.uleb128 0x11
 1457 061a 73313700 		.ascii	"s17\000"
 1458 061e 0C       		.byte	0xc
 1459 061f F7       		.byte	0xf7
 1460 0620 D2050000 		.4byte	0x5d2
 1461 0624 04       		.byte	0x4
 1462 0625 11       		.uleb128 0x11
 1463 0626 73313800 		.ascii	"s18\000"
 1464 062a 0C       		.byte	0xc
 1465 062b F8       		.byte	0xf8
 1466 062c D2050000 		.4byte	0x5d2
 1467 0630 08       		.byte	0x8
ARM GAS  /tmp/cc24WkUd.s 			page 27


 1468 0631 11       		.uleb128 0x11
 1469 0632 73313900 		.ascii	"s19\000"
 1470 0636 0C       		.byte	0xc
 1471 0637 F9       		.byte	0xf9
 1472 0638 D2050000 		.4byte	0x5d2
 1473 063c 0C       		.byte	0xc
 1474 063d 11       		.uleb128 0x11
 1475 063e 73323000 		.ascii	"s20\000"
 1476 0642 0C       		.byte	0xc
 1477 0643 FA       		.byte	0xfa
 1478 0644 D2050000 		.4byte	0x5d2
 1479 0648 10       		.byte	0x10
 1480 0649 11       		.uleb128 0x11
 1481 064a 73323100 		.ascii	"s21\000"
 1482 064e 0C       		.byte	0xc
 1483 064f FB       		.byte	0xfb
 1484 0650 D2050000 		.4byte	0x5d2
 1485 0654 14       		.byte	0x14
 1486 0655 11       		.uleb128 0x11
 1487 0656 73323200 		.ascii	"s22\000"
 1488 065a 0C       		.byte	0xc
 1489 065b FC       		.byte	0xfc
 1490 065c D2050000 		.4byte	0x5d2
 1491 0660 18       		.byte	0x18
 1492 0661 11       		.uleb128 0x11
 1493 0662 73323300 		.ascii	"s23\000"
 1494 0666 0C       		.byte	0xc
 1495 0667 FD       		.byte	0xfd
 1496 0668 D2050000 		.4byte	0x5d2
 1497 066c 1C       		.byte	0x1c
 1498 066d 11       		.uleb128 0x11
 1499 066e 73323400 		.ascii	"s24\000"
 1500 0672 0C       		.byte	0xc
 1501 0673 FE       		.byte	0xfe
 1502 0674 D2050000 		.4byte	0x5d2
 1503 0678 20       		.byte	0x20
 1504 0679 11       		.uleb128 0x11
 1505 067a 73323500 		.ascii	"s25\000"
 1506 067e 0C       		.byte	0xc
 1507 067f FF       		.byte	0xff
 1508 0680 D2050000 		.4byte	0x5d2
 1509 0684 24       		.byte	0x24
 1510 0685 08       		.uleb128 0x8
 1511 0686 73323600 		.ascii	"s26\000"
 1512 068a 0C       		.byte	0xc
 1513 068b 0001     		.2byte	0x100
 1514 068d D2050000 		.4byte	0x5d2
 1515 0691 28       		.byte	0x28
 1516 0692 08       		.uleb128 0x8
 1517 0693 73323700 		.ascii	"s27\000"
 1518 0697 0C       		.byte	0xc
 1519 0698 0101     		.2byte	0x101
 1520 069a D2050000 		.4byte	0x5d2
 1521 069e 2C       		.byte	0x2c
 1522 069f 08       		.uleb128 0x8
 1523 06a0 73323800 		.ascii	"s28\000"
 1524 06a4 0C       		.byte	0xc
ARM GAS  /tmp/cc24WkUd.s 			page 28


 1525 06a5 0201     		.2byte	0x102
 1526 06a7 D2050000 		.4byte	0x5d2
 1527 06ab 30       		.byte	0x30
 1528 06ac 08       		.uleb128 0x8
 1529 06ad 73323900 		.ascii	"s29\000"
 1530 06b1 0C       		.byte	0xc
 1531 06b2 0301     		.2byte	0x103
 1532 06b4 D2050000 		.4byte	0x5d2
 1533 06b8 34       		.byte	0x34
 1534 06b9 08       		.uleb128 0x8
 1535 06ba 73333000 		.ascii	"s30\000"
 1536 06be 0C       		.byte	0xc
 1537 06bf 0401     		.2byte	0x104
 1538 06c1 D2050000 		.4byte	0x5d2
 1539 06c5 38       		.byte	0x38
 1540 06c6 08       		.uleb128 0x8
 1541 06c7 73333100 		.ascii	"s31\000"
 1542 06cb 0C       		.byte	0xc
 1543 06cc 0501     		.2byte	0x105
 1544 06ce D2050000 		.4byte	0x5d2
 1545 06d2 3C       		.byte	0x3c
 1546 06d3 08       		.uleb128 0x8
 1547 06d4 723400   		.ascii	"r4\000"
 1548 06d7 0C       		.byte	0xc
 1549 06d8 0701     		.2byte	0x107
 1550 06da D2050000 		.4byte	0x5d2
 1551 06de 40       		.byte	0x40
 1552 06df 08       		.uleb128 0x8
 1553 06e0 723500   		.ascii	"r5\000"
 1554 06e3 0C       		.byte	0xc
 1555 06e4 0801     		.2byte	0x108
 1556 06e6 D2050000 		.4byte	0x5d2
 1557 06ea 44       		.byte	0x44
 1558 06eb 08       		.uleb128 0x8
 1559 06ec 723600   		.ascii	"r6\000"
 1560 06ef 0C       		.byte	0xc
 1561 06f0 0901     		.2byte	0x109
 1562 06f2 D2050000 		.4byte	0x5d2
 1563 06f6 48       		.byte	0x48
 1564 06f7 08       		.uleb128 0x8
 1565 06f8 723700   		.ascii	"r7\000"
 1566 06fb 0C       		.byte	0xc
 1567 06fc 0A01     		.2byte	0x10a
 1568 06fe D2050000 		.4byte	0x5d2
 1569 0702 4C       		.byte	0x4c
 1570 0703 08       		.uleb128 0x8
 1571 0704 723800   		.ascii	"r8\000"
 1572 0707 0C       		.byte	0xc
 1573 0708 0B01     		.2byte	0x10b
 1574 070a D2050000 		.4byte	0x5d2
 1575 070e 50       		.byte	0x50
 1576 070f 08       		.uleb128 0x8
 1577 0710 723900   		.ascii	"r9\000"
 1578 0713 0C       		.byte	0xc
 1579 0714 0C01     		.2byte	0x10c
 1580 0716 D2050000 		.4byte	0x5d2
 1581 071a 54       		.byte	0x54
ARM GAS  /tmp/cc24WkUd.s 			page 29


 1582 071b 08       		.uleb128 0x8
 1583 071c 72313000 		.ascii	"r10\000"
 1584 0720 0C       		.byte	0xc
 1585 0721 0D01     		.2byte	0x10d
 1586 0723 D2050000 		.4byte	0x5d2
 1587 0727 58       		.byte	0x58
 1588 0728 08       		.uleb128 0x8
 1589 0729 72313100 		.ascii	"r11\000"
 1590 072d 0C       		.byte	0xc
 1591 072e 0E01     		.2byte	0x10e
 1592 0730 D2050000 		.4byte	0x5d2
 1593 0734 5C       		.byte	0x5c
 1594 0735 08       		.uleb128 0x8
 1595 0736 6C7200   		.ascii	"lr\000"
 1596 0739 0C       		.byte	0xc
 1597 073a 0F01     		.2byte	0x10f
 1598 073c D2050000 		.4byte	0x5d2
 1599 0740 60       		.byte	0x60
 1600 0741 00       		.byte	0
 1601 0742 0A       		.uleb128 0xa
 1602 0743 04       		.byte	0x4
 1603 0744 01060000 		.4byte	0x601
 1604 0748 10       		.uleb128 0x10
 1605 0749 04       		.byte	0x4
 1606 074a 0D       		.byte	0xd
 1607 074b 38       		.byte	0x38
 1608 074c 5D070000 		.4byte	0x75d
 1609 0750 07       		.uleb128 0x7
 1610 0751 3F060000 		.4byte	.LASF106
 1611 0755 0D       		.byte	0xd
 1612 0756 3C       		.byte	0x3c
 1613 0757 F5000000 		.4byte	0xf5
 1614 075b 00       		.byte	0
 1615 075c 00       		.byte	0
 1616 075d 03       		.uleb128 0x3
 1617 075e EA070000 		.4byte	.LASF107
 1618 0762 0D       		.byte	0xd
 1619 0763 3D       		.byte	0x3d
 1620 0764 48070000 		.4byte	0x748
 1621 0768 12       		.uleb128 0x12
 1622 0769 04       		.byte	0x4
 1623 076a 09       		.byte	0x9
 1624 076b FA       		.byte	0xfa
 1625 076c C5070000 		.4byte	0x7c5
 1626 0770 13       		.uleb128 0x13
 1627 0771 FD080000 		.4byte	.LASF108
 1628 0775 09       		.byte	0x9
 1629 0776 0101     		.2byte	0x101
 1630 0778 2C010000 		.4byte	0x12c
 1631 077c 13       		.uleb128 0x13
 1632 077d 42010000 		.4byte	.LASF109
 1633 0781 09       		.byte	0x9
 1634 0782 0801     		.2byte	0x108
 1635 0784 2C010000 		.4byte	0x12c
 1636 0788 13       		.uleb128 0x13
 1637 0789 72030000 		.4byte	.LASF110
 1638 078d 09       		.byte	0x9
ARM GAS  /tmp/cc24WkUd.s 			page 30


 1639 078e 0F01     		.2byte	0x10f
 1640 0790 38030000 		.4byte	0x338
 1641 0794 13       		.uleb128 0x13
 1642 0795 F2020000 		.4byte	.LASF111
 1643 0799 09       		.byte	0x9
 1644 079a 1601     		.2byte	0x116
 1645 079c C5070000 		.4byte	0x7c5
 1646 07a0 13       		.uleb128 0x13
 1647 07a1 40000000 		.4byte	.LASF112
 1648 07a5 09       		.byte	0x9
 1649 07a6 1E01     		.2byte	0x11e
 1650 07a8 F0070000 		.4byte	0x7f0
 1651 07ac 13       		.uleb128 0x13
 1652 07ad 4C040000 		.4byte	.LASF113
 1653 07b1 09       		.byte	0x9
 1654 07b2 2701     		.2byte	0x127
 1655 07b4 27080000 		.4byte	0x827
 1656 07b8 13       		.uleb128 0x13
 1657 07b9 CF020000 		.4byte	.LASF114
 1658 07bd 09       		.byte	0x9
 1659 07be 2F01     		.2byte	0x12f
 1660 07c0 37010000 		.4byte	0x137
 1661 07c4 00       		.byte	0
 1662 07c5 0A       		.uleb128 0xa
 1663 07c6 04       		.byte	0x4
 1664 07c7 50020000 		.4byte	0x250
 1665 07cb 06       		.uleb128 0x6
 1666 07cc 9B040000 		.4byte	.LASF115
 1667 07d0 0C       		.byte	0xc
 1668 07d1 0E       		.byte	0xe
 1669 07d2 34       		.byte	0x34
 1670 07d3 F0070000 		.4byte	0x7f0
 1671 07d7 07       		.uleb128 0x7
 1672 07d8 11080000 		.4byte	.LASF116
 1673 07dc 0E       		.byte	0xe
 1674 07dd 35       		.byte	0x35
 1675 07de 85020000 		.4byte	0x285
 1676 07e2 00       		.byte	0
 1677 07e3 07       		.uleb128 0x7
 1678 07e4 F6060000 		.4byte	.LASF117
 1679 07e8 0E       		.byte	0xe
 1680 07e9 37       		.byte	0x37
 1681 07ea 42010000 		.4byte	0x142
 1682 07ee 08       		.byte	0x8
 1683 07ef 00       		.byte	0
 1684 07f0 0A       		.uleb128 0xa
 1685 07f1 04       		.byte	0x4
 1686 07f2 CB070000 		.4byte	0x7cb
 1687 07f6 06       		.uleb128 0x6
 1688 07f7 34080000 		.4byte	.LASF118
 1689 07fb 10       		.byte	0x10
 1690 07fc 0F       		.byte	0xf
 1691 07fd 39       		.byte	0x39
 1692 07fe 27080000 		.4byte	0x827
 1693 0802 07       		.uleb128 0x7
 1694 0803 82050000 		.4byte	.LASF119
 1695 0807 0F       		.byte	0xf
ARM GAS  /tmp/cc24WkUd.s 			page 31


 1696 0808 3A       		.byte	0x3a
 1697 0809 85020000 		.4byte	0x285
 1698 080d 00       		.byte	0
 1699 080e 07       		.uleb128 0x7
 1700 080f 2C010000 		.4byte	.LASF120
 1701 0813 0F       		.byte	0xf
 1702 0814 3C       		.byte	0x3c
 1703 0815 5B020000 		.4byte	0x25b
 1704 0819 08       		.byte	0x8
 1705 081a 07       		.uleb128 0x7
 1706 081b 81090000 		.4byte	.LASF121
 1707 081f 0F       		.byte	0xf
 1708 0820 3E       		.byte	0x3e
 1709 0821 65080000 		.4byte	0x865
 1710 0825 0C       		.byte	0xc
 1711 0826 00       		.byte	0
 1712 0827 0A       		.uleb128 0xa
 1713 0828 04       		.byte	0x4
 1714 0829 F6070000 		.4byte	0x7f6
 1715 082d 0A       		.uleb128 0xa
 1716 082e 04       		.byte	0x4
 1717 082f 3A080000 		.4byte	0x83a
 1718 0833 04       		.uleb128 0x4
 1719 0834 01       		.byte	0x1
 1720 0835 08       		.byte	0x8
 1721 0836 54030000 		.4byte	.LASF122
 1722 083a 14       		.uleb128 0x14
 1723 083b 33080000 		.4byte	0x833
 1724 083f 0A       		.uleb128 0xa
 1725 0840 04       		.byte	0x4
 1726 0841 3A030000 		.4byte	0x33a
 1727 0845 05       		.uleb128 0x5
 1728 0846 2D080000 		.4byte	0x82d
 1729 084a 15       		.uleb128 0x15
 1730 084b DD050000 		.4byte	0x5dd
 1731 084f 5A080000 		.4byte	0x85a
 1732 0853 16       		.uleb128 0x16
 1733 0854 6E040000 		.4byte	0x46e
 1734 0858 2B       		.byte	0x2b
 1735 0859 00       		.byte	0
 1736 085a 03       		.uleb128 0x3
 1737 085b C0080000 		.4byte	.LASF123
 1738 085f 0F       		.byte	0xf
 1739 0860 34       		.byte	0x34
 1740 0861 F6070000 		.4byte	0x7f6
 1741 0865 0A       		.uleb128 0xa
 1742 0866 04       		.byte	0x4
 1743 0867 5A080000 		.4byte	0x85a
 1744 086b 10       		.uleb128 0x10
 1745 086c 0C       		.byte	0xc
 1746 086d 10       		.byte	0x10
 1747 086e DA       		.byte	0xda
 1748 086f B0080000 		.4byte	0x8b0
 1749 0873 07       		.uleb128 0x7
 1750 0874 D1030000 		.4byte	.LASF124
 1751 0878 10       		.byte	0x10
 1752 0879 DB       		.byte	0xdb
ARM GAS  /tmp/cc24WkUd.s 			page 32


 1753 087a B0080000 		.4byte	0x8b0
 1754 087e 00       		.byte	0
 1755 087f 07       		.uleb128 0x7
 1756 0880 65090000 		.4byte	.LASF125
 1757 0884 10       		.byte	0x10
 1758 0885 DC       		.byte	0xdc
 1759 0886 B6080000 		.4byte	0x8b6
 1760 088a 04       		.byte	0x4
 1761 088b 07       		.uleb128 0x7
 1762 088c 59030000 		.4byte	.LASF126
 1763 0890 10       		.byte	0x10
 1764 0891 DD       		.byte	0xdd
 1765 0892 B4000000 		.4byte	0xb4
 1766 0896 08       		.byte	0x8
 1767 0897 07       		.uleb128 0x7
 1768 0898 FC060000 		.4byte	.LASF127
 1769 089c 10       		.byte	0x10
 1770 089d DF       		.byte	0xdf
 1771 089e B4000000 		.4byte	0xb4
 1772 08a2 09       		.byte	0x9
 1773 08a3 07       		.uleb128 0x7
 1774 08a4 74070000 		.4byte	.LASF128
 1775 08a8 10       		.byte	0x10
 1776 08a9 E0       		.byte	0xe0
 1777 08aa B4000000 		.4byte	0xb4
 1778 08ae 0A       		.byte	0xa
 1779 08af 00       		.byte	0
 1780 08b0 0A       		.uleb128 0xa
 1781 08b1 04       		.byte	0x4
 1782 08b2 C7050000 		.4byte	0x5c7
 1783 08b6 0A       		.uleb128 0xa
 1784 08b7 04       		.byte	0x4
 1785 08b8 F0000000 		.4byte	0xf0
 1786 08bc 03       		.uleb128 0x3
 1787 08bd 05000000 		.4byte	.LASF129
 1788 08c1 10       		.byte	0x10
 1789 08c2 E1       		.byte	0xe1
 1790 08c3 6B080000 		.4byte	0x86b
 1791 08c7 04       		.uleb128 0x4
 1792 08c8 01       		.byte	0x1
 1793 08c9 02       		.byte	0x2
 1794 08ca 3C030000 		.4byte	.LASF130
 1795 08ce 17       		.uleb128 0x17
 1796 08cf 01       		.byte	0x1
 1797 08d0 5E000000 		.4byte	0x5e
 1798 08d4 11       		.byte	0x11
 1799 08d5 46       		.byte	0x46
 1800 08d6 FF080000 		.4byte	0x8ff
 1801 08da 18       		.uleb128 0x18
 1802 08db 23090000 		.4byte	.LASF131
 1803 08df 00       		.byte	0
 1804 08e0 18       		.uleb128 0x18
 1805 08e1 D4070000 		.4byte	.LASF132
 1806 08e5 01       		.byte	0x1
 1807 08e6 18       		.uleb128 0x18
 1808 08e7 32030000 		.4byte	.LASF133
 1809 08eb 02       		.byte	0x2
ARM GAS  /tmp/cc24WkUd.s 			page 33


 1810 08ec 18       		.uleb128 0x18
 1811 08ed D1060000 		.4byte	.LASF134
 1812 08f1 03       		.byte	0x3
 1813 08f2 18       		.uleb128 0x18
 1814 08f3 04050000 		.4byte	.LASF135
 1815 08f7 04       		.byte	0x4
 1816 08f8 18       		.uleb128 0x18
 1817 08f9 79030000 		.4byte	.LASF136
 1818 08fd 05       		.byte	0x5
 1819 08fe 00       		.byte	0
 1820 08ff 03       		.uleb128 0x3
 1821 0900 95000000 		.4byte	.LASF137
 1822 0904 11       		.byte	0x11
 1823 0905 4D       		.byte	0x4d
 1824 0906 CE080000 		.4byte	0x8ce
 1825 090a 19       		.uleb128 0x19
 1826 090b 48030000 		.4byte	.LASF138
 1827 090f 12       		.byte	0x12
 1828 0910 2701     		.2byte	0x127
 1829 0912 BF000000 		.4byte	0xbf
 1830 0916 19       		.uleb128 0x19
 1831 0917 46050000 		.4byte	.LASF139
 1832 091b 12       		.byte	0x12
 1833 091c 2C01     		.2byte	0x12c
 1834 091e BF000000 		.4byte	0xbf
 1835 0922 1A       		.uleb128 0x1a
 1836 0923 01       		.byte	0x1
 1837 0924 5E000000 		.4byte	0x5e
 1838 0928 12       		.byte	0x12
 1839 0929 3301     		.2byte	0x133
 1840 092b 3C090000 		.4byte	0x93c
 1841 092f 18       		.uleb128 0x18
 1842 0930 BE030000 		.4byte	.LASF140
 1843 0934 00       		.byte	0
 1844 0935 18       		.uleb128 0x18
 1845 0936 8E070000 		.4byte	.LASF141
 1846 093a 01       		.byte	0x1
 1847 093b 00       		.byte	0
 1848 093c 19       		.uleb128 0x19
 1849 093d 10030000 		.4byte	.LASF142
 1850 0941 12       		.byte	0x12
 1851 0942 3601     		.2byte	0x136
 1852 0944 22090000 		.4byte	0x922
 1853 0948 19       		.uleb128 0x19
 1854 0949 5D070000 		.4byte	.LASF143
 1855 094d 12       		.byte	0x12
 1856 094e 3B01     		.2byte	0x13b
 1857 0950 54090000 		.4byte	0x954
 1858 0954 0B       		.uleb128 0xb
 1859 0955 5D070000 		.4byte	.LASF143
 1860 0959 34       		.byte	0x34
 1861 095a 12       		.byte	0x12
 1862 095b 9F01     		.2byte	0x19f
 1863 095d E4090000 		.4byte	0x9e4
 1864 0961 09       		.uleb128 0x9
 1865 0962 FD000000 		.4byte	.LASF144
 1866 0966 12       		.byte	0x12
ARM GAS  /tmp/cc24WkUd.s 			page 34


 1867 0967 A301     		.2byte	0x1a3
 1868 0969 FF080000 		.4byte	0x8ff
 1869 096d 00       		.byte	0
 1870 096e 09       		.uleb128 0x9
 1871 096f F6000000 		.4byte	.LASF145
 1872 0973 12       		.byte	0x12
 1873 0974 A701     		.2byte	0x1a7
 1874 0976 010B0000 		.4byte	0xb01
 1875 097a 04       		.byte	0x4
 1876 097b 09       		.uleb128 0x9
 1877 097c D8030000 		.4byte	.LASF146
 1878 0980 12       		.byte	0x12
 1879 0981 AB01     		.2byte	0x1ab
 1880 0983 110A0000 		.4byte	0xa11
 1881 0987 08       		.byte	0x8
 1882 0988 09       		.uleb128 0x9
 1883 0989 B2050000 		.4byte	.LASF147
 1884 098d 12       		.byte	0x12
 1885 098e AF01     		.2byte	0x1af
 1886 0990 2C000000 		.4byte	0x2c
 1887 0994 0C       		.byte	0xc
 1888 0995 09       		.uleb128 0x9
 1889 0996 DD070000 		.4byte	.LASF148
 1890 099a 12       		.byte	0x12
 1891 099b B301     		.2byte	0x1b3
 1892 099d 0C0B0000 		.4byte	0xb0c
 1893 09a1 10       		.byte	0x10
 1894 09a2 09       		.uleb128 0x9
 1895 09a3 FB070000 		.4byte	.LASF149
 1896 09a7 12       		.byte	0x12
 1897 09a8 B801     		.2byte	0x1b8
 1898 09aa 50020000 		.4byte	0x250
 1899 09ae 14       		.byte	0x14
 1900 09af 09       		.uleb128 0x9
 1901 09b0 B8050000 		.4byte	.LASF150
 1902 09b4 12       		.byte	0x12
 1903 09b5 BE01     		.2byte	0x1be
 1904 09b7 5A080000 		.4byte	0x85a
 1905 09bb 18       		.byte	0x18
 1906 09bc 08       		.uleb128 0x8
 1907 09bd 61646300 		.ascii	"adc\000"
 1908 09c1 12       		.byte	0x12
 1909 09c2 C701     		.2byte	0x1c7
 1910 09c4 170B0000 		.4byte	0xb17
 1911 09c8 28       		.byte	0x28
 1912 09c9 09       		.uleb128 0x9
 1913 09ca 94040000 		.4byte	.LASF151
 1914 09ce 12       		.byte	0x12
 1915 09cf CB01     		.2byte	0x1cb
 1916 09d1 1D0B0000 		.4byte	0xb1d
 1917 09d5 2C       		.byte	0x2c
 1918 09d6 09       		.uleb128 0x9
 1919 09d7 D7050000 		.4byte	.LASF152
 1920 09db 12       		.byte	0x12
 1921 09dc CF01     		.2byte	0x1cf
 1922 09de D5000000 		.4byte	0xd5
 1923 09e2 30       		.byte	0x30
ARM GAS  /tmp/cc24WkUd.s 			page 35


 1924 09e3 00       		.byte	0
 1925 09e4 19       		.uleb128 0x19
 1926 09e5 5F000000 		.4byte	.LASF153
 1927 09e9 12       		.byte	0x12
 1928 09ea 4501     		.2byte	0x145
 1929 09ec F0090000 		.4byte	0x9f0
 1930 09f0 0A       		.uleb128 0xa
 1931 09f1 04       		.byte	0x4
 1932 09f2 F6090000 		.4byte	0x9f6
 1933 09f6 0C       		.uleb128 0xc
 1934 09f7 0B0A0000 		.4byte	0xa0b
 1935 09fb 0D       		.uleb128 0xd
 1936 09fc 0B0A0000 		.4byte	0xa0b
 1937 0a00 0D       		.uleb128 0xd
 1938 0a01 110A0000 		.4byte	0xa11
 1939 0a05 0D       		.uleb128 0xd
 1940 0a06 2C000000 		.4byte	0x2c
 1941 0a0a 00       		.byte	0
 1942 0a0b 0A       		.uleb128 0xa
 1943 0a0c 04       		.byte	0x4
 1944 0a0d 48090000 		.4byte	0x948
 1945 0a11 0A       		.uleb128 0xa
 1946 0a12 04       		.byte	0x4
 1947 0a13 0A090000 		.4byte	0x90a
 1948 0a17 19       		.uleb128 0x19
 1949 0a18 9F050000 		.4byte	.LASF154
 1950 0a1c 12       		.byte	0x12
 1951 0a1d 4E01     		.2byte	0x14e
 1952 0a1f 230A0000 		.4byte	0xa23
 1953 0a23 0A       		.uleb128 0xa
 1954 0a24 04       		.byte	0x4
 1955 0a25 290A0000 		.4byte	0xa29
 1956 0a29 0C       		.uleb128 0xc
 1957 0a2a 390A0000 		.4byte	0xa39
 1958 0a2e 0D       		.uleb128 0xd
 1959 0a2f 0B0A0000 		.4byte	0xa0b
 1960 0a33 0D       		.uleb128 0xd
 1961 0a34 3C090000 		.4byte	0x93c
 1962 0a38 00       		.byte	0
 1963 0a39 1B       		.uleb128 0x1b
 1964 0a3a 28       		.byte	0x28
 1965 0a3b 12       		.byte	0x12
 1966 0a3c 5801     		.2byte	0x158
 1967 0a3e D20A0000 		.4byte	0xad2
 1968 0a42 09       		.uleb128 0x9
 1969 0a43 A1030000 		.4byte	.LASF155
 1970 0a47 12       		.byte	0x12
 1971 0a48 5C01     		.2byte	0x15c
 1972 0a4a C7080000 		.4byte	0x8c7
 1973 0a4e 00       		.byte	0
 1974 0a4f 09       		.uleb128 0x9
 1975 0a50 32060000 		.4byte	.LASF156
 1976 0a54 12       		.byte	0x12
 1977 0a55 6001     		.2byte	0x160
 1978 0a57 16090000 		.4byte	0x916
 1979 0a5b 02       		.byte	0x2
 1980 0a5c 09       		.uleb128 0x9
ARM GAS  /tmp/cc24WkUd.s 			page 36


 1981 0a5d 3B010000 		.4byte	.LASF157
 1982 0a61 12       		.byte	0x12
 1983 0a62 6401     		.2byte	0x164
 1984 0a64 E4090000 		.4byte	0x9e4
 1985 0a68 04       		.byte	0x4
 1986 0a69 09       		.uleb128 0x9
 1987 0a6a 03010000 		.4byte	.LASF158
 1988 0a6e 12       		.byte	0x12
 1989 0a6f 6801     		.2byte	0x168
 1990 0a71 170A0000 		.4byte	0xa17
 1991 0a75 08       		.byte	0x8
 1992 0a76 08       		.uleb128 0x8
 1993 0a77 63723100 		.ascii	"cr1\000"
 1994 0a7b 12       		.byte	0x12
 1995 0a7c 6F01     		.2byte	0x16f
 1996 0a7e D5000000 		.4byte	0xd5
 1997 0a82 0C       		.byte	0xc
 1998 0a83 08       		.uleb128 0x8
 1999 0a84 63723200 		.ascii	"cr2\000"
 2000 0a88 12       		.byte	0x12
 2001 0a89 7601     		.2byte	0x176
 2002 0a8b D5000000 		.4byte	0xd5
 2003 0a8f 10       		.byte	0x10
 2004 0a90 09       		.uleb128 0x9
 2005 0a91 21050000 		.4byte	.LASF159
 2006 0a95 12       		.byte	0x12
 2007 0a96 7C01     		.2byte	0x17c
 2008 0a98 D5000000 		.4byte	0xd5
 2009 0a9c 14       		.byte	0x14
 2010 0a9d 09       		.uleb128 0x9
 2011 0a9e 27050000 		.4byte	.LASF160
 2012 0aa2 12       		.byte	0x12
 2013 0aa3 8201     		.2byte	0x182
 2014 0aa5 D5000000 		.4byte	0xd5
 2015 0aa9 18       		.byte	0x18
 2016 0aaa 09       		.uleb128 0x9
 2017 0aab 1F000000 		.4byte	.LASF161
 2018 0aaf 12       		.byte	0x12
 2019 0ab0 8701     		.2byte	0x187
 2020 0ab2 D5000000 		.4byte	0xd5
 2021 0ab6 1C       		.byte	0x1c
 2022 0ab7 09       		.uleb128 0x9
 2023 0ab8 24000000 		.4byte	.LASF162
 2024 0abc 12       		.byte	0x12
 2025 0abd 8C01     		.2byte	0x18c
 2026 0abf D5000000 		.4byte	0xd5
 2027 0ac3 20       		.byte	0x20
 2028 0ac4 09       		.uleb128 0x9
 2029 0ac5 9C030000 		.4byte	.LASF163
 2030 0ac9 12       		.byte	0x12
 2031 0aca 9101     		.2byte	0x191
 2032 0acc D5000000 		.4byte	0xd5
 2033 0ad0 24       		.byte	0x24
 2034 0ad1 00       		.byte	0
 2035 0ad2 19       		.uleb128 0x19
 2036 0ad3 F1040000 		.4byte	.LASF164
 2037 0ad7 12       		.byte	0x12
ARM GAS  /tmp/cc24WkUd.s 			page 37


 2038 0ad8 9201     		.2byte	0x192
 2039 0ada 390A0000 		.4byte	0xa39
 2040 0ade 1B       		.uleb128 0x1b
 2041 0adf 04       		.byte	0x4
 2042 0ae0 12       		.byte	0x12
 2043 0ae1 9801     		.2byte	0x198
 2044 0ae3 F50A0000 		.4byte	0xaf5
 2045 0ae7 09       		.uleb128 0x9
 2046 0ae8 CE070000 		.4byte	.LASF165
 2047 0aec 12       		.byte	0x12
 2048 0aed 9901     		.2byte	0x199
 2049 0aef D5000000 		.4byte	0xd5
 2050 0af3 00       		.byte	0
 2051 0af4 00       		.byte	0
 2052 0af5 19       		.uleb128 0x19
 2053 0af6 8E090000 		.4byte	.LASF166
 2054 0afa 12       		.byte	0x12
 2055 0afb 9A01     		.2byte	0x19a
 2056 0afd DE0A0000 		.4byte	0xade
 2057 0b01 0A       		.uleb128 0xa
 2058 0b02 04       		.byte	0x4
 2059 0b03 070B0000 		.4byte	0xb07
 2060 0b07 14       		.uleb128 0x14
 2061 0b08 F50A0000 		.4byte	0xaf5
 2062 0b0c 0A       		.uleb128 0xa
 2063 0b0d 04       		.byte	0x4
 2064 0b0e 120B0000 		.4byte	0xb12
 2065 0b12 14       		.uleb128 0x14
 2066 0b13 D20A0000 		.4byte	0xad2
 2067 0b17 0A       		.uleb128 0xa
 2068 0b18 04       		.byte	0x4
 2069 0b19 6C050000 		.4byte	0x56c
 2070 0b1d 0A       		.uleb128 0xa
 2071 0b1e 04       		.byte	0x4
 2072 0b1f 230B0000 		.4byte	0xb23
 2073 0b23 14       		.uleb128 0x14
 2074 0b24 BC080000 		.4byte	0x8bc
 2075 0b28 1C       		.uleb128 0x1c
 2076 0b29 AA070000 		.4byte	.LASF170
 2077 0b2d 03       		.byte	0x3
 2078 0b2e 2002     		.2byte	0x220
 2079 0b30 03       		.byte	0x3
 2080 0b31 420B0000 		.4byte	0xb42
 2081 0b35 1D       		.uleb128 0x1d
 2082 0b36 42030000 		.4byte	.LASF173
 2083 0b3a 03       		.byte	0x3
 2084 0b3b 2002     		.2byte	0x220
 2085 0b3d D5000000 		.4byte	0xd5
 2086 0b41 00       		.byte	0
 2087 0b42 1E       		.uleb128 0x1e
 2088 0b43 07080000 		.4byte	.LASF167
 2089 0b47 0C       		.byte	0xc
 2090 0b48 BC01     		.2byte	0x1bc
 2091 0b4a 03       		.byte	0x3
 2092 0b4b 1E       		.uleb128 0x1e
 2093 0b4c CB050000 		.4byte	.LASF168
 2094 0b50 0C       		.byte	0xc
ARM GAS  /tmp/cc24WkUd.s 			page 38


 2095 0b51 CA01     		.2byte	0x1ca
 2096 0b53 03       		.byte	0x3
 2097 0b54 1E       		.uleb128 0x1e
 2098 0b55 8A040000 		.4byte	.LASF169
 2099 0b59 13       		.byte	0x13
 2100 0b5a 5A01     		.2byte	0x15a
 2101 0b5c 03       		.byte	0x3
 2102 0b5d 1C       		.uleb128 0x1c
 2103 0b5e 6C040000 		.4byte	.LASF171
 2104 0b62 13       		.byte	0x13
 2105 0b63 6601     		.2byte	0x166
 2106 0b65 03       		.byte	0x3
 2107 0b66 780B0000 		.4byte	0xb78
 2108 0b6a 1F       		.uleb128 0x1f
 2109 0b6b DA000000 		.4byte	.LASF177
 2110 0b6f 880B0000 		.4byte	0xb88
 2111 0b73 6C040000 		.4byte	.LASF171
 2112 0b77 00       		.byte	0
 2113 0b78 15       		.uleb128 0x15
 2114 0b79 33080000 		.4byte	0x833
 2115 0b7d 880B0000 		.4byte	0xb88
 2116 0b81 16       		.uleb128 0x16
 2117 0b82 6E040000 		.4byte	0x46e
 2118 0b86 0B       		.byte	0xb
 2119 0b87 00       		.byte	0
 2120 0b88 14       		.uleb128 0x14
 2121 0b89 780B0000 		.4byte	0xb78
 2122 0b8d 1C       		.uleb128 0x1c
 2123 0b8e 8E080000 		.4byte	.LASF172
 2124 0b92 02       		.byte	0x2
 2125 0b93 4603     		.2byte	0x346
 2126 0b95 03       		.byte	0x3
 2127 0b96 A60B0000 		.4byte	0xba6
 2128 0b9a 20       		.uleb128 0x20
 2129 0b9b 6D7000   		.ascii	"mp\000"
 2130 0b9e 02       		.byte	0x2
 2131 0b9f 4603     		.2byte	0x346
 2132 0ba1 65080000 		.4byte	0x865
 2133 0ba5 00       		.byte	0
 2134 0ba6 1E       		.uleb128 0x1e
 2135 0ba7 0C010000 		.4byte	.LASF174
 2136 0bab 02       		.byte	0x2
 2137 0bac C801     		.2byte	0x1c8
 2138 0bae 03       		.byte	0x3
 2139 0baf 1E       		.uleb128 0x1e
 2140 0bb0 B7020000 		.4byte	.LASF175
 2141 0bb4 02       		.byte	0x2
 2142 0bb5 BD01     		.2byte	0x1bd
 2143 0bb7 03       		.byte	0x3
 2144 0bb8 21       		.uleb128 0x21
 2145 0bb9 AA030000 		.4byte	.LASF178
 2146 0bbd 01       		.byte	0x1
 2147 0bbe AB       		.byte	0xab
 2148 0bbf 01       		.byte	0x1
 2149 0bc0 FE0B0000 		.4byte	0xbfe
 2150 0bc4 22       		.uleb128 0x22
 2151 0bc5 9A050000 		.4byte	.LASF176
ARM GAS  /tmp/cc24WkUd.s 			page 39


 2152 0bc9 01       		.byte	0x1
 2153 0bca AB       		.byte	0xab
 2154 0bcb 0B0A0000 		.4byte	0xa0b
 2155 0bcf 22       		.uleb128 0x22
 2156 0bd0 DD070000 		.4byte	.LASF148
 2157 0bd4 01       		.byte	0x1
 2158 0bd5 AC       		.byte	0xac
 2159 0bd6 0C0B0000 		.4byte	0xb0c
 2160 0bda 22       		.uleb128 0x22
 2161 0bdb D8030000 		.4byte	.LASF146
 2162 0bdf 01       		.byte	0x1
 2163 0be0 AD       		.byte	0xad
 2164 0be1 110A0000 		.4byte	0xa11
 2165 0be5 22       		.uleb128 0x22
 2166 0be6 B2050000 		.4byte	.LASF147
 2167 0bea 01       		.byte	0x1
 2168 0beb AE       		.byte	0xae
 2169 0bec 2C000000 		.4byte	0x2c
 2170 0bf0 1F       		.uleb128 0x1f
 2171 0bf1 DA000000 		.4byte	.LASF177
 2172 0bf5 0E0C0000 		.4byte	0xc0e
 2173 0bf9 AA030000 		.4byte	.LASF178
 2174 0bfd 00       		.byte	0
 2175 0bfe 15       		.uleb128 0x15
 2176 0bff 33080000 		.4byte	0x833
 2177 0c03 0E0C0000 		.4byte	0xc0e
 2178 0c07 16       		.uleb128 0x16
 2179 0c08 6E040000 		.4byte	0x46e
 2180 0c0c 13       		.byte	0x13
 2181 0c0d 00       		.byte	0
 2182 0c0e 14       		.uleb128 0x14
 2183 0c0f FE0B0000 		.4byte	0xbfe
 2184 0c13 1C       		.uleb128 0x1c
 2185 0c14 4B010000 		.4byte	.LASF179
 2186 0c18 02       		.byte	0x2
 2187 0c19 B702     		.2byte	0x2b7
 2188 0c1b 03       		.byte	0x3
 2189 0c1c 390C0000 		.4byte	0xc39
 2190 0c20 20       		.uleb128 0x20
 2191 0c21 74727000 		.ascii	"trp\000"
 2192 0c25 02       		.byte	0x2
 2193 0c26 B702     		.2byte	0x2b7
 2194 0c28 C5070000 		.4byte	0x7c5
 2195 0c2c 20       		.uleb128 0x20
 2196 0c2d 6D736700 		.ascii	"msg\000"
 2197 0c31 02       		.byte	0x2
 2198 0c32 B702     		.2byte	0x2b7
 2199 0c34 2C010000 		.4byte	0x12c
 2200 0c38 00       		.byte	0
 2201 0c39 1C       		.uleb128 0x1c
 2202 0c3a 1A010000 		.4byte	.LASF180
 2203 0c3e 02       		.byte	0x2
 2204 0c3f A802     		.2byte	0x2a8
 2205 0c41 03       		.byte	0x3
 2206 0c42 5F0C0000 		.4byte	0xc5f
 2207 0c46 20       		.uleb128 0x20
 2208 0c47 74727000 		.ascii	"trp\000"
ARM GAS  /tmp/cc24WkUd.s 			page 40


 2209 0c4b 02       		.byte	0x2
 2210 0c4c A802     		.2byte	0x2a8
 2211 0c4e C5070000 		.4byte	0x7c5
 2212 0c52 20       		.uleb128 0x20
 2213 0c53 6D736700 		.ascii	"msg\000"
 2214 0c57 02       		.byte	0x2
 2215 0c58 A802     		.2byte	0x2a8
 2216 0c5a 2C010000 		.4byte	0x12c
 2217 0c5e 00       		.byte	0
 2218 0c5f 23       		.uleb128 0x23
 2219 0c60 E3000000 		.4byte	.LASF207
 2220 0c64 02       		.byte	0x2
 2221 0c65 8002     		.2byte	0x280
 2222 0c67 2C010000 		.4byte	0x12c
 2223 0c6b 03       		.byte	0x3
 2224 0c6c 7D0C0000 		.4byte	0xc7d
 2225 0c70 20       		.uleb128 0x20
 2226 0c71 74727000 		.ascii	"trp\000"
 2227 0c75 02       		.byte	0x2
 2228 0c76 8002     		.2byte	0x280
 2229 0c78 C5070000 		.4byte	0x7c5
 2230 0c7c 00       		.byte	0
 2231 0c7d 1C       		.uleb128 0x1c
 2232 0c7e E9050000 		.4byte	.LASF181
 2233 0c82 02       		.byte	0x2
 2234 0c83 5A03     		.2byte	0x35a
 2235 0c85 03       		.byte	0x3
 2236 0c86 960C0000 		.4byte	0xc96
 2237 0c8a 20       		.uleb128 0x20
 2238 0c8b 6D7000   		.ascii	"mp\000"
 2239 0c8e 02       		.byte	0x2
 2240 0c8f 5A03     		.2byte	0x35a
 2241 0c91 65080000 		.4byte	0x865
 2242 0c95 00       		.byte	0
 2243 0c96 1C       		.uleb128 0x1c
 2244 0c97 59050000 		.4byte	.LASF182
 2245 0c9b 02       		.byte	0x2
 2246 0c9c 7203     		.2byte	0x372
 2247 0c9e 03       		.byte	0x3
 2248 0c9f AF0C0000 		.4byte	0xcaf
 2249 0ca3 20       		.uleb128 0x20
 2250 0ca4 6D7000   		.ascii	"mp\000"
 2251 0ca7 02       		.byte	0x2
 2252 0ca8 7203     		.2byte	0x372
 2253 0caa 65080000 		.4byte	0x865
 2254 0cae 00       		.byte	0
 2255 0caf 24       		.uleb128 0x24
 2256 0cb0 EE030000 		.4byte	.LASF183
 2257 0cb4 01       		.byte	0x1
 2258 0cb5 38       		.byte	0x38
 2259 0cb6 00000000 		.4byte	.LFB260
 2260 0cba 04000000 		.4byte	.LFE260-.LFB260
 2261 0cbe 01       		.uleb128 0x1
 2262 0cbf 9C       		.byte	0x9c
 2263 0cc0 CE0C0000 		.4byte	0xcce
 2264 0cc4 25       		.uleb128 0x25
 2265 0cc5 04000000 		.4byte	.LVL0
ARM GAS  /tmp/cc24WkUd.s 			page 41


 2266 0cc9 28150000 		.4byte	0x1528
 2267 0ccd 00       		.byte	0
 2268 0cce 24       		.uleb128 0x24
 2269 0ccf 6C080000 		.4byte	.LASF184
 2270 0cd3 01       		.byte	0x1
 2271 0cd4 44       		.byte	0x44
 2272 0cd5 00000000 		.4byte	.LFB261
 2273 0cd9 16000000 		.4byte	.LFE261-.LFB261
 2274 0cdd 01       		.uleb128 0x1
 2275 0cde 9C       		.byte	0x9c
 2276 0cdf 1F0D0000 		.4byte	0xd1f
 2277 0ce3 26       		.uleb128 0x26
 2278 0ce4 9A050000 		.4byte	.LASF176
 2279 0ce8 01       		.byte	0x1
 2280 0ce9 44       		.byte	0x44
 2281 0cea 0B0A0000 		.4byte	0xa0b
 2282 0cee 00000000 		.4byte	.LLST0
 2283 0cf2 27       		.uleb128 0x27
 2284 0cf3 8D0B0000 		.4byte	0xb8d
 2285 0cf7 10000000 		.4byte	.LBB105
 2286 0cfb 06000000 		.4byte	.LBE105-.LBB105
 2287 0cff 01       		.byte	0x1
 2288 0d00 4F       		.byte	0x4f
 2289 0d01 28       		.uleb128 0x28
 2290 0d02 9A0B0000 		.4byte	0xb9a
 2291 0d06 2E000000 		.4byte	.LLST1
 2292 0d0a 29       		.uleb128 0x29
 2293 0d0b 16000000 		.4byte	.LVL4
 2294 0d0f 34150000 		.4byte	0x1534
 2295 0d13 2A       		.uleb128 0x2a
 2296 0d14 01       		.uleb128 0x1
 2297 0d15 50       		.byte	0x50
 2298 0d16 05       		.uleb128 0x5
 2299 0d17 F3       		.byte	0xf3
 2300 0d18 01       		.uleb128 0x1
 2301 0d19 50       		.byte	0x50
 2302 0d1a 23       		.byte	0x23
 2303 0d1b 18       		.uleb128 0x18
 2304 0d1c 00       		.byte	0
 2305 0d1d 00       		.byte	0
 2306 0d1e 00       		.byte	0
 2307 0d1f 24       		.uleb128 0x24
 2308 0d20 3A090000 		.4byte	.LASF185
 2309 0d24 01       		.byte	0x1
 2310 0d25 5F       		.byte	0x5f
 2311 0d26 00000000 		.4byte	.LFB262
 2312 0d2a 1C000000 		.4byte	.LFE262-.LFB262
 2313 0d2e 01       		.uleb128 0x1
 2314 0d2f 9C       		.byte	0x9c
 2315 0d30 150E0000 		.4byte	0xe15
 2316 0d34 26       		.uleb128 0x26
 2317 0d35 9A050000 		.4byte	.LASF176
 2318 0d39 01       		.byte	0x1
 2319 0d3a 5F       		.byte	0x5f
 2320 0d3b 0B0A0000 		.4byte	0xa0b
 2321 0d3f 5E000000 		.4byte	.LLST2
 2322 0d43 26       		.uleb128 0x26
ARM GAS  /tmp/cc24WkUd.s 			page 42


 2323 0d44 F6000000 		.4byte	.LASF145
 2324 0d48 01       		.byte	0x1
 2325 0d49 5F       		.byte	0x5f
 2326 0d4a 010B0000 		.4byte	0xb01
 2327 0d4e 7C000000 		.4byte	.LLST3
 2328 0d52 2B       		.uleb128 0x2b
 2329 0d53 DA000000 		.4byte	.LASF177
 2330 0d57 250E0000 		.4byte	0xe25
 2331 0d5b 2C       		.uleb128 0x2c
 2332 0d5c AF0B0000 		.4byte	0xbaf
 2333 0d60 02000000 		.4byte	.LBB107
 2334 0d64 00000000 		.4byte	.Ldebug_ranges0+0
 2335 0d68 01       		.byte	0x1
 2336 0d69 63       		.byte	0x63
 2337 0d6a A80D0000 		.4byte	0xda8
 2338 0d6e 2D       		.uleb128 0x2d
 2339 0d6f 540B0000 		.4byte	0xb54
 2340 0d73 02000000 		.4byte	.LBB108
 2341 0d77 00000000 		.4byte	.Ldebug_ranges0+0
 2342 0d7b 02       		.byte	0x2
 2343 0d7c BF01     		.2byte	0x1bf
 2344 0d7e 2D       		.uleb128 0x2d
 2345 0d7f 420B0000 		.4byte	0xb42
 2346 0d83 02000000 		.4byte	.LBB109
 2347 0d87 00000000 		.4byte	.Ldebug_ranges0+0
 2348 0d8b 13       		.byte	0x13
 2349 0d8c 5C01     		.2byte	0x15c
 2350 0d8e 2D       		.uleb128 0x2d
 2351 0d8f 280B0000 		.4byte	0xb28
 2352 0d93 02000000 		.4byte	.LBB110
 2353 0d97 00000000 		.4byte	.Ldebug_ranges0+0
 2354 0d9b 0C       		.byte	0xc
 2355 0d9c BF01     		.2byte	0x1bf
 2356 0d9e 2E       		.uleb128 0x2e
 2357 0d9f 350B0000 		.4byte	0xb35
 2358 0da3 20       		.byte	0x20
 2359 0da4 00       		.byte	0
 2360 0da5 00       		.byte	0
 2361 0da6 00       		.byte	0
 2362 0da7 00       		.byte	0
 2363 0da8 2F       		.uleb128 0x2f
 2364 0da9 A60B0000 		.4byte	0xba6
 2365 0dad 14000000 		.4byte	.LBB117
 2366 0db1 08000000 		.4byte	.LBE117-.LBB117
 2367 0db5 01       		.byte	0x1
 2368 0db6 69       		.byte	0x69
 2369 0db7 040E0000 		.4byte	0xe04
 2370 0dbb 30       		.uleb128 0x30
 2371 0dbc 5D0B0000 		.4byte	0xb5d
 2372 0dc0 14000000 		.4byte	.LBB118
 2373 0dc4 08000000 		.4byte	.LBE118-.LBB118
 2374 0dc8 02       		.byte	0x2
 2375 0dc9 CA01     		.2byte	0x1ca
 2376 0dcb 31       		.uleb128 0x31
 2377 0dcc 14000000 		.4byte	.LBB119
 2378 0dd0 08000000 		.4byte	.LBE119-.LBB119
 2379 0dd4 32       		.uleb128 0x32
ARM GAS  /tmp/cc24WkUd.s 			page 43


 2380 0dd5 6A0B0000 		.4byte	0xb6a
 2381 0dd9 30       		.uleb128 0x30
 2382 0dda 4B0B0000 		.4byte	0xb4b
 2383 0dde 14000000 		.4byte	.LBB120
 2384 0de2 08000000 		.4byte	.LBE120-.LBB120
 2385 0de6 13       		.byte	0x13
 2386 0de7 7301     		.2byte	0x173
 2387 0de9 30       		.uleb128 0x30
 2388 0dea 280B0000 		.4byte	0xb28
 2389 0dee 14000000 		.4byte	.LBB121
 2390 0df2 08000000 		.4byte	.LBE121-.LBB121
 2391 0df6 0C       		.byte	0xc
 2392 0df7 CD01     		.2byte	0x1cd
 2393 0df9 2E       		.uleb128 0x2e
 2394 0dfa 350B0000 		.4byte	0xb35
 2395 0dfe 00       		.byte	0
 2396 0dff 00       		.byte	0
 2397 0e00 00       		.byte	0
 2398 0e01 00       		.byte	0
 2399 0e02 00       		.byte	0
 2400 0e03 00       		.byte	0
 2401 0e04 33       		.uleb128 0x33
 2402 0e05 10000000 		.4byte	.LVL6
 2403 0e09 3F150000 		.4byte	0x153f
 2404 0e0d 2A       		.uleb128 0x2a
 2405 0e0e 01       		.uleb128 0x1
 2406 0e0f 50       		.byte	0x50
 2407 0e10 02       		.uleb128 0x2
 2408 0e11 74       		.byte	0x74
 2409 0e12 00       		.sleb128 0
 2410 0e13 00       		.byte	0
 2411 0e14 00       		.byte	0
 2412 0e15 15       		.uleb128 0x15
 2413 0e16 33080000 		.4byte	0x833
 2414 0e1a 250E0000 		.4byte	0xe25
 2415 0e1e 16       		.uleb128 0x16
 2416 0e1f 6E040000 		.4byte	0x46e
 2417 0e23 08       		.byte	0x8
 2418 0e24 00       		.byte	0
 2419 0e25 14       		.uleb128 0x14
 2420 0e26 150E0000 		.4byte	0xe15
 2421 0e2a 24       		.uleb128 0x24
 2422 0e2b 19080000 		.4byte	.LASF186
 2423 0e2f 01       		.byte	0x1
 2424 0e30 73       		.byte	0x73
 2425 0e31 00000000 		.4byte	.LFB263
 2426 0e35 1A000000 		.4byte	.LFE263-.LFB263
 2427 0e39 01       		.uleb128 0x1
 2428 0e3a 9C       		.byte	0x9c
 2429 0e3b 110F0000 		.4byte	0xf11
 2430 0e3f 26       		.uleb128 0x26
 2431 0e40 9A050000 		.4byte	.LASF176
 2432 0e44 01       		.byte	0x1
 2433 0e45 73       		.byte	0x73
 2434 0e46 0B0A0000 		.4byte	0xa0b
 2435 0e4a 9D000000 		.4byte	.LLST4
 2436 0e4e 2B       		.uleb128 0x2b
ARM GAS  /tmp/cc24WkUd.s 			page 44


 2437 0e4f DA000000 		.4byte	.LASF177
 2438 0e53 210F0000 		.4byte	0xf21
 2439 0e57 2C       		.uleb128 0x2c
 2440 0e58 AF0B0000 		.4byte	0xbaf
 2441 0e5c 02000000 		.4byte	.LBB123
 2442 0e60 18000000 		.4byte	.Ldebug_ranges0+0x18
 2443 0e64 01       		.byte	0x1
 2444 0e65 77       		.byte	0x77
 2445 0e66 A40E0000 		.4byte	0xea4
 2446 0e6a 2D       		.uleb128 0x2d
 2447 0e6b 540B0000 		.4byte	0xb54
 2448 0e6f 02000000 		.4byte	.LBB124
 2449 0e73 18000000 		.4byte	.Ldebug_ranges0+0x18
 2450 0e77 02       		.byte	0x2
 2451 0e78 BF01     		.2byte	0x1bf
 2452 0e7a 2D       		.uleb128 0x2d
 2453 0e7b 420B0000 		.4byte	0xb42
 2454 0e7f 02000000 		.4byte	.LBB125
 2455 0e83 18000000 		.4byte	.Ldebug_ranges0+0x18
 2456 0e87 13       		.byte	0x13
 2457 0e88 5C01     		.2byte	0x15c
 2458 0e8a 2D       		.uleb128 0x2d
 2459 0e8b 280B0000 		.4byte	0xb28
 2460 0e8f 02000000 		.4byte	.LBB126
 2461 0e93 18000000 		.4byte	.Ldebug_ranges0+0x18
 2462 0e97 0C       		.byte	0xc
 2463 0e98 BF01     		.2byte	0x1bf
 2464 0e9a 2E       		.uleb128 0x2e
 2465 0e9b 350B0000 		.4byte	0xb35
 2466 0e9f 20       		.byte	0x20
 2467 0ea0 00       		.byte	0
 2468 0ea1 00       		.byte	0
 2469 0ea2 00       		.byte	0
 2470 0ea3 00       		.byte	0
 2471 0ea4 2F       		.uleb128 0x2f
 2472 0ea5 A60B0000 		.4byte	0xba6
 2473 0ea9 12000000 		.4byte	.LBB133
 2474 0ead 08000000 		.4byte	.LBE133-.LBB133
 2475 0eb1 01       		.byte	0x1
 2476 0eb2 7C       		.byte	0x7c
 2477 0eb3 000F0000 		.4byte	0xf00
 2478 0eb7 30       		.uleb128 0x30
 2479 0eb8 5D0B0000 		.4byte	0xb5d
 2480 0ebc 12000000 		.4byte	.LBB134
 2481 0ec0 08000000 		.4byte	.LBE134-.LBB134
 2482 0ec4 02       		.byte	0x2
 2483 0ec5 CA01     		.2byte	0x1ca
 2484 0ec7 31       		.uleb128 0x31
 2485 0ec8 12000000 		.4byte	.LBB135
 2486 0ecc 08000000 		.4byte	.LBE135-.LBB135
 2487 0ed0 32       		.uleb128 0x32
 2488 0ed1 6A0B0000 		.4byte	0xb6a
 2489 0ed5 30       		.uleb128 0x30
 2490 0ed6 4B0B0000 		.4byte	0xb4b
 2491 0eda 12000000 		.4byte	.LBB136
 2492 0ede 08000000 		.4byte	.LBE136-.LBB136
 2493 0ee2 13       		.byte	0x13
ARM GAS  /tmp/cc24WkUd.s 			page 45


 2494 0ee3 7301     		.2byte	0x173
 2495 0ee5 30       		.uleb128 0x30
 2496 0ee6 280B0000 		.4byte	0xb28
 2497 0eea 12000000 		.4byte	.LBB137
 2498 0eee 08000000 		.4byte	.LBE137-.LBB137
 2499 0ef2 0C       		.byte	0xc
 2500 0ef3 CD01     		.2byte	0x1cd
 2501 0ef5 2E       		.uleb128 0x2e
 2502 0ef6 350B0000 		.4byte	0xb35
 2503 0efa 00       		.byte	0
 2504 0efb 00       		.byte	0
 2505 0efc 00       		.byte	0
 2506 0efd 00       		.byte	0
 2507 0efe 00       		.byte	0
 2508 0eff 00       		.byte	0
 2509 0f00 33       		.uleb128 0x33
 2510 0f01 0E000000 		.4byte	.LVL9
 2511 0f05 4B150000 		.4byte	0x154b
 2512 0f09 2A       		.uleb128 0x2a
 2513 0f0a 01       		.uleb128 0x1
 2514 0f0b 50       		.byte	0x50
 2515 0f0c 02       		.uleb128 0x2
 2516 0f0d 74       		.byte	0x74
 2517 0f0e 00       		.sleb128 0
 2518 0f0f 00       		.byte	0
 2519 0f10 00       		.byte	0
 2520 0f11 15       		.uleb128 0x15
 2521 0f12 33080000 		.4byte	0x833
 2522 0f16 210F0000 		.4byte	0xf21
 2523 0f1a 16       		.uleb128 0x16
 2524 0f1b 6E040000 		.4byte	0x46e
 2525 0f1f 07       		.byte	0x7
 2526 0f20 00       		.byte	0
 2527 0f21 14       		.uleb128 0x14
 2528 0f22 110F0000 		.4byte	0xf11
 2529 0f26 24       		.uleb128 0x24
 2530 0f27 43090000 		.4byte	.LASF187
 2531 0f2b 01       		.byte	0x1
 2532 0f2c 8F       		.byte	0x8f
 2533 0f2d 00000000 		.4byte	.LFB264
 2534 0f31 1E000000 		.4byte	.LFE264-.LFB264
 2535 0f35 01       		.uleb128 0x1
 2536 0f36 9C       		.byte	0x9c
 2537 0f37 75100000 		.4byte	0x1075
 2538 0f3b 26       		.uleb128 0x26
 2539 0f3c 9A050000 		.4byte	.LASF176
 2540 0f40 01       		.byte	0x1
 2541 0f41 8F       		.byte	0x8f
 2542 0f42 0B0A0000 		.4byte	0xa0b
 2543 0f46 BB000000 		.4byte	.LLST5
 2544 0f4a 26       		.uleb128 0x26
 2545 0f4b DD070000 		.4byte	.LASF148
 2546 0f4f 01       		.byte	0x1
 2547 0f50 90       		.byte	0x90
 2548 0f51 0C0B0000 		.4byte	0xb0c
 2549 0f55 DC000000 		.4byte	.LLST6
 2550 0f59 26       		.uleb128 0x26
ARM GAS  /tmp/cc24WkUd.s 			page 46


 2551 0f5a D8030000 		.4byte	.LASF146
 2552 0f5e 01       		.byte	0x1
 2553 0f5f 91       		.byte	0x91
 2554 0f60 110A0000 		.4byte	0xa11
 2555 0f64 FD000000 		.4byte	.LLST7
 2556 0f68 26       		.uleb128 0x26
 2557 0f69 B2050000 		.4byte	.LASF147
 2558 0f6d 01       		.byte	0x1
 2559 0f6e 92       		.byte	0x92
 2560 0f6f 2C000000 		.4byte	0x2c
 2561 0f73 1E010000 		.4byte	.LLST8
 2562 0f77 2F       		.uleb128 0x2f
 2563 0f78 AF0B0000 		.4byte	0xbaf
 2564 0f7c 02000000 		.4byte	.LBB139
 2565 0f80 06000000 		.4byte	.LBE139-.LBB139
 2566 0f84 01       		.byte	0x1
 2567 0f85 94       		.byte	0x94
 2568 0f86 C40F0000 		.4byte	0xfc4
 2569 0f8a 30       		.uleb128 0x30
 2570 0f8b 540B0000 		.4byte	0xb54
 2571 0f8f 02000000 		.4byte	.LBB140
 2572 0f93 06000000 		.4byte	.LBE140-.LBB140
 2573 0f97 02       		.byte	0x2
 2574 0f98 BF01     		.2byte	0x1bf
 2575 0f9a 30       		.uleb128 0x30
 2576 0f9b 420B0000 		.4byte	0xb42
 2577 0f9f 02000000 		.4byte	.LBB141
 2578 0fa3 06000000 		.4byte	.LBE141-.LBB141
 2579 0fa7 13       		.byte	0x13
 2580 0fa8 5C01     		.2byte	0x15c
 2581 0faa 30       		.uleb128 0x30
 2582 0fab 280B0000 		.4byte	0xb28
 2583 0faf 02000000 		.4byte	.LBB142
 2584 0fb3 06000000 		.4byte	.LBE142-.LBB142
 2585 0fb7 0C       		.byte	0xc
 2586 0fb8 BF01     		.2byte	0x1bf
 2587 0fba 2E       		.uleb128 0x2e
 2588 0fbb 350B0000 		.4byte	0xb35
 2589 0fbf 20       		.byte	0x20
 2590 0fc0 00       		.byte	0
 2591 0fc1 00       		.byte	0
 2592 0fc2 00       		.byte	0
 2593 0fc3 00       		.byte	0
 2594 0fc4 2F       		.uleb128 0x2f
 2595 0fc5 B80B0000 		.4byte	0xbb8
 2596 0fc9 08000000 		.4byte	.LBB144
 2597 0fcd 0E000000 		.4byte	.LBE144-.LBB144
 2598 0fd1 01       		.byte	0x1
 2599 0fd2 95       		.byte	0x95
 2600 0fd3 1C100000 		.4byte	0x101c
 2601 0fd7 28       		.uleb128 0x28
 2602 0fd8 E50B0000 		.4byte	0xbe5
 2603 0fdc 3F010000 		.4byte	.LLST9
 2604 0fe0 28       		.uleb128 0x28
 2605 0fe1 DA0B0000 		.4byte	0xbda
 2606 0fe5 60010000 		.4byte	.LLST10
 2607 0fe9 28       		.uleb128 0x28
ARM GAS  /tmp/cc24WkUd.s 			page 47


 2608 0fea CF0B0000 		.4byte	0xbcf
 2609 0fee 81010000 		.4byte	.LLST11
 2610 0ff2 28       		.uleb128 0x28
 2611 0ff3 C40B0000 		.4byte	0xbc4
 2612 0ff7 A2010000 		.4byte	.LLST12
 2613 0ffb 31       		.uleb128 0x31
 2614 0ffc 08000000 		.4byte	.LBB145
 2615 1000 0E000000 		.4byte	.LBE145-.LBB145
 2616 1004 32       		.uleb128 0x32
 2617 1005 F00B0000 		.4byte	0xbf0
 2618 1009 33       		.uleb128 0x33
 2619 100a 16000000 		.4byte	.LVL13
 2620 100e 57150000 		.4byte	0x1557
 2621 1012 2A       		.uleb128 0x2a
 2622 1013 01       		.uleb128 0x1
 2623 1014 50       		.byte	0x50
 2624 1015 03       		.uleb128 0x3
 2625 1016 F3       		.byte	0xf3
 2626 1017 01       		.uleb128 0x1
 2627 1018 50       		.byte	0x50
 2628 1019 00       		.byte	0
 2629 101a 00       		.byte	0
 2630 101b 00       		.byte	0
 2631 101c 27       		.uleb128 0x27
 2632 101d A60B0000 		.4byte	0xba6
 2633 1021 16000000 		.4byte	.LBB146
 2634 1025 08000000 		.4byte	.LBE146-.LBB146
 2635 1029 01       		.byte	0x1
 2636 102a 96       		.byte	0x96
 2637 102b 30       		.uleb128 0x30
 2638 102c 5D0B0000 		.4byte	0xb5d
 2639 1030 16000000 		.4byte	.LBB147
 2640 1034 08000000 		.4byte	.LBE147-.LBB147
 2641 1038 02       		.byte	0x2
 2642 1039 CA01     		.2byte	0x1ca
 2643 103b 31       		.uleb128 0x31
 2644 103c 16000000 		.4byte	.LBB148
 2645 1040 08000000 		.4byte	.LBE148-.LBB148
 2646 1044 32       		.uleb128 0x32
 2647 1045 6A0B0000 		.4byte	0xb6a
 2648 1049 30       		.uleb128 0x30
 2649 104a 4B0B0000 		.4byte	0xb4b
 2650 104e 16000000 		.4byte	.LBB149
 2651 1052 08000000 		.4byte	.LBE149-.LBB149
 2652 1056 13       		.byte	0x13
 2653 1057 7301     		.2byte	0x173
 2654 1059 30       		.uleb128 0x30
 2655 105a 280B0000 		.4byte	0xb28
 2656 105e 16000000 		.4byte	.LBB150
 2657 1062 08000000 		.4byte	.LBE150-.LBB150
 2658 1066 0C       		.byte	0xc
 2659 1067 CD01     		.2byte	0x1cd
 2660 1069 2E       		.uleb128 0x2e
 2661 106a 350B0000 		.4byte	0xb35
 2662 106e 00       		.byte	0
 2663 106f 00       		.byte	0
 2664 1070 00       		.byte	0
ARM GAS  /tmp/cc24WkUd.s 			page 48


 2665 1071 00       		.byte	0
 2666 1072 00       		.byte	0
 2667 1073 00       		.byte	0
 2668 1074 00       		.byte	0
 2669 1075 34       		.uleb128 0x34
 2670 1076 B80B0000 		.4byte	0xbb8
 2671 107a 00000000 		.4byte	.LFB265
 2672 107e 12000000 		.4byte	.LFE265-.LFB265
 2673 1082 01       		.uleb128 0x1
 2674 1083 9C       		.byte	0x9c
 2675 1084 C3100000 		.4byte	0x10c3
 2676 1088 28       		.uleb128 0x28
 2677 1089 C40B0000 		.4byte	0xbc4
 2678 108d C3010000 		.4byte	.LLST13
 2679 1091 28       		.uleb128 0x28
 2680 1092 CF0B0000 		.4byte	0xbcf
 2681 1096 E4010000 		.4byte	.LLST14
 2682 109a 28       		.uleb128 0x28
 2683 109b DA0B0000 		.4byte	0xbda
 2684 109f 05020000 		.4byte	.LLST15
 2685 10a3 28       		.uleb128 0x28
 2686 10a4 E50B0000 		.4byte	0xbe5
 2687 10a8 26020000 		.4byte	.LLST16
 2688 10ac 32       		.uleb128 0x32
 2689 10ad F00B0000 		.4byte	0xbf0
 2690 10b1 29       		.uleb128 0x29
 2691 10b2 12000000 		.4byte	.LVL15
 2692 10b6 57150000 		.4byte	0x1557
 2693 10ba 2A       		.uleb128 0x2a
 2694 10bb 01       		.uleb128 0x1
 2695 10bc 50       		.byte	0x50
 2696 10bd 03       		.uleb128 0x3
 2697 10be F3       		.byte	0xf3
 2698 10bf 01       		.uleb128 0x1
 2699 10c0 50       		.byte	0x50
 2700 10c1 00       		.byte	0
 2701 10c2 00       		.byte	0
 2702 10c3 24       		.uleb128 0x24
 2703 10c4 AE080000 		.4byte	.LASF188
 2704 10c8 01       		.byte	0x1
 2705 10c9 C9       		.byte	0xc9
 2706 10ca 00000000 		.4byte	.LFB266
 2707 10ce 38000000 		.4byte	.LFE266-.LFB266
 2708 10d2 01       		.uleb128 0x1
 2709 10d3 9C       		.byte	0x9c
 2710 10d4 E6110000 		.4byte	0x11e6
 2711 10d8 26       		.uleb128 0x26
 2712 10d9 9A050000 		.4byte	.LASF176
 2713 10dd 01       		.byte	0x1
 2714 10de C9       		.byte	0xc9
 2715 10df 0B0A0000 		.4byte	0xa0b
 2716 10e3 47020000 		.4byte	.LLST17
 2717 10e7 2B       		.uleb128 0x2b
 2718 10e8 DA000000 		.4byte	.LASF177
 2719 10ec F6110000 		.4byte	0x11f6
 2720 10f0 2F       		.uleb128 0x2f
 2721 10f1 AF0B0000 		.4byte	0xbaf
ARM GAS  /tmp/cc24WkUd.s 			page 49


 2722 10f5 00000000 		.4byte	.LBB152
 2723 10f9 06000000 		.4byte	.LBE152-.LBB152
 2724 10fd 01       		.byte	0x1
 2725 10fe CD       		.byte	0xcd
 2726 10ff 3D110000 		.4byte	0x113d
 2727 1103 30       		.uleb128 0x30
 2728 1104 540B0000 		.4byte	0xb54
 2729 1108 00000000 		.4byte	.LBB153
 2730 110c 06000000 		.4byte	.LBE153-.LBB153
 2731 1110 02       		.byte	0x2
 2732 1111 BF01     		.2byte	0x1bf
 2733 1113 30       		.uleb128 0x30
 2734 1114 420B0000 		.4byte	0xb42
 2735 1118 00000000 		.4byte	.LBB154
 2736 111c 06000000 		.4byte	.LBE154-.LBB154
 2737 1120 13       		.byte	0x13
 2738 1121 5C01     		.2byte	0x15c
 2739 1123 30       		.uleb128 0x30
 2740 1124 280B0000 		.4byte	0xb28
 2741 1128 00000000 		.4byte	.LBB155
 2742 112c 06000000 		.4byte	.LBE155-.LBB155
 2743 1130 0C       		.byte	0xc
 2744 1131 BF01     		.2byte	0x1bf
 2745 1133 2E       		.uleb128 0x2e
 2746 1134 350B0000 		.4byte	0xb35
 2747 1138 20       		.byte	0x20
 2748 1139 00       		.byte	0
 2749 113a 00       		.byte	0
 2750 113b 00       		.byte	0
 2751 113c 00       		.byte	0
 2752 113d 2C       		.uleb128 0x2c
 2753 113e 130C0000 		.4byte	0xc13
 2754 1142 1C000000 		.4byte	.LBB157
 2755 1146 30000000 		.4byte	.Ldebug_ranges0+0x30
 2756 114a 01       		.byte	0x1
 2757 114b D4       		.byte	0xd4
 2758 114c 79110000 		.4byte	0x1179
 2759 1150 28       		.uleb128 0x28
 2760 1151 2C0C0000 		.4byte	0xc2c
 2761 1155 70020000 		.4byte	.LLST18
 2762 1159 28       		.uleb128 0x28
 2763 115a 200C0000 		.4byte	0xc20
 2764 115e 85020000 		.4byte	.LLST19
 2765 1162 33       		.uleb128 0x33
 2766 1163 28000000 		.4byte	.LVL19
 2767 1167 63150000 		.4byte	0x1563
 2768 116b 2A       		.uleb128 0x2a
 2769 116c 01       		.uleb128 0x1
 2770 116d 50       		.byte	0x50
 2771 116e 02       		.uleb128 0x2
 2772 116f 74       		.byte	0x74
 2773 1170 14       		.sleb128 20
 2774 1171 2A       		.uleb128 0x2a
 2775 1172 01       		.uleb128 0x1
 2776 1173 51       		.byte	0x51
 2777 1174 02       		.uleb128 0x2
 2778 1175 09       		.byte	0x9
ARM GAS  /tmp/cc24WkUd.s 			page 50


 2779 1176 FE       		.byte	0xfe
 2780 1177 00       		.byte	0
 2781 1178 00       		.byte	0
 2782 1179 2F       		.uleb128 0x2f
 2783 117a A60B0000 		.4byte	0xba6
 2784 117e 28000000 		.4byte	.LBB161
 2785 1182 10000000 		.4byte	.LBE161-.LBB161
 2786 1186 01       		.byte	0x1
 2787 1187 D6       		.byte	0xd6
 2788 1188 D5110000 		.4byte	0x11d5
 2789 118c 30       		.uleb128 0x30
 2790 118d 5D0B0000 		.4byte	0xb5d
 2791 1191 28000000 		.4byte	.LBB162
 2792 1195 10000000 		.4byte	.LBE162-.LBB162
 2793 1199 02       		.byte	0x2
 2794 119a CA01     		.2byte	0x1ca
 2795 119c 31       		.uleb128 0x31
 2796 119d 28000000 		.4byte	.LBB163
 2797 11a1 10000000 		.4byte	.LBE163-.LBB163
 2798 11a5 32       		.uleb128 0x32
 2799 11a6 6A0B0000 		.4byte	0xb6a
 2800 11aa 30       		.uleb128 0x30
 2801 11ab 4B0B0000 		.4byte	0xb4b
 2802 11af 28000000 		.4byte	.LBB164
 2803 11b3 10000000 		.4byte	.LBE164-.LBB164
 2804 11b7 13       		.byte	0x13
 2805 11b8 7301     		.2byte	0x173
 2806 11ba 30       		.uleb128 0x30
 2807 11bb 280B0000 		.4byte	0xb28
 2808 11bf 28000000 		.4byte	.LBB165
 2809 11c3 10000000 		.4byte	.LBE165-.LBB165
 2810 11c7 0C       		.byte	0xc
 2811 11c8 CD01     		.2byte	0x1cd
 2812 11ca 2E       		.uleb128 0x2e
 2813 11cb 350B0000 		.4byte	0xb35
 2814 11cf 00       		.byte	0
 2815 11d0 00       		.byte	0
 2816 11d1 00       		.byte	0
 2817 11d2 00       		.byte	0
 2818 11d3 00       		.byte	0
 2819 11d4 00       		.byte	0
 2820 11d5 33       		.uleb128 0x33
 2821 11d6 14000000 		.4byte	.LVL17
 2822 11da 6E150000 		.4byte	0x156e
 2823 11de 2A       		.uleb128 0x2a
 2824 11df 01       		.uleb128 0x1
 2825 11e0 50       		.byte	0x50
 2826 11e1 02       		.uleb128 0x2
 2827 11e2 74       		.byte	0x74
 2828 11e3 00       		.sleb128 0
 2829 11e4 00       		.byte	0
 2830 11e5 00       		.byte	0
 2831 11e6 15       		.uleb128 0x15
 2832 11e7 33080000 		.4byte	0x833
 2833 11eb F6110000 		.4byte	0x11f6
 2834 11ef 16       		.uleb128 0x16
 2835 11f0 6E040000 		.4byte	0x46e
ARM GAS  /tmp/cc24WkUd.s 			page 51


 2836 11f4 11       		.byte	0x11
 2837 11f5 00       		.byte	0
 2838 11f6 14       		.uleb128 0x14
 2839 11f7 E6110000 		.4byte	0x11e6
 2840 11fb 24       		.uleb128 0x24
 2841 11fc 7B070000 		.4byte	.LASF189
 2842 1200 01       		.byte	0x1
 2843 1201 E3       		.byte	0xe3
 2844 1202 00000000 		.4byte	.LFB267
 2845 1206 28000000 		.4byte	.LFE267-.LFB267
 2846 120a 01       		.uleb128 0x1
 2847 120b 9C       		.byte	0x9c
 2848 120c 78120000 		.4byte	0x1278
 2849 1210 26       		.uleb128 0x26
 2850 1211 9A050000 		.4byte	.LASF176
 2851 1215 01       		.byte	0x1
 2852 1216 E3       		.byte	0xe3
 2853 1217 0B0A0000 		.4byte	0xa0b
 2854 121b 9A020000 		.4byte	.LLST20
 2855 121f 2B       		.uleb128 0x2b
 2856 1220 DA000000 		.4byte	.LASF177
 2857 1224 88120000 		.4byte	0x1288
 2858 1228 2C       		.uleb128 0x2c
 2859 1229 390C0000 		.4byte	0xc39
 2860 122d 16000000 		.4byte	.LBB167
 2861 1231 48000000 		.4byte	.Ldebug_ranges0+0x48
 2862 1235 01       		.byte	0x1
 2863 1236 F0       		.byte	0xf0
 2864 1237 67120000 		.4byte	0x1267
 2865 123b 28       		.uleb128 0x28
 2866 123c 520C0000 		.4byte	0xc52
 2867 1240 DE020000 		.4byte	.LLST21
 2868 1244 28       		.uleb128 0x28
 2869 1245 460C0000 		.4byte	0xc46
 2870 1249 F3020000 		.4byte	.LLST22
 2871 124d 29       		.uleb128 0x29
 2872 124e 26000000 		.4byte	.LVL25
 2873 1252 7A150000 		.4byte	0x157a
 2874 1256 2A       		.uleb128 0x2a
 2875 1257 01       		.uleb128 0x1
 2876 1258 50       		.byte	0x50
 2877 1259 05       		.uleb128 0x5
 2878 125a F3       		.byte	0xf3
 2879 125b 01       		.uleb128 0x1
 2880 125c 50       		.byte	0x50
 2881 125d 23       		.byte	0x23
 2882 125e 14       		.uleb128 0x14
 2883 125f 2A       		.uleb128 0x2a
 2884 1260 01       		.uleb128 0x1
 2885 1261 51       		.byte	0x51
 2886 1262 02       		.uleb128 0x2
 2887 1263 09       		.byte	0x9
 2888 1264 FE       		.byte	0xfe
 2889 1265 00       		.byte	0
 2890 1266 00       		.byte	0
 2891 1267 33       		.uleb128 0x33
 2892 1268 0E000000 		.4byte	.LVL22
ARM GAS  /tmp/cc24WkUd.s 			page 52


 2893 126c 6E150000 		.4byte	0x156e
 2894 1270 2A       		.uleb128 0x2a
 2895 1271 01       		.uleb128 0x1
 2896 1272 50       		.byte	0x50
 2897 1273 02       		.uleb128 0x2
 2898 1274 74       		.byte	0x74
 2899 1275 00       		.sleb128 0
 2900 1276 00       		.byte	0
 2901 1277 00       		.byte	0
 2902 1278 15       		.uleb128 0x15
 2903 1279 33080000 		.4byte	0x833
 2904 127d 88120000 		.4byte	0x1288
 2905 1281 16       		.uleb128 0x16
 2906 1282 6E040000 		.4byte	0x46e
 2907 1286 12       		.byte	0x12
 2908 1287 00       		.byte	0
 2909 1288 14       		.uleb128 0x14
 2910 1289 78120000 		.4byte	0x1278
 2911 128d 35       		.uleb128 0x35
 2912 128e D0080000 		.4byte	.LASF208
 2913 1292 01       		.byte	0x1
 2914 1293 0C01     		.2byte	0x10c
 2915 1295 2C010000 		.4byte	0x12c
 2916 1299 00000000 		.4byte	.LFB268
 2917 129d 28000000 		.4byte	.LFE268-.LFB268
 2918 12a1 01       		.uleb128 0x1
 2919 12a2 9C       		.byte	0x9c
 2920 12a3 28140000 		.4byte	0x1428
 2921 12a7 36       		.uleb128 0x36
 2922 12a8 9A050000 		.4byte	.LASF176
 2923 12ac 01       		.byte	0x1
 2924 12ad 0C01     		.2byte	0x10c
 2925 12af 0B0A0000 		.4byte	0xa0b
 2926 12b3 23030000 		.4byte	.LLST23
 2927 12b7 36       		.uleb128 0x36
 2928 12b8 DD070000 		.4byte	.LASF148
 2929 12bc 01       		.byte	0x1
 2930 12bd 0D01     		.2byte	0x10d
 2931 12bf 0C0B0000 		.4byte	0xb0c
 2932 12c3 43030000 		.4byte	.LLST24
 2933 12c7 36       		.uleb128 0x36
 2934 12c8 D8030000 		.4byte	.LASF146
 2935 12cc 01       		.byte	0x1
 2936 12cd 0E01     		.2byte	0x10e
 2937 12cf 110A0000 		.4byte	0xa11
 2938 12d3 64030000 		.4byte	.LLST25
 2939 12d7 36       		.uleb128 0x36
 2940 12d8 B2050000 		.4byte	.LASF147
 2941 12dc 01       		.byte	0x1
 2942 12dd 0F01     		.2byte	0x10f
 2943 12df 2C000000 		.4byte	0x2c
 2944 12e3 85030000 		.4byte	.LLST26
 2945 12e7 37       		.uleb128 0x37
 2946 12e8 6D736700 		.ascii	"msg\000"
 2947 12ec 01       		.byte	0x1
 2948 12ed 1001     		.2byte	0x110
 2949 12ef 2C010000 		.4byte	0x12c
ARM GAS  /tmp/cc24WkUd.s 			page 53


 2950 12f3 2B       		.uleb128 0x2b
 2951 12f4 DA000000 		.4byte	.LASF177
 2952 12f8 38140000 		.4byte	0x1438
 2953 12fc 38       		.uleb128 0x38
 2954 12fd AF0B0000 		.4byte	0xbaf
 2955 1301 02000000 		.4byte	.LBB171
 2956 1305 06000000 		.4byte	.LBE171-.LBB171
 2957 1309 01       		.byte	0x1
 2958 130a 1201     		.2byte	0x112
 2959 130c 4A130000 		.4byte	0x134a
 2960 1310 30       		.uleb128 0x30
 2961 1311 540B0000 		.4byte	0xb54
 2962 1315 02000000 		.4byte	.LBB172
 2963 1319 06000000 		.4byte	.LBE172-.LBB172
 2964 131d 02       		.byte	0x2
 2965 131e BF01     		.2byte	0x1bf
 2966 1320 30       		.uleb128 0x30
 2967 1321 420B0000 		.4byte	0xb42
 2968 1325 02000000 		.4byte	.LBB173
 2969 1329 06000000 		.4byte	.LBE173-.LBB173
 2970 132d 13       		.byte	0x13
 2971 132e 5C01     		.2byte	0x15c
 2972 1330 30       		.uleb128 0x30
 2973 1331 280B0000 		.4byte	0xb28
 2974 1335 02000000 		.4byte	.LBB174
 2975 1339 06000000 		.4byte	.LBE174-.LBB174
 2976 133d 0C       		.byte	0xc
 2977 133e BF01     		.2byte	0x1bf
 2978 1340 2E       		.uleb128 0x2e
 2979 1341 350B0000 		.4byte	0xb35
 2980 1345 20       		.byte	0x20
 2981 1346 00       		.byte	0
 2982 1347 00       		.byte	0
 2983 1348 00       		.byte	0
 2984 1349 00       		.byte	0
 2985 134a 38       		.uleb128 0x38
 2986 134b B80B0000 		.4byte	0xbb8
 2987 134f 08000000 		.4byte	.LBB176
 2988 1353 12000000 		.4byte	.LBE176-.LBB176
 2989 1357 01       		.byte	0x1
 2990 1358 1401     		.2byte	0x114
 2991 135a A2130000 		.4byte	0x13a2
 2992 135e 28       		.uleb128 0x28
 2993 135f E50B0000 		.4byte	0xbe5
 2994 1363 A6030000 		.4byte	.LLST27
 2995 1367 28       		.uleb128 0x28
 2996 1368 DA0B0000 		.4byte	0xbda
 2997 136c C7030000 		.4byte	.LLST28
 2998 1370 28       		.uleb128 0x28
 2999 1371 CF0B0000 		.4byte	0xbcf
 3000 1375 E8030000 		.4byte	.LLST29
 3001 1379 28       		.uleb128 0x28
 3002 137a C40B0000 		.4byte	0xbc4
 3003 137e 09040000 		.4byte	.LLST30
 3004 1382 31       		.uleb128 0x31
 3005 1383 08000000 		.4byte	.LBB177
 3006 1387 12000000 		.4byte	.LBE177-.LBB177
ARM GAS  /tmp/cc24WkUd.s 			page 54


 3007 138b 32       		.uleb128 0x32
 3008 138c F00B0000 		.4byte	0xbf0
 3009 1390 33       		.uleb128 0x33
 3010 1391 1A000000 		.4byte	.LVL28
 3011 1395 57150000 		.4byte	0x1557
 3012 1399 2A       		.uleb128 0x2a
 3013 139a 01       		.uleb128 0x1
 3014 139b 50       		.byte	0x50
 3015 139c 02       		.uleb128 0x2
 3016 139d 75       		.byte	0x75
 3017 139e 6C       		.sleb128 -20
 3018 139f 00       		.byte	0
 3019 13a0 00       		.byte	0
 3020 13a1 00       		.byte	0
 3021 13a2 38       		.uleb128 0x38
 3022 13a3 5F0C0000 		.4byte	0xc5f
 3023 13a7 1A000000 		.4byte	.LBB178
 3024 13ab 06000000 		.4byte	.LBE178-.LBB178
 3025 13af 01       		.byte	0x1
 3026 13b0 1501     		.2byte	0x115
 3027 13b2 CE130000 		.4byte	0x13ce
 3028 13b6 39       		.uleb128 0x39
 3029 13b7 700C0000 		.4byte	0xc70
 3030 13bb 01       		.uleb128 0x1
 3031 13bc 55       		.byte	0x55
 3032 13bd 33       		.uleb128 0x33
 3033 13be 20000000 		.4byte	.LVL29
 3034 13c2 85150000 		.4byte	0x1585
 3035 13c6 2A       		.uleb128 0x2a
 3036 13c7 01       		.uleb128 0x1
 3037 13c8 50       		.byte	0x50
 3038 13c9 02       		.uleb128 0x2
 3039 13ca 75       		.byte	0x75
 3040 13cb 00       		.sleb128 0
 3041 13cc 00       		.byte	0
 3042 13cd 00       		.byte	0
 3043 13ce 30       		.uleb128 0x30
 3044 13cf A60B0000 		.4byte	0xba6
 3045 13d3 20000000 		.4byte	.LBB180
 3046 13d7 06000000 		.4byte	.LBE180-.LBB180
 3047 13db 01       		.byte	0x1
 3048 13dc 1601     		.2byte	0x116
 3049 13de 30       		.uleb128 0x30
 3050 13df 5D0B0000 		.4byte	0xb5d
 3051 13e3 20000000 		.4byte	.LBB181
 3052 13e7 06000000 		.4byte	.LBE181-.LBB181
 3053 13eb 02       		.byte	0x2
 3054 13ec CA01     		.2byte	0x1ca
 3055 13ee 31       		.uleb128 0x31
 3056 13ef 20000000 		.4byte	.LBB182
 3057 13f3 06000000 		.4byte	.LBE182-.LBB182
 3058 13f7 32       		.uleb128 0x32
 3059 13f8 6A0B0000 		.4byte	0xb6a
 3060 13fc 30       		.uleb128 0x30
 3061 13fd 4B0B0000 		.4byte	0xb4b
 3062 1401 20000000 		.4byte	.LBB183
 3063 1405 06000000 		.4byte	.LBE183-.LBB183
ARM GAS  /tmp/cc24WkUd.s 			page 55


 3064 1409 13       		.byte	0x13
 3065 140a 7301     		.2byte	0x173
 3066 140c 30       		.uleb128 0x30
 3067 140d 280B0000 		.4byte	0xb28
 3068 1411 20000000 		.4byte	.LBB184
 3069 1415 06000000 		.4byte	.LBE184-.LBB184
 3070 1419 0C       		.byte	0xc
 3071 141a CD01     		.2byte	0x1cd
 3072 141c 2E       		.uleb128 0x2e
 3073 141d 350B0000 		.4byte	0xb35
 3074 1421 00       		.byte	0
 3075 1422 00       		.byte	0
 3076 1423 00       		.byte	0
 3077 1424 00       		.byte	0
 3078 1425 00       		.byte	0
 3079 1426 00       		.byte	0
 3080 1427 00       		.byte	0
 3081 1428 15       		.uleb128 0x15
 3082 1429 33080000 		.4byte	0x833
 3083 142d 38140000 		.4byte	0x1438
 3084 1431 16       		.uleb128 0x16
 3085 1432 6E040000 		.4byte	0x46e
 3086 1436 0A       		.byte	0xa
 3087 1437 00       		.byte	0
 3088 1438 14       		.uleb128 0x14
 3089 1439 28140000 		.4byte	0x1428
 3090 143d 3A       		.uleb128 0x3a
 3091 143e 8E030000 		.4byte	.LASF190
 3092 1442 01       		.byte	0x1
 3093 1443 2701     		.2byte	0x127
 3094 1445 00000000 		.4byte	.LFB269
 3095 1449 06000000 		.4byte	.LFE269-.LFB269
 3096 144d 01       		.uleb128 0x1
 3097 144e 9C       		.byte	0x9c
 3098 144f 9A140000 		.4byte	0x149a
 3099 1453 36       		.uleb128 0x36
 3100 1454 9A050000 		.4byte	.LASF176
 3101 1458 01       		.byte	0x1
 3102 1459 2701     		.2byte	0x127
 3103 145b 0B0A0000 		.4byte	0xa0b
 3104 145f 29040000 		.4byte	.LLST31
 3105 1463 2B       		.uleb128 0x2b
 3106 1464 DA000000 		.4byte	.LASF177
 3107 1468 AA140000 		.4byte	0x14aa
 3108 146c 30       		.uleb128 0x30
 3109 146d 7D0C0000 		.4byte	0xc7d
 3110 1471 00000000 		.4byte	.LBB186
 3111 1475 06000000 		.4byte	.LBE186-.LBB186
 3112 1479 01       		.byte	0x1
 3113 147a 2B01     		.2byte	0x12b
 3114 147c 28       		.uleb128 0x28
 3115 147d 8A0C0000 		.4byte	0xc8a
 3116 1481 57040000 		.4byte	.LLST32
 3117 1485 29       		.uleb128 0x29
 3118 1486 06000000 		.4byte	.LVL32
 3119 148a 90150000 		.4byte	0x1590
 3120 148e 2A       		.uleb128 0x2a
ARM GAS  /tmp/cc24WkUd.s 			page 56


 3121 148f 01       		.uleb128 0x1
 3122 1490 50       		.byte	0x50
 3123 1491 05       		.uleb128 0x5
 3124 1492 F3       		.byte	0xf3
 3125 1493 01       		.uleb128 0x1
 3126 1494 50       		.byte	0x50
 3127 1495 23       		.byte	0x23
 3128 1496 18       		.uleb128 0x18
 3129 1497 00       		.byte	0
 3130 1498 00       		.byte	0
 3131 1499 00       		.byte	0
 3132 149a 15       		.uleb128 0x15
 3133 149b 33080000 		.4byte	0x833
 3134 149f AA140000 		.4byte	0x14aa
 3135 14a3 16       		.uleb128 0x16
 3136 14a4 6E040000 		.4byte	0x46e
 3137 14a8 0D       		.byte	0xd
 3138 14a9 00       		.byte	0
 3139 14aa 14       		.uleb128 0x14
 3140 14ab 9A140000 		.4byte	0x149a
 3141 14af 3A       		.uleb128 0x3a
 3142 14b0 06070000 		.4byte	.LASF191
 3143 14b4 01       		.byte	0x1
 3144 14b5 3701     		.2byte	0x137
 3145 14b7 00000000 		.4byte	.LFB270
 3146 14bb 06000000 		.4byte	.LFE270-.LFB270
 3147 14bf 01       		.uleb128 0x1
 3148 14c0 9C       		.byte	0x9c
 3149 14c1 0C150000 		.4byte	0x150c
 3150 14c5 36       		.uleb128 0x36
 3151 14c6 9A050000 		.4byte	.LASF176
 3152 14ca 01       		.byte	0x1
 3153 14cb 3701     		.2byte	0x137
 3154 14cd 0B0A0000 		.4byte	0xa0b
 3155 14d1 87040000 		.4byte	.LLST33
 3156 14d5 2B       		.uleb128 0x2b
 3157 14d6 DA000000 		.4byte	.LASF177
 3158 14da 0C150000 		.4byte	0x150c
 3159 14de 30       		.uleb128 0x30
 3160 14df 960C0000 		.4byte	0xc96
 3161 14e3 00000000 		.4byte	.LBB188
 3162 14e7 06000000 		.4byte	.LBE188-.LBB188
 3163 14eb 01       		.byte	0x1
 3164 14ec 3B01     		.2byte	0x13b
 3165 14ee 28       		.uleb128 0x28
 3166 14ef A30C0000 		.4byte	0xca3
 3167 14f3 B5040000 		.4byte	.LLST34
 3168 14f7 29       		.uleb128 0x29
 3169 14f8 06000000 		.4byte	.LVL35
 3170 14fc 9B150000 		.4byte	0x159b
 3171 1500 2A       		.uleb128 0x2a
 3172 1501 01       		.uleb128 0x1
 3173 1502 50       		.byte	0x50
 3174 1503 05       		.uleb128 0x5
 3175 1504 F3       		.byte	0xf3
 3176 1505 01       		.uleb128 0x1
 3177 1506 50       		.byte	0x50
ARM GAS  /tmp/cc24WkUd.s 			page 57


 3178 1507 23       		.byte	0x23
 3179 1508 18       		.uleb128 0x18
 3180 1509 00       		.byte	0
 3181 150a 00       		.byte	0
 3182 150b 00       		.byte	0
 3183 150c 14       		.uleb128 0x14
 3184 150d 9A140000 		.4byte	0x149a
 3185 1511 3B       		.uleb128 0x3b
 3186 1512 BE050000 		.4byte	.LASF192
 3187 1516 15       		.byte	0x15
 3188 1517 A706     		.2byte	0x6a7
 3189 1519 EB000000 		.4byte	0xeb
 3190 151d 3C       		.uleb128 0x3c
 3191 151e 636800   		.ascii	"ch\000"
 3192 1521 09       		.byte	0x9
 3193 1522 0902     		.2byte	0x209
 3194 1524 07040000 		.4byte	0x407
 3195 1528 3D       		.uleb128 0x3d
 3196 1529 67070000 		.4byte	.LASF193
 3197 152d 67070000 		.4byte	.LASF193
 3198 1531 12       		.byte	0x12
 3199 1532 2202     		.2byte	0x222
 3200 1534 3E       		.uleb128 0x3e
 3201 1535 6A090000 		.4byte	.LASF194
 3202 1539 6A090000 		.4byte	.LASF194
 3203 153d 0F       		.byte	0xf
 3204 153e 67       		.byte	0x67
 3205 153f 3D       		.uleb128 0x3d
 3206 1540 32000000 		.4byte	.LASF195
 3207 1544 32000000 		.4byte	.LASF195
 3208 1548 12       		.byte	0x12
 3209 1549 2302     		.2byte	0x223
 3210 154b 3D       		.uleb128 0x3d
 3211 154c AA020000 		.4byte	.LASF196
 3212 1550 AA020000 		.4byte	.LASF196
 3213 1554 12       		.byte	0x12
 3214 1555 2402     		.2byte	0x224
 3215 1557 3D       		.uleb128 0x3d
 3216 1558 2D050000 		.4byte	.LASF197
 3217 155c 2D050000 		.4byte	.LASF197
 3218 1560 12       		.byte	0x12
 3219 1561 2502     		.2byte	0x225
 3220 1563 3E       		.uleb128 0x3e
 3221 1564 B6000000 		.4byte	.LASF198
 3222 1568 B6000000 		.4byte	.LASF198
 3223 156c 14       		.byte	0x14
 3224 156d 90       		.byte	0x90
 3225 156e 3D       		.uleb128 0x3d
 3226 156f 5D060000 		.4byte	.LASF199
 3227 1573 5D060000 		.4byte	.LASF199
 3228 1577 12       		.byte	0x12
 3229 1578 2602     		.2byte	0x226
 3230 157a 3E       		.uleb128 0x3e
 3231 157b A0000000 		.4byte	.LASF200
 3232 157f A0000000 		.4byte	.LASF200
 3233 1583 14       		.byte	0x14
 3234 1584 8F       		.byte	0x8f
ARM GAS  /tmp/cc24WkUd.s 			page 58


 3235 1585 3E       		.uleb128 0x3e
 3236 1586 67010000 		.4byte	.LASF201
 3237 158a 67010000 		.4byte	.LASF201
 3238 158e 14       		.byte	0x14
 3239 158f 8D       		.byte	0x8d
 3240 1590 3E       		.uleb128 0x3e
 3241 1591 88060000 		.4byte	.LASF202
 3242 1595 88060000 		.4byte	.LASF202
 3243 1599 0F       		.byte	0xf
 3244 159a 68       		.byte	0x68
 3245 159b 3E       		.uleb128 0x3e
 3246 159c 6B020000 		.4byte	.LASF203
 3247 15a0 6B020000 		.4byte	.LASF203
 3248 15a4 0F       		.byte	0xf
 3249 15a5 6C       		.byte	0x6c
 3250 15a6 00       		.byte	0
 3251              		.section	.debug_abbrev,"",%progbits
 3252              	.Ldebug_abbrev0:
 3253 0000 01       		.uleb128 0x1
 3254 0001 11       		.uleb128 0x11
 3255 0002 01       		.byte	0x1
 3256 0003 25       		.uleb128 0x25
 3257 0004 0E       		.uleb128 0xe
 3258 0005 13       		.uleb128 0x13
 3259 0006 0B       		.uleb128 0xb
 3260 0007 03       		.uleb128 0x3
 3261 0008 0E       		.uleb128 0xe
 3262 0009 1B       		.uleb128 0x1b
 3263 000a 0E       		.uleb128 0xe
 3264 000b 55       		.uleb128 0x55
 3265 000c 17       		.uleb128 0x17
 3266 000d 11       		.uleb128 0x11
 3267 000e 01       		.uleb128 0x1
 3268 000f 10       		.uleb128 0x10
 3269 0010 17       		.uleb128 0x17
 3270 0011 00       		.byte	0
 3271 0012 00       		.byte	0
 3272 0013 02       		.uleb128 0x2
 3273 0014 24       		.uleb128 0x24
 3274 0015 00       		.byte	0
 3275 0016 0B       		.uleb128 0xb
 3276 0017 0B       		.uleb128 0xb
 3277 0018 3E       		.uleb128 0x3e
 3278 0019 0B       		.uleb128 0xb
 3279 001a 03       		.uleb128 0x3
 3280 001b 08       		.uleb128 0x8
 3281 001c 00       		.byte	0
 3282 001d 00       		.byte	0
 3283 001e 03       		.uleb128 0x3
 3284 001f 16       		.uleb128 0x16
 3285 0020 00       		.byte	0
 3286 0021 03       		.uleb128 0x3
 3287 0022 0E       		.uleb128 0xe
 3288 0023 3A       		.uleb128 0x3a
 3289 0024 0B       		.uleb128 0xb
 3290 0025 3B       		.uleb128 0x3b
 3291 0026 0B       		.uleb128 0xb
ARM GAS  /tmp/cc24WkUd.s 			page 59


 3292 0027 49       		.uleb128 0x49
 3293 0028 13       		.uleb128 0x13
 3294 0029 00       		.byte	0
 3295 002a 00       		.byte	0
 3296 002b 04       		.uleb128 0x4
 3297 002c 24       		.uleb128 0x24
 3298 002d 00       		.byte	0
 3299 002e 0B       		.uleb128 0xb
 3300 002f 0B       		.uleb128 0xb
 3301 0030 3E       		.uleb128 0x3e
 3302 0031 0B       		.uleb128 0xb
 3303 0032 03       		.uleb128 0x3
 3304 0033 0E       		.uleb128 0xe
 3305 0034 00       		.byte	0
 3306 0035 00       		.byte	0
 3307 0036 05       		.uleb128 0x5
 3308 0037 35       		.uleb128 0x35
 3309 0038 00       		.byte	0
 3310 0039 49       		.uleb128 0x49
 3311 003a 13       		.uleb128 0x13
 3312 003b 00       		.byte	0
 3313 003c 00       		.byte	0
 3314 003d 06       		.uleb128 0x6
 3315 003e 13       		.uleb128 0x13
 3316 003f 01       		.byte	0x1
 3317 0040 03       		.uleb128 0x3
 3318 0041 0E       		.uleb128 0xe
 3319 0042 0B       		.uleb128 0xb
 3320 0043 0B       		.uleb128 0xb
 3321 0044 3A       		.uleb128 0x3a
 3322 0045 0B       		.uleb128 0xb
 3323 0046 3B       		.uleb128 0x3b
 3324 0047 0B       		.uleb128 0xb
 3325 0048 01       		.uleb128 0x1
 3326 0049 13       		.uleb128 0x13
 3327 004a 00       		.byte	0
 3328 004b 00       		.byte	0
 3329 004c 07       		.uleb128 0x7
 3330 004d 0D       		.uleb128 0xd
 3331 004e 00       		.byte	0
 3332 004f 03       		.uleb128 0x3
 3333 0050 0E       		.uleb128 0xe
 3334 0051 3A       		.uleb128 0x3a
 3335 0052 0B       		.uleb128 0xb
 3336 0053 3B       		.uleb128 0x3b
 3337 0054 0B       		.uleb128 0xb
 3338 0055 49       		.uleb128 0x49
 3339 0056 13       		.uleb128 0x13
 3340 0057 38       		.uleb128 0x38
 3341 0058 0B       		.uleb128 0xb
 3342 0059 00       		.byte	0
 3343 005a 00       		.byte	0
 3344 005b 08       		.uleb128 0x8
 3345 005c 0D       		.uleb128 0xd
 3346 005d 00       		.byte	0
 3347 005e 03       		.uleb128 0x3
 3348 005f 08       		.uleb128 0x8
ARM GAS  /tmp/cc24WkUd.s 			page 60


 3349 0060 3A       		.uleb128 0x3a
 3350 0061 0B       		.uleb128 0xb
 3351 0062 3B       		.uleb128 0x3b
 3352 0063 05       		.uleb128 0x5
 3353 0064 49       		.uleb128 0x49
 3354 0065 13       		.uleb128 0x13
 3355 0066 38       		.uleb128 0x38
 3356 0067 0B       		.uleb128 0xb
 3357 0068 00       		.byte	0
 3358 0069 00       		.byte	0
 3359 006a 09       		.uleb128 0x9
 3360 006b 0D       		.uleb128 0xd
 3361 006c 00       		.byte	0
 3362 006d 03       		.uleb128 0x3
 3363 006e 0E       		.uleb128 0xe
 3364 006f 3A       		.uleb128 0x3a
 3365 0070 0B       		.uleb128 0xb
 3366 0071 3B       		.uleb128 0x3b
 3367 0072 05       		.uleb128 0x5
 3368 0073 49       		.uleb128 0x49
 3369 0074 13       		.uleb128 0x13
 3370 0075 38       		.uleb128 0x38
 3371 0076 0B       		.uleb128 0xb
 3372 0077 00       		.byte	0
 3373 0078 00       		.byte	0
 3374 0079 0A       		.uleb128 0xa
 3375 007a 0F       		.uleb128 0xf
 3376 007b 00       		.byte	0
 3377 007c 0B       		.uleb128 0xb
 3378 007d 0B       		.uleb128 0xb
 3379 007e 49       		.uleb128 0x49
 3380 007f 13       		.uleb128 0x13
 3381 0080 00       		.byte	0
 3382 0081 00       		.byte	0
 3383 0082 0B       		.uleb128 0xb
 3384 0083 13       		.uleb128 0x13
 3385 0084 01       		.byte	0x1
 3386 0085 03       		.uleb128 0x3
 3387 0086 0E       		.uleb128 0xe
 3388 0087 0B       		.uleb128 0xb
 3389 0088 0B       		.uleb128 0xb
 3390 0089 3A       		.uleb128 0x3a
 3391 008a 0B       		.uleb128 0xb
 3392 008b 3B       		.uleb128 0x3b
 3393 008c 05       		.uleb128 0x5
 3394 008d 01       		.uleb128 0x1
 3395 008e 13       		.uleb128 0x13
 3396 008f 00       		.byte	0
 3397 0090 00       		.byte	0
 3398 0091 0C       		.uleb128 0xc
 3399 0092 15       		.uleb128 0x15
 3400 0093 01       		.byte	0x1
 3401 0094 27       		.uleb128 0x27
 3402 0095 19       		.uleb128 0x19
 3403 0096 01       		.uleb128 0x1
 3404 0097 13       		.uleb128 0x13
 3405 0098 00       		.byte	0
ARM GAS  /tmp/cc24WkUd.s 			page 61


 3406 0099 00       		.byte	0
 3407 009a 0D       		.uleb128 0xd
 3408 009b 05       		.uleb128 0x5
 3409 009c 00       		.byte	0
 3410 009d 49       		.uleb128 0x49
 3411 009e 13       		.uleb128 0x13
 3412 009f 00       		.byte	0
 3413 00a0 00       		.byte	0
 3414 00a1 0E       		.uleb128 0xe
 3415 00a2 0F       		.uleb128 0xf
 3416 00a3 00       		.byte	0
 3417 00a4 0B       		.uleb128 0xb
 3418 00a5 0B       		.uleb128 0xb
 3419 00a6 00       		.byte	0
 3420 00a7 00       		.byte	0
 3421 00a8 0F       		.uleb128 0xf
 3422 00a9 13       		.uleb128 0x13
 3423 00aa 01       		.byte	0x1
 3424 00ab 03       		.uleb128 0x3
 3425 00ac 0E       		.uleb128 0xe
 3426 00ad 0B       		.uleb128 0xb
 3427 00ae 05       		.uleb128 0x5
 3428 00af 3A       		.uleb128 0x3a
 3429 00b0 0B       		.uleb128 0xb
 3430 00b1 3B       		.uleb128 0x3b
 3431 00b2 05       		.uleb128 0x5
 3432 00b3 01       		.uleb128 0x1
 3433 00b4 13       		.uleb128 0x13
 3434 00b5 00       		.byte	0
 3435 00b6 00       		.byte	0
 3436 00b7 10       		.uleb128 0x10
 3437 00b8 13       		.uleb128 0x13
 3438 00b9 01       		.byte	0x1
 3439 00ba 0B       		.uleb128 0xb
 3440 00bb 0B       		.uleb128 0xb
 3441 00bc 3A       		.uleb128 0x3a
 3442 00bd 0B       		.uleb128 0xb
 3443 00be 3B       		.uleb128 0x3b
 3444 00bf 0B       		.uleb128 0xb
 3445 00c0 01       		.uleb128 0x1
 3446 00c1 13       		.uleb128 0x13
 3447 00c2 00       		.byte	0
 3448 00c3 00       		.byte	0
 3449 00c4 11       		.uleb128 0x11
 3450 00c5 0D       		.uleb128 0xd
 3451 00c6 00       		.byte	0
 3452 00c7 03       		.uleb128 0x3
 3453 00c8 08       		.uleb128 0x8
 3454 00c9 3A       		.uleb128 0x3a
 3455 00ca 0B       		.uleb128 0xb
 3456 00cb 3B       		.uleb128 0x3b
 3457 00cc 0B       		.uleb128 0xb
 3458 00cd 49       		.uleb128 0x49
 3459 00ce 13       		.uleb128 0x13
 3460 00cf 38       		.uleb128 0x38
 3461 00d0 0B       		.uleb128 0xb
 3462 00d1 00       		.byte	0
ARM GAS  /tmp/cc24WkUd.s 			page 62


 3463 00d2 00       		.byte	0
 3464 00d3 12       		.uleb128 0x12
 3465 00d4 17       		.uleb128 0x17
 3466 00d5 01       		.byte	0x1
 3467 00d6 0B       		.uleb128 0xb
 3468 00d7 0B       		.uleb128 0xb
 3469 00d8 3A       		.uleb128 0x3a
 3470 00d9 0B       		.uleb128 0xb
 3471 00da 3B       		.uleb128 0x3b
 3472 00db 0B       		.uleb128 0xb
 3473 00dc 01       		.uleb128 0x1
 3474 00dd 13       		.uleb128 0x13
 3475 00de 00       		.byte	0
 3476 00df 00       		.byte	0
 3477 00e0 13       		.uleb128 0x13
 3478 00e1 0D       		.uleb128 0xd
 3479 00e2 00       		.byte	0
 3480 00e3 03       		.uleb128 0x3
 3481 00e4 0E       		.uleb128 0xe
 3482 00e5 3A       		.uleb128 0x3a
 3483 00e6 0B       		.uleb128 0xb
 3484 00e7 3B       		.uleb128 0x3b
 3485 00e8 05       		.uleb128 0x5
 3486 00e9 49       		.uleb128 0x49
 3487 00ea 13       		.uleb128 0x13
 3488 00eb 00       		.byte	0
 3489 00ec 00       		.byte	0
 3490 00ed 14       		.uleb128 0x14
 3491 00ee 26       		.uleb128 0x26
 3492 00ef 00       		.byte	0
 3493 00f0 49       		.uleb128 0x49
 3494 00f1 13       		.uleb128 0x13
 3495 00f2 00       		.byte	0
 3496 00f3 00       		.byte	0
 3497 00f4 15       		.uleb128 0x15
 3498 00f5 01       		.uleb128 0x1
 3499 00f6 01       		.byte	0x1
 3500 00f7 49       		.uleb128 0x49
 3501 00f8 13       		.uleb128 0x13
 3502 00f9 01       		.uleb128 0x1
 3503 00fa 13       		.uleb128 0x13
 3504 00fb 00       		.byte	0
 3505 00fc 00       		.byte	0
 3506 00fd 16       		.uleb128 0x16
 3507 00fe 21       		.uleb128 0x21
 3508 00ff 00       		.byte	0
 3509 0100 49       		.uleb128 0x49
 3510 0101 13       		.uleb128 0x13
 3511 0102 2F       		.uleb128 0x2f
 3512 0103 0B       		.uleb128 0xb
 3513 0104 00       		.byte	0
 3514 0105 00       		.byte	0
 3515 0106 17       		.uleb128 0x17
 3516 0107 04       		.uleb128 0x4
 3517 0108 01       		.byte	0x1
 3518 0109 0B       		.uleb128 0xb
 3519 010a 0B       		.uleb128 0xb
ARM GAS  /tmp/cc24WkUd.s 			page 63


 3520 010b 49       		.uleb128 0x49
 3521 010c 13       		.uleb128 0x13
 3522 010d 3A       		.uleb128 0x3a
 3523 010e 0B       		.uleb128 0xb
 3524 010f 3B       		.uleb128 0x3b
 3525 0110 0B       		.uleb128 0xb
 3526 0111 01       		.uleb128 0x1
 3527 0112 13       		.uleb128 0x13
 3528 0113 00       		.byte	0
 3529 0114 00       		.byte	0
 3530 0115 18       		.uleb128 0x18
 3531 0116 28       		.uleb128 0x28
 3532 0117 00       		.byte	0
 3533 0118 03       		.uleb128 0x3
 3534 0119 0E       		.uleb128 0xe
 3535 011a 1C       		.uleb128 0x1c
 3536 011b 0B       		.uleb128 0xb
 3537 011c 00       		.byte	0
 3538 011d 00       		.byte	0
 3539 011e 19       		.uleb128 0x19
 3540 011f 16       		.uleb128 0x16
 3541 0120 00       		.byte	0
 3542 0121 03       		.uleb128 0x3
 3543 0122 0E       		.uleb128 0xe
 3544 0123 3A       		.uleb128 0x3a
 3545 0124 0B       		.uleb128 0xb
 3546 0125 3B       		.uleb128 0x3b
 3547 0126 05       		.uleb128 0x5
 3548 0127 49       		.uleb128 0x49
 3549 0128 13       		.uleb128 0x13
 3550 0129 00       		.byte	0
 3551 012a 00       		.byte	0
 3552 012b 1A       		.uleb128 0x1a
 3553 012c 04       		.uleb128 0x4
 3554 012d 01       		.byte	0x1
 3555 012e 0B       		.uleb128 0xb
 3556 012f 0B       		.uleb128 0xb
 3557 0130 49       		.uleb128 0x49
 3558 0131 13       		.uleb128 0x13
 3559 0132 3A       		.uleb128 0x3a
 3560 0133 0B       		.uleb128 0xb
 3561 0134 3B       		.uleb128 0x3b
 3562 0135 05       		.uleb128 0x5
 3563 0136 01       		.uleb128 0x1
 3564 0137 13       		.uleb128 0x13
 3565 0138 00       		.byte	0
 3566 0139 00       		.byte	0
 3567 013a 1B       		.uleb128 0x1b
 3568 013b 13       		.uleb128 0x13
 3569 013c 01       		.byte	0x1
 3570 013d 0B       		.uleb128 0xb
 3571 013e 0B       		.uleb128 0xb
 3572 013f 3A       		.uleb128 0x3a
 3573 0140 0B       		.uleb128 0xb
 3574 0141 3B       		.uleb128 0x3b
 3575 0142 05       		.uleb128 0x5
 3576 0143 01       		.uleb128 0x1
ARM GAS  /tmp/cc24WkUd.s 			page 64


 3577 0144 13       		.uleb128 0x13
 3578 0145 00       		.byte	0
 3579 0146 00       		.byte	0
 3580 0147 1C       		.uleb128 0x1c
 3581 0148 2E       		.uleb128 0x2e
 3582 0149 01       		.byte	0x1
 3583 014a 03       		.uleb128 0x3
 3584 014b 0E       		.uleb128 0xe
 3585 014c 3A       		.uleb128 0x3a
 3586 014d 0B       		.uleb128 0xb
 3587 014e 3B       		.uleb128 0x3b
 3588 014f 05       		.uleb128 0x5
 3589 0150 27       		.uleb128 0x27
 3590 0151 19       		.uleb128 0x19
 3591 0152 20       		.uleb128 0x20
 3592 0153 0B       		.uleb128 0xb
 3593 0154 01       		.uleb128 0x1
 3594 0155 13       		.uleb128 0x13
 3595 0156 00       		.byte	0
 3596 0157 00       		.byte	0
 3597 0158 1D       		.uleb128 0x1d
 3598 0159 05       		.uleb128 0x5
 3599 015a 00       		.byte	0
 3600 015b 03       		.uleb128 0x3
 3601 015c 0E       		.uleb128 0xe
 3602 015d 3A       		.uleb128 0x3a
 3603 015e 0B       		.uleb128 0xb
 3604 015f 3B       		.uleb128 0x3b
 3605 0160 05       		.uleb128 0x5
 3606 0161 49       		.uleb128 0x49
 3607 0162 13       		.uleb128 0x13
 3608 0163 00       		.byte	0
 3609 0164 00       		.byte	0
 3610 0165 1E       		.uleb128 0x1e
 3611 0166 2E       		.uleb128 0x2e
 3612 0167 00       		.byte	0
 3613 0168 03       		.uleb128 0x3
 3614 0169 0E       		.uleb128 0xe
 3615 016a 3A       		.uleb128 0x3a
 3616 016b 0B       		.uleb128 0xb
 3617 016c 3B       		.uleb128 0x3b
 3618 016d 05       		.uleb128 0x5
 3619 016e 27       		.uleb128 0x27
 3620 016f 19       		.uleb128 0x19
 3621 0170 20       		.uleb128 0x20
 3622 0171 0B       		.uleb128 0xb
 3623 0172 00       		.byte	0
 3624 0173 00       		.byte	0
 3625 0174 1F       		.uleb128 0x1f
 3626 0175 34       		.uleb128 0x34
 3627 0176 00       		.byte	0
 3628 0177 03       		.uleb128 0x3
 3629 0178 0E       		.uleb128 0xe
 3630 0179 49       		.uleb128 0x49
 3631 017a 13       		.uleb128 0x13
 3632 017b 34       		.uleb128 0x34
 3633 017c 19       		.uleb128 0x19
ARM GAS  /tmp/cc24WkUd.s 			page 65


 3634 017d 1C       		.uleb128 0x1c
 3635 017e 0E       		.uleb128 0xe
 3636 017f 00       		.byte	0
 3637 0180 00       		.byte	0
 3638 0181 20       		.uleb128 0x20
 3639 0182 05       		.uleb128 0x5
 3640 0183 00       		.byte	0
 3641 0184 03       		.uleb128 0x3
 3642 0185 08       		.uleb128 0x8
 3643 0186 3A       		.uleb128 0x3a
 3644 0187 0B       		.uleb128 0xb
 3645 0188 3B       		.uleb128 0x3b
 3646 0189 05       		.uleb128 0x5
 3647 018a 49       		.uleb128 0x49
 3648 018b 13       		.uleb128 0x13
 3649 018c 00       		.byte	0
 3650 018d 00       		.byte	0
 3651 018e 21       		.uleb128 0x21
 3652 018f 2E       		.uleb128 0x2e
 3653 0190 01       		.byte	0x1
 3654 0191 3F       		.uleb128 0x3f
 3655 0192 19       		.uleb128 0x19
 3656 0193 03       		.uleb128 0x3
 3657 0194 0E       		.uleb128 0xe
 3658 0195 3A       		.uleb128 0x3a
 3659 0196 0B       		.uleb128 0xb
 3660 0197 3B       		.uleb128 0x3b
 3661 0198 0B       		.uleb128 0xb
 3662 0199 27       		.uleb128 0x27
 3663 019a 19       		.uleb128 0x19
 3664 019b 20       		.uleb128 0x20
 3665 019c 0B       		.uleb128 0xb
 3666 019d 01       		.uleb128 0x1
 3667 019e 13       		.uleb128 0x13
 3668 019f 00       		.byte	0
 3669 01a0 00       		.byte	0
 3670 01a1 22       		.uleb128 0x22
 3671 01a2 05       		.uleb128 0x5
 3672 01a3 00       		.byte	0
 3673 01a4 03       		.uleb128 0x3
 3674 01a5 0E       		.uleb128 0xe
 3675 01a6 3A       		.uleb128 0x3a
 3676 01a7 0B       		.uleb128 0xb
 3677 01a8 3B       		.uleb128 0x3b
 3678 01a9 0B       		.uleb128 0xb
 3679 01aa 49       		.uleb128 0x49
 3680 01ab 13       		.uleb128 0x13
 3681 01ac 00       		.byte	0
 3682 01ad 00       		.byte	0
 3683 01ae 23       		.uleb128 0x23
 3684 01af 2E       		.uleb128 0x2e
 3685 01b0 01       		.byte	0x1
 3686 01b1 03       		.uleb128 0x3
 3687 01b2 0E       		.uleb128 0xe
 3688 01b3 3A       		.uleb128 0x3a
 3689 01b4 0B       		.uleb128 0xb
 3690 01b5 3B       		.uleb128 0x3b
ARM GAS  /tmp/cc24WkUd.s 			page 66


 3691 01b6 05       		.uleb128 0x5
 3692 01b7 27       		.uleb128 0x27
 3693 01b8 19       		.uleb128 0x19
 3694 01b9 49       		.uleb128 0x49
 3695 01ba 13       		.uleb128 0x13
 3696 01bb 20       		.uleb128 0x20
 3697 01bc 0B       		.uleb128 0xb
 3698 01bd 01       		.uleb128 0x1
 3699 01be 13       		.uleb128 0x13
 3700 01bf 00       		.byte	0
 3701 01c0 00       		.byte	0
 3702 01c1 24       		.uleb128 0x24
 3703 01c2 2E       		.uleb128 0x2e
 3704 01c3 01       		.byte	0x1
 3705 01c4 3F       		.uleb128 0x3f
 3706 01c5 19       		.uleb128 0x19
 3707 01c6 03       		.uleb128 0x3
 3708 01c7 0E       		.uleb128 0xe
 3709 01c8 3A       		.uleb128 0x3a
 3710 01c9 0B       		.uleb128 0xb
 3711 01ca 3B       		.uleb128 0x3b
 3712 01cb 0B       		.uleb128 0xb
 3713 01cc 27       		.uleb128 0x27
 3714 01cd 19       		.uleb128 0x19
 3715 01ce 11       		.uleb128 0x11
 3716 01cf 01       		.uleb128 0x1
 3717 01d0 12       		.uleb128 0x12
 3718 01d1 06       		.uleb128 0x6
 3719 01d2 40       		.uleb128 0x40
 3720 01d3 18       		.uleb128 0x18
 3721 01d4 9742     		.uleb128 0x2117
 3722 01d6 19       		.uleb128 0x19
 3723 01d7 01       		.uleb128 0x1
 3724 01d8 13       		.uleb128 0x13
 3725 01d9 00       		.byte	0
 3726 01da 00       		.byte	0
 3727 01db 25       		.uleb128 0x25
 3728 01dc 898201   		.uleb128 0x4109
 3729 01df 00       		.byte	0
 3730 01e0 11       		.uleb128 0x11
 3731 01e1 01       		.uleb128 0x1
 3732 01e2 9542     		.uleb128 0x2115
 3733 01e4 19       		.uleb128 0x19
 3734 01e5 31       		.uleb128 0x31
 3735 01e6 13       		.uleb128 0x13
 3736 01e7 00       		.byte	0
 3737 01e8 00       		.byte	0
 3738 01e9 26       		.uleb128 0x26
 3739 01ea 05       		.uleb128 0x5
 3740 01eb 00       		.byte	0
 3741 01ec 03       		.uleb128 0x3
 3742 01ed 0E       		.uleb128 0xe
 3743 01ee 3A       		.uleb128 0x3a
 3744 01ef 0B       		.uleb128 0xb
 3745 01f0 3B       		.uleb128 0x3b
 3746 01f1 0B       		.uleb128 0xb
 3747 01f2 49       		.uleb128 0x49
ARM GAS  /tmp/cc24WkUd.s 			page 67


 3748 01f3 13       		.uleb128 0x13
 3749 01f4 02       		.uleb128 0x2
 3750 01f5 17       		.uleb128 0x17
 3751 01f6 00       		.byte	0
 3752 01f7 00       		.byte	0
 3753 01f8 27       		.uleb128 0x27
 3754 01f9 1D       		.uleb128 0x1d
 3755 01fa 01       		.byte	0x1
 3756 01fb 31       		.uleb128 0x31
 3757 01fc 13       		.uleb128 0x13
 3758 01fd 11       		.uleb128 0x11
 3759 01fe 01       		.uleb128 0x1
 3760 01ff 12       		.uleb128 0x12
 3761 0200 06       		.uleb128 0x6
 3762 0201 58       		.uleb128 0x58
 3763 0202 0B       		.uleb128 0xb
 3764 0203 59       		.uleb128 0x59
 3765 0204 0B       		.uleb128 0xb
 3766 0205 00       		.byte	0
 3767 0206 00       		.byte	0
 3768 0207 28       		.uleb128 0x28
 3769 0208 05       		.uleb128 0x5
 3770 0209 00       		.byte	0
 3771 020a 31       		.uleb128 0x31
 3772 020b 13       		.uleb128 0x13
 3773 020c 02       		.uleb128 0x2
 3774 020d 17       		.uleb128 0x17
 3775 020e 00       		.byte	0
 3776 020f 00       		.byte	0
 3777 0210 29       		.uleb128 0x29
 3778 0211 898201   		.uleb128 0x4109
 3779 0214 01       		.byte	0x1
 3780 0215 11       		.uleb128 0x11
 3781 0216 01       		.uleb128 0x1
 3782 0217 9542     		.uleb128 0x2115
 3783 0219 19       		.uleb128 0x19
 3784 021a 31       		.uleb128 0x31
 3785 021b 13       		.uleb128 0x13
 3786 021c 00       		.byte	0
 3787 021d 00       		.byte	0
 3788 021e 2A       		.uleb128 0x2a
 3789 021f 8A8201   		.uleb128 0x410a
 3790 0222 00       		.byte	0
 3791 0223 02       		.uleb128 0x2
 3792 0224 18       		.uleb128 0x18
 3793 0225 9142     		.uleb128 0x2111
 3794 0227 18       		.uleb128 0x18
 3795 0228 00       		.byte	0
 3796 0229 00       		.byte	0
 3797 022a 2B       		.uleb128 0x2b
 3798 022b 34       		.uleb128 0x34
 3799 022c 00       		.byte	0
 3800 022d 03       		.uleb128 0x3
 3801 022e 0E       		.uleb128 0xe
 3802 022f 49       		.uleb128 0x49
 3803 0230 13       		.uleb128 0x13
 3804 0231 34       		.uleb128 0x34
ARM GAS  /tmp/cc24WkUd.s 			page 68


 3805 0232 19       		.uleb128 0x19
 3806 0233 00       		.byte	0
 3807 0234 00       		.byte	0
 3808 0235 2C       		.uleb128 0x2c
 3809 0236 1D       		.uleb128 0x1d
 3810 0237 01       		.byte	0x1
 3811 0238 31       		.uleb128 0x31
 3812 0239 13       		.uleb128 0x13
 3813 023a 52       		.uleb128 0x52
 3814 023b 01       		.uleb128 0x1
 3815 023c 55       		.uleb128 0x55
 3816 023d 17       		.uleb128 0x17
 3817 023e 58       		.uleb128 0x58
 3818 023f 0B       		.uleb128 0xb
 3819 0240 59       		.uleb128 0x59
 3820 0241 0B       		.uleb128 0xb
 3821 0242 01       		.uleb128 0x1
 3822 0243 13       		.uleb128 0x13
 3823 0244 00       		.byte	0
 3824 0245 00       		.byte	0
 3825 0246 2D       		.uleb128 0x2d
 3826 0247 1D       		.uleb128 0x1d
 3827 0248 01       		.byte	0x1
 3828 0249 31       		.uleb128 0x31
 3829 024a 13       		.uleb128 0x13
 3830 024b 52       		.uleb128 0x52
 3831 024c 01       		.uleb128 0x1
 3832 024d 55       		.uleb128 0x55
 3833 024e 17       		.uleb128 0x17
 3834 024f 58       		.uleb128 0x58
 3835 0250 0B       		.uleb128 0xb
 3836 0251 59       		.uleb128 0x59
 3837 0252 05       		.uleb128 0x5
 3838 0253 00       		.byte	0
 3839 0254 00       		.byte	0
 3840 0255 2E       		.uleb128 0x2e
 3841 0256 05       		.uleb128 0x5
 3842 0257 00       		.byte	0
 3843 0258 31       		.uleb128 0x31
 3844 0259 13       		.uleb128 0x13
 3845 025a 1C       		.uleb128 0x1c
 3846 025b 0B       		.uleb128 0xb
 3847 025c 00       		.byte	0
 3848 025d 00       		.byte	0
 3849 025e 2F       		.uleb128 0x2f
 3850 025f 1D       		.uleb128 0x1d
 3851 0260 01       		.byte	0x1
 3852 0261 31       		.uleb128 0x31
 3853 0262 13       		.uleb128 0x13
 3854 0263 11       		.uleb128 0x11
 3855 0264 01       		.uleb128 0x1
 3856 0265 12       		.uleb128 0x12
 3857 0266 06       		.uleb128 0x6
 3858 0267 58       		.uleb128 0x58
 3859 0268 0B       		.uleb128 0xb
 3860 0269 59       		.uleb128 0x59
 3861 026a 0B       		.uleb128 0xb
ARM GAS  /tmp/cc24WkUd.s 			page 69


 3862 026b 01       		.uleb128 0x1
 3863 026c 13       		.uleb128 0x13
 3864 026d 00       		.byte	0
 3865 026e 00       		.byte	0
 3866 026f 30       		.uleb128 0x30
 3867 0270 1D       		.uleb128 0x1d
 3868 0271 01       		.byte	0x1
 3869 0272 31       		.uleb128 0x31
 3870 0273 13       		.uleb128 0x13
 3871 0274 11       		.uleb128 0x11
 3872 0275 01       		.uleb128 0x1
 3873 0276 12       		.uleb128 0x12
 3874 0277 06       		.uleb128 0x6
 3875 0278 58       		.uleb128 0x58
 3876 0279 0B       		.uleb128 0xb
 3877 027a 59       		.uleb128 0x59
 3878 027b 05       		.uleb128 0x5
 3879 027c 00       		.byte	0
 3880 027d 00       		.byte	0
 3881 027e 31       		.uleb128 0x31
 3882 027f 0B       		.uleb128 0xb
 3883 0280 01       		.byte	0x1
 3884 0281 11       		.uleb128 0x11
 3885 0282 01       		.uleb128 0x1
 3886 0283 12       		.uleb128 0x12
 3887 0284 06       		.uleb128 0x6
 3888 0285 00       		.byte	0
 3889 0286 00       		.byte	0
 3890 0287 32       		.uleb128 0x32
 3891 0288 34       		.uleb128 0x34
 3892 0289 00       		.byte	0
 3893 028a 31       		.uleb128 0x31
 3894 028b 13       		.uleb128 0x13
 3895 028c 00       		.byte	0
 3896 028d 00       		.byte	0
 3897 028e 33       		.uleb128 0x33
 3898 028f 898201   		.uleb128 0x4109
 3899 0292 01       		.byte	0x1
 3900 0293 11       		.uleb128 0x11
 3901 0294 01       		.uleb128 0x1
 3902 0295 31       		.uleb128 0x31
 3903 0296 13       		.uleb128 0x13
 3904 0297 00       		.byte	0
 3905 0298 00       		.byte	0
 3906 0299 34       		.uleb128 0x34
 3907 029a 2E       		.uleb128 0x2e
 3908 029b 01       		.byte	0x1
 3909 029c 31       		.uleb128 0x31
 3910 029d 13       		.uleb128 0x13
 3911 029e 11       		.uleb128 0x11
 3912 029f 01       		.uleb128 0x1
 3913 02a0 12       		.uleb128 0x12
 3914 02a1 06       		.uleb128 0x6
 3915 02a2 40       		.uleb128 0x40
 3916 02a3 18       		.uleb128 0x18
 3917 02a4 9742     		.uleb128 0x2117
 3918 02a6 19       		.uleb128 0x19
ARM GAS  /tmp/cc24WkUd.s 			page 70


 3919 02a7 01       		.uleb128 0x1
 3920 02a8 13       		.uleb128 0x13
 3921 02a9 00       		.byte	0
 3922 02aa 00       		.byte	0
 3923 02ab 35       		.uleb128 0x35
 3924 02ac 2E       		.uleb128 0x2e
 3925 02ad 01       		.byte	0x1
 3926 02ae 3F       		.uleb128 0x3f
 3927 02af 19       		.uleb128 0x19
 3928 02b0 03       		.uleb128 0x3
 3929 02b1 0E       		.uleb128 0xe
 3930 02b2 3A       		.uleb128 0x3a
 3931 02b3 0B       		.uleb128 0xb
 3932 02b4 3B       		.uleb128 0x3b
 3933 02b5 05       		.uleb128 0x5
 3934 02b6 27       		.uleb128 0x27
 3935 02b7 19       		.uleb128 0x19
 3936 02b8 49       		.uleb128 0x49
 3937 02b9 13       		.uleb128 0x13
 3938 02ba 11       		.uleb128 0x11
 3939 02bb 01       		.uleb128 0x1
 3940 02bc 12       		.uleb128 0x12
 3941 02bd 06       		.uleb128 0x6
 3942 02be 40       		.uleb128 0x40
 3943 02bf 18       		.uleb128 0x18
 3944 02c0 9742     		.uleb128 0x2117
 3945 02c2 19       		.uleb128 0x19
 3946 02c3 01       		.uleb128 0x1
 3947 02c4 13       		.uleb128 0x13
 3948 02c5 00       		.byte	0
 3949 02c6 00       		.byte	0
 3950 02c7 36       		.uleb128 0x36
 3951 02c8 05       		.uleb128 0x5
 3952 02c9 00       		.byte	0
 3953 02ca 03       		.uleb128 0x3
 3954 02cb 0E       		.uleb128 0xe
 3955 02cc 3A       		.uleb128 0x3a
 3956 02cd 0B       		.uleb128 0xb
 3957 02ce 3B       		.uleb128 0x3b
 3958 02cf 05       		.uleb128 0x5
 3959 02d0 49       		.uleb128 0x49
 3960 02d1 13       		.uleb128 0x13
 3961 02d2 02       		.uleb128 0x2
 3962 02d3 17       		.uleb128 0x17
 3963 02d4 00       		.byte	0
 3964 02d5 00       		.byte	0
 3965 02d6 37       		.uleb128 0x37
 3966 02d7 34       		.uleb128 0x34
 3967 02d8 00       		.byte	0
 3968 02d9 03       		.uleb128 0x3
 3969 02da 08       		.uleb128 0x8
 3970 02db 3A       		.uleb128 0x3a
 3971 02dc 0B       		.uleb128 0xb
 3972 02dd 3B       		.uleb128 0x3b
 3973 02de 05       		.uleb128 0x5
 3974 02df 49       		.uleb128 0x49
 3975 02e0 13       		.uleb128 0x13
ARM GAS  /tmp/cc24WkUd.s 			page 71


 3976 02e1 00       		.byte	0
 3977 02e2 00       		.byte	0
 3978 02e3 38       		.uleb128 0x38
 3979 02e4 1D       		.uleb128 0x1d
 3980 02e5 01       		.byte	0x1
 3981 02e6 31       		.uleb128 0x31
 3982 02e7 13       		.uleb128 0x13
 3983 02e8 11       		.uleb128 0x11
 3984 02e9 01       		.uleb128 0x1
 3985 02ea 12       		.uleb128 0x12
 3986 02eb 06       		.uleb128 0x6
 3987 02ec 58       		.uleb128 0x58
 3988 02ed 0B       		.uleb128 0xb
 3989 02ee 59       		.uleb128 0x59
 3990 02ef 05       		.uleb128 0x5
 3991 02f0 01       		.uleb128 0x1
 3992 02f1 13       		.uleb128 0x13
 3993 02f2 00       		.byte	0
 3994 02f3 00       		.byte	0
 3995 02f4 39       		.uleb128 0x39
 3996 02f5 05       		.uleb128 0x5
 3997 02f6 00       		.byte	0
 3998 02f7 31       		.uleb128 0x31
 3999 02f8 13       		.uleb128 0x13
 4000 02f9 02       		.uleb128 0x2
 4001 02fa 18       		.uleb128 0x18
 4002 02fb 00       		.byte	0
 4003 02fc 00       		.byte	0
 4004 02fd 3A       		.uleb128 0x3a
 4005 02fe 2E       		.uleb128 0x2e
 4006 02ff 01       		.byte	0x1
 4007 0300 3F       		.uleb128 0x3f
 4008 0301 19       		.uleb128 0x19
 4009 0302 03       		.uleb128 0x3
 4010 0303 0E       		.uleb128 0xe
 4011 0304 3A       		.uleb128 0x3a
 4012 0305 0B       		.uleb128 0xb
 4013 0306 3B       		.uleb128 0x3b
 4014 0307 05       		.uleb128 0x5
 4015 0308 27       		.uleb128 0x27
 4016 0309 19       		.uleb128 0x19
 4017 030a 11       		.uleb128 0x11
 4018 030b 01       		.uleb128 0x1
 4019 030c 12       		.uleb128 0x12
 4020 030d 06       		.uleb128 0x6
 4021 030e 40       		.uleb128 0x40
 4022 030f 18       		.uleb128 0x18
 4023 0310 9742     		.uleb128 0x2117
 4024 0312 19       		.uleb128 0x19
 4025 0313 01       		.uleb128 0x1
 4026 0314 13       		.uleb128 0x13
 4027 0315 00       		.byte	0
 4028 0316 00       		.byte	0
 4029 0317 3B       		.uleb128 0x3b
 4030 0318 34       		.uleb128 0x34
 4031 0319 00       		.byte	0
 4032 031a 03       		.uleb128 0x3
ARM GAS  /tmp/cc24WkUd.s 			page 72


 4033 031b 0E       		.uleb128 0xe
 4034 031c 3A       		.uleb128 0x3a
 4035 031d 0B       		.uleb128 0xb
 4036 031e 3B       		.uleb128 0x3b
 4037 031f 05       		.uleb128 0x5
 4038 0320 49       		.uleb128 0x49
 4039 0321 13       		.uleb128 0x13
 4040 0322 3F       		.uleb128 0x3f
 4041 0323 19       		.uleb128 0x19
 4042 0324 3C       		.uleb128 0x3c
 4043 0325 19       		.uleb128 0x19
 4044 0326 00       		.byte	0
 4045 0327 00       		.byte	0
 4046 0328 3C       		.uleb128 0x3c
 4047 0329 34       		.uleb128 0x34
 4048 032a 00       		.byte	0
 4049 032b 03       		.uleb128 0x3
 4050 032c 08       		.uleb128 0x8
 4051 032d 3A       		.uleb128 0x3a
 4052 032e 0B       		.uleb128 0xb
 4053 032f 3B       		.uleb128 0x3b
 4054 0330 05       		.uleb128 0x5
 4055 0331 49       		.uleb128 0x49
 4056 0332 13       		.uleb128 0x13
 4057 0333 3F       		.uleb128 0x3f
 4058 0334 19       		.uleb128 0x19
 4059 0335 3C       		.uleb128 0x3c
 4060 0336 19       		.uleb128 0x19
 4061 0337 00       		.byte	0
 4062 0338 00       		.byte	0
 4063 0339 3D       		.uleb128 0x3d
 4064 033a 2E       		.uleb128 0x2e
 4065 033b 00       		.byte	0
 4066 033c 3F       		.uleb128 0x3f
 4067 033d 19       		.uleb128 0x19
 4068 033e 3C       		.uleb128 0x3c
 4069 033f 19       		.uleb128 0x19
 4070 0340 6E       		.uleb128 0x6e
 4071 0341 0E       		.uleb128 0xe
 4072 0342 03       		.uleb128 0x3
 4073 0343 0E       		.uleb128 0xe
 4074 0344 3A       		.uleb128 0x3a
 4075 0345 0B       		.uleb128 0xb
 4076 0346 3B       		.uleb128 0x3b
 4077 0347 05       		.uleb128 0x5
 4078 0348 00       		.byte	0
 4079 0349 00       		.byte	0
 4080 034a 3E       		.uleb128 0x3e
 4081 034b 2E       		.uleb128 0x2e
 4082 034c 00       		.byte	0
 4083 034d 3F       		.uleb128 0x3f
 4084 034e 19       		.uleb128 0x19
 4085 034f 3C       		.uleb128 0x3c
 4086 0350 19       		.uleb128 0x19
 4087 0351 6E       		.uleb128 0x6e
 4088 0352 0E       		.uleb128 0xe
 4089 0353 03       		.uleb128 0x3
ARM GAS  /tmp/cc24WkUd.s 			page 73


 4090 0354 0E       		.uleb128 0xe
 4091 0355 3A       		.uleb128 0x3a
 4092 0356 0B       		.uleb128 0xb
 4093 0357 3B       		.uleb128 0x3b
 4094 0358 0B       		.uleb128 0xb
 4095 0359 00       		.byte	0
 4096 035a 00       		.byte	0
 4097 035b 00       		.byte	0
 4098              		.section	.debug_loc,"",%progbits
 4099              	.Ldebug_loc0:
 4100              	.LLST0:
 4101 0000 00000000 		.4byte	.LVL1
 4102 0004 12000000 		.4byte	.LVL3
 4103 0008 0100     		.2byte	0x1
 4104 000a 50       		.byte	0x50
 4105 000b 12000000 		.4byte	.LVL3
 4106 000f 15000000 		.4byte	.LVL4-1
 4107 0013 0300     		.2byte	0x3
 4108 0015 70       		.byte	0x70
 4109 0016 68       		.sleb128 -24
 4110 0017 9F       		.byte	0x9f
 4111 0018 15000000 		.4byte	.LVL4-1
 4112 001c 16000000 		.4byte	.LFE261
 4113 0020 0400     		.2byte	0x4
 4114 0022 F3       		.byte	0xf3
 4115 0023 01       		.uleb128 0x1
 4116 0024 50       		.byte	0x50
 4117 0025 9F       		.byte	0x9f
 4118 0026 00000000 		.4byte	0
 4119 002a 00000000 		.4byte	0
 4120              	.LLST1:
 4121 002e 10000000 		.4byte	.LVL2
 4122 0032 12000000 		.4byte	.LVL3
 4123 0036 0300     		.2byte	0x3
 4124 0038 70       		.byte	0x70
 4125 0039 18       		.sleb128 24
 4126 003a 9F       		.byte	0x9f
 4127 003b 12000000 		.4byte	.LVL3
 4128 003f 15000000 		.4byte	.LVL4-1
 4129 0043 0100     		.2byte	0x1
 4130 0045 50       		.byte	0x50
 4131 0046 15000000 		.4byte	.LVL4-1
 4132 004a 16000000 		.4byte	.LFE261
 4133 004e 0600     		.2byte	0x6
 4134 0050 F3       		.byte	0xf3
 4135 0051 01       		.uleb128 0x1
 4136 0052 50       		.byte	0x50
 4137 0053 23       		.byte	0x23
 4138 0054 18       		.uleb128 0x18
 4139 0055 9F       		.byte	0x9f
 4140 0056 00000000 		.4byte	0
 4141 005a 00000000 		.4byte	0
 4142              	.LLST2:
 4143 005e 00000000 		.4byte	.LVL5
 4144 0062 0F000000 		.4byte	.LVL6-1
 4145 0066 0100     		.2byte	0x1
 4146 0068 50       		.byte	0x50
ARM GAS  /tmp/cc24WkUd.s 			page 74


 4147 0069 0F000000 		.4byte	.LVL6-1
 4148 006d 1C000000 		.4byte	.LFE262
 4149 0071 0100     		.2byte	0x1
 4150 0073 54       		.byte	0x54
 4151 0074 00000000 		.4byte	0
 4152 0078 00000000 		.4byte	0
 4153              	.LLST3:
 4154 007c 00000000 		.4byte	.LVL5
 4155 0080 0F000000 		.4byte	.LVL6-1
 4156 0084 0100     		.2byte	0x1
 4157 0086 51       		.byte	0x51
 4158 0087 0F000000 		.4byte	.LVL6-1
 4159 008b 1C000000 		.4byte	.LFE262
 4160 008f 0400     		.2byte	0x4
 4161 0091 F3       		.byte	0xf3
 4162 0092 01       		.uleb128 0x1
 4163 0093 51       		.byte	0x51
 4164 0094 9F       		.byte	0x9f
 4165 0095 00000000 		.4byte	0
 4166 0099 00000000 		.4byte	0
 4167              	.LLST4:
 4168 009d 00000000 		.4byte	.LVL8
 4169 00a1 0D000000 		.4byte	.LVL9-1
 4170 00a5 0100     		.2byte	0x1
 4171 00a7 50       		.byte	0x50
 4172 00a8 0D000000 		.4byte	.LVL9-1
 4173 00ac 1A000000 		.4byte	.LFE263
 4174 00b0 0100     		.2byte	0x1
 4175 00b2 54       		.byte	0x54
 4176 00b3 00000000 		.4byte	0
 4177 00b7 00000000 		.4byte	0
 4178              	.LLST5:
 4179 00bb 00000000 		.4byte	.LVL11
 4180 00bf 15000000 		.4byte	.LVL13-1
 4181 00c3 0100     		.2byte	0x1
 4182 00c5 50       		.byte	0x50
 4183 00c6 15000000 		.4byte	.LVL13-1
 4184 00ca 1E000000 		.4byte	.LFE264
 4185 00ce 0400     		.2byte	0x4
 4186 00d0 F3       		.byte	0xf3
 4187 00d1 01       		.uleb128 0x1
 4188 00d2 50       		.byte	0x50
 4189 00d3 9F       		.byte	0x9f
 4190 00d4 00000000 		.4byte	0
 4191 00d8 00000000 		.4byte	0
 4192              	.LLST6:
 4193 00dc 00000000 		.4byte	.LVL11
 4194 00e0 15000000 		.4byte	.LVL13-1
 4195 00e4 0100     		.2byte	0x1
 4196 00e6 51       		.byte	0x51
 4197 00e7 15000000 		.4byte	.LVL13-1
 4198 00eb 1E000000 		.4byte	.LFE264
 4199 00ef 0400     		.2byte	0x4
 4200 00f1 F3       		.byte	0xf3
 4201 00f2 01       		.uleb128 0x1
 4202 00f3 51       		.byte	0x51
 4203 00f4 9F       		.byte	0x9f
ARM GAS  /tmp/cc24WkUd.s 			page 75


 4204 00f5 00000000 		.4byte	0
 4205 00f9 00000000 		.4byte	0
 4206              	.LLST7:
 4207 00fd 00000000 		.4byte	.LVL11
 4208 0101 15000000 		.4byte	.LVL13-1
 4209 0105 0100     		.2byte	0x1
 4210 0107 52       		.byte	0x52
 4211 0108 15000000 		.4byte	.LVL13-1
 4212 010c 1E000000 		.4byte	.LFE264
 4213 0110 0400     		.2byte	0x4
 4214 0112 F3       		.byte	0xf3
 4215 0113 01       		.uleb128 0x1
 4216 0114 52       		.byte	0x52
 4217 0115 9F       		.byte	0x9f
 4218 0116 00000000 		.4byte	0
 4219 011a 00000000 		.4byte	0
 4220              	.LLST8:
 4221 011e 00000000 		.4byte	.LVL11
 4222 0122 15000000 		.4byte	.LVL13-1
 4223 0126 0100     		.2byte	0x1
 4224 0128 53       		.byte	0x53
 4225 0129 15000000 		.4byte	.LVL13-1
 4226 012d 1E000000 		.4byte	.LFE264
 4227 0131 0400     		.2byte	0x4
 4228 0133 F3       		.byte	0xf3
 4229 0134 01       		.uleb128 0x1
 4230 0135 53       		.byte	0x53
 4231 0136 9F       		.byte	0x9f
 4232 0137 00000000 		.4byte	0
 4233 013b 00000000 		.4byte	0
 4234              	.LLST9:
 4235 013f 08000000 		.4byte	.LVL12
 4236 0143 15000000 		.4byte	.LVL13-1
 4237 0147 0100     		.2byte	0x1
 4238 0149 53       		.byte	0x53
 4239 014a 15000000 		.4byte	.LVL13-1
 4240 014e 1E000000 		.4byte	.LFE264
 4241 0152 0400     		.2byte	0x4
 4242 0154 F3       		.byte	0xf3
 4243 0155 01       		.uleb128 0x1
 4244 0156 53       		.byte	0x53
 4245 0157 9F       		.byte	0x9f
 4246 0158 00000000 		.4byte	0
 4247 015c 00000000 		.4byte	0
 4248              	.LLST10:
 4249 0160 08000000 		.4byte	.LVL12
 4250 0164 15000000 		.4byte	.LVL13-1
 4251 0168 0100     		.2byte	0x1
 4252 016a 52       		.byte	0x52
 4253 016b 15000000 		.4byte	.LVL13-1
 4254 016f 1E000000 		.4byte	.LFE264
 4255 0173 0400     		.2byte	0x4
 4256 0175 F3       		.byte	0xf3
 4257 0176 01       		.uleb128 0x1
 4258 0177 52       		.byte	0x52
 4259 0178 9F       		.byte	0x9f
 4260 0179 00000000 		.4byte	0
ARM GAS  /tmp/cc24WkUd.s 			page 76


 4261 017d 00000000 		.4byte	0
 4262              	.LLST11:
 4263 0181 08000000 		.4byte	.LVL12
 4264 0185 15000000 		.4byte	.LVL13-1
 4265 0189 0100     		.2byte	0x1
 4266 018b 51       		.byte	0x51
 4267 018c 15000000 		.4byte	.LVL13-1
 4268 0190 1E000000 		.4byte	.LFE264
 4269 0194 0400     		.2byte	0x4
 4270 0196 F3       		.byte	0xf3
 4271 0197 01       		.uleb128 0x1
 4272 0198 51       		.byte	0x51
 4273 0199 9F       		.byte	0x9f
 4274 019a 00000000 		.4byte	0
 4275 019e 00000000 		.4byte	0
 4276              	.LLST12:
 4277 01a2 08000000 		.4byte	.LVL12
 4278 01a6 15000000 		.4byte	.LVL13-1
 4279 01aa 0100     		.2byte	0x1
 4280 01ac 50       		.byte	0x50
 4281 01ad 15000000 		.4byte	.LVL13-1
 4282 01b1 1E000000 		.4byte	.LFE264
 4283 01b5 0400     		.2byte	0x4
 4284 01b7 F3       		.byte	0xf3
 4285 01b8 01       		.uleb128 0x1
 4286 01b9 50       		.byte	0x50
 4287 01ba 9F       		.byte	0x9f
 4288 01bb 00000000 		.4byte	0
 4289 01bf 00000000 		.4byte	0
 4290              	.LLST13:
 4291 01c3 00000000 		.4byte	.LVL14
 4292 01c7 11000000 		.4byte	.LVL15-1
 4293 01cb 0100     		.2byte	0x1
 4294 01cd 50       		.byte	0x50
 4295 01ce 11000000 		.4byte	.LVL15-1
 4296 01d2 12000000 		.4byte	.LFE265
 4297 01d6 0400     		.2byte	0x4
 4298 01d8 F3       		.byte	0xf3
 4299 01d9 01       		.uleb128 0x1
 4300 01da 50       		.byte	0x50
 4301 01db 9F       		.byte	0x9f
 4302 01dc 00000000 		.4byte	0
 4303 01e0 00000000 		.4byte	0
 4304              	.LLST14:
 4305 01e4 00000000 		.4byte	.LVL14
 4306 01e8 11000000 		.4byte	.LVL15-1
 4307 01ec 0100     		.2byte	0x1
 4308 01ee 51       		.byte	0x51
 4309 01ef 11000000 		.4byte	.LVL15-1
 4310 01f3 12000000 		.4byte	.LFE265
 4311 01f7 0400     		.2byte	0x4
 4312 01f9 F3       		.byte	0xf3
 4313 01fa 01       		.uleb128 0x1
 4314 01fb 51       		.byte	0x51
 4315 01fc 9F       		.byte	0x9f
 4316 01fd 00000000 		.4byte	0
 4317 0201 00000000 		.4byte	0
ARM GAS  /tmp/cc24WkUd.s 			page 77


 4318              	.LLST15:
 4319 0205 00000000 		.4byte	.LVL14
 4320 0209 11000000 		.4byte	.LVL15-1
 4321 020d 0100     		.2byte	0x1
 4322 020f 52       		.byte	0x52
 4323 0210 11000000 		.4byte	.LVL15-1
 4324 0214 12000000 		.4byte	.LFE265
 4325 0218 0400     		.2byte	0x4
 4326 021a F3       		.byte	0xf3
 4327 021b 01       		.uleb128 0x1
 4328 021c 52       		.byte	0x52
 4329 021d 9F       		.byte	0x9f
 4330 021e 00000000 		.4byte	0
 4331 0222 00000000 		.4byte	0
 4332              	.LLST16:
 4333 0226 00000000 		.4byte	.LVL14
 4334 022a 11000000 		.4byte	.LVL15-1
 4335 022e 0100     		.2byte	0x1
 4336 0230 53       		.byte	0x53
 4337 0231 11000000 		.4byte	.LVL15-1
 4338 0235 12000000 		.4byte	.LFE265
 4339 0239 0400     		.2byte	0x4
 4340 023b F3       		.byte	0xf3
 4341 023c 01       		.uleb128 0x1
 4342 023d 53       		.byte	0x53
 4343 023e 9F       		.byte	0x9f
 4344 023f 00000000 		.4byte	0
 4345 0243 00000000 		.4byte	0
 4346              	.LLST17:
 4347 0247 00000000 		.4byte	.LVL16
 4348 024b 13000000 		.4byte	.LVL17-1
 4349 024f 0100     		.2byte	0x1
 4350 0251 50       		.byte	0x50
 4351 0252 13000000 		.4byte	.LVL17-1
 4352 0256 30000000 		.4byte	.LVL20
 4353 025a 0100     		.2byte	0x1
 4354 025c 54       		.byte	0x54
 4355 025d 30000000 		.4byte	.LVL20
 4356 0261 38000000 		.4byte	.LFE266
 4357 0265 0100     		.2byte	0x1
 4358 0267 50       		.byte	0x50
 4359 0268 00000000 		.4byte	0
 4360 026c 00000000 		.4byte	0
 4361              	.LLST18:
 4362 0270 24000000 		.4byte	.LVL18
 4363 0274 30000000 		.4byte	.LVL20
 4364 0278 0300     		.2byte	0x3
 4365 027a 09       		.byte	0x9
 4366 027b FE       		.byte	0xfe
 4367 027c 9F       		.byte	0x9f
 4368 027d 00000000 		.4byte	0
 4369 0281 00000000 		.4byte	0
 4370              	.LLST19:
 4371 0285 24000000 		.4byte	.LVL18
 4372 0289 30000000 		.4byte	.LVL20
 4373 028d 0300     		.2byte	0x3
 4374 028f 74       		.byte	0x74
ARM GAS  /tmp/cc24WkUd.s 			page 78


 4375 0290 14       		.sleb128 20
 4376 0291 9F       		.byte	0x9f
 4377 0292 00000000 		.4byte	0
 4378 0296 00000000 		.4byte	0
 4379              	.LLST20:
 4380 029a 00000000 		.4byte	.LVL21
 4381 029e 0D000000 		.4byte	.LVL22-1
 4382 02a2 0100     		.2byte	0x1
 4383 02a4 50       		.byte	0x50
 4384 02a5 0D000000 		.4byte	.LVL22-1
 4385 02a9 22000000 		.4byte	.LVL24
 4386 02ad 0100     		.2byte	0x1
 4387 02af 54       		.byte	0x54
 4388 02b0 22000000 		.4byte	.LVL24
 4389 02b4 25000000 		.4byte	.LVL25-1
 4390 02b8 0300     		.2byte	0x3
 4391 02ba 70       		.byte	0x70
 4392 02bb 6C       		.sleb128 -20
 4393 02bc 9F       		.byte	0x9f
 4394 02bd 25000000 		.4byte	.LVL25-1
 4395 02c1 26000000 		.4byte	.LVL25
 4396 02c5 0400     		.2byte	0x4
 4397 02c7 F3       		.byte	0xf3
 4398 02c8 01       		.uleb128 0x1
 4399 02c9 50       		.byte	0x50
 4400 02ca 9F       		.byte	0x9f
 4401 02cb 26000000 		.4byte	.LVL25
 4402 02cf 28000000 		.4byte	.LFE267
 4403 02d3 0100     		.2byte	0x1
 4404 02d5 50       		.byte	0x50
 4405 02d6 00000000 		.4byte	0
 4406 02da 00000000 		.4byte	0
 4407              	.LLST21:
 4408 02de 1E000000 		.4byte	.LVL23
 4409 02e2 26000000 		.4byte	.LVL25
 4410 02e6 0300     		.2byte	0x3
 4411 02e8 09       		.byte	0x9
 4412 02e9 FE       		.byte	0xfe
 4413 02ea 9F       		.byte	0x9f
 4414 02eb 00000000 		.4byte	0
 4415 02ef 00000000 		.4byte	0
 4416              	.LLST22:
 4417 02f3 1E000000 		.4byte	.LVL23
 4418 02f7 22000000 		.4byte	.LVL24
 4419 02fb 0300     		.2byte	0x3
 4420 02fd 74       		.byte	0x74
 4421 02fe 14       		.sleb128 20
 4422 02ff 9F       		.byte	0x9f
 4423 0300 22000000 		.4byte	.LVL24
 4424 0304 25000000 		.4byte	.LVL25-1
 4425 0308 0100     		.2byte	0x1
 4426 030a 50       		.byte	0x50
 4427 030b 25000000 		.4byte	.LVL25-1
 4428 030f 26000000 		.4byte	.LVL25
 4429 0313 0600     		.2byte	0x6
 4430 0315 F3       		.byte	0xf3
 4431 0316 01       		.uleb128 0x1
ARM GAS  /tmp/cc24WkUd.s 			page 79


 4432 0317 50       		.byte	0x50
 4433 0318 23       		.byte	0x23
 4434 0319 14       		.uleb128 0x14
 4435 031a 9F       		.byte	0x9f
 4436 031b 00000000 		.4byte	0
 4437 031f 00000000 		.4byte	0
 4438              	.LLST23:
 4439 0323 00000000 		.4byte	.LVL26
 4440 0327 19000000 		.4byte	.LVL28-1
 4441 032b 0100     		.2byte	0x1
 4442 032d 50       		.byte	0x50
 4443 032e 19000000 		.4byte	.LVL28-1
 4444 0332 28000000 		.4byte	.LFE268
 4445 0336 0300     		.2byte	0x3
 4446 0338 75       		.byte	0x75
 4447 0339 6C       		.sleb128 -20
 4448 033a 9F       		.byte	0x9f
 4449 033b 00000000 		.4byte	0
 4450 033f 00000000 		.4byte	0
 4451              	.LLST24:
 4452 0343 00000000 		.4byte	.LVL26
 4453 0347 19000000 		.4byte	.LVL28-1
 4454 034b 0100     		.2byte	0x1
 4455 034d 51       		.byte	0x51
 4456 034e 19000000 		.4byte	.LVL28-1
 4457 0352 28000000 		.4byte	.LFE268
 4458 0356 0400     		.2byte	0x4
 4459 0358 F3       		.byte	0xf3
 4460 0359 01       		.uleb128 0x1
 4461 035a 51       		.byte	0x51
 4462 035b 9F       		.byte	0x9f
 4463 035c 00000000 		.4byte	0
 4464 0360 00000000 		.4byte	0
 4465              	.LLST25:
 4466 0364 00000000 		.4byte	.LVL26
 4467 0368 19000000 		.4byte	.LVL28-1
 4468 036c 0100     		.2byte	0x1
 4469 036e 52       		.byte	0x52
 4470 036f 19000000 		.4byte	.LVL28-1
 4471 0373 28000000 		.4byte	.LFE268
 4472 0377 0400     		.2byte	0x4
 4473 0379 F3       		.byte	0xf3
 4474 037a 01       		.uleb128 0x1
 4475 037b 52       		.byte	0x52
 4476 037c 9F       		.byte	0x9f
 4477 037d 00000000 		.4byte	0
 4478 0381 00000000 		.4byte	0
 4479              	.LLST26:
 4480 0385 00000000 		.4byte	.LVL26
 4481 0389 19000000 		.4byte	.LVL28-1
 4482 038d 0100     		.2byte	0x1
 4483 038f 53       		.byte	0x53
 4484 0390 19000000 		.4byte	.LVL28-1
 4485 0394 28000000 		.4byte	.LFE268
 4486 0398 0400     		.2byte	0x4
 4487 039a F3       		.byte	0xf3
 4488 039b 01       		.uleb128 0x1
ARM GAS  /tmp/cc24WkUd.s 			page 80


 4489 039c 53       		.byte	0x53
 4490 039d 9F       		.byte	0x9f
 4491 039e 00000000 		.4byte	0
 4492 03a2 00000000 		.4byte	0
 4493              	.LLST27:
 4494 03a6 08000000 		.4byte	.LVL27
 4495 03aa 19000000 		.4byte	.LVL28-1
 4496 03ae 0100     		.2byte	0x1
 4497 03b0 53       		.byte	0x53
 4498 03b1 19000000 		.4byte	.LVL28-1
 4499 03b5 28000000 		.4byte	.LFE268
 4500 03b9 0400     		.2byte	0x4
 4501 03bb F3       		.byte	0xf3
 4502 03bc 01       		.uleb128 0x1
 4503 03bd 53       		.byte	0x53
 4504 03be 9F       		.byte	0x9f
 4505 03bf 00000000 		.4byte	0
 4506 03c3 00000000 		.4byte	0
 4507              	.LLST28:
 4508 03c7 08000000 		.4byte	.LVL27
 4509 03cb 19000000 		.4byte	.LVL28-1
 4510 03cf 0100     		.2byte	0x1
 4511 03d1 52       		.byte	0x52
 4512 03d2 19000000 		.4byte	.LVL28-1
 4513 03d6 28000000 		.4byte	.LFE268
 4514 03da 0400     		.2byte	0x4
 4515 03dc F3       		.byte	0xf3
 4516 03dd 01       		.uleb128 0x1
 4517 03de 52       		.byte	0x52
 4518 03df 9F       		.byte	0x9f
 4519 03e0 00000000 		.4byte	0
 4520 03e4 00000000 		.4byte	0
 4521              	.LLST29:
 4522 03e8 08000000 		.4byte	.LVL27
 4523 03ec 19000000 		.4byte	.LVL28-1
 4524 03f0 0100     		.2byte	0x1
 4525 03f2 51       		.byte	0x51
 4526 03f3 19000000 		.4byte	.LVL28-1
 4527 03f7 28000000 		.4byte	.LFE268
 4528 03fb 0400     		.2byte	0x4
 4529 03fd F3       		.byte	0xf3
 4530 03fe 01       		.uleb128 0x1
 4531 03ff 51       		.byte	0x51
 4532 0400 9F       		.byte	0x9f
 4533 0401 00000000 		.4byte	0
 4534 0405 00000000 		.4byte	0
 4535              	.LLST30:
 4536 0409 08000000 		.4byte	.LVL27
 4537 040d 19000000 		.4byte	.LVL28-1
 4538 0411 0100     		.2byte	0x1
 4539 0413 50       		.byte	0x50
 4540 0414 19000000 		.4byte	.LVL28-1
 4541 0418 28000000 		.4byte	.LFE268
 4542 041c 0300     		.2byte	0x3
 4543 041e 75       		.byte	0x75
 4544 041f 6C       		.sleb128 -20
 4545 0420 9F       		.byte	0x9f
ARM GAS  /tmp/cc24WkUd.s 			page 81


 4546 0421 00000000 		.4byte	0
 4547 0425 00000000 		.4byte	0
 4548              	.LLST31:
 4549 0429 00000000 		.4byte	.LVL30
 4550 042d 02000000 		.4byte	.LVL31
 4551 0431 0100     		.2byte	0x1
 4552 0433 50       		.byte	0x50
 4553 0434 02000000 		.4byte	.LVL31
 4554 0438 05000000 		.4byte	.LVL32-1
 4555 043c 0300     		.2byte	0x3
 4556 043e 70       		.byte	0x70
 4557 043f 68       		.sleb128 -24
 4558 0440 9F       		.byte	0x9f
 4559 0441 05000000 		.4byte	.LVL32-1
 4560 0445 06000000 		.4byte	.LFE269
 4561 0449 0400     		.2byte	0x4
 4562 044b F3       		.byte	0xf3
 4563 044c 01       		.uleb128 0x1
 4564 044d 50       		.byte	0x50
 4565 044e 9F       		.byte	0x9f
 4566 044f 00000000 		.4byte	0
 4567 0453 00000000 		.4byte	0
 4568              	.LLST32:
 4569 0457 00000000 		.4byte	.LVL30
 4570 045b 02000000 		.4byte	.LVL31
 4571 045f 0300     		.2byte	0x3
 4572 0461 70       		.byte	0x70
 4573 0462 18       		.sleb128 24
 4574 0463 9F       		.byte	0x9f
 4575 0464 02000000 		.4byte	.LVL31
 4576 0468 05000000 		.4byte	.LVL32-1
 4577 046c 0100     		.2byte	0x1
 4578 046e 50       		.byte	0x50
 4579 046f 05000000 		.4byte	.LVL32-1
 4580 0473 06000000 		.4byte	.LFE269
 4581 0477 0600     		.2byte	0x6
 4582 0479 F3       		.byte	0xf3
 4583 047a 01       		.uleb128 0x1
 4584 047b 50       		.byte	0x50
 4585 047c 23       		.byte	0x23
 4586 047d 18       		.uleb128 0x18
 4587 047e 9F       		.byte	0x9f
 4588 047f 00000000 		.4byte	0
 4589 0483 00000000 		.4byte	0
 4590              	.LLST33:
 4591 0487 00000000 		.4byte	.LVL33
 4592 048b 02000000 		.4byte	.LVL34
 4593 048f 0100     		.2byte	0x1
 4594 0491 50       		.byte	0x50
 4595 0492 02000000 		.4byte	.LVL34
 4596 0496 05000000 		.4byte	.LVL35-1
 4597 049a 0300     		.2byte	0x3
 4598 049c 70       		.byte	0x70
 4599 049d 68       		.sleb128 -24
 4600 049e 9F       		.byte	0x9f
 4601 049f 05000000 		.4byte	.LVL35-1
 4602 04a3 06000000 		.4byte	.LFE270
ARM GAS  /tmp/cc24WkUd.s 			page 82


 4603 04a7 0400     		.2byte	0x4
 4604 04a9 F3       		.byte	0xf3
 4605 04aa 01       		.uleb128 0x1
 4606 04ab 50       		.byte	0x50
 4607 04ac 9F       		.byte	0x9f
 4608 04ad 00000000 		.4byte	0
 4609 04b1 00000000 		.4byte	0
 4610              	.LLST34:
 4611 04b5 00000000 		.4byte	.LVL33
 4612 04b9 02000000 		.4byte	.LVL34
 4613 04bd 0300     		.2byte	0x3
 4614 04bf 70       		.byte	0x70
 4615 04c0 18       		.sleb128 24
 4616 04c1 9F       		.byte	0x9f
 4617 04c2 02000000 		.4byte	.LVL34
 4618 04c6 05000000 		.4byte	.LVL35-1
 4619 04ca 0100     		.2byte	0x1
 4620 04cc 50       		.byte	0x50
 4621 04cd 05000000 		.4byte	.LVL35-1
 4622 04d1 06000000 		.4byte	.LFE270
 4623 04d5 0600     		.2byte	0x6
 4624 04d7 F3       		.byte	0xf3
 4625 04d8 01       		.uleb128 0x1
 4626 04d9 50       		.byte	0x50
 4627 04da 23       		.byte	0x23
 4628 04db 18       		.uleb128 0x18
 4629 04dc 9F       		.byte	0x9f
 4630 04dd 00000000 		.4byte	0
 4631 04e1 00000000 		.4byte	0
 4632              		.section	.debug_aranges,"",%progbits
 4633 0000 6C000000 		.4byte	0x6c
 4634 0004 0200     		.2byte	0x2
 4635 0006 00000000 		.4byte	.Ldebug_info0
 4636 000a 04       		.byte	0x4
 4637 000b 00       		.byte	0
 4638 000c 0000     		.2byte	0
 4639 000e 0000     		.2byte	0
 4640 0010 00000000 		.4byte	.LFB260
 4641 0014 04000000 		.4byte	.LFE260-.LFB260
 4642 0018 00000000 		.4byte	.LFB261
 4643 001c 16000000 		.4byte	.LFE261-.LFB261
 4644 0020 00000000 		.4byte	.LFB262
 4645 0024 1C000000 		.4byte	.LFE262-.LFB262
 4646 0028 00000000 		.4byte	.LFB263
 4647 002c 1A000000 		.4byte	.LFE263-.LFB263
 4648 0030 00000000 		.4byte	.LFB264
 4649 0034 1E000000 		.4byte	.LFE264-.LFB264
 4650 0038 00000000 		.4byte	.LFB265
 4651 003c 12000000 		.4byte	.LFE265-.LFB265
 4652 0040 00000000 		.4byte	.LFB266
 4653 0044 38000000 		.4byte	.LFE266-.LFB266
 4654 0048 00000000 		.4byte	.LFB267
 4655 004c 28000000 		.4byte	.LFE267-.LFB267
 4656 0050 00000000 		.4byte	.LFB268
 4657 0054 28000000 		.4byte	.LFE268-.LFB268
 4658 0058 00000000 		.4byte	.LFB269
 4659 005c 06000000 		.4byte	.LFE269-.LFB269
ARM GAS  /tmp/cc24WkUd.s 			page 83


 4660 0060 00000000 		.4byte	.LFB270
 4661 0064 06000000 		.4byte	.LFE270-.LFB270
 4662 0068 00000000 		.4byte	0
 4663 006c 00000000 		.4byte	0
 4664              		.section	.debug_ranges,"",%progbits
 4665              	.Ldebug_ranges0:
 4666 0000 02000000 		.4byte	.LBB107
 4667 0004 04000000 		.4byte	.LBE107
 4668 0008 06000000 		.4byte	.LBB116
 4669 000c 0A000000 		.4byte	.LBE116
 4670 0010 00000000 		.4byte	0
 4671 0014 00000000 		.4byte	0
 4672 0018 02000000 		.4byte	.LBB123
 4673 001c 04000000 		.4byte	.LBE123
 4674 0020 06000000 		.4byte	.LBB132
 4675 0024 0A000000 		.4byte	.LBE132
 4676 0028 00000000 		.4byte	0
 4677 002c 00000000 		.4byte	0
 4678 0030 1C000000 		.4byte	.LBB157
 4679 0034 20000000 		.4byte	.LBE157
 4680 0038 24000000 		.4byte	.LBB160
 4681 003c 28000000 		.4byte	.LBE160
 4682 0040 00000000 		.4byte	0
 4683 0044 00000000 		.4byte	0
 4684 0048 16000000 		.4byte	.LBB167
 4685 004c 1A000000 		.4byte	.LBE167
 4686 0050 22000000 		.4byte	.LBB170
 4687 0054 28000000 		.4byte	.LBE170
 4688 0058 00000000 		.4byte	0
 4689 005c 00000000 		.4byte	0
 4690 0060 00000000 		.4byte	.LFB260
 4691 0064 04000000 		.4byte	.LFE260
 4692 0068 00000000 		.4byte	.LFB261
 4693 006c 16000000 		.4byte	.LFE261
 4694 0070 00000000 		.4byte	.LFB262
 4695 0074 1C000000 		.4byte	.LFE262
 4696 0078 00000000 		.4byte	.LFB263
 4697 007c 1A000000 		.4byte	.LFE263
 4698 0080 00000000 		.4byte	.LFB264
 4699 0084 1E000000 		.4byte	.LFE264
 4700 0088 00000000 		.4byte	.LFB265
 4701 008c 12000000 		.4byte	.LFE265
 4702 0090 00000000 		.4byte	.LFB266
 4703 0094 38000000 		.4byte	.LFE266
 4704 0098 00000000 		.4byte	.LFB267
 4705 009c 28000000 		.4byte	.LFE267
 4706 00a0 00000000 		.4byte	.LFB268
 4707 00a4 28000000 		.4byte	.LFE268
 4708 00a8 00000000 		.4byte	.LFB269
 4709 00ac 06000000 		.4byte	.LFE269
 4710 00b0 00000000 		.4byte	.LFB270
 4711 00b4 06000000 		.4byte	.LFE270
 4712 00b8 00000000 		.4byte	0
 4713 00bc 00000000 		.4byte	0
 4714              		.section	.debug_line,"",%progbits
 4715              	.Ldebug_line0:
 4716 0000 0C040000 		.section	.debug_str,"MS",%progbits,1
ARM GAS  /tmp/cc24WkUd.s 			page 84


 4716      02007002 
 4716      00000201 
 4716      FB0E0D00 
 4716      01010101 
 4717              	.LASF100:
 4718 0000 4D314152 		.ascii	"M1AR\000"
 4718      00
 4719              	.LASF129:
 4720 0005 73746D33 		.ascii	"stm32_dma_stream_t\000"
 4720      325F646D 
 4720      615F7374 
 4720      7265616D 
 4720      5F7400
 4721              	.LASF4:
 4722 0018 73697A65 		.ascii	"size_t\000"
 4722      5F7400
 4723              	.LASF161:
 4724 001f 73717231 		.ascii	"sqr1\000"
 4724      00
 4725              	.LASF162:
 4726 0024 73717232 		.ascii	"sqr2\000"
 4726      00
 4727              	.LASF82:
 4728 0029 73697A65 		.ascii	"sizetype\000"
 4728      74797065 
 4728      00
 4729              	.LASF195:
 4730 0032 6164635F 		.ascii	"adc_lld_start\000"
 4730      6C6C645F 
 4730      73746172 
 4730      7400
 4731              	.LASF112:
 4732 0040 77747365 		.ascii	"wtsemp\000"
 4732      6D7000
 4733              	.LASF29:
 4734 0047 73797374 		.ascii	"systime_t\000"
 4734      696D655F 
 4734      7400
 4735              	.LASF34:
 4736 0051 705F6374 		.ascii	"p_ctx\000"
 4736      7800
 4737              	.LASF25:
 4738 0057 74707269 		.ascii	"tprio_t\000"
 4738      6F5F7400 
 4739              	.LASF153:
 4740 005f 61646363 		.ascii	"adccallback_t\000"
 4740      616C6C62 
 4740      61636B5F 
 4740      7400
 4741              	.LASF89:
 4742 006d 53515231 		.ascii	"SQR1\000"
 4742      00
 4743              	.LASF90:
 4744 0072 53515232 		.ascii	"SQR2\000"
 4744      00
 4745              	.LASF91:
 4746 0077 53515233 		.ascii	"SQR3\000"
ARM GAS  /tmp/cc24WkUd.s 			page 85


 4746      00
 4747              	.LASF42:
 4748 007c 705F6D73 		.ascii	"p_msgqueue\000"
 4748      67717565 
 4748      756500
 4749              	.LASF58:
 4750 0087 725F6374 		.ascii	"r_ctx\000"
 4750      7800
 4751              	.LASF18:
 4752 008d 696E7433 		.ascii	"int32_t\000"
 4752      325F7400 
 4753              	.LASF137:
 4754 0095 61646373 		.ascii	"adcstate_t\000"
 4754      74617465 
 4754      5F7400
 4755              	.LASF200:
 4756 00a0 63685468 		.ascii	"chThdResumeI\000"
 4756      64526573 
 4756      756D6549 
 4756      00
 4757              	.LASF62:
 4758 00ad 76746675 		.ascii	"vtfunc_t\000"
 4758      6E635F74 
 4758      00
 4759              	.LASF198:
 4760 00b6 63685468 		.ascii	"chThdResumeS\000"
 4760      64526573 
 4760      756D6553 
 4760      00
 4761              	.LASF71:
 4762 00c3 63685F76 		.ascii	"ch_virtual_timers_list\000"
 4762      69727475 
 4762      616C5F74 
 4762      696D6572 
 4762      735F6C69 
 4763              	.LASF177:
 4764 00da 5F5F6675 		.ascii	"__func__\000"
 4764      6E635F5F 
 4764      00
 4765              	.LASF207:
 4766 00e3 6F73616C 		.ascii	"osalThreadSuspendS\000"
 4766      54687265 
 4766      61645375 
 4766      7370656E 
 4766      645300
 4767              	.LASF145:
 4768 00f6 636F6E66 		.ascii	"config\000"
 4768      696700
 4769              	.LASF144:
 4770 00fd 73746174 		.ascii	"state\000"
 4770      6500
 4771              	.LASF158:
 4772 0103 6572726F 		.ascii	"error_cb\000"
 4772      725F6362 
 4772      00
 4773              	.LASF174:
 4774 010c 6F73616C 		.ascii	"osalSysUnlock\000"
ARM GAS  /tmp/cc24WkUd.s 			page 86


 4774      53797355 
 4774      6E6C6F63 
 4774      6B00
 4775              	.LASF180:
 4776 011a 6F73616C 		.ascii	"osalThreadResumeI\000"
 4776      54687265 
 4776      61645265 
 4776      73756D65 
 4776      4900
 4777              	.LASF120:
 4778 012c 6D5F6F77 		.ascii	"m_owner\000"
 4778      6E657200 
 4779              	.LASF69:
 4780 0134 76745F70 		.ascii	"vt_par\000"
 4780      617200
 4781              	.LASF157:
 4782 013b 656E645F 		.ascii	"end_cb\000"
 4782      636200
 4783              	.LASF109:
 4784 0142 65786974 		.ascii	"exitcode\000"
 4784      636F6465 
 4784      00
 4785              	.LASF179:
 4786 014b 6F73616C 		.ascii	"osalThreadResumeS\000"
 4786      54687265 
 4786      61645265 
 4786      73756D65 
 4786      5300
 4787              	.LASF5:
 4788 015d 5F5F7569 		.ascii	"__uint8_t\000"
 4788      6E74385F 
 4788      7400
 4789              	.LASF201:
 4790 0167 63685468 		.ascii	"chThdSuspendS\000"
 4790      64537573 
 4790      70656E64 
 4790      5300
 4791              	.LASF35:
 4792 0175 705F6E65 		.ascii	"p_newer\000"
 4792      77657200 
 4793              	.LASF11:
 4794 017d 6C6F6E67 		.ascii	"long int\000"
 4794      20696E74 
 4794      00
 4795              	.LASF31:
 4796 0186 705F6E65 		.ascii	"p_next\000"
 4796      787400
 4797              	.LASF204:
 4798 018d 474E5520 		.ascii	"GNU C11 5.2.0 -mcpu=cortex-m4 -mfloat-abi=hard -mfp"
 4798      43313120 
 4798      352E322E 
 4798      30202D6D 
 4798      6370753D 
 4799 01c0 753D6670 		.ascii	"u=fpv4-sp-d16 -mno-thumb-interwork -mthumb -ggdb -O"
 4799      76342D73 
 4799      702D6431 
 4799      36202D6D 
ARM GAS  /tmp/cc24WkUd.s 			page 87


 4799      6E6F2D74 
 4800 01f3 32202D66 		.ascii	"2 -fomit-frame-pointer -falign-functions=16 -ffunct"
 4800      6F6D6974 
 4800      2D667261 
 4800      6D652D70 
 4800      6F696E74 
 4801 0226 696F6E2D 		.ascii	"ion-sections -fdata-sections -fno-common -fsingle-p"
 4801      73656374 
 4801      696F6E73 
 4801      202D6664 
 4801      6174612D 
 4802 0259 72656369 		.ascii	"recision-constant\000"
 4802      73696F6E 
 4802      2D636F6E 
 4802      7374616E 
 4802      7400
 4803              	.LASF203:
 4804 026b 63684D74 		.ascii	"chMtxUnlock\000"
 4804      78556E6C 
 4804      6F636B00 
 4805              	.LASF32:
 4806 0277 705F7072 		.ascii	"p_prev\000"
 4806      657600
 4807              	.LASF23:
 4808 027e 74737461 		.ascii	"tstate_t\000"
 4808      74655F74 
 4808      00
 4809              	.LASF52:
 4810 0287 74687265 		.ascii	"threads_queue_t\000"
 4810      6164735F 
 4810      71756575 
 4810      655F7400 
 4811              	.LASF45:
 4812 0297 705F6D74 		.ascii	"p_mtxlist\000"
 4812      786C6973 
 4812      7400
 4813              	.LASF102:
 4814 02a1 72656761 		.ascii	"regarm_t\000"
 4814      726D5F74 
 4814      00
 4815              	.LASF196:
 4816 02aa 6164635F 		.ascii	"adc_lld_stop\000"
 4816      6C6C645F 
 4816      73746F70 
 4816      00
 4817              	.LASF175:
 4818 02b7 6F73616C 		.ascii	"osalSysLock\000"
 4818      5379734C 
 4818      6F636B00 
 4819              	.LASF3:
 4820 02c3 7369676E 		.ascii	"signed char\000"
 4820      65642063 
 4820      68617200 
 4821              	.LASF114:
 4822 02cf 65776D61 		.ascii	"ewmask\000"
 4822      736B00
 4823              	.LASF16:
ARM GAS  /tmp/cc24WkUd.s 			page 88


 4824 02d6 75696E74 		.ascii	"uint8_t\000"
 4824      385F7400 
 4825              	.LASF27:
 4826 02de 6576656E 		.ascii	"eventmask_t\000"
 4826      746D6173 
 4826      6B5F7400 
 4827              	.LASF104:
 4828 02ea 636F6E74 		.ascii	"context\000"
 4828      65787400 
 4829              	.LASF111:
 4830 02f2 77747472 		.ascii	"wttrp\000"
 4830      7000
 4831              	.LASF6:
 4832 02f8 756E7369 		.ascii	"unsigned char\000"
 4832      676E6564 
 4832      20636861 
 4832      7200
 4833              	.LASF75:
 4834 0306 70616E69 		.ascii	"panic_msg\000"
 4834      635F6D73 
 4834      6700
 4835              	.LASF142:
 4836 0310 61646365 		.ascii	"adcerror_t\000"
 4836      72726F72 
 4836      5F7400
 4837              	.LASF59:
 4838 031b 725F6E65 		.ascii	"r_newer\000"
 4838      77657200 
 4839              	.LASF73:
 4840 0323 73797374 		.ascii	"system_debug_t\000"
 4840      656D5F64 
 4840      65627567 
 4840      5F7400
 4841              	.LASF133:
 4842 0332 4144435F 		.ascii	"ADC_READY\000"
 4842      52454144 
 4842      5900
 4843              	.LASF130:
 4844 033c 5F426F6F 		.ascii	"_Bool\000"
 4844      6C00
 4845              	.LASF173:
 4846 0342 76616C75 		.ascii	"value\000"
 4846      6500
 4847              	.LASF138:
 4848 0348 61646373 		.ascii	"adcsample_t\000"
 4848      616D706C 
 4848      655F7400 
 4849              	.LASF122:
 4850 0354 63686172 		.ascii	"char\000"
 4850      00
 4851              	.LASF126:
 4852 0359 69736869 		.ascii	"ishift\000"
 4852      667400
 4853              	.LASF33:
 4854 0360 705F7072 		.ascii	"p_prio\000"
 4854      696F00
 4855              	.LASF8:
ARM GAS  /tmp/cc24WkUd.s 			page 89


 4856 0367 5F5F7569 		.ascii	"__uint16_t\000"
 4856      6E743136 
 4856      5F7400
 4857              	.LASF110:
 4858 0372 77746F62 		.ascii	"wtobjp\000"
 4858      6A7000
 4859              	.LASF136:
 4860 0379 4144435F 		.ascii	"ADC_ERROR\000"
 4860      4552524F 
 4860      5200
 4861              	.LASF103:
 4862 0383 73746B61 		.ascii	"stkalign_t\000"
 4862      6C69676E 
 4862      5F7400
 4863              	.LASF190:
 4864 038e 61646341 		.ascii	"adcAcquireBus\000"
 4864      63717569 
 4864      72654275 
 4864      7300
 4865              	.LASF163:
 4866 039c 73717233 		.ascii	"sqr3\000"
 4866      00
 4867              	.LASF155:
 4868 03a1 63697263 		.ascii	"circular\000"
 4868      756C6172 
 4868      00
 4869              	.LASF178:
 4870 03aa 61646353 		.ascii	"adcStartConversionI\000"
 4870      74617274 
 4870      436F6E76 
 4870      65727369 
 4870      6F6E4900 
 4871              	.LASF140:
 4872 03be 4144435F 		.ascii	"ADC_ERR_DMAFAILURE\000"
 4872      4552525F 
 4872      444D4146 
 4872      41494C55 
 4872      524500
 4873              	.LASF124:
 4874 03d1 73747265 		.ascii	"stream\000"
 4874      616D00
 4875              	.LASF146:
 4876 03d8 73616D70 		.ascii	"samples\000"
 4876      6C657300 
 4877              	.LASF28:
 4878 03e0 636E745F 		.ascii	"cnt_t\000"
 4878      7400
 4879              	.LASF68:
 4880 03e6 76745F66 		.ascii	"vt_func\000"
 4880      756E6300 
 4881              	.LASF183:
 4882 03ee 61646349 		.ascii	"adcInit\000"
 4882      6E697400 
 4883              	.LASF97:
 4884 03f6 4144435F 		.ascii	"ADC_TypeDef\000"
 4884      54797065 
 4884      44656600 
ARM GAS  /tmp/cc24WkUd.s 			page 90


 4885              	.LASF206:
 4886 0402 2F686F6D 		.ascii	"/home/sssilvar/Documents/embebidos/ChibiOS/iflab/pr"
 4886      652F7373 
 4886      73696C76 
 4886      61722F44 
 4886      6F63756D 
 4887 0435 6F6A6563 		.ascii	"ojects/UART\000"
 4887      74732F55 
 4887      41525400 
 4888              	.LASF44:
 4889 0441 705F6570 		.ascii	"p_epending\000"
 4889      656E6469 
 4889      6E6700
 4890              	.LASF113:
 4891 044c 77746D74 		.ascii	"wtmtxp\000"
 4891      787000
 4892              	.LASF55:
 4893 0453 63685F72 		.ascii	"ch_ready_list\000"
 4893      65616479 
 4893      5F6C6973 
 4893      7400
 4894              	.LASF14:
 4895 0461 5F5F7569 		.ascii	"__uint64_t\000"
 4895      6E743634 
 4895      5F7400
 4896              	.LASF171:
 4897 046c 63685379 		.ascii	"chSysUnlock\000"
 4897      73556E6C 
 4897      6F636B00 
 4898              	.LASF13:
 4899 0478 6C6F6E67 		.ascii	"long unsigned int\000"
 4899      20756E73 
 4899      69676E65 
 4899      6420696E 
 4899      7400
 4900              	.LASF169:
 4901 048a 63685379 		.ascii	"chSysLock\000"
 4901      734C6F63 
 4901      6B00
 4902              	.LASF151:
 4903 0494 646D6173 		.ascii	"dmastp\000"
 4903      747000
 4904              	.LASF115:
 4905 049b 63685F73 		.ascii	"ch_semaphore\000"
 4905      656D6170 
 4905      686F7265 
 4905      00
 4906              	.LASF50:
 4907 04a8 63685F74 		.ascii	"ch_thread\000"
 4907      68726561 
 4907      6400
 4908              	.LASF70:
 4909 04b2 76697274 		.ascii	"virtual_timers_list_t\000"
 4909      75616C5F 
 4909      74696D65 
 4909      72735F6C 
 4909      6973745F 
ARM GAS  /tmp/cc24WkUd.s 			page 91


 4910              	.LASF83:
 4911 04c8 534D5052 		.ascii	"SMPR1\000"
 4911      3100
 4912              	.LASF84:
 4913 04ce 534D5052 		.ascii	"SMPR2\000"
 4913      3200
 4914              	.LASF63:
 4915 04d4 76697274 		.ascii	"virtual_timer_t\000"
 4915      75616C5F 
 4915      74696D65 
 4915      725F7400 
 4916              	.LASF54:
 4917 04e4 72656164 		.ascii	"ready_list_t\000"
 4917      795F6C69 
 4917      73745F74 
 4917      00
 4918              	.LASF164:
 4919 04f1 41444343 		.ascii	"ADCConversionGroup\000"
 4919      6F6E7665 
 4919      7273696F 
 4919      6E47726F 
 4919      757000
 4920              	.LASF135:
 4921 0504 4144435F 		.ascii	"ADC_COMPLETE\000"
 4921      434F4D50 
 4921      4C455445 
 4921      00
 4922              	.LASF51:
 4923 0511 63685F74 		.ascii	"ch_threads_list\000"
 4923      68726561 
 4923      64735F6C 
 4923      69737400 
 4924              	.LASF159:
 4925 0521 736D7072 		.ascii	"smpr1\000"
 4925      3100
 4926              	.LASF160:
 4927 0527 736D7072 		.ascii	"smpr2\000"
 4927      3200
 4928              	.LASF197:
 4929 052d 6164635F 		.ascii	"adc_lld_start_conversion\000"
 4929      6C6C645F 
 4929      73746172 
 4929      745F636F 
 4929      6E766572 
 4930              	.LASF139:
 4931 0546 6164635F 		.ascii	"adc_channels_num_t\000"
 4931      6368616E 
 4931      6E656C73 
 4931      5F6E756D 
 4931      5F7400
 4932              	.LASF182:
 4933 0559 6F73616C 		.ascii	"osalMutexUnlock\000"
 4933      4D757465 
 4933      78556E6C 
 4933      6F636B00 
 4934              	.LASF12:
 4935 0569 5F5F7569 		.ascii	"__uint32_t\000"
ARM GAS  /tmp/cc24WkUd.s 			page 92


 4935      6E743332 
 4935      5F7400
 4936              	.LASF1:
 4937 0574 6C6F6E67 		.ascii	"long long int\000"
 4937      206C6F6E 
 4937      6720696E 
 4937      7400
 4938              	.LASF119:
 4939 0582 6D5F7175 		.ascii	"m_queue\000"
 4939      65756500 
 4940              	.LASF65:
 4941 058a 76745F6E 		.ascii	"vt_next\000"
 4941      65787400 
 4942              	.LASF66:
 4943 0592 76745F70 		.ascii	"vt_prev\000"
 4943      72657600 
 4944              	.LASF176:
 4945 059a 61646370 		.ascii	"adcp\000"
 4945      00
 4946              	.LASF154:
 4947 059f 61646365 		.ascii	"adcerrorcallback_t\000"
 4947      72726F72 
 4947      63616C6C 
 4947      6261636B 
 4947      5F7400
 4948              	.LASF147:
 4949 05b2 64657074 		.ascii	"depth\000"
 4949      6800
 4950              	.LASF150:
 4951 05b8 6D757465 		.ascii	"mutex\000"
 4951      7800
 4952              	.LASF192:
 4953 05be 49544D5F 		.ascii	"ITM_RxBuffer\000"
 4953      52784275 
 4953      66666572 
 4953      00
 4954              	.LASF168:
 4955 05cb 706F7274 		.ascii	"port_unlock\000"
 4955      5F756E6C 
 4955      6F636B00 
 4956              	.LASF152:
 4957 05d7 646D616D 		.ascii	"dmamode\000"
 4957      6F646500 
 4958              	.LASF41:
 4959 05df 705F7761 		.ascii	"p_waiting\000"
 4959      6974696E 
 4959      6700
 4960              	.LASF181:
 4961 05e9 6F73616C 		.ascii	"osalMutexLock\000"
 4961      4D757465 
 4961      784C6F63 
 4961      6B00
 4962              	.LASF39:
 4963 05f7 705F666C 		.ascii	"p_flags\000"
 4963      61677300 
 4964              	.LASF81:
 4965 05ff 69646C65 		.ascii	"idle_thread_wa\000"
ARM GAS  /tmp/cc24WkUd.s 			page 93


 4965      5F746872 
 4965      6561645F 
 4965      776100
 4966              	.LASF0:
 4967 060e 756E7369 		.ascii	"unsigned int\000"
 4967      676E6564 
 4967      20696E74 
 4967      00
 4968              	.LASF21:
 4969 061b 7274636E 		.ascii	"rtcnt_t\000"
 4969      745F7400 
 4970              	.LASF47:
 4971 0623 705F6D70 		.ascii	"p_mpool\000"
 4971      6F6F6C00 
 4972              	.LASF40:
 4973 062b 705F7265 		.ascii	"p_refs\000"
 4973      667300
 4974              	.LASF156:
 4975 0632 6E756D5F 		.ascii	"num_channels\000"
 4975      6368616E 
 4975      6E656C73 
 4975      00
 4976              	.LASF106:
 4977 063f 6F666673 		.ascii	"offset\000"
 4977      657400
 4978              	.LASF205:
 4979 0646 2E2E2F2E 		.ascii	"../../os/hal/src/adc.c\000"
 4979      2E2F6F73 
 4979      2F68616C 
 4979      2F737263 
 4979      2F616463 
 4980              	.LASF199:
 4981 065d 6164635F 		.ascii	"adc_lld_stop_conversion\000"
 4981      6C6C645F 
 4981      73746F70 
 4981      5F636F6E 
 4981      76657273 
 4982              	.LASF101:
 4983 0675 444D415F 		.ascii	"DMA_Stream_TypeDef\000"
 4983      53747265 
 4983      616D5F54 
 4983      79706544 
 4983      656600
 4984              	.LASF202:
 4985 0688 63684D74 		.ascii	"chMtxLock\000"
 4985      784C6F63 
 4985      6B00
 4986              	.LASF30:
 4987 0692 74687265 		.ascii	"thread_t\000"
 4987      61645F74 
 4987      00
 4988              	.LASF2:
 4989 069b 6C6F6E67 		.ascii	"long double\000"
 4989      20646F75 
 4989      626C6500 
 4990              	.LASF48:
 4991 06a7 74687265 		.ascii	"thread_reference_t\000"
ARM GAS  /tmp/cc24WkUd.s 			page 94


 4991      61645F72 
 4991      65666572 
 4991      656E6365 
 4991      5F7400
 4992              	.LASF46:
 4993 06ba 705F7265 		.ascii	"p_realprio\000"
 4993      616C7072 
 4993      696F00
 4994              	.LASF105:
 4995 06c5 706F7274 		.ascii	"port_intctx\000"
 4995      5F696E74 
 4995      63747800 
 4996              	.LASF134:
 4997 06d1 4144435F 		.ascii	"ADC_ACTIVE\000"
 4997      41435449 
 4997      564500
 4998              	.LASF67:
 4999 06dc 76745F64 		.ascii	"vt_delta\000"
 4999      656C7461 
 4999      00
 5000              	.LASF64:
 5001 06e5 63685F76 		.ascii	"ch_virtual_timer\000"
 5001      69727475 
 5001      616C5F74 
 5001      696D6572 
 5001      00
 5002              	.LASF117:
 5003 06f6 735F636E 		.ascii	"s_cnt\000"
 5003      7400
 5004              	.LASF127:
 5005 06fc 73656C66 		.ascii	"selfindex\000"
 5005      696E6465 
 5005      7800
 5006              	.LASF191:
 5007 0706 61646352 		.ascii	"adcReleaseBus\000"
 5007      656C6561 
 5007      73654275 
 5007      7300
 5008              	.LASF15:
 5009 0714 6C6F6E67 		.ascii	"long long unsigned int\000"
 5009      206C6F6E 
 5009      6720756E 
 5009      7369676E 
 5009      65642069 
 5010              	.LASF36:
 5011 072b 705F6F6C 		.ascii	"p_older\000"
 5011      64657200 
 5012              	.LASF17:
 5013 0733 75696E74 		.ascii	"uint16_t\000"
 5013      31365F74 
 5013      00
 5014              	.LASF26:
 5015 073c 6D73675F 		.ascii	"msg_t\000"
 5015      7400
 5016              	.LASF53:
 5017 0742 63685F74 		.ascii	"ch_threads_queue\000"
 5017      68726561 
ARM GAS  /tmp/cc24WkUd.s 			page 95


 5017      64735F71 
 5017      75657565 
 5017      00
 5018              	.LASF61:
 5019 0753 725F6375 		.ascii	"r_current\000"
 5019      7272656E 
 5019      7400
 5020              	.LASF143:
 5021 075d 41444344 		.ascii	"ADCDriver\000"
 5021      72697665 
 5021      7200
 5022              	.LASF193:
 5023 0767 6164635F 		.ascii	"adc_lld_init\000"
 5023      6C6C645F 
 5023      696E6974 
 5023      00
 5024              	.LASF128:
 5025 0774 76656374 		.ascii	"vector\000"
 5025      6F7200
 5026              	.LASF189:
 5027 077b 61646353 		.ascii	"adcStopConversionI\000"
 5027      746F7043 
 5027      6F6E7665 
 5027      7273696F 
 5027      6E4900
 5028              	.LASF141:
 5029 078e 4144435F 		.ascii	"ADC_ERR_OVERFLOW\000"
 5029      4552525F 
 5029      4F564552 
 5029      464C4F57 
 5029      00
 5030              	.LASF80:
 5031 079f 6D61696E 		.ascii	"mainthread\000"
 5031      74687265 
 5031      616400
 5032              	.LASF170:
 5033 07aa 5F5F7365 		.ascii	"__set_BASEPRI\000"
 5033      745F4241 
 5033      53455052 
 5033      4900
 5034              	.LASF56:
 5035 07b8 725F7175 		.ascii	"r_queue\000"
 5035      65756500 
 5036              	.LASF78:
 5037 07c0 726C6973 		.ascii	"rlist\000"
 5037      7400
 5038              	.LASF22:
 5039 07c6 746D6F64 		.ascii	"tmode_t\000"
 5039      655F7400 
 5040              	.LASF165:
 5041 07ce 64756D6D 		.ascii	"dummy\000"
 5041      7900
 5042              	.LASF132:
 5043 07d4 4144435F 		.ascii	"ADC_STOP\000"
 5043      53544F50 
 5043      00
 5044              	.LASF148:
ARM GAS  /tmp/cc24WkUd.s 			page 96


 5045 07dd 67727070 		.ascii	"grpp\000"
 5045      00
 5046              	.LASF60:
 5047 07e2 725F6F6C 		.ascii	"r_older\000"
 5047      64657200 
 5048              	.LASF107:
 5049 07ea 746D5F63 		.ascii	"tm_calibration_t\000"
 5049      616C6962 
 5049      72617469 
 5049      6F6E5F74 
 5049      00
 5050              	.LASF149:
 5051 07fb 74687265 		.ascii	"thread\000"
 5051      616400
 5052              	.LASF99:
 5053 0802 4D304152 		.ascii	"M0AR\000"
 5053      00
 5054              	.LASF167:
 5055 0807 706F7274 		.ascii	"port_lock\000"
 5055      5F6C6F63 
 5055      6B00
 5056              	.LASF116:
 5057 0811 735F7175 		.ascii	"s_queue\000"
 5057      65756500 
 5058              	.LASF186:
 5059 0819 61646353 		.ascii	"adcStop\000"
 5059      746F7000 
 5060              	.LASF7:
 5061 0821 73686F72 		.ascii	"short int\000"
 5061      7420696E 
 5061      7400
 5062              	.LASF20:
 5063 082b 75696E74 		.ascii	"uint64_t\000"
 5063      36345F74 
 5063      00
 5064              	.LASF118:
 5065 0834 63685F6D 		.ascii	"ch_mutex\000"
 5065      75746578 
 5065      00
 5066              	.LASF85:
 5067 083d 4A4F4652 		.ascii	"JOFR1\000"
 5067      3100
 5068              	.LASF86:
 5069 0843 4A4F4652 		.ascii	"JOFR2\000"
 5069      3200
 5070              	.LASF87:
 5071 0849 4A4F4652 		.ascii	"JOFR3\000"
 5071      3300
 5072              	.LASF88:
 5073 084f 4A4F4652 		.ascii	"JOFR4\000"
 5073      3400
 5074              	.LASF57:
 5075 0855 725F7072 		.ascii	"r_prio\000"
 5075      696F00
 5076              	.LASF74:
 5077 085c 63685F73 		.ascii	"ch_system_debug\000"
 5077      79737465 
ARM GAS  /tmp/cc24WkUd.s 			page 97


 5077      6D5F6465 
 5077      62756700 
 5078              	.LASF184:
 5079 086c 6164634F 		.ascii	"adcObjectInit\000"
 5079      626A6563 
 5079      74496E69 
 5079      7400
 5080              	.LASF93:
 5081 087a 4A445231 		.ascii	"JDR1\000"
 5081      00
 5082              	.LASF94:
 5083 087f 4A445232 		.ascii	"JDR2\000"
 5083      00
 5084              	.LASF95:
 5085 0884 4A445233 		.ascii	"JDR3\000"
 5085      00
 5086              	.LASF96:
 5087 0889 4A445234 		.ascii	"JDR4\000"
 5087      00
 5088              	.LASF172:
 5089 088e 6F73616C 		.ascii	"osalMutexObjectInit\000"
 5089      4D757465 
 5089      784F626A 
 5089      65637449 
 5089      6E697400 
 5090              	.LASF92:
 5091 08a2 4A535152 		.ascii	"JSQR\000"
 5091      00
 5092              	.LASF79:
 5093 08a7 76746C69 		.ascii	"vtlist\000"
 5093      737400
 5094              	.LASF188:
 5095 08ae 61646353 		.ascii	"adcStopConversion\000"
 5095      746F7043 
 5095      6F6E7665 
 5095      7273696F 
 5095      6E00
 5096              	.LASF123:
 5097 08c0 6D757465 		.ascii	"mutex_t\000"
 5097      785F7400 
 5098              	.LASF24:
 5099 08c8 74726566 		.ascii	"trefs_t\000"
 5099      735F7400 
 5100              	.LASF208:
 5101 08d0 61646343 		.ascii	"adcConvert\000"
 5101      6F6E7665 
 5101      727400
 5102              	.LASF49:
 5103 08db 74687265 		.ascii	"threads_list_t\000"
 5103      6164735F 
 5103      6C697374 
 5103      5F7400
 5104              	.LASF77:
 5105 08ea 63685F73 		.ascii	"ch_system\000"
 5105      79737465 
 5105      6D00
 5106              	.LASF19:
ARM GAS  /tmp/cc24WkUd.s 			page 98


 5107 08f4 75696E74 		.ascii	"uint32_t\000"
 5107      33325F74 
 5107      00
 5108              	.LASF108:
 5109 08fd 7264796D 		.ascii	"rdymsg\000"
 5109      736700
 5110              	.LASF72:
 5111 0904 76745F6C 		.ascii	"vt_lasttime\000"
 5111      61737474 
 5111      696D6500 
 5112              	.LASF9:
 5113 0910 73686F72 		.ascii	"short unsigned int\000"
 5113      7420756E 
 5113      7369676E 
 5113      65642069 
 5113      6E7400
 5114              	.LASF131:
 5115 0923 4144435F 		.ascii	"ADC_UNINIT\000"
 5115      554E494E 
 5115      495400
 5116              	.LASF76:
 5117 092e 63685F73 		.ascii	"ch_system_t\000"
 5117      79737465 
 5117      6D5F7400 
 5118              	.LASF185:
 5119 093a 61646353 		.ascii	"adcStart\000"
 5119      74617274 
 5119      00
 5120              	.LASF187:
 5121 0943 61646353 		.ascii	"adcStartConversion\000"
 5121      74617274 
 5121      436F6E76 
 5121      65727369 
 5121      6F6E00
 5122              	.LASF10:
 5123 0956 5F5F696E 		.ascii	"__int32_t\000"
 5123      7433325F 
 5123      7400
 5124              	.LASF98:
 5125 0960 4E445452 		.ascii	"NDTR\000"
 5125      00
 5126              	.LASF125:
 5127 0965 69666372 		.ascii	"ifcr\000"
 5127      00
 5128              	.LASF194:
 5129 096a 63684D74 		.ascii	"chMtxObjectInit\000"
 5129      784F626A 
 5129      65637449 
 5129      6E697400 
 5130              	.LASF37:
 5131 097a 705F6E61 		.ascii	"p_name\000"
 5131      6D6500
 5132              	.LASF121:
 5133 0981 6D5F6E65 		.ascii	"m_next\000"
 5133      787400
 5134              	.LASF43:
 5135 0988 705F6D73 		.ascii	"p_msg\000"
ARM GAS  /tmp/cc24WkUd.s 			page 99


 5135      6700
 5136              	.LASF166:
 5137 098e 41444343 		.ascii	"ADCConfig\000"
 5137      6F6E6669 
 5137      6700
 5138              	.LASF38:
 5139 0998 705F7374 		.ascii	"p_state\000"
 5139      61746500 
 5140              		.ident	"GCC: (Fedora 5.2.0-3.fc22) 5.2.0"
ARM GAS  /tmp/cc24WkUd.s 			page 100


DEFINED SYMBOLS
                            *ABS*:0000000000000000 adc.c
     /tmp/cc24WkUd.s:22     .text.adcInit:0000000000000000 $t
     /tmp/cc24WkUd.s:28     .text.adcInit:0000000000000000 adcInit
     /tmp/cc24WkUd.s:43     .text.adcObjectInit:0000000000000000 $t
     /tmp/cc24WkUd.s:49     .text.adcObjectInit:0000000000000000 adcObjectInit
     /tmp/cc24WkUd.s:87     .text.adcStart:0000000000000000 $t
     /tmp/cc24WkUd.s:93     .text.adcStart:0000000000000000 adcStart
     /tmp/cc24WkUd.s:170    .text.adcStop:0000000000000000 $t
     /tmp/cc24WkUd.s:176    .text.adcStop:0000000000000000 adcStop
     /tmp/cc24WkUd.s:250    .text.adcStartConversion:0000000000000000 $t
     /tmp/cc24WkUd.s:256    .text.adcStartConversion:0000000000000000 adcStartConversion
     /tmp/cc24WkUd.s:330    .text.adcStartConversionI:0000000000000000 $t
     /tmp/cc24WkUd.s:336    .text.adcStartConversionI:0000000000000000 adcStartConversionI
     /tmp/cc24WkUd.s:369    .text.adcStopConversion:0000000000000000 $t
     /tmp/cc24WkUd.s:375    .text.adcStopConversion:0000000000000000 adcStopConversion
     /tmp/cc24WkUd.s:475    .text.adcStopConversionI:0000000000000000 $t
     /tmp/cc24WkUd.s:481    .text.adcStopConversionI:0000000000000000 adcStopConversionI
     /tmp/cc24WkUd.s:537    .text.adcConvert:0000000000000000 $t
     /tmp/cc24WkUd.s:543    .text.adcConvert:0000000000000000 adcConvert
     /tmp/cc24WkUd.s:627    .text.adcAcquireBus:0000000000000000 $t
     /tmp/cc24WkUd.s:633    .text.adcAcquireBus:0000000000000000 adcAcquireBus
     /tmp/cc24WkUd.s:654    .text.adcReleaseBus:0000000000000000 $t
     /tmp/cc24WkUd.s:660    .text.adcReleaseBus:0000000000000000 adcReleaseBus
                     .debug_frame:0000000000000010 $d

UNDEFINED SYMBOLS
adc_lld_init
chMtxObjectInit
adc_lld_start
adc_lld_stop
adc_lld_start_conversion
adc_lld_stop_conversion
chThdResumeS
chThdResumeI
chThdSuspendS
chMtxLock
chMtxUnlock
