ARM GAS  /tmp/ccB3q9ZZ.s 			page 1


   1              		.syntax unified
   2              		.cpu cortex-m4
   3              		.eabi_attribute 27, 1
   4              		.eabi_attribute 28, 1
   5              		.fpu fpv4-sp-d16
   6              		.eabi_attribute 20, 1
   7              		.eabi_attribute 21, 1
   8              		.eabi_attribute 23, 3
   9              		.eabi_attribute 24, 1
  10              		.eabi_attribute 25, 1
  11              		.eabi_attribute 26, 1
  12              		.eabi_attribute 30, 2
  13              		.eabi_attribute 34, 1
  14              		.eabi_attribute 18, 4
  15              		.thumb
  16              		.syntax unified
  17              		.file	"chcond.c"
  18              		.text
  19              	.Ltext0:
  20              		.cfi_sections	.debug_frame
  21              		.section	.text.chCondObjectInit,"ax",%progbits
  22              		.align	2
  23              		.p2align 4,,15
  24              		.global	chCondObjectInit
  25              		.thumb
  26              		.thumb_func
  27              		.type	chCondObjectInit, %function
  28              	chCondObjectInit:
  29              	.LFB229:
  30              		.file 1 "../../os/rt/src/chcond.c"
  31              		.loc 1 75 0
  32              		.cfi_startproc
  33              		@ args = 0, pretend = 0, frame = 0
  34              		@ frame_needed = 0, uses_anonymous_args = 0
  35              		@ link register save eliminated.
  36              	.LVL0:
  37              	.LBB89:
  38              	.LBB90:
  39              		.file 2 "../../os/rt/include/chschd.h"
  40              		.loc 2 604 0
  41 0000 0060     		str	r0, [r0]
  42              		.loc 2 605 0
  43 0002 4060     		str	r0, [r0, #4]
  44 0004 7047     		bx	lr
  45              	.LBE90:
  46              	.LBE89:
  47              		.cfi_endproc
  48              	.LFE229:
  49              		.size	chCondObjectInit, .-chCondObjectInit
  50 0006 00BFAFF3 		.section	.text.chCondSignal,"ax",%progbits
  50      0080AFF3 
  50      0080
  51              		.align	2
  52              		.p2align 4,,15
  53              		.global	chCondSignal
  54              		.thumb
  55              		.thumb_func
ARM GAS  /tmp/ccB3q9ZZ.s 			page 2


  56              		.type	chCondSignal, %function
  57              	chCondSignal:
  58              	.LFB230:
  59              		.loc 1 89 0
  60              		.cfi_startproc
  61              		@ args = 0, pretend = 0, frame = 0
  62              		@ frame_needed = 0, uses_anonymous_args = 0
  63              	.LVL1:
  64 0000 08B5     		push	{r3, lr}
  65              		.cfi_def_cfa_offset 8
  66              		.cfi_offset 3, -8
  67              		.cfi_offset 14, -4
  68              	.LBB91:
  69              	.LBB92:
  70              	.LBB93:
  71              	.LBB94:
  72              		.file 3 "../../os/ext/CMSIS/include/core_cmFunc.h"
  73              		.loc 3 546 0
  74 0002 2023     		movs	r3, #32
  75              		.syntax unified
  76              	@ 546 "../../os/ext/CMSIS/include/core_cmFunc.h" 1
  77 0004 83F31188 		MSR basepri, r3
  78              	@ 0 "" 2
  79              	.LVL2:
  80              		.thumb
  81              		.syntax unified
  82              	.LBE94:
  83              	.LBE93:
  84              	.LBE92:
  85              	.LBE91:
  86              	.LBB95:
  87              	.LBB96:
  88              		.loc 2 631 0
  89 0008 0268     		ldr	r2, [r0]
  90              	.LBE96:
  91              	.LBE95:
  92              		.loc 1 94 0
  93 000a 9042     		cmp	r0, r2
  94 000c 07D0     		beq	.L3
  95              	.LBB97:
  96              	.LBB98:
  97              		.loc 2 674 0
  98 000e 1168     		ldr	r1, [r2]
  99 0010 0160     		str	r1, [r0]
 100 0012 0346     		mov	r3, r0
 101              	.LVL3:
 102              		.loc 2 675 0
 103 0014 4B60     		str	r3, [r1, #4]
 104              	.LBE98:
 105              	.LBE97:
 106              		.loc 1 95 0
 107 0016 1046     		mov	r0, r2
 108              	.LVL4:
 109 0018 0021     		movs	r1, #0
 110 001a FFF7FEFF 		bl	chSchWakeupS
 111              	.LVL5:
 112              	.L3:
ARM GAS  /tmp/ccB3q9ZZ.s 			page 3


 113              	.LBB99:
 114              	.LBB100:
 115              	.LBB101:
 116              	.LBB102:
 117              	.LBB103:
 118              		.loc 3 546 0
 119 001e 0023     		movs	r3, #0
 120              		.syntax unified
 121              	@ 546 "../../os/ext/CMSIS/include/core_cmFunc.h" 1
 122 0020 83F31188 		MSR basepri, r3
 123              	@ 0 "" 2
 124              		.thumb
 125              		.syntax unified
 126 0024 08BD     		pop	{r3, pc}
 127              	.LBE103:
 128              	.LBE102:
 129              	.LBE101:
 130              	.LBE100:
 131              	.LBE99:
 132              		.cfi_endproc
 133              	.LFE230:
 134              		.size	chCondSignal, .-chCondSignal
 135 0026 00BFAFF3 		.section	.text.chCondSignalI,"ax",%progbits
 135      0080AFF3 
 135      0080
 136              		.align	2
 137              		.p2align 4,,15
 138              		.global	chCondSignalI
 139              		.thumb
 140              		.thumb_func
 141              		.type	chCondSignalI, %function
 142              	chCondSignalI:
 143              	.LFB231:
 144              		.loc 1 111 0
 145              		.cfi_startproc
 146              		@ args = 0, pretend = 0, frame = 0
 147              		@ frame_needed = 0, uses_anonymous_args = 0
 148              		@ link register save eliminated.
 149              	.LVL6:
 150              	.LBB104:
 151              	.LBB105:
 152              		.loc 2 631 0
 153 0000 0368     		ldr	r3, [r0]
 154              	.LBE105:
 155              	.LBE104:
 156              		.loc 1 116 0
 157 0002 9842     		cmp	r0, r3
 158 0004 07D0     		beq	.L6
 159              	.LVL7:
 160              	.LBB106:
 161              	.LBB107:
 162              	.LBB108:
 163              		.loc 2 674 0
 164 0006 1A68     		ldr	r2, [r3]
 165 0008 0260     		str	r2, [r0]
 166              	.LBE108:
 167              	.LBE107:
ARM GAS  /tmp/ccB3q9ZZ.s 			page 4


 168              		.loc 1 118 0
 169 000a 0021     		movs	r1, #0
 170              	.LBB110:
 171              	.LBB109:
 172              		.loc 2 675 0
 173 000c 5060     		str	r0, [r2, #4]
 174              	.LBE109:
 175              	.LBE110:
 176              		.loc 1 119 0
 177 000e 1846     		mov	r0, r3
 178              	.LVL8:
 179              		.loc 1 118 0
 180 0010 1962     		str	r1, [r3, #32]
 181              	.LVL9:
 182              		.loc 1 119 0
 183 0012 FFF7FEBF 		b	chSchReadyI
 184              	.LVL10:
 185              	.L6:
 186 0016 7047     		bx	lr
 187              	.LBE106:
 188              		.cfi_endproc
 189              	.LFE231:
 190              		.size	chCondSignalI, .-chCondSignalI
 191 0018 AFF30080 		.section	.text.chCondBroadcast,"ax",%progbits
 191      AFF30080 
 192              		.align	2
 193              		.p2align 4,,15
 194              		.global	chCondBroadcast
 195              		.thumb
 196              		.thumb_func
 197              		.type	chCondBroadcast, %function
 198              	chCondBroadcast:
 199              	.LFB232:
 200              		.loc 1 130 0
 201              		.cfi_startproc
 202              		@ args = 0, pretend = 0, frame = 0
 203              		@ frame_needed = 0, uses_anonymous_args = 0
 204              	.LVL11:
 205 0000 38B5     		push	{r3, r4, r5, lr}
 206              		.cfi_def_cfa_offset 16
 207              		.cfi_offset 3, -16
 208              		.cfi_offset 4, -12
 209              		.cfi_offset 5, -8
 210              		.cfi_offset 14, -4
 211              		.loc 1 130 0
 212 0002 0446     		mov	r4, r0
 213              	.LBB111:
 214              	.LBB112:
 215              	.LBB113:
 216              	.LBB114:
 217              		.loc 3 546 0
 218 0004 2023     		movs	r3, #32
 219              		.syntax unified
 220              	@ 546 "../../os/ext/CMSIS/include/core_cmFunc.h" 1
 221 0006 83F31188 		MSR basepri, r3
 222              	@ 0 "" 2
 223              	.LVL12:
ARM GAS  /tmp/ccB3q9ZZ.s 			page 5


 224              		.thumb
 225              		.syntax unified
 226              	.LBE114:
 227              	.LBE113:
 228              	.LBE112:
 229              	.LBE111:
 230              	.LBB115:
 231              	.LBB116:
 232              	.LBB117:
 233              	.LBB118:
 234              		.loc 2 631 0
 235 000a 0068     		ldr	r0, [r0]
 236              	.LVL13:
 237              	.LBE118:
 238              	.LBE117:
 239              		.loc 1 157 0
 240 000c 8442     		cmp	r4, r0
 241              		.loc 1 158 0
 242 000e 18BF     		it	ne
 243 0010 6FF00105 		mvnne	r5, #1
 244              		.loc 1 157 0
 245 0014 08D0     		beq	.L11
 246              	.L10:
 247              	.LVL14:
 248              	.LBB120:
 249              	.LBB121:
 250              		.loc 2 674 0
 251 0016 0368     		ldr	r3, [r0]
 252 0018 2360     		str	r3, [r4]
 253              		.loc 2 675 0
 254 001a 5C60     		str	r4, [r3, #4]
 255              	.LBE121:
 256              	.LBE120:
 257              		.loc 1 158 0
 258 001c FFF7FEFF 		bl	chSchReadyI
 259              	.LVL15:
 260 0020 0562     		str	r5, [r0, #32]
 261              	.LBB122:
 262              	.LBB119:
 263              		.loc 2 631 0
 264 0022 2068     		ldr	r0, [r4]
 265              	.LBE119:
 266              	.LBE122:
 267              		.loc 1 157 0
 268 0024 A042     		cmp	r0, r4
 269 0026 F6D1     		bne	.L10
 270              	.LVL16:
 271              	.L11:
 272              	.LBE116:
 273              	.LBE115:
 274              		.loc 1 134 0
 275 0028 FFF7FEFF 		bl	chSchRescheduleS
 276              	.LVL17:
 277              	.LBB123:
 278              	.LBB124:
 279              	.LBB125:
 280              	.LBB126:
ARM GAS  /tmp/ccB3q9ZZ.s 			page 6


 281              	.LBB127:
 282              		.loc 3 546 0
 283 002c 0023     		movs	r3, #0
 284              		.syntax unified
 285              	@ 546 "../../os/ext/CMSIS/include/core_cmFunc.h" 1
 286 002e 83F31188 		MSR basepri, r3
 287              	@ 0 "" 2
 288              		.thumb
 289              		.syntax unified
 290              	.LBE127:
 291              	.LBE126:
 292              	.LBE125:
 293              	.LBE124:
 294              	.LBE123:
 295              		.loc 1 136 0
 296 0032 38BD     		pop	{r3, r4, r5, pc}
 297              		.cfi_endproc
 298              	.LFE232:
 299              		.size	chCondBroadcast, .-chCondBroadcast
 300 0034 AFF30080 		.section	.text.chCondBroadcastI,"ax",%progbits
 300      AFF30080 
 300      AFF30080 
 301              		.align	2
 302              		.p2align 4,,15
 303              		.global	chCondBroadcastI
 304              		.thumb
 305              		.thumb_func
 306              		.type	chCondBroadcastI, %function
 307              	chCondBroadcastI:
 308              	.LFB233:
 309              		.loc 1 149 0
 310              		.cfi_startproc
 311              		@ args = 0, pretend = 0, frame = 0
 312              		@ frame_needed = 0, uses_anonymous_args = 0
 313              	.LVL18:
 314 0000 38B5     		push	{r3, r4, r5, lr}
 315              		.cfi_def_cfa_offset 16
 316              		.cfi_offset 3, -16
 317              		.cfi_offset 4, -12
 318              		.cfi_offset 5, -8
 319              		.cfi_offset 14, -4
 320              		.loc 1 149 0
 321 0002 0446     		mov	r4, r0
 322              	.LVL19:
 323              	.LBB128:
 324              	.LBB129:
 325              		.loc 2 631 0
 326 0004 0068     		ldr	r0, [r0]
 327              	.LVL20:
 328              	.LBE129:
 329              	.LBE128:
 330              		.loc 1 157 0
 331 0006 8442     		cmp	r4, r0
 332 0008 0AD0     		beq	.L15
 333              		.loc 1 158 0
 334 000a 6FF00105 		mvn	r5, #1
 335              	.L17:
ARM GAS  /tmp/ccB3q9ZZ.s 			page 7


 336              	.LVL21:
 337              	.LBB131:
 338              	.LBB132:
 339              		.loc 2 674 0
 340 000e 0368     		ldr	r3, [r0]
 341 0010 2360     		str	r3, [r4]
 342              		.loc 2 675 0
 343 0012 5C60     		str	r4, [r3, #4]
 344              	.LBE132:
 345              	.LBE131:
 346              		.loc 1 158 0
 347 0014 FFF7FEFF 		bl	chSchReadyI
 348              	.LVL22:
 349 0018 0562     		str	r5, [r0, #32]
 350              	.LBB133:
 351              	.LBB130:
 352              		.loc 2 631 0
 353 001a 2068     		ldr	r0, [r4]
 354              	.LBE130:
 355              	.LBE133:
 356              		.loc 1 157 0
 357 001c A042     		cmp	r0, r4
 358 001e F6D1     		bne	.L17
 359              	.LVL23:
 360              	.L15:
 361 0020 38BD     		pop	{r3, r4, r5, pc}
 362              		.cfi_endproc
 363              	.LFE233:
 364              		.size	chCondBroadcastI, .-chCondBroadcastI
 365 0022 00BFAFF3 		.section	.text.chCondWaitS,"ax",%progbits
 365      0080AFF3 
 365      0080AFF3 
 365      0080
 366              		.align	2
 367              		.p2align 4,,15
 368              		.global	chCondWaitS
 369              		.thumb
 370              		.thumb_func
 371              		.type	chCondWaitS, %function
 372              	chCondWaitS:
 373              	.LFB235:
 374              		.loc 1 205 0
 375              		.cfi_startproc
 376              		@ args = 0, pretend = 0, frame = 0
 377              		@ frame_needed = 0, uses_anonymous_args = 0
 378              	.LVL24:
 379              		.loc 1 206 0
 380 0000 0F4B     		ldr	r3, .L29
 381              		.loc 1 205 0
 382 0002 70B5     		push	{r4, r5, r6, lr}
 383              		.cfi_def_cfa_offset 16
 384              		.cfi_offset 4, -16
 385              		.cfi_offset 5, -12
 386              		.cfi_offset 6, -8
 387              		.cfi_offset 14, -4
 388              		.loc 1 206 0
 389 0004 9C69     		ldr	r4, [r3, #24]
ARM GAS  /tmp/ccB3q9ZZ.s 			page 8


 390              	.LVL25:
 391              	.LBB134:
 392              	.LBB135:
 393              		.file 4 "../../os/rt/include/chmtx.h"
 394              		.loc 4 146 0
 395 0006 A66B     		ldr	r6, [r4, #56]
 396              	.LBE135:
 397              	.LBE134:
 398              		.loc 1 205 0
 399 0008 0546     		mov	r5, r0
 400              		.loc 1 216 0
 401 000a 3046     		mov	r0, r6
 402              	.LVL26:
 403 000c FFF7FEFF 		bl	chMtxUnlockS
 404              	.LVL27:
 405              		.loc 1 220 0
 406 0010 2562     		str	r5, [r4, #32]
 407              	.LVL28:
 408              	.LBB136:
 409              	.LBB137:
 410              		.loc 2 653 0
 411 0012 2B46     		mov	r3, r5
 412 0014 03E0     		b	.L23
 413              	.LVL29:
 414              	.L28:
 415              		.loc 2 656 0
 416 0016 9968     		ldr	r1, [r3, #8]
 417 0018 A268     		ldr	r2, [r4, #8]
 418 001a 9142     		cmp	r1, r2
 419 001c 02D3     		bcc	.L24
 420              	.LVL30:
 421              	.L23:
 422              		.loc 2 655 0
 423 001e 1B68     		ldr	r3, [r3]
 424              	.LVL31:
 425              		.loc 2 656 0
 426 0020 9D42     		cmp	r5, r3
 427 0022 F8D1     		bne	.L28
 428              	.L24:
 429              		.loc 2 658 0
 430 0024 5A68     		ldr	r2, [r3, #4]
 431 0026 6260     		str	r2, [r4, #4]
 432              		.loc 2 657 0
 433 0028 2360     		str	r3, [r4]
 434              	.LBE137:
 435              	.LBE136:
 436              		.loc 1 222 0
 437 002a 0720     		movs	r0, #7
 438              	.LBB139:
 439              	.LBB138:
 440              		.loc 2 659 0
 441 002c 1460     		str	r4, [r2]
 442              		.loc 2 660 0
 443 002e 5C60     		str	r4, [r3, #4]
 444              	.LBE138:
 445              	.LBE139:
 446              		.loc 1 222 0
ARM GAS  /tmp/ccB3q9ZZ.s 			page 9


 447 0030 FFF7FEFF 		bl	chSchGoSleepS
 448              	.LVL32:
 449              		.loc 1 223 0
 450 0034 246A     		ldr	r4, [r4, #32]
 451              	.LVL33:
 452              		.loc 1 224 0
 453 0036 3046     		mov	r0, r6
 454 0038 FFF7FEFF 		bl	chMtxLockS
 455              	.LVL34:
 456              		.loc 1 227 0
 457 003c 2046     		mov	r0, r4
 458 003e 70BD     		pop	{r4, r5, r6, pc}
 459              	.LVL35:
 460              	.L30:
 461              		.align	2
 462              	.L29:
 463 0040 00000000 		.word	ch
 464              		.cfi_endproc
 465              	.LFE235:
 466              		.size	chCondWaitS, .-chCondWaitS
 467 0044 AFF30080 		.section	.text.chCondWait,"ax",%progbits
 467      AFF30080 
 467      AFF30080 
 468              		.align	2
 469              		.p2align 4,,15
 470              		.global	chCondWait
 471              		.thumb
 472              		.thumb_func
 473              		.type	chCondWait, %function
 474              	chCondWait:
 475              	.LFB234:
 476              		.loc 1 179 0
 477              		.cfi_startproc
 478              		@ args = 0, pretend = 0, frame = 0
 479              		@ frame_needed = 0, uses_anonymous_args = 0
 480              	.LVL36:
 481 0000 08B5     		push	{r3, lr}
 482              		.cfi_def_cfa_offset 8
 483              		.cfi_offset 3, -8
 484              		.cfi_offset 14, -4
 485              	.LBB140:
 486              	.LBB141:
 487              	.LBB142:
 488              	.LBB143:
 489              		.loc 3 546 0
 490 0002 2023     		movs	r3, #32
 491              		.syntax unified
 492              	@ 546 "../../os/ext/CMSIS/include/core_cmFunc.h" 1
 493 0004 83F31188 		MSR basepri, r3
 494              	@ 0 "" 2
 495              		.thumb
 496              		.syntax unified
 497              	.LBE143:
 498              	.LBE142:
 499              	.LBE141:
 500              	.LBE140:
 501              		.loc 1 183 0
ARM GAS  /tmp/ccB3q9ZZ.s 			page 10


 502 0008 FFF7FEFF 		bl	chCondWaitS
 503              	.LVL37:
 504              	.LBB144:
 505              	.LBB145:
 506              	.LBB146:
 507              	.LBB147:
 508              	.LBB148:
 509              		.loc 3 546 0
 510 000c 0023     		movs	r3, #0
 511              		.syntax unified
 512              	@ 546 "../../os/ext/CMSIS/include/core_cmFunc.h" 1
 513 000e 83F31188 		MSR basepri, r3
 514              	@ 0 "" 2
 515              		.thumb
 516              		.syntax unified
 517              	.LBE148:
 518              	.LBE147:
 519              	.LBE146:
 520              	.LBE145:
 521              	.LBE144:
 522              		.loc 1 186 0
 523 0012 08BD     		pop	{r3, pc}
 524              		.cfi_endproc
 525              	.LFE234:
 526              		.size	chCondWait, .-chCondWait
 527 0014 AFF30080 		.section	.text.chCondWaitTimeoutS,"ax",%progbits
 527      AFF30080 
 527      AFF30080 
 528              		.align	2
 529              		.p2align 4,,15
 530              		.global	chCondWaitTimeoutS
 531              		.thumb
 532              		.thumb_func
 533              		.type	chCondWaitTimeoutS, %function
 534              	chCondWaitTimeoutS:
 535              	.LFB237:
 536              		.loc 1 296 0
 537              		.cfi_startproc
 538              		@ args = 0, pretend = 0, frame = 0
 539              		@ frame_needed = 0, uses_anonymous_args = 0
 540              	.LVL38:
 541 0000 F8B5     		push	{r3, r4, r5, r6, r7, lr}
 542              		.cfi_def_cfa_offset 24
 543              		.cfi_offset 3, -24
 544              		.cfi_offset 4, -20
 545              		.cfi_offset 5, -16
 546              		.cfi_offset 6, -12
 547              		.cfi_offset 7, -8
 548              		.cfi_offset 14, -4
 549              	.LBB149:
 550              	.LBB150:
 551              	.LBB151:
 552              	.LBB152:
 553              		.file 5 "../../os/rt/include/chthreads.h"
 554              		.loc 5 176 0
 555 0002 124C     		ldr	r4, .L41
 556              	.LBE152:
ARM GAS  /tmp/ccB3q9ZZ.s 			page 11


 557              	.LBE151:
 558              		.loc 4 146 0
 559 0004 A369     		ldr	r3, [r4, #24]
 560 0006 9E6B     		ldr	r6, [r3, #56]
 561              	.LBE150:
 562              	.LBE149:
 563              		.loc 1 296 0
 564 0008 0546     		mov	r5, r0
 565              		.loc 1 306 0
 566 000a 3046     		mov	r0, r6
 567              	.LVL39:
 568              		.loc 1 296 0
 569 000c 0F46     		mov	r7, r1
 570              		.loc 1 306 0
 571 000e FFF7FEFF 		bl	chMtxUnlockS
 572              	.LVL40:
 573              		.loc 1 310 0
 574 0012 A469     		ldr	r4, [r4, #24]
 575              	.LBB153:
 576              	.LBB154:
 577              		.loc 2 653 0
 578 0014 2B46     		mov	r3, r5
 579              	.LBE154:
 580              	.LBE153:
 581              		.loc 1 310 0
 582 0016 2562     		str	r5, [r4, #32]
 583              	.LVL41:
 584 0018 03E0     		b	.L37
 585              	.LVL42:
 586              	.L34:
 587              	.LBB158:
 588              	.LBB155:
 589              		.loc 2 656 0
 590 001a 9868     		ldr	r0, [r3, #8]
 591 001c A268     		ldr	r2, [r4, #8]
 592 001e 9042     		cmp	r0, r2
 593 0020 02D3     		bcc	.L38
 594              	.LVL43:
 595              	.L37:
 596              		.loc 2 655 0
 597 0022 1B68     		ldr	r3, [r3]
 598              	.LVL44:
 599              		.loc 2 656 0
 600 0024 9D42     		cmp	r5, r3
 601 0026 F8D1     		bne	.L34
 602              	.L38:
 603              		.loc 2 658 0
 604 0028 5A68     		ldr	r2, [r3, #4]
 605 002a 6260     		str	r2, [r4, #4]
 606              		.loc 2 657 0
 607 002c 2360     		str	r3, [r4]
 608              	.LBE155:
 609              	.LBE158:
 610              		.loc 1 312 0
 611 002e 3946     		mov	r1, r7
 612              	.LBB159:
 613              	.LBB156:
ARM GAS  /tmp/ccB3q9ZZ.s 			page 12


 614              		.loc 2 659 0
 615 0030 1460     		str	r4, [r2]
 616              	.LBE156:
 617              	.LBE159:
 618              		.loc 1 312 0
 619 0032 0720     		movs	r0, #7
 620              	.LBB160:
 621              	.LBB157:
 622              		.loc 2 660 0
 623 0034 5C60     		str	r4, [r3, #4]
 624              	.LBE157:
 625              	.LBE160:
 626              		.loc 1 312 0
 627 0036 FFF7FEFF 		bl	chSchGoSleepTimeoutS
 628              	.LVL45:
 629              		.loc 1 313 0
 630 003a 431C     		adds	r3, r0, #1
 631              		.loc 1 312 0
 632 003c 0446     		mov	r4, r0
 633              	.LVL46:
 634              		.loc 1 313 0
 635 003e 02D0     		beq	.L36
 636              		.loc 1 314 0
 637 0040 3046     		mov	r0, r6
 638              	.LVL47:
 639 0042 FFF7FEFF 		bl	chMtxLockS
 640              	.LVL48:
 641              	.L36:
 642              		.loc 1 318 0
 643 0046 2046     		mov	r0, r4
 644 0048 F8BD     		pop	{r3, r4, r5, r6, r7, pc}
 645              	.LVL49:
 646              	.L42:
 647 004a 00BF     		.align	2
 648              	.L41:
 649 004c 00000000 		.word	ch
 650              		.cfi_endproc
 651              	.LFE237:
 652              		.size	chCondWaitTimeoutS, .-chCondWaitTimeoutS
 653              		.section	.text.chCondWaitTimeout,"ax",%progbits
 654              		.align	2
 655              		.p2align 4,,15
 656              		.global	chCondWaitTimeout
 657              		.thumb
 658              		.thumb_func
 659              		.type	chCondWaitTimeout, %function
 660              	chCondWaitTimeout:
 661              	.LFB236:
 662              		.loc 1 258 0
 663              		.cfi_startproc
 664              		@ args = 0, pretend = 0, frame = 0
 665              		@ frame_needed = 0, uses_anonymous_args = 0
 666              	.LVL50:
 667 0000 08B5     		push	{r3, lr}
 668              		.cfi_def_cfa_offset 8
 669              		.cfi_offset 3, -8
 670              		.cfi_offset 14, -4
ARM GAS  /tmp/ccB3q9ZZ.s 			page 13


 671              	.LBB161:
 672              	.LBB162:
 673              	.LBB163:
 674              	.LBB164:
 675              		.loc 3 546 0
 676 0002 2023     		movs	r3, #32
 677              		.syntax unified
 678              	@ 546 "../../os/ext/CMSIS/include/core_cmFunc.h" 1
 679 0004 83F31188 		MSR basepri, r3
 680              	@ 0 "" 2
 681              		.thumb
 682              		.syntax unified
 683              	.LBE164:
 684              	.LBE163:
 685              	.LBE162:
 686              	.LBE161:
 687              		.loc 1 262 0
 688 0008 FFF7FEFF 		bl	chCondWaitTimeoutS
 689              	.LVL51:
 690              	.LBB165:
 691              	.LBB166:
 692              	.LBB167:
 693              	.LBB168:
 694              	.LBB169:
 695              		.loc 3 546 0
 696 000c 0023     		movs	r3, #0
 697              		.syntax unified
 698              	@ 546 "../../os/ext/CMSIS/include/core_cmFunc.h" 1
 699 000e 83F31188 		MSR basepri, r3
 700              	@ 0 "" 2
 701              		.thumb
 702              		.syntax unified
 703              	.LBE169:
 704              	.LBE168:
 705              	.LBE167:
 706              	.LBE166:
 707              	.LBE165:
 708              		.loc 1 266 0
 709 0012 08BD     		pop	{r3, pc}
 710              		.cfi_endproc
 711              	.LFE236:
 712              		.size	chCondWaitTimeout, .-chCondWaitTimeout
 713 0014 AFF30080 		.text
 713      AFF30080 
 713      AFF30080 
 714              	.Letext0:
 715              		.file 6 "/usr/arm-none-eabi/include/machine/_default_types.h"
 716              		.file 7 "/usr/arm-none-eabi/include/stdint.h"
 717              		.file 8 "../../os/rt/ports/ARMCMx/compilers/GCC/chtypes.h"
 718              		.file 9 "../../os/rt/include/chsystypes.h"
 719              		.file 10 "../../os/rt/ports/ARMCMx/chcore.h"
 720              		.file 11 "../../os/rt/ports/ARMCMx/chcore_v7m.h"
 721              		.file 12 "../../os/rt/include/chtm.h"
 722              		.file 13 "../../os/rt/include/chsem.h"
 723              		.file 14 "../../os/rt/include/chcond.h"
 724              		.file 15 "../../os/rt/include/chsys.h"
 725              		.file 16 "../../os/ext/CMSIS/include/core_cm4.h"
ARM GAS  /tmp/ccB3q9ZZ.s 			page 14

