ARM GAS  /tmp/ccB3q9ZZ.s 			page 1


   1              		.syntax unified
   2              		.cpu cortex-m4
   3              		.eabi_attribute 27, 1
   4              		.eabi_attribute 28, 1
   5              		.fpu fpv4-sp-d16
   6              		.eabi_attribute 20, 1
   7              		.eabi_attribute 21, 1
   8              		.eabi_attribute 23, 3
   9              		.eabi_attribute 24, 1
  10              		.eabi_attribute 25, 1
  11              		.eabi_attribute 26, 1
  12              		.eabi_attribute 30, 2
  13              		.eabi_attribute 34, 1
  14              		.eabi_attribute 18, 4
  15              		.thumb
  16              		.syntax unified
  17              		.file	"chcond.c"
  18              		.text
  19              	.Ltext0:
  20              		.cfi_sections	.debug_frame
  21              		.section	.text.chCondObjectInit,"ax",%progbits
  22              		.align	2
  23              		.p2align 4,,15
  24              		.global	chCondObjectInit
  25              		.thumb
  26              		.thumb_func
  27              		.type	chCondObjectInit, %function
  28              	chCondObjectInit:
  29              	.LFB229:
  30              		.file 1 "../../os/rt/src/chcond.c"
  31              		.loc 1 75 0
  32              		.cfi_startproc
  33              		@ args = 0, pretend = 0, frame = 0
  34              		@ frame_needed = 0, uses_anonymous_args = 0
  35              		@ link register save eliminated.
  36              	.LVL0:
  37              	.LBB89:
  38              	.LBB90:
  39              		.file 2 "../../os/rt/include/chschd.h"
  40              		.loc 2 604 0
  41 0000 0060     		str	r0, [r0]
  42              		.loc 2 605 0
  43 0002 4060     		str	r0, [r0, #4]
  44 0004 7047     		bx	lr
  45              	.LBE90:
  46              	.LBE89:
  47              		.cfi_endproc
  48              	.LFE229:
  49              		.size	chCondObjectInit, .-chCondObjectInit
  50 0006 00BFAFF3 		.section	.text.chCondSignal,"ax",%progbits
  50      0080AFF3 
  50      0080
  51              		.align	2
  52              		.p2align 4,,15
  53              		.global	chCondSignal
  54              		.thumb
  55              		.thumb_func
ARM GAS  /tmp/ccB3q9ZZ.s 			page 2


  56              		.type	chCondSignal, %function
  57              	chCondSignal:
  58              	.LFB230:
  59              		.loc 1 89 0
  60              		.cfi_startproc
  61              		@ args = 0, pretend = 0, frame = 0
  62              		@ frame_needed = 0, uses_anonymous_args = 0
  63              	.LVL1:
  64 0000 08B5     		push	{r3, lr}
  65              		.cfi_def_cfa_offset 8
  66              		.cfi_offset 3, -8
  67              		.cfi_offset 14, -4
  68              	.LBB91:
  69              	.LBB92:
  70              	.LBB93:
  71              	.LBB94:
  72              		.file 3 "../../os/ext/CMSIS/include/core_cmFunc.h"
  73              		.loc 3 546 0
  74 0002 2023     		movs	r3, #32
  75              		.syntax unified
  76              	@ 546 "../../os/ext/CMSIS/include/core_cmFunc.h" 1
  77 0004 83F31188 		MSR basepri, r3
  78              	@ 0 "" 2
  79              	.LVL2:
  80              		.thumb
  81              		.syntax unified
  82              	.LBE94:
  83              	.LBE93:
  84              	.LBE92:
  85              	.LBE91:
  86              	.LBB95:
  87              	.LBB96:
  88              		.loc 2 631 0
  89 0008 0268     		ldr	r2, [r0]
  90              	.LBE96:
  91              	.LBE95:
  92              		.loc 1 94 0
  93 000a 9042     		cmp	r0, r2
  94 000c 07D0     		beq	.L3
  95              	.LBB97:
  96              	.LBB98:
  97              		.loc 2 674 0
  98 000e 1168     		ldr	r1, [r2]
  99 0010 0160     		str	r1, [r0]
 100 0012 0346     		mov	r3, r0
 101              	.LVL3:
 102              		.loc 2 675 0
 103 0014 4B60     		str	r3, [r1, #4]
 104              	.LBE98:
 105              	.LBE97:
 106              		.loc 1 95 0
 107 0016 1046     		mov	r0, r2
 108              	.LVL4:
 109 0018 0021     		movs	r1, #0
 110 001a FFF7FEFF 		bl	chSchWakeupS
 111              	.LVL5:
 112              	.L3:
ARM GAS  /tmp/ccB3q9ZZ.s 			page 3


 113              	.LBB99:
 114              	.LBB100:
 115              	.LBB101:
 116              	.LBB102:
 117              	.LBB103:
 118              		.loc 3 546 0
 119 001e 0023     		movs	r3, #0
 120              		.syntax unified
 121              	@ 546 "../../os/ext/CMSIS/include/core_cmFunc.h" 1
 122 0020 83F31188 		MSR basepri, r3
 123              	@ 0 "" 2
 124              		.thumb
 125              		.syntax unified
 126 0024 08BD     		pop	{r3, pc}
 127              	.LBE103:
 128              	.LBE102:
 129              	.LBE101:
 130              	.LBE100:
 131              	.LBE99:
 132              		.cfi_endproc
 133              	.LFE230:
 134              		.size	chCondSignal, .-chCondSignal
 135 0026 00BFAFF3 		.section	.text.chCondSignalI,"ax",%progbits
 135      0080AFF3 
 135      0080
 136              		.align	2
 137              		.p2align 4,,15
 138              		.global	chCondSignalI
 139              		.thumb
 140              		.thumb_func
 141              		.type	chCondSignalI, %function
 142              	chCondSignalI:
 143              	.LFB231:
 144              		.loc 1 111 0
 145              		.cfi_startproc
 146              		@ args = 0, pretend = 0, frame = 0
 147              		@ frame_needed = 0, uses_anonymous_args = 0
 148              		@ link register save eliminated.
 149              	.LVL6:
 150              	.LBB104:
 151              	.LBB105:
 152              		.loc 2 631 0
 153 0000 0368     		ldr	r3, [r0]
 154              	.LBE105:
 155              	.LBE104:
 156              		.loc 1 116 0
 157 0002 9842     		cmp	r0, r3
 158 0004 07D0     		beq	.L6
 159              	.LVL7:
 160              	.LBB106:
 161              	.LBB107:
 162              	.LBB108:
 163              		.loc 2 674 0
 164 0006 1A68     		ldr	r2, [r3]
 165 0008 0260     		str	r2, [r0]
 166              	.LBE108:
 167              	.LBE107:
ARM GAS  /tmp/ccB3q9ZZ.s 			page 4


 168              		.loc 1 118 0
 169 000a 0021     		movs	r1, #0
 170              	.LBB110:
 171              	.LBB109:
 172              		.loc 2 675 0
 173 000c 5060     		str	r0, [r2, #4]
 174              	.LBE109:
 175              	.LBE110:
 176              		.loc 1 119 0
 177 000e 1846     		mov	r0, r3
 178              	.LVL8:
 179              		.loc 1 118 0
 180 0010 1962     		str	r1, [r3, #32]
 181              	.LVL9:
 182              		.loc 1 119 0
 183 0012 FFF7FEBF 		b	chSchReadyI
 184              	.LVL10:
 185              	.L6:
 186 0016 7047     		bx	lr
 187              	.LBE106:
 188              		.cfi_endproc
 189              	.LFE231:
 190              		.size	chCondSignalI, .-chCondSignalI
 191 0018 AFF30080 		.section	.text.chCondBroadcast,"ax",%progbits
 191      AFF30080 
 192              		.align	2
 193              		.p2align 4,,15
 194              		.global	chCondBroadcast
 195              		.thumb
 196              		.thumb_func
 197              		.type	chCondBroadcast, %function
 198              	chCondBroadcast:
 199              	.LFB232:
 200              		.loc 1 130 0
 201              		.cfi_startproc
 202              		@ args = 0, pretend = 0, frame = 0
 203              		@ frame_needed = 0, uses_anonymous_args = 0
 204              	.LVL11:
 205 0000 38B5     		push	{r3, r4, r5, lr}
 206              		.cfi_def_cfa_offset 16
 207              		.cfi_offset 3, -16
 208              		.cfi_offset 4, -12
 209              		.cfi_offset 5, -8
 210              		.cfi_offset 14, -4
 211              		.loc 1 130 0
 212 0002 0446     		mov	r4, r0
 213              	.LBB111:
 214              	.LBB112:
 215              	.LBB113:
 216              	.LBB114:
 217              		.loc 3 546 0
 218 0004 2023     		movs	r3, #32
 219              		.syntax unified
 220              	@ 546 "../../os/ext/CMSIS/include/core_cmFunc.h" 1
 221 0006 83F31188 		MSR basepri, r3
 222              	@ 0 "" 2
 223              	.LVL12:
ARM GAS  /tmp/ccB3q9ZZ.s 			page 5


 224              		.thumb
 225              		.syntax unified
 226              	.LBE114:
 227              	.LBE113:
 228              	.LBE112:
 229              	.LBE111:
 230              	.LBB115:
 231              	.LBB116:
 232              	.LBB117:
 233              	.LBB118:
 234              		.loc 2 631 0
 235 000a 0068     		ldr	r0, [r0]
 236              	.LVL13:
 237              	.LBE118:
 238              	.LBE117:
 239              		.loc 1 157 0
 240 000c 8442     		cmp	r4, r0
 241              		.loc 1 158 0
 242 000e 18BF     		it	ne
 243 0010 6FF00105 		mvnne	r5, #1
 244              		.loc 1 157 0
 245 0014 08D0     		beq	.L11
 246              	.L10:
 247              	.LVL14:
 248              	.LBB120:
 249              	.LBB121:
 250              		.loc 2 674 0
 251 0016 0368     		ldr	r3, [r0]
 252 0018 2360     		str	r3, [r4]
 253              		.loc 2 675 0
 254 001a 5C60     		str	r4, [r3, #4]
 255              	.LBE121:
 256              	.LBE120:
 257              		.loc 1 158 0
 258 001c FFF7FEFF 		bl	chSchReadyI
 259              	.LVL15:
 260 0020 0562     		str	r5, [r0, #32]
 261              	.LBB122:
 262              	.LBB119:
 263              		.loc 2 631 0
 264 0022 2068     		ldr	r0, [r4]
 265              	.LBE119:
 266              	.LBE122:
 267              		.loc 1 157 0
 268 0024 A042     		cmp	r0, r4
 269 0026 F6D1     		bne	.L10
 270              	.LVL16:
 271              	.L11:
 272              	.LBE116:
 273              	.LBE115:
 274              		.loc 1 134 0
 275 0028 FFF7FEFF 		bl	chSchRescheduleS
 276              	.LVL17:
 277              	.LBB123:
 278              	.LBB124:
 279              	.LBB125:
 280              	.LBB126:
ARM GAS  /tmp/ccB3q9ZZ.s 			page 6


 281              	.LBB127:
 282              		.loc 3 546 0
 283 002c 0023     		movs	r3, #0
 284              		.syntax unified
 285              	@ 546 "../../os/ext/CMSIS/include/core_cmFunc.h" 1
 286 002e 83F31188 		MSR basepri, r3
 287              	@ 0 "" 2
 288              		.thumb
 289              		.syntax unified
 290              	.LBE127:
 291              	.LBE126:
 292              	.LBE125:
 293              	.LBE124:
 294              	.LBE123:
 295              		.loc 1 136 0
 296 0032 38BD     		pop	{r3, r4, r5, pc}
 297              		.cfi_endproc
 298              	.LFE232:
 299              		.size	chCondBroadcast, .-chCondBroadcast
 300 0034 AFF30080 		.section	.text.chCondBroadcastI,"ax",%progbits
 300      AFF30080 
 300      AFF30080 
 301              		.align	2
 302              		.p2align 4,,15
 303              		.global	chCondBroadcastI
 304              		.thumb
 305              		.thumb_func
 306              		.type	chCondBroadcastI, %function
 307              	chCondBroadcastI:
 308              	.LFB233:
 309              		.loc 1 149 0
 310              		.cfi_startproc
 311              		@ args = 0, pretend = 0, frame = 0
 312              		@ frame_needed = 0, uses_anonymous_args = 0
 313              	.LVL18:
 314 0000 38B5     		push	{r3, r4, r5, lr}
 315              		.cfi_def_cfa_offset 16
 316              		.cfi_offset 3, -16
 317              		.cfi_offset 4, -12
 318              		.cfi_offset 5, -8
 319              		.cfi_offset 14, -4
 320              		.loc 1 149 0
 321 0002 0446     		mov	r4, r0
 322              	.LVL19:
 323              	.LBB128:
 324              	.LBB129:
 325              		.loc 2 631 0
 326 0004 0068     		ldr	r0, [r0]
 327              	.LVL20:
 328              	.LBE129:
 329              	.LBE128:
 330              		.loc 1 157 0
 331 0006 8442     		cmp	r4, r0
 332 0008 0AD0     		beq	.L15
 333              		.loc 1 158 0
 334 000a 6FF00105 		mvn	r5, #1
 335              	.L17:
ARM GAS  /tmp/ccB3q9ZZ.s 			page 7


 336              	.LVL21:
 337              	.LBB131:
 338              	.LBB132:
 339              		.loc 2 674 0
 340 000e 0368     		ldr	r3, [r0]
 341 0010 2360     		str	r3, [r4]
 342              		.loc 2 675 0
 343 0012 5C60     		str	r4, [r3, #4]
 344              	.LBE132:
 345              	.LBE131:
 346              		.loc 1 158 0
 347 0014 FFF7FEFF 		bl	chSchReadyI
 348              	.LVL22:
 349 0018 0562     		str	r5, [r0, #32]
 350              	.LBB133:
 351              	.LBB130:
 352              		.loc 2 631 0
 353 001a 2068     		ldr	r0, [r4]
 354              	.LBE130:
 355              	.LBE133:
 356              		.loc 1 157 0
 357 001c A042     		cmp	r0, r4
 358 001e F6D1     		bne	.L17
 359              	.LVL23:
 360              	.L15:
 361 0020 38BD     		pop	{r3, r4, r5, pc}
 362              		.cfi_endproc
 363              	.LFE233:
 364              		.size	chCondBroadcastI, .-chCondBroadcastI
 365 0022 00BFAFF3 		.section	.text.chCondWaitS,"ax",%progbits
 365      0080AFF3 
 365      0080AFF3 
 365      0080
 366              		.align	2
 367              		.p2align 4,,15
 368              		.global	chCondWaitS
 369              		.thumb
 370              		.thumb_func
 371              		.type	chCondWaitS, %function
 372              	chCondWaitS:
 373              	.LFB235:
 374              		.loc 1 205 0
 375              		.cfi_startproc
 376              		@ args = 0, pretend = 0, frame = 0
 377              		@ frame_needed = 0, uses_anonymous_args = 0
 378              	.LVL24:
 379              		.loc 1 206 0
 380 0000 0F4B     		ldr	r3, .L29
 381              		.loc 1 205 0
 382 0002 70B5     		push	{r4, r5, r6, lr}
 383              		.cfi_def_cfa_offset 16
 384              		.cfi_offset 4, -16
 385              		.cfi_offset 5, -12
 386              		.cfi_offset 6, -8
 387              		.cfi_offset 14, -4
 388              		.loc 1 206 0
 389 0004 9C69     		ldr	r4, [r3, #24]
ARM GAS  /tmp/ccB3q9ZZ.s 			page 8


 390              	.LVL25:
 391              	.LBB134:
 392              	.LBB135:
 393              		.file 4 "../../os/rt/include/chmtx.h"
 394              		.loc 4 146 0
 395 0006 A66B     		ldr	r6, [r4, #56]
 396              	.LBE135:
 397              	.LBE134:
 398              		.loc 1 205 0
 399 0008 0546     		mov	r5, r0
 400              		.loc 1 216 0
 401 000a 3046     		mov	r0, r6
 402              	.LVL26:
 403 000c FFF7FEFF 		bl	chMtxUnlockS
 404              	.LVL27:
 405              		.loc 1 220 0
 406 0010 2562     		str	r5, [r4, #32]
 407              	.LVL28:
 408              	.LBB136:
 409              	.LBB137:
 410              		.loc 2 653 0
 411 0012 2B46     		mov	r3, r5
 412 0014 03E0     		b	.L23
 413              	.LVL29:
 414              	.L28:
 415              		.loc 2 656 0
 416 0016 9968     		ldr	r1, [r3, #8]
 417 0018 A268     		ldr	r2, [r4, #8]
 418 001a 9142     		cmp	r1, r2
 419 001c 02D3     		bcc	.L24
 420              	.LVL30:
 421              	.L23:
 422              		.loc 2 655 0
 423 001e 1B68     		ldr	r3, [r3]
 424              	.LVL31:
 425              		.loc 2 656 0
 426 0020 9D42     		cmp	r5, r3
 427 0022 F8D1     		bne	.L28
 428              	.L24:
 429              		.loc 2 658 0
 430 0024 5A68     		ldr	r2, [r3, #4]
 431 0026 6260     		str	r2, [r4, #4]
 432              		.loc 2 657 0
 433 0028 2360     		str	r3, [r4]
 434              	.LBE137:
 435              	.LBE136:
 436              		.loc 1 222 0
 437 002a 0720     		movs	r0, #7
 438              	.LBB139:
 439              	.LBB138:
 440              		.loc 2 659 0
 441 002c 1460     		str	r4, [r2]
 442              		.loc 2 660 0
 443 002e 5C60     		str	r4, [r3, #4]
 444              	.LBE138:
 445              	.LBE139:
 446              		.loc 1 222 0
ARM GAS  /tmp/ccB3q9ZZ.s 			page 9


 447 0030 FFF7FEFF 		bl	chSchGoSleepS
 448              	.LVL32:
 449              		.loc 1 223 0
 450 0034 246A     		ldr	r4, [r4, #32]
 451              	.LVL33:
 452              		.loc 1 224 0
 453 0036 3046     		mov	r0, r6
 454 0038 FFF7FEFF 		bl	chMtxLockS
 455              	.LVL34:
 456              		.loc 1 227 0
 457 003c 2046     		mov	r0, r4
 458 003e 70BD     		pop	{r4, r5, r6, pc}
 459              	.LVL35:
 460              	.L30:
 461              		.align	2
 462              	.L29:
 463 0040 00000000 		.word	ch
 464              		.cfi_endproc
 465              	.LFE235:
 466              		.size	chCondWaitS, .-chCondWaitS
 467 0044 AFF30080 		.section	.text.chCondWait,"ax",%progbits
 467      AFF30080 
 467      AFF30080 
 468              		.align	2
 469              		.p2align 4,,15
 470              		.global	chCondWait
 471              		.thumb
 472              		.thumb_func
 473              		.type	chCondWait, %function
 474              	chCondWait:
 475              	.LFB234:
 476              		.loc 1 179 0
 477              		.cfi_startproc
 478              		@ args = 0, pretend = 0, frame = 0
 479              		@ frame_needed = 0, uses_anonymous_args = 0
 480              	.LVL36:
 481 0000 08B5     		push	{r3, lr}
 482              		.cfi_def_cfa_offset 8
 483              		.cfi_offset 3, -8
 484              		.cfi_offset 14, -4
 485              	.LBB140:
 486              	.LBB141:
 487              	.LBB142:
 488              	.LBB143:
 489              		.loc 3 546 0
 490 0002 2023     		movs	r3, #32
 491              		.syntax unified
 492              	@ 546 "../../os/ext/CMSIS/include/core_cmFunc.h" 1
 493 0004 83F31188 		MSR basepri, r3
 494              	@ 0 "" 2
 495              		.thumb
 496              		.syntax unified
 497              	.LBE143:
 498              	.LBE142:
 499              	.LBE141:
 500              	.LBE140:
 501              		.loc 1 183 0
ARM GAS  /tmp/ccB3q9ZZ.s 			page 10


 502 0008 FFF7FEFF 		bl	chCondWaitS
 503              	.LVL37:
 504              	.LBB144:
 505              	.LBB145:
 506              	.LBB146:
 507              	.LBB147:
 508              	.LBB148:
 509              		.loc 3 546 0
 510 000c 0023     		movs	r3, #0
 511              		.syntax unified
 512              	@ 546 "../../os/ext/CMSIS/include/core_cmFunc.h" 1
 513 000e 83F31188 		MSR basepri, r3
 514              	@ 0 "" 2
 515              		.thumb
 516              		.syntax unified
 517              	.LBE148:
 518              	.LBE147:
 519              	.LBE146:
 520              	.LBE145:
 521              	.LBE144:
 522              		.loc 1 186 0
 523 0012 08BD     		pop	{r3, pc}
 524              		.cfi_endproc
 525              	.LFE234:
 526              		.size	chCondWait, .-chCondWait
 527 0014 AFF30080 		.section	.text.chCondWaitTimeoutS,"ax",%progbits
 527      AFF30080 
 527      AFF30080 
 528              		.align	2
 529              		.p2align 4,,15
 530              		.global	chCondWaitTimeoutS
 531              		.thumb
 532              		.thumb_func
 533              		.type	chCondWaitTimeoutS, %function
 534              	chCondWaitTimeoutS:
 535              	.LFB237:
 536              		.loc 1 296 0
 537              		.cfi_startproc
 538              		@ args = 0, pretend = 0, frame = 0
 539              		@ frame_needed = 0, uses_anonymous_args = 0
 540              	.LVL38:
 541 0000 F8B5     		push	{r3, r4, r5, r6, r7, lr}
 542              		.cfi_def_cfa_offset 24
 543              		.cfi_offset 3, -24
 544              		.cfi_offset 4, -20
 545              		.cfi_offset 5, -16
 546              		.cfi_offset 6, -12
 547              		.cfi_offset 7, -8
 548              		.cfi_offset 14, -4
 549              	.LBB149:
 550              	.LBB150:
 551              	.LBB151:
 552              	.LBB152:
 553              		.file 5 "../../os/rt/include/chthreads.h"
 554              		.loc 5 176 0
 555 0002 124C     		ldr	r4, .L41
 556              	.LBE152:
ARM GAS  /tmp/ccB3q9ZZ.s 			page 11


 557              	.LBE151:
 558              		.loc 4 146 0
 559 0004 A369     		ldr	r3, [r4, #24]
 560 0006 9E6B     		ldr	r6, [r3, #56]
 561              	.LBE150:
 562              	.LBE149:
 563              		.loc 1 296 0
 564 0008 0546     		mov	r5, r0
 565              		.loc 1 306 0
 566 000a 3046     		mov	r0, r6
 567              	.LVL39:
 568              		.loc 1 296 0
 569 000c 0F46     		mov	r7, r1
 570              		.loc 1 306 0
 571 000e FFF7FEFF 		bl	chMtxUnlockS
 572              	.LVL40:
 573              		.loc 1 310 0
 574 0012 A469     		ldr	r4, [r4, #24]
 575              	.LBB153:
 576              	.LBB154:
 577              		.loc 2 653 0
 578 0014 2B46     		mov	r3, r5
 579              	.LBE154:
 580              	.LBE153:
 581              		.loc 1 310 0
 582 0016 2562     		str	r5, [r4, #32]
 583              	.LVL41:
 584 0018 03E0     		b	.L37
 585              	.LVL42:
 586              	.L34:
 587              	.LBB158:
 588              	.LBB155:
 589              		.loc 2 656 0
 590 001a 9868     		ldr	r0, [r3, #8]
 591 001c A268     		ldr	r2, [r4, #8]
 592 001e 9042     		cmp	r0, r2
 593 0020 02D3     		bcc	.L38
 594              	.LVL43:
 595              	.L37:
 596              		.loc 2 655 0
 597 0022 1B68     		ldr	r3, [r3]
 598              	.LVL44:
 599              		.loc 2 656 0
 600 0024 9D42     		cmp	r5, r3
 601 0026 F8D1     		bne	.L34
 602              	.L38:
 603              		.loc 2 658 0
 604 0028 5A68     		ldr	r2, [r3, #4]
 605 002a 6260     		str	r2, [r4, #4]
 606              		.loc 2 657 0
 607 002c 2360     		str	r3, [r4]
 608              	.LBE155:
 609              	.LBE158:
 610              		.loc 1 312 0
 611 002e 3946     		mov	r1, r7
 612              	.LBB159:
 613              	.LBB156:
ARM GAS  /tmp/ccB3q9ZZ.s 			page 12


 614              		.loc 2 659 0
 615 0030 1460     		str	r4, [r2]
 616              	.LBE156:
 617              	.LBE159:
 618              		.loc 1 312 0
 619 0032 0720     		movs	r0, #7
 620              	.LBB160:
 621              	.LBB157:
 622              		.loc 2 660 0
 623 0034 5C60     		str	r4, [r3, #4]
 624              	.LBE157:
 625              	.LBE160:
 626              		.loc 1 312 0
 627 0036 FFF7FEFF 		bl	chSchGoSleepTimeoutS
 628              	.LVL45:
 629              		.loc 1 313 0
 630 003a 431C     		adds	r3, r0, #1
 631              		.loc 1 312 0
 632 003c 0446     		mov	r4, r0
 633              	.LVL46:
 634              		.loc 1 313 0
 635 003e 02D0     		beq	.L36
 636              		.loc 1 314 0
 637 0040 3046     		mov	r0, r6
 638              	.LVL47:
 639 0042 FFF7FEFF 		bl	chMtxLockS
 640              	.LVL48:
 641              	.L36:
 642              		.loc 1 318 0
 643 0046 2046     		mov	r0, r4
 644 0048 F8BD     		pop	{r3, r4, r5, r6, r7, pc}
 645              	.LVL49:
 646              	.L42:
 647 004a 00BF     		.align	2
 648              	.L41:
 649 004c 00000000 		.word	ch
 650              		.cfi_endproc
 651              	.LFE237:
 652              		.size	chCondWaitTimeoutS, .-chCondWaitTimeoutS
 653              		.section	.text.chCondWaitTimeout,"ax",%progbits
 654              		.align	2
 655              		.p2align 4,,15
 656              		.global	chCondWaitTimeout
 657              		.thumb
 658              		.thumb_func
 659              		.type	chCondWaitTimeout, %function
 660              	chCondWaitTimeout:
 661              	.LFB236:
 662              		.loc 1 258 0
 663              		.cfi_startproc
 664              		@ args = 0, pretend = 0, frame = 0
 665              		@ frame_needed = 0, uses_anonymous_args = 0
 666              	.LVL50:
 667 0000 08B5     		push	{r3, lr}
 668              		.cfi_def_cfa_offset 8
 669              		.cfi_offset 3, -8
 670              		.cfi_offset 14, -4
ARM GAS  /tmp/ccB3q9ZZ.s 			page 13


 671              	.LBB161:
 672              	.LBB162:
 673              	.LBB163:
 674              	.LBB164:
 675              		.loc 3 546 0
 676 0002 2023     		movs	r3, #32
 677              		.syntax unified
 678              	@ 546 "../../os/ext/CMSIS/include/core_cmFunc.h" 1
 679 0004 83F31188 		MSR basepri, r3
 680              	@ 0 "" 2
 681              		.thumb
 682              		.syntax unified
 683              	.LBE164:
 684              	.LBE163:
 685              	.LBE162:
 686              	.LBE161:
 687              		.loc 1 262 0
 688 0008 FFF7FEFF 		bl	chCondWaitTimeoutS
 689              	.LVL51:
 690              	.LBB165:
 691              	.LBB166:
 692              	.LBB167:
 693              	.LBB168:
 694              	.LBB169:
 695              		.loc 3 546 0
 696 000c 0023     		movs	r3, #0
 697              		.syntax unified
 698              	@ 546 "../../os/ext/CMSIS/include/core_cmFunc.h" 1
 699 000e 83F31188 		MSR basepri, r3
 700              	@ 0 "" 2
 701              		.thumb
 702              		.syntax unified
 703              	.LBE169:
 704              	.LBE168:
 705              	.LBE167:
 706              	.LBE166:
 707              	.LBE165:
 708              		.loc 1 266 0
 709 0012 08BD     		pop	{r3, pc}
 710              		.cfi_endproc
 711              	.LFE236:
 712              		.size	chCondWaitTimeout, .-chCondWaitTimeout
 713 0014 AFF30080 		.text
 713      AFF30080 
 713      AFF30080 
 714              	.Letext0:
 715              		.file 6 "/usr/arm-none-eabi/include/machine/_default_types.h"
 716              		.file 7 "/usr/arm-none-eabi/include/stdint.h"
 717              		.file 8 "../../os/rt/ports/ARMCMx/compilers/GCC/chtypes.h"
 718              		.file 9 "../../os/rt/include/chsystypes.h"
 719              		.file 10 "../../os/rt/ports/ARMCMx/chcore.h"
 720              		.file 11 "../../os/rt/ports/ARMCMx/chcore_v7m.h"
 721              		.file 12 "../../os/rt/include/chtm.h"
 722              		.file 13 "../../os/rt/include/chsem.h"
 723              		.file 14 "../../os/rt/include/chcond.h"
 724              		.file 15 "../../os/rt/include/chsys.h"
 725              		.file 16 "../../os/ext/CMSIS/include/core_cm4.h"
ARM GAS  /tmp/ccB3q9ZZ.s 			page 14


 726              		.section	.debug_info,"",%progbits
 727              	.Ldebug_info0:
 728 0000 2E100000 		.4byte	0x102e
 729 0004 0400     		.2byte	0x4
 730 0006 00000000 		.4byte	.Ldebug_abbrev0
 731 000a 04       		.byte	0x4
 732 000b 01       		.uleb128 0x1
 733 000c 8A020000 		.4byte	.LASF137
 734 0010 0C       		.byte	0xc
 735 0011 8B010000 		.4byte	.LASF138
 736 0015 E5050000 		.4byte	.LASF139
 737 0019 88000000 		.4byte	.Ldebug_ranges0+0x88
 738 001d 00000000 		.4byte	0
 739 0021 00000000 		.4byte	.Ldebug_line0
 740 0025 02       		.uleb128 0x2
 741 0026 04       		.byte	0x4
 742 0027 05       		.byte	0x5
 743 0028 696E7400 		.ascii	"int\000"
 744 002c 03       		.uleb128 0x3
 745 002d 04       		.byte	0x4
 746 002e 07       		.byte	0x7
 747 002f E1010000 		.4byte	.LASF0
 748 0033 03       		.uleb128 0x3
 749 0034 08       		.byte	0x8
 750 0035 05       		.byte	0x5
 751 0036 D4000000 		.4byte	.LASF1
 752 003a 03       		.uleb128 0x3
 753 003b 08       		.byte	0x8
 754 003c 04       		.byte	0x4
 755 003d 86050000 		.4byte	.LASF2
 756 0041 03       		.uleb128 0x3
 757 0042 01       		.byte	0x1
 758 0043 06       		.byte	0x6
 759 0044 E2000000 		.4byte	.LASF3
 760 0048 04       		.uleb128 0x4
 761 0049 23000000 		.4byte	.LASF7
 762 004d 06       		.byte	0x6
 763 004e 1D       		.byte	0x1d
 764 004f 53000000 		.4byte	0x53
 765 0053 03       		.uleb128 0x3
 766 0054 01       		.byte	0x1
 767 0055 08       		.byte	0x8
 768 0056 72040000 		.4byte	.LASF4
 769 005a 03       		.uleb128 0x3
 770 005b 02       		.byte	0x2
 771 005c 05       		.byte	0x5
 772 005d 8A040000 		.4byte	.LASF5
 773 0061 03       		.uleb128 0x3
 774 0062 02       		.byte	0x2
 775 0063 07       		.byte	0x7
 776 0064 17020000 		.4byte	.LASF6
 777 0068 04       		.uleb128 0x4
 778 0069 75020000 		.4byte	.LASF8
 779 006d 06       		.byte	0x6
 780 006e 3F       		.byte	0x3f
 781 006f 73000000 		.4byte	0x73
 782 0073 03       		.uleb128 0x3
ARM GAS  /tmp/ccB3q9ZZ.s 			page 15


 783 0074 04       		.byte	0x4
 784 0075 05       		.byte	0x5
 785 0076 30010000 		.4byte	.LASF9
 786 007a 04       		.uleb128 0x4
 787 007b C2050000 		.4byte	.LASF10
 788 007f 06       		.byte	0x6
 789 0080 41       		.byte	0x41
 790 0081 85000000 		.4byte	0x85
 791 0085 03       		.uleb128 0x3
 792 0086 04       		.byte	0x4
 793 0087 07       		.byte	0x7
 794 0088 52050000 		.4byte	.LASF11
 795 008c 04       		.uleb128 0x4
 796 008d 24040000 		.4byte	.LASF12
 797 0091 06       		.byte	0x6
 798 0092 5B       		.byte	0x5b
 799 0093 97000000 		.4byte	0x97
 800 0097 03       		.uleb128 0x3
 801 0098 08       		.byte	0x8
 802 0099 07       		.byte	0x7
 803 009a 6E000000 		.4byte	.LASF13
 804 009e 04       		.uleb128 0x4
 805 009f 90060000 		.4byte	.LASF14
 806 00a3 07       		.byte	0x7
 807 00a4 15       		.byte	0x15
 808 00a5 48000000 		.4byte	0x48
 809 00a9 04       		.uleb128 0x4
 810 00aa 6A040000 		.4byte	.LASF15
 811 00ae 07       		.byte	0x7
 812 00af 2C       		.byte	0x2c
 813 00b0 68000000 		.4byte	0x68
 814 00b4 04       		.uleb128 0x4
 815 00b5 1E050000 		.4byte	.LASF16
 816 00b9 07       		.byte	0x7
 817 00ba 2D       		.byte	0x2d
 818 00bb 7A000000 		.4byte	0x7a
 819 00bf 04       		.uleb128 0x4
 820 00c0 1A000000 		.4byte	.LASF17
 821 00c4 07       		.byte	0x7
 822 00c5 39       		.byte	0x39
 823 00c6 8C000000 		.4byte	0x8c
 824 00ca 05       		.uleb128 0x5
 825 00cb A9000000 		.4byte	0xa9
 826 00cf 04       		.uleb128 0x4
 827 00d0 39060000 		.4byte	.LASF18
 828 00d4 08       		.byte	0x8
 829 00d5 45       		.byte	0x45
 830 00d6 B4000000 		.4byte	0xb4
 831 00da 04       		.uleb128 0x4
 832 00db 53020000 		.4byte	.LASF19
 833 00df 08       		.byte	0x8
 834 00e0 48       		.byte	0x48
 835 00e1 9E000000 		.4byte	0x9e
 836 00e5 04       		.uleb128 0x4
 837 00e6 39010000 		.4byte	.LASF20
 838 00ea 08       		.byte	0x8
 839 00eb 49       		.byte	0x49
ARM GAS  /tmp/ccB3q9ZZ.s 			page 16


 840 00ec 9E000000 		.4byte	0x9e
 841 00f0 04       		.uleb128 0x4
 842 00f1 2F040000 		.4byte	.LASF21
 843 00f5 08       		.byte	0x8
 844 00f6 4A       		.byte	0x4a
 845 00f7 9E000000 		.4byte	0x9e
 846 00fb 04       		.uleb128 0x4
 847 00fc 4E040000 		.4byte	.LASF22
 848 0100 08       		.byte	0x8
 849 0101 4C       		.byte	0x4c
 850 0102 B4000000 		.4byte	0xb4
 851 0106 04       		.uleb128 0x4
 852 0107 41020000 		.4byte	.LASF23
 853 010b 08       		.byte	0x8
 854 010c 4D       		.byte	0x4d
 855 010d A9000000 		.4byte	0xa9
 856 0111 04       		.uleb128 0x4
 857 0112 69020000 		.4byte	.LASF24
 858 0116 08       		.byte	0x8
 859 0117 4F       		.byte	0x4f
 860 0118 B4000000 		.4byte	0xb4
 861 011c 04       		.uleb128 0x4
 862 011d CE010000 		.4byte	.LASF25
 863 0121 08       		.byte	0x8
 864 0122 51       		.byte	0x51
 865 0123 A9000000 		.4byte	0xa9
 866 0127 04       		.uleb128 0x4
 867 0128 A4050000 		.4byte	.LASF26
 868 012c 09       		.byte	0x9
 869 012d 33       		.byte	0x33
 870 012e B4000000 		.4byte	0xb4
 871 0132 04       		.uleb128 0x4
 872 0133 73060000 		.4byte	.LASF27
 873 0137 09       		.byte	0x9
 874 0138 3F       		.byte	0x3f
 875 0139 3D010000 		.4byte	0x13d
 876 013d 06       		.uleb128 0x6
 877 013e 2A020000 		.4byte	.LASF47
 878 0142 44       		.byte	0x44
 879 0143 02       		.byte	0x2
 880 0144 C2       		.byte	0xc2
 881 0145 2A020000 		.4byte	0x22a
 882 0149 07       		.uleb128 0x7
 883 014a AA040000 		.4byte	.LASF28
 884 014e 02       		.byte	0x2
 885 014f C3       		.byte	0xc3
 886 0150 35020000 		.4byte	0x235
 887 0154 00       		.byte	0
 888 0155 07       		.uleb128 0x7
 889 0156 47040000 		.4byte	.LASF29
 890 015a 02       		.byte	0x2
 891 015b C5       		.byte	0xc5
 892 015c 35020000 		.4byte	0x235
 893 0160 04       		.byte	0x4
 894 0161 07       		.uleb128 0x7
 895 0162 CD000000 		.4byte	.LASF30
 896 0166 02       		.byte	0x2
ARM GAS  /tmp/ccB3q9ZZ.s 			page 17


 897 0167 C7       		.byte	0xc7
 898 0168 FB000000 		.4byte	0xfb
 899 016c 08       		.byte	0x8
 900 016d 07       		.uleb128 0x7
 901 016e 1D070000 		.4byte	.LASF31
 902 0172 02       		.byte	0x2
 903 0173 C8       		.byte	0xc8
 904 0174 65040000 		.4byte	0x465
 905 0178 0C       		.byte	0xc
 906 0179 07       		.uleb128 0x7
 907 017a 51010000 		.4byte	.LASF32
 908 017e 02       		.byte	0x2
 909 017f CA       		.byte	0xca
 910 0180 35020000 		.4byte	0x235
 911 0184 10       		.byte	0x10
 912 0185 07       		.uleb128 0x7
 913 0186 D7030000 		.4byte	.LASF33
 914 018a 02       		.byte	0x2
 915 018b CB       		.byte	0xcb
 916 018c 35020000 		.4byte	0x235
 917 0190 14       		.byte	0x14
 918 0191 07       		.uleb128 0x7
 919 0192 9F060000 		.4byte	.LASF34
 920 0196 02       		.byte	0x2
 921 0197 D2       		.byte	0xd2
 922 0198 AA060000 		.4byte	0x6aa
 923 019c 18       		.byte	0x18
 924 019d 07       		.uleb128 0x7
 925 019e 94040000 		.4byte	.LASF35
 926 01a2 02       		.byte	0x2
 927 01a3 DD       		.byte	0xdd
 928 01a4 E5000000 		.4byte	0xe5
 929 01a8 1C       		.byte	0x1c
 930 01a9 07       		.uleb128 0x7
 931 01aa B1040000 		.4byte	.LASF36
 932 01ae 02       		.byte	0x2
 933 01af E1       		.byte	0xe1
 934 01b0 DA000000 		.4byte	0xda
 935 01b4 1D       		.byte	0x1d
 936 01b5 07       		.uleb128 0x7
 937 01b6 6C060000 		.4byte	.LASF37
 938 01ba 02       		.byte	0x2
 939 01bb E6       		.byte	0xe6
 940 01bc F0000000 		.4byte	0xf0
 941 01c0 1E       		.byte	0x1e
 942 01c1 08       		.uleb128 0x8
 943 01c2 705F7500 		.ascii	"p_u\000"
 944 01c6 02       		.byte	0x2
 945 01c7 3101     		.2byte	0x131
 946 01c9 E5050000 		.4byte	0x5e5
 947 01cd 20       		.byte	0x20
 948 01ce 09       		.uleb128 0x9
 949 01cf 68030000 		.4byte	.LASF38
 950 01d3 02       		.byte	0x2
 951 01d4 3601     		.2byte	0x136
 952 01d6 3B020000 		.4byte	0x23b
 953 01da 24       		.byte	0x24
ARM GAS  /tmp/ccB3q9ZZ.s 			page 18


 954 01db 09       		.uleb128 0x9
 955 01dc 06020000 		.4byte	.LASF39
 956 01e0 02       		.byte	0x2
 957 01e1 3C01     		.2byte	0x13c
 958 01e3 5F020000 		.4byte	0x25f
 959 01e7 28       		.byte	0x28
 960 01e8 09       		.uleb128 0x9
 961 01e9 33060000 		.4byte	.LASF40
 962 01ed 02       		.byte	0x2
 963 01ee 4001     		.2byte	0x140
 964 01f0 06010000 		.4byte	0x106
 965 01f4 30       		.byte	0x30
 966 01f5 09       		.uleb128 0x9
 967 01f6 00050000 		.4byte	.LASF41
 968 01fa 02       		.byte	0x2
 969 01fb 4601     		.2byte	0x146
 970 01fd 11010000 		.4byte	0x111
 971 0201 34       		.byte	0x34
 972 0202 09       		.uleb128 0x9
 973 0203 80040000 		.4byte	.LASF42
 974 0207 02       		.byte	0x2
 975 0208 4D01     		.2byte	0x14d
 976 020a A4060000 		.4byte	0x6a4
 977 020e 38       		.byte	0x38
 978 020f 09       		.uleb128 0x9
 979 0210 AE050000 		.4byte	.LASF43
 980 0214 02       		.byte	0x2
 981 0215 5101     		.2byte	0x151
 982 0217 FB000000 		.4byte	0xfb
 983 021b 3C       		.byte	0x3c
 984 021c 09       		.uleb128 0x9
 985 021d 03010000 		.4byte	.LASF44
 986 0221 02       		.byte	0x2
 987 0222 5801     		.2byte	0x158
 988 0224 12030000 		.4byte	0x312
 989 0228 40       		.byte	0x40
 990 0229 00       		.byte	0
 991 022a 04       		.uleb128 0x4
 992 022b 7B030000 		.4byte	.LASF45
 993 022f 09       		.byte	0x9
 994 0230 44       		.byte	0x44
 995 0231 35020000 		.4byte	0x235
 996 0235 0A       		.uleb128 0xa
 997 0236 04       		.byte	0x4
 998 0237 32010000 		.4byte	0x132
 999 023b 04       		.uleb128 0x4
 1000 023c B8060000 		.4byte	.LASF46
 1001 0240 09       		.byte	0x9
 1002 0241 49       		.byte	0x49
 1003 0242 46020000 		.4byte	0x246
 1004 0246 06       		.uleb128 0x6
 1005 0247 42050000 		.4byte	.LASF48
 1006 024b 04       		.byte	0x4
 1007 024c 02       		.byte	0x2
 1008 024d B0       		.byte	0xb0
 1009 024e 5F020000 		.4byte	0x25f
 1010 0252 07       		.uleb128 0x7
ARM GAS  /tmp/ccB3q9ZZ.s 			page 19


 1011 0253 AA040000 		.4byte	.LASF28
 1012 0257 02       		.byte	0x2
 1013 0258 B1       		.byte	0xb1
 1014 0259 35020000 		.4byte	0x235
 1015 025d 00       		.byte	0
 1016 025e 00       		.byte	0
 1017 025f 04       		.uleb128 0x4
 1018 0260 53060000 		.4byte	.LASF49
 1019 0264 09       		.byte	0x9
 1020 0265 50       		.byte	0x50
 1021 0266 6A020000 		.4byte	0x26a
 1022 026a 06       		.uleb128 0x6
 1023 026b BC000000 		.4byte	.LASF50
 1024 026f 08       		.byte	0x8
 1025 0270 02       		.byte	0x2
 1026 0271 B7       		.byte	0xb7
 1027 0272 8F020000 		.4byte	0x28f
 1028 0276 07       		.uleb128 0x7
 1029 0277 AA040000 		.4byte	.LASF28
 1030 027b 02       		.byte	0x2
 1031 027c B8       		.byte	0xb8
 1032 027d 35020000 		.4byte	0x235
 1033 0281 00       		.byte	0
 1034 0282 07       		.uleb128 0x7
 1035 0283 47040000 		.4byte	.LASF29
 1036 0287 02       		.byte	0x2
 1037 0288 B9       		.byte	0xb9
 1038 0289 35020000 		.4byte	0x235
 1039 028d 04       		.byte	0x4
 1040 028e 00       		.byte	0
 1041 028f 04       		.uleb128 0x4
 1042 0290 00000000 		.4byte	.LASF51
 1043 0294 09       		.byte	0x9
 1044 0295 57       		.byte	0x57
 1045 0296 9A020000 		.4byte	0x29a
 1046 029a 0B       		.uleb128 0xb
 1047 029b 5B020000 		.4byte	.LASF52
 1048 029f 1C       		.byte	0x1c
 1049 02a0 02       		.byte	0x2
 1050 02a1 9001     		.2byte	0x190
 1051 02a3 F6020000 		.4byte	0x2f6
 1052 02a7 09       		.uleb128 0x9
 1053 02a8 2E050000 		.4byte	.LASF53
 1054 02ac 02       		.byte	0x2
 1055 02ad 9101     		.2byte	0x191
 1056 02af 5F020000 		.4byte	0x25f
 1057 02b3 00       		.byte	0
 1058 02b4 09       		.uleb128 0x9
 1059 02b5 9C040000 		.4byte	.LASF54
 1060 02b9 02       		.byte	0x2
 1061 02ba 9201     		.2byte	0x192
 1062 02bc FB000000 		.4byte	0xfb
 1063 02c0 08       		.byte	0x8
 1064 02c1 09       		.uleb128 0x9
 1065 02c2 DF030000 		.4byte	.LASF55
 1066 02c6 02       		.byte	0x2
 1067 02c7 9401     		.2byte	0x194
ARM GAS  /tmp/ccB3q9ZZ.s 			page 20


 1068 02c9 65040000 		.4byte	0x465
 1069 02cd 0C       		.byte	0xc
 1070 02ce 09       		.uleb128 0x9
 1071 02cf 72010000 		.4byte	.LASF56
 1072 02d3 02       		.byte	0x2
 1073 02d4 9701     		.2byte	0x197
 1074 02d6 35020000 		.4byte	0x235
 1075 02da 10       		.byte	0x10
 1076 02db 09       		.uleb128 0x9
 1077 02dc 0C040000 		.4byte	.LASF57
 1078 02e0 02       		.byte	0x2
 1079 02e1 9801     		.2byte	0x198
 1080 02e3 35020000 		.4byte	0x235
 1081 02e7 14       		.byte	0x14
 1082 02e8 09       		.uleb128 0x9
 1083 02e9 02040000 		.4byte	.LASF58
 1084 02ed 02       		.byte	0x2
 1085 02ee 9B01     		.2byte	0x19b
 1086 02f0 35020000 		.4byte	0x235
 1087 02f4 18       		.byte	0x18
 1088 02f5 00       		.byte	0
 1089 02f6 04       		.uleb128 0x4
 1090 02f7 B9050000 		.4byte	.LASF59
 1091 02fb 09       		.byte	0x9
 1092 02fc 5C       		.byte	0x5c
 1093 02fd 01030000 		.4byte	0x301
 1094 0301 0A       		.uleb128 0xa
 1095 0302 04       		.byte	0x4
 1096 0303 07030000 		.4byte	0x307
 1097 0307 0C       		.uleb128 0xc
 1098 0308 12030000 		.4byte	0x312
 1099 030c 0D       		.uleb128 0xd
 1100 030d 12030000 		.4byte	0x312
 1101 0311 00       		.byte	0
 1102 0312 0E       		.uleb128 0xe
 1103 0313 04       		.byte	0x4
 1104 0314 04       		.uleb128 0x4
 1105 0315 37040000 		.4byte	.LASF60
 1106 0319 09       		.byte	0x9
 1107 031a 61       		.byte	0x61
 1108 031b 1F030000 		.4byte	0x31f
 1109 031f 0B       		.uleb128 0xb
 1110 0320 CC040000 		.4byte	.LASF61
 1111 0324 14       		.byte	0x14
 1112 0325 02       		.byte	0x2
 1113 0326 6B01     		.2byte	0x16b
 1114 0328 6E030000 		.4byte	0x36e
 1115 032c 09       		.uleb128 0x9
 1116 032d EE010000 		.4byte	.LASF62
 1117 0331 02       		.byte	0x2
 1118 0332 6C01     		.2byte	0x16c
 1119 0334 BC060000 		.4byte	0x6bc
 1120 0338 00       		.byte	0
 1121 0339 09       		.uleb128 0x9
 1122 033a 83010000 		.4byte	.LASF63
 1123 033e 02       		.byte	0x2
 1124 033f 6D01     		.2byte	0x16d
ARM GAS  /tmp/ccB3q9ZZ.s 			page 21


 1125 0341 BC060000 		.4byte	0x6bc
 1126 0345 04       		.byte	0x4
 1127 0346 09       		.uleb128 0x9
 1128 0347 FD010000 		.4byte	.LASF64
 1129 034b 02       		.byte	0x2
 1130 034c 6E01     		.2byte	0x16e
 1131 034e 27010000 		.4byte	0x127
 1132 0352 08       		.byte	0x8
 1133 0353 09       		.uleb128 0x9
 1134 0354 23070000 		.4byte	.LASF65
 1135 0358 02       		.byte	0x2
 1136 0359 6F01     		.2byte	0x16f
 1137 035b F6020000 		.4byte	0x2f6
 1138 035f 0C       		.byte	0xc
 1139 0360 09       		.uleb128 0x9
 1140 0361 4C060000 		.4byte	.LASF66
 1141 0365 02       		.byte	0x2
 1142 0366 7101     		.2byte	0x171
 1143 0368 12030000 		.4byte	0x312
 1144 036c 10       		.byte	0x10
 1145 036d 00       		.byte	0
 1146 036e 04       		.uleb128 0x4
 1147 036f 99000000 		.4byte	.LASF67
 1148 0373 09       		.byte	0x9
 1149 0374 66       		.byte	0x66
 1150 0375 79030000 		.4byte	0x379
 1151 0379 0B       		.uleb128 0xb
 1152 037a 8E030000 		.4byte	.LASF68
 1153 037e 10       		.byte	0x10
 1154 037f 02       		.byte	0x2
 1155 0380 7B01     		.2byte	0x17b
 1156 0382 BB030000 		.4byte	0x3bb
 1157 0386 09       		.uleb128 0x9
 1158 0387 EE010000 		.4byte	.LASF62
 1159 038b 02       		.byte	0x2
 1160 038c 7C01     		.2byte	0x17c
 1161 038e BC060000 		.4byte	0x6bc
 1162 0392 00       		.byte	0
 1163 0393 09       		.uleb128 0x9
 1164 0394 83010000 		.4byte	.LASF63
 1165 0398 02       		.byte	0x2
 1166 0399 7E01     		.2byte	0x17e
 1167 039b BC060000 		.4byte	0x6bc
 1168 039f 04       		.byte	0x4
 1169 03a0 09       		.uleb128 0x9
 1170 03a1 FD010000 		.4byte	.LASF64
 1171 03a5 02       		.byte	0x2
 1172 03a6 8001     		.2byte	0x180
 1173 03a8 27010000 		.4byte	0x127
 1174 03ac 08       		.byte	0x8
 1175 03ad 09       		.uleb128 0x9
 1176 03ae CB030000 		.4byte	.LASF69
 1177 03b2 02       		.byte	0x2
 1178 03b3 8801     		.2byte	0x188
 1179 03b5 27010000 		.4byte	0x127
 1180 03b9 0C       		.byte	0xc
 1181 03ba 00       		.byte	0
ARM GAS  /tmp/ccB3q9ZZ.s 			page 22


 1182 03bb 04       		.uleb128 0x4
 1183 03bc 39000000 		.4byte	.LASF70
 1184 03c0 09       		.byte	0x9
 1185 03c1 6B       		.byte	0x6b
 1186 03c2 C6030000 		.4byte	0x3c6
 1187 03c6 0B       		.uleb128 0xb
 1188 03c7 E8060000 		.4byte	.LASF71
 1189 03cb 04       		.byte	0x4
 1190 03cc 02       		.byte	0x2
 1191 03cd A201     		.2byte	0x1a2
 1192 03cf E1030000 		.4byte	0x3e1
 1193 03d3 09       		.uleb128 0x9
 1194 03d4 DB050000 		.4byte	.LASF72
 1195 03d8 02       		.byte	0x2
 1196 03d9 AA01     		.2byte	0x1aa
 1197 03db C2060000 		.4byte	0x6c2
 1198 03df 00       		.byte	0
 1199 03e0 00       		.byte	0
 1200 03e1 04       		.uleb128 0x4
 1201 03e2 47020000 		.4byte	.LASF73
 1202 03e6 09       		.byte	0x9
 1203 03e7 70       		.byte	0x70
 1204 03e8 EC030000 		.4byte	0x3ec
 1205 03ec 0F       		.uleb128 0xf
 1206 03ed 26010000 		.4byte	.LASF74
 1207 03f1 D801     		.2byte	0x1d8
 1208 03f3 02       		.byte	0x2
 1209 03f4 C201     		.2byte	0x1c2
 1210 03f6 48040000 		.4byte	0x448
 1211 03fa 09       		.uleb128 0x9
 1212 03fb 7C060000 		.4byte	.LASF75
 1213 03ff 02       		.byte	0x2
 1214 0400 C601     		.2byte	0x1c6
 1215 0402 8F020000 		.4byte	0x28f
 1216 0406 00       		.byte	0
 1217 0407 09       		.uleb128 0x9
 1218 0408 13010000 		.4byte	.LASF76
 1219 040c 02       		.byte	0x2
 1220 040d CA01     		.2byte	0x1ca
 1221 040f 6E030000 		.4byte	0x36e
 1222 0413 1C       		.byte	0x1c
 1223 0414 08       		.uleb128 0x8
 1224 0415 64626700 		.ascii	"dbg\000"
 1225 0419 02       		.byte	0x2
 1226 041a CE01     		.2byte	0x1ce
 1227 041c BB030000 		.4byte	0x3bb
 1228 0420 2C       		.byte	0x2c
 1229 0421 09       		.uleb128 0x9
 1230 0422 8E000000 		.4byte	.LASF77
 1231 0426 02       		.byte	0x2
 1232 0427 D201     		.2byte	0x1d2
 1233 0429 32010000 		.4byte	0x132
 1234 042d 30       		.byte	0x30
 1235 042e 08       		.uleb128 0x8
 1236 042f 746D00   		.ascii	"tm\000"
 1237 0432 02       		.byte	0x2
 1238 0433 D701     		.2byte	0x1d7
ARM GAS  /tmp/ccB3q9ZZ.s 			page 23


 1239 0435 DA050000 		.4byte	0x5da
 1240 0439 74       		.byte	0x74
 1241 043a 09       		.uleb128 0x9
 1242 043b BF010000 		.4byte	.LASF78
 1243 043f 02       		.byte	0x2
 1244 0440 E301     		.2byte	0x1e3
 1245 0442 C7060000 		.4byte	0x6c7
 1246 0446 78       		.byte	0x78
 1247 0447 00       		.byte	0
 1248 0448 03       		.uleb128 0x3
 1249 0449 04       		.byte	0x4
 1250 044a 07       		.byte	0x7
 1251 044b 72030000 		.4byte	.LASF79
 1252 044f 04       		.uleb128 0x4
 1253 0450 7A010000 		.4byte	.LASF80
 1254 0454 0A       		.byte	0xa
 1255 0455 65       		.byte	0x65
 1256 0456 12030000 		.4byte	0x312
 1257 045a 04       		.uleb128 0x4
 1258 045b 7F020000 		.4byte	.LASF81
 1259 045f 0A       		.byte	0xa
 1260 0460 6D       		.byte	0x6d
 1261 0461 BF000000 		.4byte	0xbf
 1262 0465 06       		.uleb128 0x6
 1263 0466 2B060000 		.4byte	.LASF82
 1264 046a 04       		.byte	0x4
 1265 046b 0A       		.byte	0xa
 1266 046c 89       		.byte	0x89
 1267 046d 7E040000 		.4byte	0x47e
 1268 0471 10       		.uleb128 0x10
 1269 0472 72313300 		.ascii	"r13\000"
 1270 0476 0A       		.byte	0xa
 1271 0477 8A       		.byte	0x8a
 1272 0478 BF050000 		.4byte	0x5bf
 1273 047c 00       		.byte	0
 1274 047d 00       		.byte	0
 1275 047e 06       		.uleb128 0x6
 1276 047f 2D000000 		.4byte	.LASF83
 1277 0483 64       		.byte	0x64
 1278 0484 0B       		.byte	0xb
 1279 0485 F4       		.byte	0xf4
 1280 0486 BF050000 		.4byte	0x5bf
 1281 048a 10       		.uleb128 0x10
 1282 048b 73313600 		.ascii	"s16\000"
 1283 048f 0B       		.byte	0xb
 1284 0490 F6       		.byte	0xf6
 1285 0491 4F040000 		.4byte	0x44f
 1286 0495 00       		.byte	0
 1287 0496 10       		.uleb128 0x10
 1288 0497 73313700 		.ascii	"s17\000"
 1289 049b 0B       		.byte	0xb
 1290 049c F7       		.byte	0xf7
 1291 049d 4F040000 		.4byte	0x44f
 1292 04a1 04       		.byte	0x4
 1293 04a2 10       		.uleb128 0x10
 1294 04a3 73313800 		.ascii	"s18\000"
 1295 04a7 0B       		.byte	0xb
ARM GAS  /tmp/ccB3q9ZZ.s 			page 24


 1296 04a8 F8       		.byte	0xf8
 1297 04a9 4F040000 		.4byte	0x44f
 1298 04ad 08       		.byte	0x8
 1299 04ae 10       		.uleb128 0x10
 1300 04af 73313900 		.ascii	"s19\000"
 1301 04b3 0B       		.byte	0xb
 1302 04b4 F9       		.byte	0xf9
 1303 04b5 4F040000 		.4byte	0x44f
 1304 04b9 0C       		.byte	0xc
 1305 04ba 10       		.uleb128 0x10
 1306 04bb 73323000 		.ascii	"s20\000"
 1307 04bf 0B       		.byte	0xb
 1308 04c0 FA       		.byte	0xfa
 1309 04c1 4F040000 		.4byte	0x44f
 1310 04c5 10       		.byte	0x10
 1311 04c6 10       		.uleb128 0x10
 1312 04c7 73323100 		.ascii	"s21\000"
 1313 04cb 0B       		.byte	0xb
 1314 04cc FB       		.byte	0xfb
 1315 04cd 4F040000 		.4byte	0x44f
 1316 04d1 14       		.byte	0x14
 1317 04d2 10       		.uleb128 0x10
 1318 04d3 73323200 		.ascii	"s22\000"
 1319 04d7 0B       		.byte	0xb
 1320 04d8 FC       		.byte	0xfc
 1321 04d9 4F040000 		.4byte	0x44f
 1322 04dd 18       		.byte	0x18
 1323 04de 10       		.uleb128 0x10
 1324 04df 73323300 		.ascii	"s23\000"
 1325 04e3 0B       		.byte	0xb
 1326 04e4 FD       		.byte	0xfd
 1327 04e5 4F040000 		.4byte	0x44f
 1328 04e9 1C       		.byte	0x1c
 1329 04ea 10       		.uleb128 0x10
 1330 04eb 73323400 		.ascii	"s24\000"
 1331 04ef 0B       		.byte	0xb
 1332 04f0 FE       		.byte	0xfe
 1333 04f1 4F040000 		.4byte	0x44f
 1334 04f5 20       		.byte	0x20
 1335 04f6 10       		.uleb128 0x10
 1336 04f7 73323500 		.ascii	"s25\000"
 1337 04fb 0B       		.byte	0xb
 1338 04fc FF       		.byte	0xff
 1339 04fd 4F040000 		.4byte	0x44f
 1340 0501 24       		.byte	0x24
 1341 0502 08       		.uleb128 0x8
 1342 0503 73323600 		.ascii	"s26\000"
 1343 0507 0B       		.byte	0xb
 1344 0508 0001     		.2byte	0x100
 1345 050a 4F040000 		.4byte	0x44f
 1346 050e 28       		.byte	0x28
 1347 050f 08       		.uleb128 0x8
 1348 0510 73323700 		.ascii	"s27\000"
 1349 0514 0B       		.byte	0xb
 1350 0515 0101     		.2byte	0x101
 1351 0517 4F040000 		.4byte	0x44f
 1352 051b 2C       		.byte	0x2c
ARM GAS  /tmp/ccB3q9ZZ.s 			page 25


 1353 051c 08       		.uleb128 0x8
 1354 051d 73323800 		.ascii	"s28\000"
 1355 0521 0B       		.byte	0xb
 1356 0522 0201     		.2byte	0x102
 1357 0524 4F040000 		.4byte	0x44f
 1358 0528 30       		.byte	0x30
 1359 0529 08       		.uleb128 0x8
 1360 052a 73323900 		.ascii	"s29\000"
 1361 052e 0B       		.byte	0xb
 1362 052f 0301     		.2byte	0x103
 1363 0531 4F040000 		.4byte	0x44f
 1364 0535 34       		.byte	0x34
 1365 0536 08       		.uleb128 0x8
 1366 0537 73333000 		.ascii	"s30\000"
 1367 053b 0B       		.byte	0xb
 1368 053c 0401     		.2byte	0x104
 1369 053e 4F040000 		.4byte	0x44f
 1370 0542 38       		.byte	0x38
 1371 0543 08       		.uleb128 0x8
 1372 0544 73333100 		.ascii	"s31\000"
 1373 0548 0B       		.byte	0xb
 1374 0549 0501     		.2byte	0x105
 1375 054b 4F040000 		.4byte	0x44f
 1376 054f 3C       		.byte	0x3c
 1377 0550 08       		.uleb128 0x8
 1378 0551 723400   		.ascii	"r4\000"
 1379 0554 0B       		.byte	0xb
 1380 0555 0701     		.2byte	0x107
 1381 0557 4F040000 		.4byte	0x44f
 1382 055b 40       		.byte	0x40
 1383 055c 08       		.uleb128 0x8
 1384 055d 723500   		.ascii	"r5\000"
 1385 0560 0B       		.byte	0xb
 1386 0561 0801     		.2byte	0x108
 1387 0563 4F040000 		.4byte	0x44f
 1388 0567 44       		.byte	0x44
 1389 0568 08       		.uleb128 0x8
 1390 0569 723600   		.ascii	"r6\000"
 1391 056c 0B       		.byte	0xb
 1392 056d 0901     		.2byte	0x109
 1393 056f 4F040000 		.4byte	0x44f
 1394 0573 48       		.byte	0x48
 1395 0574 08       		.uleb128 0x8
 1396 0575 723700   		.ascii	"r7\000"
 1397 0578 0B       		.byte	0xb
 1398 0579 0A01     		.2byte	0x10a
 1399 057b 4F040000 		.4byte	0x44f
 1400 057f 4C       		.byte	0x4c
 1401 0580 08       		.uleb128 0x8
 1402 0581 723800   		.ascii	"r8\000"
 1403 0584 0B       		.byte	0xb
 1404 0585 0B01     		.2byte	0x10b
 1405 0587 4F040000 		.4byte	0x44f
 1406 058b 50       		.byte	0x50
 1407 058c 08       		.uleb128 0x8
 1408 058d 723900   		.ascii	"r9\000"
 1409 0590 0B       		.byte	0xb
ARM GAS  /tmp/ccB3q9ZZ.s 			page 26


 1410 0591 0C01     		.2byte	0x10c
 1411 0593 4F040000 		.4byte	0x44f
 1412 0597 54       		.byte	0x54
 1413 0598 08       		.uleb128 0x8
 1414 0599 72313000 		.ascii	"r10\000"
 1415 059d 0B       		.byte	0xb
 1416 059e 0D01     		.2byte	0x10d
 1417 05a0 4F040000 		.4byte	0x44f
 1418 05a4 58       		.byte	0x58
 1419 05a5 08       		.uleb128 0x8
 1420 05a6 72313100 		.ascii	"r11\000"
 1421 05aa 0B       		.byte	0xb
 1422 05ab 0E01     		.2byte	0x10e
 1423 05ad 4F040000 		.4byte	0x44f
 1424 05b1 5C       		.byte	0x5c
 1425 05b2 08       		.uleb128 0x8
 1426 05b3 6C7200   		.ascii	"lr\000"
 1427 05b6 0B       		.byte	0xb
 1428 05b7 0F01     		.2byte	0x10f
 1429 05b9 4F040000 		.4byte	0x44f
 1430 05bd 60       		.byte	0x60
 1431 05be 00       		.byte	0
 1432 05bf 0A       		.uleb128 0xa
 1433 05c0 04       		.byte	0x4
 1434 05c1 7E040000 		.4byte	0x47e
 1435 05c5 11       		.uleb128 0x11
 1436 05c6 04       		.byte	0x4
 1437 05c7 0C       		.byte	0xc
 1438 05c8 38       		.byte	0x38
 1439 05c9 DA050000 		.4byte	0x5da
 1440 05cd 07       		.uleb128 0x7
 1441 05ce 24060000 		.4byte	.LASF84
 1442 05d2 0C       		.byte	0xc
 1443 05d3 3C       		.byte	0x3c
 1444 05d4 CF000000 		.4byte	0xcf
 1445 05d8 00       		.byte	0
 1446 05d9 00       		.byte	0
 1447 05da 04       		.uleb128 0x4
 1448 05db E5030000 		.4byte	.LASF85
 1449 05df 0C       		.byte	0xc
 1450 05e0 3D       		.byte	0x3d
 1451 05e1 C5050000 		.4byte	0x5c5
 1452 05e5 12       		.uleb128 0x12
 1453 05e6 04       		.byte	0x4
 1454 05e7 02       		.byte	0x2
 1455 05e8 FA       		.byte	0xfa
 1456 05e9 42060000 		.4byte	0x642
 1457 05ed 13       		.uleb128 0x13
 1458 05ee 13000000 		.4byte	.LASF86
 1459 05f2 02       		.byte	0x2
 1460 05f3 0101     		.2byte	0x101
 1461 05f5 06010000 		.4byte	0x106
 1462 05f9 13       		.uleb128 0x13
 1463 05fa 85000000 		.4byte	.LASF87
 1464 05fe 02       		.byte	0x2
 1465 05ff 0801     		.2byte	0x108
 1466 0601 06010000 		.4byte	0x106
ARM GAS  /tmp/ccB3q9ZZ.s 			page 27


 1467 0605 13       		.uleb128 0x13
 1468 0606 98060000 		.4byte	.LASF88
 1469 060a 02       		.byte	0x2
 1470 060b 0F01     		.2byte	0x10f
 1471 060d 12030000 		.4byte	0x312
 1472 0611 13       		.uleb128 0x13
 1473 0612 0D000000 		.4byte	.LASF89
 1474 0616 02       		.byte	0x2
 1475 0617 1601     		.2byte	0x116
 1476 0619 42060000 		.4byte	0x642
 1477 061d 13       		.uleb128 0x13
 1478 061e F6010000 		.4byte	.LASF90
 1479 0622 02       		.byte	0x2
 1480 0623 1E01     		.2byte	0x11e
 1481 0625 6D060000 		.4byte	0x66d
 1482 0629 13       		.uleb128 0x13
 1483 062a 27050000 		.4byte	.LASF91
 1484 062e 02       		.byte	0x2
 1485 062f 2701     		.2byte	0x127
 1486 0631 A4060000 		.4byte	0x6a4
 1487 0635 13       		.uleb128 0x13
 1488 0636 A3040000 		.4byte	.LASF92
 1489 063a 02       		.byte	0x2
 1490 063b 2F01     		.2byte	0x12f
 1491 063d 11010000 		.4byte	0x111
 1492 0641 00       		.byte	0
 1493 0642 0A       		.uleb128 0xa
 1494 0643 04       		.byte	0x4
 1495 0644 2A020000 		.4byte	0x22a
 1496 0648 06       		.uleb128 0x6
 1497 0649 E5040000 		.4byte	.LASF93
 1498 064d 0C       		.byte	0xc
 1499 064e 0D       		.byte	0xd
 1500 064f 34       		.byte	0x34
 1501 0650 6D060000 		.4byte	0x66d
 1502 0654 07       		.uleb128 0x7
 1503 0655 59010000 		.4byte	.LASF94
 1504 0659 0D       		.byte	0xd
 1505 065a 35       		.byte	0x35
 1506 065b 5F020000 		.4byte	0x25f
 1507 065f 00       		.byte	0
 1508 0660 07       		.uleb128 0x7
 1509 0661 11020000 		.4byte	.LASF95
 1510 0665 0D       		.byte	0xd
 1511 0666 37       		.byte	0x37
 1512 0667 1C010000 		.4byte	0x11c
 1513 066b 08       		.byte	0x8
 1514 066c 00       		.byte	0
 1515 066d 0A       		.uleb128 0xa
 1516 066e 04       		.byte	0x4
 1517 066f 48060000 		.4byte	0x648
 1518 0673 06       		.uleb128 0x6
 1519 0674 63060000 		.4byte	.LASF96
 1520 0678 10       		.byte	0x10
 1521 0679 04       		.byte	0x4
 1522 067a 39       		.byte	0x39
 1523 067b A4060000 		.4byte	0x6a4
ARM GAS  /tmp/ccB3q9ZZ.s 			page 28


 1524 067f 07       		.uleb128 0x7
 1525 0680 0B010000 		.4byte	.LASF97
 1526 0684 04       		.byte	0x4
 1527 0685 3A       		.byte	0x3a
 1528 0686 5F020000 		.4byte	0x25f
 1529 068a 00       		.byte	0
 1530 068b 07       		.uleb128 0x7
 1531 068c 15070000 		.4byte	.LASF98
 1532 0690 04       		.byte	0x4
 1533 0691 3C       		.byte	0x3c
 1534 0692 35020000 		.4byte	0x235
 1535 0696 08       		.byte	0x8
 1536 0697 07       		.uleb128 0x7
 1537 0698 F6030000 		.4byte	.LASF99
 1538 069c 04       		.byte	0x4
 1539 069d 3E       		.byte	0x3e
 1540 069e E2060000 		.4byte	0x6e2
 1541 06a2 0C       		.byte	0xc
 1542 06a3 00       		.byte	0
 1543 06a4 0A       		.uleb128 0xa
 1544 06a5 04       		.byte	0x4
 1545 06a6 73060000 		.4byte	0x673
 1546 06aa 0A       		.uleb128 0xa
 1547 06ab 04       		.byte	0x4
 1548 06ac B7060000 		.4byte	0x6b7
 1549 06b0 03       		.uleb128 0x3
 1550 06b1 01       		.byte	0x1
 1551 06b2 08       		.byte	0x8
 1552 06b3 64050000 		.4byte	.LASF100
 1553 06b7 14       		.uleb128 0x14
 1554 06b8 B0060000 		.4byte	0x6b0
 1555 06bc 0A       		.uleb128 0xa
 1556 06bd 04       		.byte	0x4
 1557 06be 14030000 		.4byte	0x314
 1558 06c2 05       		.uleb128 0x5
 1559 06c3 AA060000 		.4byte	0x6aa
 1560 06c7 15       		.uleb128 0x15
 1561 06c8 5A040000 		.4byte	0x45a
 1562 06cc D7060000 		.4byte	0x6d7
 1563 06d0 16       		.uleb128 0x16
 1564 06d1 48040000 		.4byte	0x448
 1565 06d5 2B       		.byte	0x2b
 1566 06d6 00       		.byte	0
 1567 06d7 04       		.uleb128 0x4
 1568 06d8 A4010000 		.4byte	.LASF101
 1569 06dc 04       		.byte	0x4
 1570 06dd 34       		.byte	0x34
 1571 06de 73060000 		.4byte	0x673
 1572 06e2 0A       		.uleb128 0xa
 1573 06e3 04       		.byte	0x4
 1574 06e4 D7060000 		.4byte	0x6d7
 1575 06e8 06       		.uleb128 0x6
 1576 06e9 A5030000 		.4byte	.LASF102
 1577 06ed 08       		.byte	0x8
 1578 06ee 0E       		.byte	0xe
 1579 06ef 3B       		.byte	0x3b
 1580 06f0 01070000 		.4byte	0x701
ARM GAS  /tmp/ccB3q9ZZ.s 			page 29


 1581 06f4 07       		.uleb128 0x7
 1582 06f5 DD040000 		.4byte	.LASF103
 1583 06f9 0E       		.byte	0xe
 1584 06fa 3C       		.byte	0x3c
 1585 06fb 5F020000 		.4byte	0x25f
 1586 06ff 00       		.byte	0
 1587 0700 00       		.byte	0
 1588 0701 04       		.uleb128 0x4
 1589 0702 EE000000 		.4byte	.LASF104
 1590 0706 0E       		.byte	0xe
 1591 0707 3E       		.byte	0x3e
 1592 0708 E8060000 		.4byte	0x6e8
 1593 070c 17       		.uleb128 0x17
 1594 070d CD050000 		.4byte	.LASF107
 1595 0711 03       		.byte	0x3
 1596 0712 2002     		.2byte	0x220
 1597 0714 03       		.byte	0x3
 1598 0715 26070000 		.4byte	0x726
 1599 0719 18       		.uleb128 0x18
 1600 071a AC010000 		.4byte	.LASF109
 1601 071e 03       		.byte	0x3
 1602 071f 2002     		.2byte	0x220
 1603 0721 B4000000 		.4byte	0xb4
 1604 0725 00       		.byte	0
 1605 0726 19       		.uleb128 0x19
 1606 0727 53000000 		.4byte	.LASF105
 1607 072b 0B       		.byte	0xb
 1608 072c BC01     		.2byte	0x1bc
 1609 072e 03       		.byte	0x3
 1610 072f 19       		.uleb128 0x19
 1611 0730 1A010000 		.4byte	.LASF106
 1612 0734 0B       		.byte	0xb
 1613 0735 CA01     		.2byte	0x1ca
 1614 0737 03       		.byte	0x3
 1615 0738 1A       		.uleb128 0x1a
 1616 0739 82060000 		.4byte	.LASF118
 1617 073d 05       		.byte	0x5
 1618 073e AE       		.byte	0xae
 1619 073f 35020000 		.4byte	0x235
 1620 0743 03       		.byte	0x3
 1621 0744 17       		.uleb128 0x17
 1622 0745 48000000 		.4byte	.LASF108
 1623 0749 02       		.byte	0x2
 1624 074a 5A02     		.2byte	0x25a
 1625 074c 03       		.byte	0x3
 1626 074d 5E070000 		.4byte	0x75e
 1627 0751 1B       		.uleb128 0x1b
 1628 0752 74717000 		.ascii	"tqp\000"
 1629 0756 02       		.byte	0x2
 1630 0757 5A02     		.2byte	0x25a
 1631 0759 5E070000 		.4byte	0x75e
 1632 075d 00       		.byte	0
 1633 075e 0A       		.uleb128 0xa
 1634 075f 04       		.byte	0x4
 1635 0760 5F020000 		.4byte	0x25f
 1636 0764 1C       		.uleb128 0x1c
 1637 0765 42010000 		.4byte	.LASF112
ARM GAS  /tmp/ccB3q9ZZ.s 			page 30


 1638 0769 02       		.byte	0x2
 1639 076a 7502     		.2byte	0x275
 1640 076c 82070000 		.4byte	0x782
 1641 0770 03       		.byte	0x3
 1642 0771 82070000 		.4byte	0x782
 1643 0775 1B       		.uleb128 0x1b
 1644 0776 74717000 		.ascii	"tqp\000"
 1645 077a 02       		.byte	0x2
 1646 077b 7502     		.2byte	0x275
 1647 077d 89070000 		.4byte	0x789
 1648 0781 00       		.byte	0
 1649 0782 03       		.uleb128 0x3
 1650 0783 01       		.byte	0x1
 1651 0784 02       		.byte	0x2
 1652 0785 64040000 		.4byte	.LASF110
 1653 0789 0A       		.uleb128 0xa
 1654 078a 04       		.byte	0x4
 1655 078b 8F070000 		.4byte	0x78f
 1656 078f 14       		.uleb128 0x14
 1657 0790 5F020000 		.4byte	0x25f
 1658 0794 19       		.uleb128 0x19
 1659 0795 C2040000 		.4byte	.LASF111
 1660 0799 0F       		.byte	0xf
 1661 079a 5A01     		.2byte	0x15a
 1662 079c 03       		.byte	0x3
 1663 079d 1C       		.uleb128 0x1c
 1664 079e 92050000 		.4byte	.LASF113
 1665 07a2 02       		.byte	0x2
 1666 07a3 9F02     		.2byte	0x29f
 1667 07a5 35020000 		.4byte	0x235
 1668 07a9 03       		.byte	0x3
 1669 07aa C6070000 		.4byte	0x7c6
 1670 07ae 1B       		.uleb128 0x1b
 1671 07af 74717000 		.ascii	"tqp\000"
 1672 07b3 02       		.byte	0x2
 1673 07b4 9F02     		.2byte	0x29f
 1674 07b6 5E070000 		.4byte	0x75e
 1675 07ba 1D       		.uleb128 0x1d
 1676 07bb 747000   		.ascii	"tp\000"
 1677 07be 02       		.byte	0x2
 1678 07bf A002     		.2byte	0x2a0
 1679 07c1 35020000 		.4byte	0x235
 1680 07c5 00       		.byte	0
 1681 07c6 17       		.uleb128 0x17
 1682 07c7 DC060000 		.4byte	.LASF114
 1683 07cb 0F       		.byte	0xf
 1684 07cc 6601     		.2byte	0x166
 1685 07ce 03       		.byte	0x3
 1686 07cf E1070000 		.4byte	0x7e1
 1687 07d3 1E       		.uleb128 0x1e
 1688 07d4 B9040000 		.4byte	.LASF115
 1689 07d8 F1070000 		.4byte	0x7f1
 1690 07dc DC060000 		.4byte	.LASF114
 1691 07e0 00       		.byte	0
 1692 07e1 15       		.uleb128 0x15
 1693 07e2 B0060000 		.4byte	0x6b0
 1694 07e6 F1070000 		.4byte	0x7f1
ARM GAS  /tmp/ccB3q9ZZ.s 			page 31


 1695 07ea 16       		.uleb128 0x16
 1696 07eb 48040000 		.4byte	0x448
 1697 07ef 0B       		.byte	0xb
 1698 07f0 00       		.byte	0
 1699 07f1 14       		.uleb128 0x14
 1700 07f2 E1070000 		.4byte	0x7e1
 1701 07f6 1F       		.uleb128 0x1f
 1702 07f7 5D000000 		.4byte	.LASF116
 1703 07fb 01       		.byte	0x1
 1704 07fc 95       		.byte	0x95
 1705 07fd 01       		.byte	0x1
 1706 07fe 1A080000 		.4byte	0x81a
 1707 0802 20       		.uleb128 0x20
 1708 0803 637000   		.ascii	"cp\000"
 1709 0806 01       		.byte	0x1
 1710 0807 95       		.byte	0x95
 1711 0808 1A080000 		.4byte	0x81a
 1712 080c 1E       		.uleb128 0x1e
 1713 080d B9040000 		.4byte	.LASF115
 1714 0811 30080000 		.4byte	0x830
 1715 0815 5D000000 		.4byte	.LASF116
 1716 0819 00       		.byte	0
 1717 081a 0A       		.uleb128 0xa
 1718 081b 04       		.byte	0x4
 1719 081c 01070000 		.4byte	0x701
 1720 0820 15       		.uleb128 0x15
 1721 0821 B0060000 		.4byte	0x6b0
 1722 0825 30080000 		.4byte	0x830
 1723 0829 16       		.uleb128 0x16
 1724 082a 48040000 		.4byte	0x448
 1725 082e 10       		.byte	0x10
 1726 082f 00       		.byte	0
 1727 0830 14       		.uleb128 0x14
 1728 0831 20080000 		.4byte	0x820
 1729 0835 17       		.uleb128 0x17
 1730 0836 03070000 		.4byte	.LASF117
 1731 083a 02       		.byte	0x2
 1732 083b 8B02     		.2byte	0x28b
 1733 083d 03       		.byte	0x3
 1734 083e 65080000 		.4byte	0x865
 1735 0842 1B       		.uleb128 0x1b
 1736 0843 747000   		.ascii	"tp\000"
 1737 0846 02       		.byte	0x2
 1738 0847 8B02     		.2byte	0x28b
 1739 0849 35020000 		.4byte	0x235
 1740 084d 1B       		.uleb128 0x1b
 1741 084e 74717000 		.ascii	"tqp\000"
 1742 0852 02       		.byte	0x2
 1743 0853 8B02     		.2byte	0x28b
 1744 0855 5E070000 		.4byte	0x75e
 1745 0859 1D       		.uleb128 0x1d
 1746 085a 637000   		.ascii	"cp\000"
 1747 085d 02       		.byte	0x2
 1748 085e 8D02     		.2byte	0x28d
 1749 0860 35020000 		.4byte	0x235
 1750 0864 00       		.byte	0
 1751 0865 1A       		.uleb128 0x1a
ARM GAS  /tmp/ccB3q9ZZ.s 			page 32


 1752 0866 0B050000 		.4byte	.LASF119
 1753 086a 04       		.byte	0x4
 1754 086b 90       		.byte	0x90
 1755 086c E2060000 		.4byte	0x6e2
 1756 0870 03       		.byte	0x3
 1757 0871 21       		.uleb128 0x21
 1758 0872 75050000 		.4byte	.LASF120
 1759 0876 01       		.byte	0x1
 1760 0877 4B       		.byte	0x4b
 1761 0878 00000000 		.4byte	.LFB229
 1762 087c 06000000 		.4byte	.LFE229-.LFB229
 1763 0880 01       		.uleb128 0x1
 1764 0881 9C       		.byte	0x9c
 1765 0882 B3080000 		.4byte	0x8b3
 1766 0886 22       		.uleb128 0x22
 1767 0887 637000   		.ascii	"cp\000"
 1768 088a 01       		.byte	0x1
 1769 088b 4B       		.byte	0x4b
 1770 088c 1A080000 		.4byte	0x81a
 1771 0890 01       		.uleb128 0x1
 1772 0891 50       		.byte	0x50
 1773 0892 23       		.uleb128 0x23
 1774 0893 B9040000 		.4byte	.LASF115
 1775 0897 B3080000 		.4byte	0x8b3
 1776 089b 24       		.uleb128 0x24
 1777 089c 44070000 		.4byte	0x744
 1778 08a0 00000000 		.4byte	.LBB89
 1779 08a4 06000000 		.4byte	.LBE89-.LBB89
 1780 08a8 01       		.byte	0x1
 1781 08a9 4F       		.byte	0x4f
 1782 08aa 25       		.uleb128 0x25
 1783 08ab 51070000 		.4byte	0x751
 1784 08af 01       		.uleb128 0x1
 1785 08b0 50       		.byte	0x50
 1786 08b1 00       		.byte	0
 1787 08b2 00       		.byte	0
 1788 08b3 14       		.uleb128 0x14
 1789 08b4 20080000 		.4byte	0x820
 1790 08b8 21       		.uleb128 0x21
 1791 08b9 B2010000 		.4byte	.LASF121
 1792 08bd 01       		.byte	0x1
 1793 08be 59       		.byte	0x59
 1794 08bf 00000000 		.4byte	.LFB230
 1795 08c3 26000000 		.4byte	.LFE230-.LFB230
 1796 08c7 01       		.uleb128 0x1
 1797 08c8 9C       		.byte	0x9c
 1798 08c9 C8090000 		.4byte	0x9c8
 1799 08cd 26       		.uleb128 0x26
 1800 08ce 637000   		.ascii	"cp\000"
 1801 08d1 01       		.byte	0x1
 1802 08d2 59       		.byte	0x59
 1803 08d3 1A080000 		.4byte	0x81a
 1804 08d7 00000000 		.4byte	.LLST0
 1805 08db 23       		.uleb128 0x23
 1806 08dc B9040000 		.4byte	.LASF115
 1807 08e0 D8090000 		.4byte	0x9d8
 1808 08e4 27       		.uleb128 0x27
ARM GAS  /tmp/ccB3q9ZZ.s 			page 33


 1809 08e5 94070000 		.4byte	0x794
 1810 08e9 02000000 		.4byte	.LBB91
 1811 08ed 06000000 		.4byte	.LBE91-.LBB91
 1812 08f1 01       		.byte	0x1
 1813 08f2 5D       		.byte	0x5d
 1814 08f3 20090000 		.4byte	0x920
 1815 08f7 28       		.uleb128 0x28
 1816 08f8 26070000 		.4byte	0x726
 1817 08fc 02000000 		.4byte	.LBB92
 1818 0900 06000000 		.4byte	.LBE92-.LBB92
 1819 0904 0F       		.byte	0xf
 1820 0905 5C01     		.2byte	0x15c
 1821 0907 28       		.uleb128 0x28
 1822 0908 0C070000 		.4byte	0x70c
 1823 090c 02000000 		.4byte	.LBB93
 1824 0910 06000000 		.4byte	.LBE93-.LBB93
 1825 0914 0B       		.byte	0xb
 1826 0915 BF01     		.2byte	0x1bf
 1827 0917 29       		.uleb128 0x29
 1828 0918 19070000 		.4byte	0x719
 1829 091c 20       		.byte	0x20
 1830 091d 00       		.byte	0
 1831 091e 00       		.byte	0
 1832 091f 00       		.byte	0
 1833 0920 27       		.uleb128 0x27
 1834 0921 64070000 		.4byte	0x764
 1835 0925 08000000 		.4byte	.LBB95
 1836 0929 02000000 		.4byte	.LBE95-.LBB95
 1837 092d 01       		.byte	0x1
 1838 092e 5E       		.byte	0x5e
 1839 092f 3D090000 		.4byte	0x93d
 1840 0933 2A       		.uleb128 0x2a
 1841 0934 75070000 		.4byte	0x775
 1842 0938 2C000000 		.4byte	.LLST1
 1843 093c 00       		.byte	0
 1844 093d 27       		.uleb128 0x27
 1845 093e 9D070000 		.4byte	0x79d
 1846 0942 0E000000 		.4byte	.LBB97
 1847 0946 08000000 		.4byte	.LBE97-.LBB97
 1848 094a 01       		.byte	0x1
 1849 094b 5F       		.byte	0x5f
 1850 094c 6D090000 		.4byte	0x96d
 1851 0950 2A       		.uleb128 0x2a
 1852 0951 AE070000 		.4byte	0x7ae
 1853 0955 58000000 		.4byte	.LLST2
 1854 0959 2B       		.uleb128 0x2b
 1855 095a 0E000000 		.4byte	.LBB98
 1856 095e 08000000 		.4byte	.LBE98-.LBB98
 1857 0962 2C       		.uleb128 0x2c
 1858 0963 BA070000 		.4byte	0x7ba
 1859 0967 84000000 		.4byte	.LLST3
 1860 096b 00       		.byte	0
 1861 096c 00       		.byte	0
 1862 096d 27       		.uleb128 0x27
 1863 096e C6070000 		.4byte	0x7c6
 1864 0972 1E000000 		.4byte	.LBB99
 1865 0976 08000000 		.4byte	.LBE99-.LBB99
ARM GAS  /tmp/ccB3q9ZZ.s 			page 34


 1866 097a 01       		.byte	0x1
 1867 097b 61       		.byte	0x61
 1868 097c B8090000 		.4byte	0x9b8
 1869 0980 2B       		.uleb128 0x2b
 1870 0981 1E000000 		.4byte	.LBB100
 1871 0985 08000000 		.4byte	.LBE100-.LBB100
 1872 0989 2D       		.uleb128 0x2d
 1873 098a D3070000 		.4byte	0x7d3
 1874 098e 28       		.uleb128 0x28
 1875 098f 2F070000 		.4byte	0x72f
 1876 0993 1E000000 		.4byte	.LBB101
 1877 0997 08000000 		.4byte	.LBE101-.LBB101
 1878 099b 0F       		.byte	0xf
 1879 099c 7301     		.2byte	0x173
 1880 099e 28       		.uleb128 0x28
 1881 099f 0C070000 		.4byte	0x70c
 1882 09a3 1E000000 		.4byte	.LBB102
 1883 09a7 08000000 		.4byte	.LBE102-.LBB102
 1884 09ab 0B       		.byte	0xb
 1885 09ac CD01     		.2byte	0x1cd
 1886 09ae 29       		.uleb128 0x29
 1887 09af 19070000 		.4byte	0x719
 1888 09b3 00       		.byte	0
 1889 09b4 00       		.byte	0
 1890 09b5 00       		.byte	0
 1891 09b6 00       		.byte	0
 1892 09b7 00       		.byte	0
 1893 09b8 2E       		.uleb128 0x2e
 1894 09b9 1E000000 		.4byte	.LVL5
 1895 09bd DF0F0000 		.4byte	0xfdf
 1896 09c1 2F       		.uleb128 0x2f
 1897 09c2 01       		.uleb128 0x1
 1898 09c3 51       		.byte	0x51
 1899 09c4 01       		.uleb128 0x1
 1900 09c5 30       		.byte	0x30
 1901 09c6 00       		.byte	0
 1902 09c7 00       		.byte	0
 1903 09c8 15       		.uleb128 0x15
 1904 09c9 B0060000 		.4byte	0x6b0
 1905 09cd D8090000 		.4byte	0x9d8
 1906 09d1 16       		.uleb128 0x16
 1907 09d2 48040000 		.4byte	0x448
 1908 09d6 0C       		.byte	0xc
 1909 09d7 00       		.byte	0
 1910 09d8 14       		.uleb128 0x14
 1911 09d9 C8090000 		.4byte	0x9c8
 1912 09dd 21       		.uleb128 0x21
 1913 09de 56040000 		.4byte	.LASF122
 1914 09e2 01       		.byte	0x1
 1915 09e3 6F       		.byte	0x6f
 1916 09e4 00000000 		.4byte	.LFB231
 1917 09e8 18000000 		.4byte	.LFE231-.LFB231
 1918 09ec 01       		.uleb128 0x1
 1919 09ed 9C       		.byte	0x9c
 1920 09ee 700A0000 		.4byte	0xa70
 1921 09f2 26       		.uleb128 0x26
 1922 09f3 637000   		.ascii	"cp\000"
ARM GAS  /tmp/ccB3q9ZZ.s 			page 35


 1923 09f6 01       		.byte	0x1
 1924 09f7 6F       		.byte	0x6f
 1925 09f8 1A080000 		.4byte	0x81a
 1926 09fc 97000000 		.4byte	.LLST4
 1927 0a00 23       		.uleb128 0x23
 1928 0a01 B9040000 		.4byte	.LASF115
 1929 0a05 800A0000 		.4byte	0xa80
 1930 0a09 27       		.uleb128 0x27
 1931 0a0a 64070000 		.4byte	0x764
 1932 0a0e 00000000 		.4byte	.LBB104
 1933 0a12 02000000 		.4byte	.LBE104-.LBB104
 1934 0a16 01       		.byte	0x1
 1935 0a17 74       		.byte	0x74
 1936 0a18 260A0000 		.4byte	0xa26
 1937 0a1c 2A       		.uleb128 0x2a
 1938 0a1d 75070000 		.4byte	0x775
 1939 0a21 CF000000 		.4byte	.LLST5
 1940 0a25 00       		.byte	0
 1941 0a26 2B       		.uleb128 0x2b
 1942 0a27 06000000 		.4byte	.LBB106
 1943 0a2b 12000000 		.4byte	.LBE106-.LBB106
 1944 0a2f 30       		.uleb128 0x30
 1945 0a30 747000   		.ascii	"tp\000"
 1946 0a33 01       		.byte	0x1
 1947 0a34 75       		.byte	0x75
 1948 0a35 35020000 		.4byte	0x235
 1949 0a39 31       		.uleb128 0x31
 1950 0a3a 9D070000 		.4byte	0x79d
 1951 0a3e 06000000 		.4byte	.LBB107
 1952 0a42 00000000 		.4byte	.Ldebug_ranges0+0
 1953 0a46 01       		.byte	0x1
 1954 0a47 75       		.byte	0x75
 1955 0a48 650A0000 		.4byte	0xa65
 1956 0a4c 2A       		.uleb128 0x2a
 1957 0a4d AE070000 		.4byte	0x7ae
 1958 0a51 07010000 		.4byte	.LLST6
 1959 0a55 32       		.uleb128 0x32
 1960 0a56 00000000 		.4byte	.Ldebug_ranges0+0
 1961 0a5a 2C       		.uleb128 0x2c
 1962 0a5b BA070000 		.4byte	0x7ba
 1963 0a5f 34010000 		.4byte	.LLST7
 1964 0a63 00       		.byte	0
 1965 0a64 00       		.byte	0
 1966 0a65 33       		.uleb128 0x33
 1967 0a66 16000000 		.4byte	.LVL10
 1968 0a6a EB0F0000 		.4byte	0xfeb
 1969 0a6e 00       		.byte	0
 1970 0a6f 00       		.byte	0
 1971 0a70 15       		.uleb128 0x15
 1972 0a71 B0060000 		.4byte	0x6b0
 1973 0a75 800A0000 		.4byte	0xa80
 1974 0a79 16       		.uleb128 0x16
 1975 0a7a 48040000 		.4byte	0x448
 1976 0a7e 0D       		.byte	0xd
 1977 0a7f 00       		.byte	0
 1978 0a80 14       		.uleb128 0x14
 1979 0a81 700A0000 		.4byte	0xa70
ARM GAS  /tmp/ccB3q9ZZ.s 			page 36


 1980 0a85 21       		.uleb128 0x21
 1981 0a86 14040000 		.4byte	.LASF123
 1982 0a8a 01       		.byte	0x1
 1983 0a8b 82       		.byte	0x82
 1984 0a8c 00000000 		.4byte	.LFB232
 1985 0a90 34000000 		.4byte	.LFE232-.LFB232
 1986 0a94 01       		.uleb128 0x1
 1987 0a95 9C       		.byte	0x9c
 1988 0a96 B70B0000 		.4byte	0xbb7
 1989 0a9a 26       		.uleb128 0x26
 1990 0a9b 637000   		.ascii	"cp\000"
 1991 0a9e 01       		.byte	0x1
 1992 0a9f 82       		.byte	0x82
 1993 0aa0 1A080000 		.4byte	0x81a
 1994 0aa4 47010000 		.4byte	.LLST8
 1995 0aa8 27       		.uleb128 0x27
 1996 0aa9 94070000 		.4byte	0x794
 1997 0aad 04000000 		.4byte	.LBB111
 1998 0ab1 06000000 		.4byte	.LBE111-.LBB111
 1999 0ab5 01       		.byte	0x1
 2000 0ab6 84       		.byte	0x84
 2001 0ab7 E40A0000 		.4byte	0xae4
 2002 0abb 28       		.uleb128 0x28
 2003 0abc 26070000 		.4byte	0x726
 2004 0ac0 04000000 		.4byte	.LBB112
 2005 0ac4 06000000 		.4byte	.LBE112-.LBB112
 2006 0ac8 0F       		.byte	0xf
 2007 0ac9 5C01     		.2byte	0x15c
 2008 0acb 28       		.uleb128 0x28
 2009 0acc 0C070000 		.4byte	0x70c
 2010 0ad0 04000000 		.4byte	.LBB113
 2011 0ad4 06000000 		.4byte	.LBE113-.LBB113
 2012 0ad8 0B       		.byte	0xb
 2013 0ad9 BF01     		.2byte	0x1bf
 2014 0adb 29       		.uleb128 0x29
 2015 0adc 19070000 		.4byte	0x719
 2016 0ae0 20       		.byte	0x20
 2017 0ae1 00       		.byte	0
 2018 0ae2 00       		.byte	0
 2019 0ae3 00       		.byte	0
 2020 0ae4 27       		.uleb128 0x27
 2021 0ae5 F6070000 		.4byte	0x7f6
 2022 0ae9 0A000000 		.4byte	.LBB115
 2023 0aed 1E000000 		.4byte	.LBE115-.LBB115
 2024 0af1 01       		.byte	0x1
 2025 0af2 85       		.byte	0x85
 2026 0af3 620B0000 		.4byte	0xb62
 2027 0af7 34       		.uleb128 0x34
 2028 0af8 02080000 		.4byte	0x802
 2029 0afc 2B       		.uleb128 0x2b
 2030 0afd 0A000000 		.4byte	.LBB116
 2031 0b01 1E000000 		.4byte	.LBE116-.LBB116
 2032 0b05 2D       		.uleb128 0x2d
 2033 0b06 0C080000 		.4byte	0x80c
 2034 0b0a 31       		.uleb128 0x31
 2035 0b0b 64070000 		.4byte	0x764
 2036 0b0f 0A000000 		.4byte	.LBB117
ARM GAS  /tmp/ccB3q9ZZ.s 			page 37


 2037 0b13 18000000 		.4byte	.Ldebug_ranges0+0x18
 2038 0b17 01       		.byte	0x1
 2039 0b18 9D       		.byte	0x9d
 2040 0b19 270B0000 		.4byte	0xb27
 2041 0b1d 2A       		.uleb128 0x2a
 2042 0b1e 75070000 		.4byte	0x775
 2043 0b22 65010000 		.4byte	.LLST9
 2044 0b26 00       		.byte	0
 2045 0b27 27       		.uleb128 0x27
 2046 0b28 9D070000 		.4byte	0x79d
 2047 0b2c 16000000 		.4byte	.LBB120
 2048 0b30 06000000 		.4byte	.LBE120-.LBB120
 2049 0b34 01       		.byte	0x1
 2050 0b35 9E       		.byte	0x9e
 2051 0b36 570B0000 		.4byte	0xb57
 2052 0b3a 2A       		.uleb128 0x2a
 2053 0b3b AE070000 		.4byte	0x7ae
 2054 0b3f 83010000 		.4byte	.LLST10
 2055 0b43 2B       		.uleb128 0x2b
 2056 0b44 16000000 		.4byte	.LBB121
 2057 0b48 06000000 		.4byte	.LBE121-.LBB121
 2058 0b4c 2C       		.uleb128 0x2c
 2059 0b4d BA070000 		.4byte	0x7ba
 2060 0b51 96010000 		.4byte	.LLST11
 2061 0b55 00       		.byte	0
 2062 0b56 00       		.byte	0
 2063 0b57 35       		.uleb128 0x35
 2064 0b58 20000000 		.4byte	.LVL15
 2065 0b5c EB0F0000 		.4byte	0xfeb
 2066 0b60 00       		.byte	0
 2067 0b61 00       		.byte	0
 2068 0b62 27       		.uleb128 0x27
 2069 0b63 C6070000 		.4byte	0x7c6
 2070 0b67 2C000000 		.4byte	.LBB123
 2071 0b6b 06000000 		.4byte	.LBE123-.LBB123
 2072 0b6f 01       		.byte	0x1
 2073 0b70 87       		.byte	0x87
 2074 0b71 AD0B0000 		.4byte	0xbad
 2075 0b75 2B       		.uleb128 0x2b
 2076 0b76 2C000000 		.4byte	.LBB124
 2077 0b7a 06000000 		.4byte	.LBE124-.LBB124
 2078 0b7e 2D       		.uleb128 0x2d
 2079 0b7f D3070000 		.4byte	0x7d3
 2080 0b83 28       		.uleb128 0x28
 2081 0b84 2F070000 		.4byte	0x72f
 2082 0b88 2C000000 		.4byte	.LBB125
 2083 0b8c 06000000 		.4byte	.LBE125-.LBB125
 2084 0b90 0F       		.byte	0xf
 2085 0b91 7301     		.2byte	0x173
 2086 0b93 28       		.uleb128 0x28
 2087 0b94 0C070000 		.4byte	0x70c
 2088 0b98 2C000000 		.4byte	.LBB126
 2089 0b9c 06000000 		.4byte	.LBE126-.LBB126
 2090 0ba0 0B       		.byte	0xb
 2091 0ba1 CD01     		.2byte	0x1cd
 2092 0ba3 29       		.uleb128 0x29
 2093 0ba4 19070000 		.4byte	0x719
ARM GAS  /tmp/ccB3q9ZZ.s 			page 38


 2094 0ba8 00       		.byte	0
 2095 0ba9 00       		.byte	0
 2096 0baa 00       		.byte	0
 2097 0bab 00       		.byte	0
 2098 0bac 00       		.byte	0
 2099 0bad 35       		.uleb128 0x35
 2100 0bae 2C000000 		.4byte	.LVL17
 2101 0bb2 F70F0000 		.4byte	0xff7
 2102 0bb6 00       		.byte	0
 2103 0bb7 36       		.uleb128 0x36
 2104 0bb8 F6070000 		.4byte	0x7f6
 2105 0bbc 00000000 		.4byte	.LFB233
 2106 0bc0 22000000 		.4byte	.LFE233-.LFB233
 2107 0bc4 01       		.uleb128 0x1
 2108 0bc5 9C       		.byte	0x9c
 2109 0bc6 2F0C0000 		.4byte	0xc2f
 2110 0bca 2A       		.uleb128 0x2a
 2111 0bcb 02080000 		.4byte	0x802
 2112 0bcf A9010000 		.4byte	.LLST12
 2113 0bd3 2D       		.uleb128 0x2d
 2114 0bd4 0C080000 		.4byte	0x80c
 2115 0bd8 31       		.uleb128 0x31
 2116 0bd9 64070000 		.4byte	0x764
 2117 0bdd 04000000 		.4byte	.LBB128
 2118 0be1 30000000 		.4byte	.Ldebug_ranges0+0x30
 2119 0be5 01       		.byte	0x1
 2120 0be6 9D       		.byte	0x9d
 2121 0be7 F50B0000 		.4byte	0xbf5
 2122 0beb 2A       		.uleb128 0x2a
 2123 0bec 75070000 		.4byte	0x775
 2124 0bf0 C7010000 		.4byte	.LLST13
 2125 0bf4 00       		.byte	0
 2126 0bf5 27       		.uleb128 0x27
 2127 0bf6 9D070000 		.4byte	0x79d
 2128 0bfa 0E000000 		.4byte	.LBB131
 2129 0bfe 06000000 		.4byte	.LBE131-.LBB131
 2130 0c02 01       		.byte	0x1
 2131 0c03 9E       		.byte	0x9e
 2132 0c04 250C0000 		.4byte	0xc25
 2133 0c08 2A       		.uleb128 0x2a
 2134 0c09 AE070000 		.4byte	0x7ae
 2135 0c0d E5010000 		.4byte	.LLST14
 2136 0c11 2B       		.uleb128 0x2b
 2137 0c12 0E000000 		.4byte	.LBB132
 2138 0c16 06000000 		.4byte	.LBE132-.LBB132
 2139 0c1a 2C       		.uleb128 0x2c
 2140 0c1b BA070000 		.4byte	0x7ba
 2141 0c1f F8010000 		.4byte	.LLST15
 2142 0c23 00       		.byte	0
 2143 0c24 00       		.byte	0
 2144 0c25 35       		.uleb128 0x35
 2145 0c26 18000000 		.4byte	.LVL22
 2146 0c2a EB0F0000 		.4byte	0xfeb
 2147 0c2e 00       		.byte	0
 2148 0c2f 37       		.uleb128 0x37
 2149 0c30 69050000 		.4byte	.LASF124
 2150 0c34 01       		.byte	0x1
ARM GAS  /tmp/ccB3q9ZZ.s 			page 39


 2151 0c35 CD       		.byte	0xcd
 2152 0c36 06010000 		.4byte	0x106
 2153 0c3a 00000000 		.4byte	.LFB235
 2154 0c3e 44000000 		.4byte	.LFE235-.LFB235
 2155 0c42 01       		.uleb128 0x1
 2156 0c43 9C       		.byte	0x9c
 2157 0c44 030D0000 		.4byte	0xd03
 2158 0c48 26       		.uleb128 0x26
 2159 0c49 637000   		.ascii	"cp\000"
 2160 0c4c 01       		.byte	0x1
 2161 0c4d CD       		.byte	0xcd
 2162 0c4e 1A080000 		.4byte	0x81a
 2163 0c52 0B020000 		.4byte	.LLST16
 2164 0c56 38       		.uleb128 0x38
 2165 0c57 63747000 		.ascii	"ctp\000"
 2166 0c5b 01       		.byte	0x1
 2167 0c5c CE       		.byte	0xce
 2168 0c5d 35020000 		.4byte	0x235
 2169 0c61 37020000 		.4byte	.LLST17
 2170 0c65 30       		.uleb128 0x30
 2171 0c66 6D7000   		.ascii	"mp\000"
 2172 0c69 01       		.byte	0x1
 2173 0c6a CF       		.byte	0xcf
 2174 0c6b E2060000 		.4byte	0x6e2
 2175 0c6f 38       		.uleb128 0x38
 2176 0c70 6D736700 		.ascii	"msg\000"
 2177 0c74 01       		.byte	0x1
 2178 0c75 D0       		.byte	0xd0
 2179 0c76 06010000 		.4byte	0x106
 2180 0c7a 4A020000 		.4byte	.LLST18
 2181 0c7e 23       		.uleb128 0x23
 2182 0c7f B9040000 		.4byte	.LASF115
 2183 0c83 030D0000 		.4byte	0xd03
 2184 0c87 39       		.uleb128 0x39
 2185 0c88 65080000 		.4byte	0x865
 2186 0c8c 06000000 		.4byte	.LBB134
 2187 0c90 02000000 		.4byte	.LBE134-.LBB134
 2188 0c94 01       		.byte	0x1
 2189 0c95 D7       		.byte	0xd7
 2190 0c96 31       		.uleb128 0x31
 2191 0c97 35080000 		.4byte	0x835
 2192 0c9b 12000000 		.4byte	.LBB136
 2193 0c9f 48000000 		.4byte	.Ldebug_ranges0+0x48
 2194 0ca3 01       		.byte	0x1
 2195 0ca4 DD       		.byte	0xdd
 2196 0ca5 CB0C0000 		.4byte	0xccb
 2197 0ca9 2A       		.uleb128 0x2a
 2198 0caa 4D080000 		.4byte	0x84d
 2199 0cae 68020000 		.4byte	.LLST19
 2200 0cb2 2A       		.uleb128 0x2a
 2201 0cb3 42080000 		.4byte	0x842
 2202 0cb7 89020000 		.4byte	.LLST20
 2203 0cbb 32       		.uleb128 0x32
 2204 0cbc 48000000 		.4byte	.Ldebug_ranges0+0x48
 2205 0cc0 2C       		.uleb128 0x2c
 2206 0cc1 59080000 		.4byte	0x859
 2207 0cc5 9C020000 		.4byte	.LLST21
ARM GAS  /tmp/ccB3q9ZZ.s 			page 40


 2208 0cc9 00       		.byte	0
 2209 0cca 00       		.byte	0
 2210 0ccb 3A       		.uleb128 0x3a
 2211 0ccc 10000000 		.4byte	.LVL27
 2212 0cd0 03100000 		.4byte	0x1003
 2213 0cd4 DF0C0000 		.4byte	0xcdf
 2214 0cd8 2F       		.uleb128 0x2f
 2215 0cd9 01       		.uleb128 0x1
 2216 0cda 50       		.byte	0x50
 2217 0cdb 02       		.uleb128 0x2
 2218 0cdc 76       		.byte	0x76
 2219 0cdd 00       		.sleb128 0
 2220 0cde 00       		.byte	0
 2221 0cdf 3A       		.uleb128 0x3a
 2222 0ce0 34000000 		.4byte	.LVL32
 2223 0ce4 0E100000 		.4byte	0x100e
 2224 0ce8 F20C0000 		.4byte	0xcf2
 2225 0cec 2F       		.uleb128 0x2f
 2226 0ced 01       		.uleb128 0x1
 2227 0cee 50       		.byte	0x50
 2228 0cef 01       		.uleb128 0x1
 2229 0cf0 37       		.byte	0x37
 2230 0cf1 00       		.byte	0
 2231 0cf2 2E       		.uleb128 0x2e
 2232 0cf3 3C000000 		.4byte	.LVL34
 2233 0cf7 1A100000 		.4byte	0x101a
 2234 0cfb 2F       		.uleb128 0x2f
 2235 0cfc 01       		.uleb128 0x1
 2236 0cfd 50       		.byte	0x50
 2237 0cfe 02       		.uleb128 0x2
 2238 0cff 76       		.byte	0x76
 2239 0d00 00       		.sleb128 0
 2240 0d01 00       		.byte	0
 2241 0d02 00       		.byte	0
 2242 0d03 14       		.uleb128 0x14
 2243 0d04 E1070000 		.4byte	0x7e1
 2244 0d08 37       		.uleb128 0x37
 2245 0d09 41060000 		.4byte	.LASF125
 2246 0d0d 01       		.byte	0x1
 2247 0d0e B3       		.byte	0xb3
 2248 0d0f 06010000 		.4byte	0x106
 2249 0d13 00000000 		.4byte	.LFB234
 2250 0d17 14000000 		.4byte	.LFE234-.LFB234
 2251 0d1b 01       		.uleb128 0x1
 2252 0d1c 9C       		.byte	0x9c
 2253 0d1d D50D0000 		.4byte	0xdd5
 2254 0d21 26       		.uleb128 0x26
 2255 0d22 637000   		.ascii	"cp\000"
 2256 0d25 01       		.byte	0x1
 2257 0d26 B3       		.byte	0xb3
 2258 0d27 1A080000 		.4byte	0x81a
 2259 0d2b AF020000 		.4byte	.LLST22
 2260 0d2f 3B       		.uleb128 0x3b
 2261 0d30 6D736700 		.ascii	"msg\000"
 2262 0d34 01       		.byte	0x1
 2263 0d35 B4       		.byte	0xb4
 2264 0d36 06010000 		.4byte	0x106
ARM GAS  /tmp/ccB3q9ZZ.s 			page 41


 2265 0d3a 01       		.uleb128 0x1
 2266 0d3b 50       		.byte	0x50
 2267 0d3c 27       		.uleb128 0x27
 2268 0d3d 94070000 		.4byte	0x794
 2269 0d41 02000000 		.4byte	.LBB140
 2270 0d45 06000000 		.4byte	.LBE140-.LBB140
 2271 0d49 01       		.byte	0x1
 2272 0d4a B6       		.byte	0xb6
 2273 0d4b 780D0000 		.4byte	0xd78
 2274 0d4f 28       		.uleb128 0x28
 2275 0d50 26070000 		.4byte	0x726
 2276 0d54 02000000 		.4byte	.LBB141
 2277 0d58 06000000 		.4byte	.LBE141-.LBB141
 2278 0d5c 0F       		.byte	0xf
 2279 0d5d 5C01     		.2byte	0x15c
 2280 0d5f 28       		.uleb128 0x28
 2281 0d60 0C070000 		.4byte	0x70c
 2282 0d64 02000000 		.4byte	.LBB142
 2283 0d68 06000000 		.4byte	.LBE142-.LBB142
 2284 0d6c 0B       		.byte	0xb
 2285 0d6d BF01     		.2byte	0x1bf
 2286 0d6f 29       		.uleb128 0x29
 2287 0d70 19070000 		.4byte	0x719
 2288 0d74 20       		.byte	0x20
 2289 0d75 00       		.byte	0
 2290 0d76 00       		.byte	0
 2291 0d77 00       		.byte	0
 2292 0d78 27       		.uleb128 0x27
 2293 0d79 C6070000 		.4byte	0x7c6
 2294 0d7d 0C000000 		.4byte	.LBB144
 2295 0d81 06000000 		.4byte	.LBE144-.LBB144
 2296 0d85 01       		.byte	0x1
 2297 0d86 B8       		.byte	0xb8
 2298 0d87 C30D0000 		.4byte	0xdc3
 2299 0d8b 2B       		.uleb128 0x2b
 2300 0d8c 0C000000 		.4byte	.LBB145
 2301 0d90 06000000 		.4byte	.LBE145-.LBB145
 2302 0d94 2D       		.uleb128 0x2d
 2303 0d95 D3070000 		.4byte	0x7d3
 2304 0d99 28       		.uleb128 0x28
 2305 0d9a 2F070000 		.4byte	0x72f
 2306 0d9e 0C000000 		.4byte	.LBB146
 2307 0da2 06000000 		.4byte	.LBE146-.LBB146
 2308 0da6 0F       		.byte	0xf
 2309 0da7 7301     		.2byte	0x173
 2310 0da9 28       		.uleb128 0x28
 2311 0daa 0C070000 		.4byte	0x70c
 2312 0dae 0C000000 		.4byte	.LBB147
 2313 0db2 06000000 		.4byte	.LBE147-.LBB147
 2314 0db6 0B       		.byte	0xb
 2315 0db7 CD01     		.2byte	0x1cd
 2316 0db9 29       		.uleb128 0x29
 2317 0dba 19070000 		.4byte	0x719
 2318 0dbe 00       		.byte	0
 2319 0dbf 00       		.byte	0
 2320 0dc0 00       		.byte	0
 2321 0dc1 00       		.byte	0
ARM GAS  /tmp/ccB3q9ZZ.s 			page 42


 2322 0dc2 00       		.byte	0
 2323 0dc3 2E       		.uleb128 0x2e
 2324 0dc4 0C000000 		.4byte	.LVL37
 2325 0dc8 2F0C0000 		.4byte	0xc2f
 2326 0dcc 2F       		.uleb128 0x2f
 2327 0dcd 01       		.uleb128 0x1
 2328 0dce 50       		.byte	0x50
 2329 0dcf 03       		.uleb128 0x3
 2330 0dd0 F3       		.byte	0xf3
 2331 0dd1 01       		.uleb128 0x1
 2332 0dd2 50       		.byte	0x50
 2333 0dd3 00       		.byte	0
 2334 0dd4 00       		.byte	0
 2335 0dd5 3C       		.uleb128 0x3c
 2336 0dd6 B8030000 		.4byte	.LASF126
 2337 0dda 01       		.byte	0x1
 2338 0ddb 2801     		.2byte	0x128
 2339 0ddd 06010000 		.4byte	0x106
 2340 0de1 00000000 		.4byte	.LFB237
 2341 0de5 50000000 		.4byte	.LFE237-.LFB237
 2342 0de9 01       		.uleb128 0x1
 2343 0dea 9C       		.byte	0x9c
 2344 0deb CA0E0000 		.4byte	0xeca
 2345 0def 3D       		.uleb128 0x3d
 2346 0df0 637000   		.ascii	"cp\000"
 2347 0df3 01       		.byte	0x1
 2348 0df4 2801     		.2byte	0x128
 2349 0df6 1A080000 		.4byte	0x81a
 2350 0dfa D0020000 		.4byte	.LLST23
 2351 0dfe 3E       		.uleb128 0x3e
 2352 0dff FD030000 		.4byte	.LASF127
 2353 0e03 01       		.byte	0x1
 2354 0e04 2801     		.2byte	0x128
 2355 0e06 27010000 		.4byte	0x127
 2356 0e0a FC020000 		.4byte	.LLST24
 2357 0e0e 1D       		.uleb128 0x1d
 2358 0e0f 6D7000   		.ascii	"mp\000"
 2359 0e12 01       		.byte	0x1
 2360 0e13 2901     		.2byte	0x129
 2361 0e15 E2060000 		.4byte	0x6e2
 2362 0e19 3F       		.uleb128 0x3f
 2363 0e1a 6D736700 		.ascii	"msg\000"
 2364 0e1e 01       		.byte	0x1
 2365 0e1f 2A01     		.2byte	0x12a
 2366 0e21 06010000 		.4byte	0x106
 2367 0e25 28030000 		.4byte	.LLST25
 2368 0e29 23       		.uleb128 0x23
 2369 0e2a B9040000 		.4byte	.LASF115
 2370 0e2e DA0E0000 		.4byte	0xeda
 2371 0e32 40       		.uleb128 0x40
 2372 0e33 65080000 		.4byte	0x865
 2373 0e37 02000000 		.4byte	.LBB149
 2374 0e3b 06000000 		.4byte	.LBE149-.LBB149
 2375 0e3f 01       		.byte	0x1
 2376 0e40 3101     		.2byte	0x131
 2377 0e42 560E0000 		.4byte	0xe56
 2378 0e46 39       		.uleb128 0x39
ARM GAS  /tmp/ccB3q9ZZ.s 			page 43


 2379 0e47 38070000 		.4byte	0x738
 2380 0e4b 02000000 		.4byte	.LBB151
 2381 0e4f 02000000 		.4byte	.LBE151-.LBB151
 2382 0e53 04       		.byte	0x4
 2383 0e54 92       		.byte	0x92
 2384 0e55 00       		.byte	0
 2385 0e56 41       		.uleb128 0x41
 2386 0e57 35080000 		.4byte	0x835
 2387 0e5b 14000000 		.4byte	.LBB153
 2388 0e5f 60000000 		.4byte	.Ldebug_ranges0+0x60
 2389 0e63 01       		.byte	0x1
 2390 0e64 3701     		.2byte	0x137
 2391 0e66 8C0E0000 		.4byte	0xe8c
 2392 0e6a 2A       		.uleb128 0x2a
 2393 0e6b 4D080000 		.4byte	0x84d
 2394 0e6f 51030000 		.4byte	.LLST26
 2395 0e73 2A       		.uleb128 0x2a
 2396 0e74 42080000 		.4byte	0x842
 2397 0e78 72030000 		.4byte	.LLST27
 2398 0e7c 32       		.uleb128 0x32
 2399 0e7d 60000000 		.4byte	.Ldebug_ranges0+0x60
 2400 0e81 2C       		.uleb128 0x2c
 2401 0e82 59080000 		.4byte	0x859
 2402 0e86 85030000 		.4byte	.LLST28
 2403 0e8a 00       		.byte	0
 2404 0e8b 00       		.byte	0
 2405 0e8c 3A       		.uleb128 0x3a
 2406 0e8d 12000000 		.4byte	.LVL40
 2407 0e91 03100000 		.4byte	0x1003
 2408 0e95 A00E0000 		.4byte	0xea0
 2409 0e99 2F       		.uleb128 0x2f
 2410 0e9a 01       		.uleb128 0x1
 2411 0e9b 50       		.byte	0x50
 2412 0e9c 02       		.uleb128 0x2
 2413 0e9d 76       		.byte	0x76
 2414 0e9e 00       		.sleb128 0
 2415 0e9f 00       		.byte	0
 2416 0ea0 3A       		.uleb128 0x3a
 2417 0ea1 3A000000 		.4byte	.LVL45
 2418 0ea5 25100000 		.4byte	0x1025
 2419 0ea9 B90E0000 		.4byte	0xeb9
 2420 0ead 2F       		.uleb128 0x2f
 2421 0eae 01       		.uleb128 0x1
 2422 0eaf 50       		.byte	0x50
 2423 0eb0 01       		.uleb128 0x1
 2424 0eb1 37       		.byte	0x37
 2425 0eb2 2F       		.uleb128 0x2f
 2426 0eb3 01       		.uleb128 0x1
 2427 0eb4 51       		.byte	0x51
 2428 0eb5 02       		.uleb128 0x2
 2429 0eb6 77       		.byte	0x77
 2430 0eb7 00       		.sleb128 0
 2431 0eb8 00       		.byte	0
 2432 0eb9 2E       		.uleb128 0x2e
 2433 0eba 46000000 		.4byte	.LVL48
 2434 0ebe 1A100000 		.4byte	0x101a
 2435 0ec2 2F       		.uleb128 0x2f
ARM GAS  /tmp/ccB3q9ZZ.s 			page 44


 2436 0ec3 01       		.uleb128 0x1
 2437 0ec4 50       		.byte	0x50
 2438 0ec5 02       		.uleb128 0x2
 2439 0ec6 76       		.byte	0x76
 2440 0ec7 00       		.sleb128 0
 2441 0ec8 00       		.byte	0
 2442 0ec9 00       		.byte	0
 2443 0eca 15       		.uleb128 0x15
 2444 0ecb B0060000 		.4byte	0x6b0
 2445 0ecf DA0E0000 		.4byte	0xeda
 2446 0ed3 16       		.uleb128 0x16
 2447 0ed4 48040000 		.4byte	0x448
 2448 0ed8 12       		.byte	0x12
 2449 0ed9 00       		.byte	0
 2450 0eda 14       		.uleb128 0x14
 2451 0edb CA0E0000 		.4byte	0xeca
 2452 0edf 3C       		.uleb128 0x3c
 2453 0ee0 A6060000 		.4byte	.LASF128
 2454 0ee4 01       		.byte	0x1
 2455 0ee5 0201     		.2byte	0x102
 2456 0ee7 06010000 		.4byte	0x106
 2457 0eeb 00000000 		.4byte	.LFB236
 2458 0eef 14000000 		.4byte	.LFE236-.LFB236
 2459 0ef3 01       		.uleb128 0x1
 2460 0ef4 9C       		.byte	0x9c
 2461 0ef5 C80F0000 		.4byte	0xfc8
 2462 0ef9 3D       		.uleb128 0x3d
 2463 0efa 637000   		.ascii	"cp\000"
 2464 0efd 01       		.byte	0x1
 2465 0efe 0201     		.2byte	0x102
 2466 0f00 1A080000 		.4byte	0x81a
 2467 0f04 98030000 		.4byte	.LLST29
 2468 0f08 3E       		.uleb128 0x3e
 2469 0f09 FD030000 		.4byte	.LASF127
 2470 0f0d 01       		.byte	0x1
 2471 0f0e 0201     		.2byte	0x102
 2472 0f10 27010000 		.4byte	0x127
 2473 0f14 B9030000 		.4byte	.LLST30
 2474 0f18 42       		.uleb128 0x42
 2475 0f19 6D736700 		.ascii	"msg\000"
 2476 0f1d 01       		.byte	0x1
 2477 0f1e 0301     		.2byte	0x103
 2478 0f20 06010000 		.4byte	0x106
 2479 0f24 01       		.uleb128 0x1
 2480 0f25 50       		.byte	0x50
 2481 0f26 40       		.uleb128 0x40
 2482 0f27 94070000 		.4byte	0x794
 2483 0f2b 02000000 		.4byte	.LBB161
 2484 0f2f 06000000 		.4byte	.LBE161-.LBB161
 2485 0f33 01       		.byte	0x1
 2486 0f34 0501     		.2byte	0x105
 2487 0f36 630F0000 		.4byte	0xf63
 2488 0f3a 28       		.uleb128 0x28
 2489 0f3b 26070000 		.4byte	0x726
 2490 0f3f 02000000 		.4byte	.LBB162
 2491 0f43 06000000 		.4byte	.LBE162-.LBB162
 2492 0f47 0F       		.byte	0xf
ARM GAS  /tmp/ccB3q9ZZ.s 			page 45


 2493 0f48 5C01     		.2byte	0x15c
 2494 0f4a 28       		.uleb128 0x28
 2495 0f4b 0C070000 		.4byte	0x70c
 2496 0f4f 02000000 		.4byte	.LBB163
 2497 0f53 06000000 		.4byte	.LBE163-.LBB163
 2498 0f57 0B       		.byte	0xb
 2499 0f58 BF01     		.2byte	0x1bf
 2500 0f5a 29       		.uleb128 0x29
 2501 0f5b 19070000 		.4byte	0x719
 2502 0f5f 20       		.byte	0x20
 2503 0f60 00       		.byte	0
 2504 0f61 00       		.byte	0
 2505 0f62 00       		.byte	0
 2506 0f63 40       		.uleb128 0x40
 2507 0f64 C6070000 		.4byte	0x7c6
 2508 0f68 0C000000 		.4byte	.LBB165
 2509 0f6c 06000000 		.4byte	.LBE165-.LBB165
 2510 0f70 01       		.byte	0x1
 2511 0f71 0701     		.2byte	0x107
 2512 0f73 AF0F0000 		.4byte	0xfaf
 2513 0f77 2B       		.uleb128 0x2b
 2514 0f78 0C000000 		.4byte	.LBB166
 2515 0f7c 06000000 		.4byte	.LBE166-.LBB166
 2516 0f80 2D       		.uleb128 0x2d
 2517 0f81 D3070000 		.4byte	0x7d3
 2518 0f85 28       		.uleb128 0x28
 2519 0f86 2F070000 		.4byte	0x72f
 2520 0f8a 0C000000 		.4byte	.LBB167
 2521 0f8e 06000000 		.4byte	.LBE167-.LBB167
 2522 0f92 0F       		.byte	0xf
 2523 0f93 7301     		.2byte	0x173
 2524 0f95 28       		.uleb128 0x28
 2525 0f96 0C070000 		.4byte	0x70c
 2526 0f9a 0C000000 		.4byte	.LBB168
 2527 0f9e 06000000 		.4byte	.LBE168-.LBB168
 2528 0fa2 0B       		.byte	0xb
 2529 0fa3 CD01     		.2byte	0x1cd
 2530 0fa5 29       		.uleb128 0x29
 2531 0fa6 19070000 		.4byte	0x719
 2532 0faa 00       		.byte	0
 2533 0fab 00       		.byte	0
 2534 0fac 00       		.byte	0
 2535 0fad 00       		.byte	0
 2536 0fae 00       		.byte	0
 2537 0faf 2E       		.uleb128 0x2e
 2538 0fb0 0C000000 		.4byte	.LVL51
 2539 0fb4 D50D0000 		.4byte	0xdd5
 2540 0fb8 2F       		.uleb128 0x2f
 2541 0fb9 01       		.uleb128 0x1
 2542 0fba 50       		.byte	0x50
 2543 0fbb 03       		.uleb128 0x3
 2544 0fbc F3       		.byte	0xf3
 2545 0fbd 01       		.uleb128 0x1
 2546 0fbe 50       		.byte	0x50
 2547 0fbf 2F       		.uleb128 0x2f
 2548 0fc0 01       		.uleb128 0x1
 2549 0fc1 51       		.byte	0x51
ARM GAS  /tmp/ccB3q9ZZ.s 			page 46


 2550 0fc2 03       		.uleb128 0x3
 2551 0fc3 F3       		.byte	0xf3
 2552 0fc4 01       		.uleb128 0x1
 2553 0fc5 51       		.byte	0x51
 2554 0fc6 00       		.byte	0
 2555 0fc7 00       		.byte	0
 2556 0fc8 43       		.uleb128 0x43
 2557 0fc9 AF000000 		.4byte	.LASF129
 2558 0fcd 10       		.byte	0x10
 2559 0fce A706     		.2byte	0x6a7
 2560 0fd0 CA000000 		.4byte	0xca
 2561 0fd4 44       		.uleb128 0x44
 2562 0fd5 636800   		.ascii	"ch\000"
 2563 0fd8 02       		.byte	0x2
 2564 0fd9 0902     		.2byte	0x209
 2565 0fdb E1030000 		.4byte	0x3e1
 2566 0fdf 45       		.uleb128 0x45
 2567 0fe0 34020000 		.4byte	.LASF130
 2568 0fe4 34020000 		.4byte	.LASF130
 2569 0fe8 02       		.byte	0x2
 2570 0fe9 1602     		.2byte	0x216
 2571 0feb 45       		.uleb128 0x45
 2572 0fec 36050000 		.4byte	.LASF131
 2573 0ff0 36050000 		.4byte	.LASF131
 2574 0ff4 02       		.byte	0x2
 2575 0ff5 1302     		.2byte	0x213
 2576 0ff7 45       		.uleb128 0x45
 2577 0ff8 61010000 		.4byte	.LASF132
 2578 0ffc 61010000 		.4byte	.LASF132
 2579 1000 02       		.byte	0x2
 2580 1001 1702     		.2byte	0x217
 2581 1003 46       		.uleb128 0x46
 2582 1004 D4010000 		.4byte	.LASF133
 2583 1008 D4010000 		.4byte	.LASF133
 2584 100c 04       		.byte	0x4
 2585 100d 6D       		.byte	0x6d
 2586 100e 45       		.uleb128 0x45
 2587 100f F2040000 		.4byte	.LASF134
 2588 1013 F2040000 		.4byte	.LASF134
 2589 1017 02       		.byte	0x2
 2590 1018 1402     		.2byte	0x214
 2591 101a 46       		.uleb128 0x46
 2592 101b F8060000 		.4byte	.LASF135
 2593 101f F8060000 		.4byte	.LASF135
 2594 1023 04       		.byte	0x4
 2595 1024 69       		.byte	0x69
 2596 1025 45       		.uleb128 0x45
 2597 1026 C7060000 		.4byte	.LASF136
 2598 102a C7060000 		.4byte	.LASF136
 2599 102e 02       		.byte	0x2
 2600 102f 1502     		.2byte	0x215
 2601 1031 00       		.byte	0
 2602              		.section	.debug_abbrev,"",%progbits
 2603              	.Ldebug_abbrev0:
 2604 0000 01       		.uleb128 0x1
 2605 0001 11       		.uleb128 0x11
 2606 0002 01       		.byte	0x1
ARM GAS  /tmp/ccB3q9ZZ.s 			page 47


 2607 0003 25       		.uleb128 0x25
 2608 0004 0E       		.uleb128 0xe
 2609 0005 13       		.uleb128 0x13
 2610 0006 0B       		.uleb128 0xb
 2611 0007 03       		.uleb128 0x3
 2612 0008 0E       		.uleb128 0xe
 2613 0009 1B       		.uleb128 0x1b
 2614 000a 0E       		.uleb128 0xe
 2615 000b 55       		.uleb128 0x55
 2616 000c 17       		.uleb128 0x17
 2617 000d 11       		.uleb128 0x11
 2618 000e 01       		.uleb128 0x1
 2619 000f 10       		.uleb128 0x10
 2620 0010 17       		.uleb128 0x17
 2621 0011 00       		.byte	0
 2622 0012 00       		.byte	0
 2623 0013 02       		.uleb128 0x2
 2624 0014 24       		.uleb128 0x24
 2625 0015 00       		.byte	0
 2626 0016 0B       		.uleb128 0xb
 2627 0017 0B       		.uleb128 0xb
 2628 0018 3E       		.uleb128 0x3e
 2629 0019 0B       		.uleb128 0xb
 2630 001a 03       		.uleb128 0x3
 2631 001b 08       		.uleb128 0x8
 2632 001c 00       		.byte	0
 2633 001d 00       		.byte	0
 2634 001e 03       		.uleb128 0x3
 2635 001f 24       		.uleb128 0x24
 2636 0020 00       		.byte	0
 2637 0021 0B       		.uleb128 0xb
 2638 0022 0B       		.uleb128 0xb
 2639 0023 3E       		.uleb128 0x3e
 2640 0024 0B       		.uleb128 0xb
 2641 0025 03       		.uleb128 0x3
 2642 0026 0E       		.uleb128 0xe
 2643 0027 00       		.byte	0
 2644 0028 00       		.byte	0
 2645 0029 04       		.uleb128 0x4
 2646 002a 16       		.uleb128 0x16
 2647 002b 00       		.byte	0
 2648 002c 03       		.uleb128 0x3
 2649 002d 0E       		.uleb128 0xe
 2650 002e 3A       		.uleb128 0x3a
 2651 002f 0B       		.uleb128 0xb
 2652 0030 3B       		.uleb128 0x3b
 2653 0031 0B       		.uleb128 0xb
 2654 0032 49       		.uleb128 0x49
 2655 0033 13       		.uleb128 0x13
 2656 0034 00       		.byte	0
 2657 0035 00       		.byte	0
 2658 0036 05       		.uleb128 0x5
 2659 0037 35       		.uleb128 0x35
 2660 0038 00       		.byte	0
 2661 0039 49       		.uleb128 0x49
 2662 003a 13       		.uleb128 0x13
 2663 003b 00       		.byte	0
ARM GAS  /tmp/ccB3q9ZZ.s 			page 48


 2664 003c 00       		.byte	0
 2665 003d 06       		.uleb128 0x6
 2666 003e 13       		.uleb128 0x13
 2667 003f 01       		.byte	0x1
 2668 0040 03       		.uleb128 0x3
 2669 0041 0E       		.uleb128 0xe
 2670 0042 0B       		.uleb128 0xb
 2671 0043 0B       		.uleb128 0xb
 2672 0044 3A       		.uleb128 0x3a
 2673 0045 0B       		.uleb128 0xb
 2674 0046 3B       		.uleb128 0x3b
 2675 0047 0B       		.uleb128 0xb
 2676 0048 01       		.uleb128 0x1
 2677 0049 13       		.uleb128 0x13
 2678 004a 00       		.byte	0
 2679 004b 00       		.byte	0
 2680 004c 07       		.uleb128 0x7
 2681 004d 0D       		.uleb128 0xd
 2682 004e 00       		.byte	0
 2683 004f 03       		.uleb128 0x3
 2684 0050 0E       		.uleb128 0xe
 2685 0051 3A       		.uleb128 0x3a
 2686 0052 0B       		.uleb128 0xb
 2687 0053 3B       		.uleb128 0x3b
 2688 0054 0B       		.uleb128 0xb
 2689 0055 49       		.uleb128 0x49
 2690 0056 13       		.uleb128 0x13
 2691 0057 38       		.uleb128 0x38
 2692 0058 0B       		.uleb128 0xb
 2693 0059 00       		.byte	0
 2694 005a 00       		.byte	0
 2695 005b 08       		.uleb128 0x8
 2696 005c 0D       		.uleb128 0xd
 2697 005d 00       		.byte	0
 2698 005e 03       		.uleb128 0x3
 2699 005f 08       		.uleb128 0x8
 2700 0060 3A       		.uleb128 0x3a
 2701 0061 0B       		.uleb128 0xb
 2702 0062 3B       		.uleb128 0x3b
 2703 0063 05       		.uleb128 0x5
 2704 0064 49       		.uleb128 0x49
 2705 0065 13       		.uleb128 0x13
 2706 0066 38       		.uleb128 0x38
 2707 0067 0B       		.uleb128 0xb
 2708 0068 00       		.byte	0
 2709 0069 00       		.byte	0
 2710 006a 09       		.uleb128 0x9
 2711 006b 0D       		.uleb128 0xd
 2712 006c 00       		.byte	0
 2713 006d 03       		.uleb128 0x3
 2714 006e 0E       		.uleb128 0xe
 2715 006f 3A       		.uleb128 0x3a
 2716 0070 0B       		.uleb128 0xb
 2717 0071 3B       		.uleb128 0x3b
 2718 0072 05       		.uleb128 0x5
 2719 0073 49       		.uleb128 0x49
 2720 0074 13       		.uleb128 0x13
ARM GAS  /tmp/ccB3q9ZZ.s 			page 49


 2721 0075 38       		.uleb128 0x38
 2722 0076 0B       		.uleb128 0xb
 2723 0077 00       		.byte	0
 2724 0078 00       		.byte	0
 2725 0079 0A       		.uleb128 0xa
 2726 007a 0F       		.uleb128 0xf
 2727 007b 00       		.byte	0
 2728 007c 0B       		.uleb128 0xb
 2729 007d 0B       		.uleb128 0xb
 2730 007e 49       		.uleb128 0x49
 2731 007f 13       		.uleb128 0x13
 2732 0080 00       		.byte	0
 2733 0081 00       		.byte	0
 2734 0082 0B       		.uleb128 0xb
 2735 0083 13       		.uleb128 0x13
 2736 0084 01       		.byte	0x1
 2737 0085 03       		.uleb128 0x3
 2738 0086 0E       		.uleb128 0xe
 2739 0087 0B       		.uleb128 0xb
 2740 0088 0B       		.uleb128 0xb
 2741 0089 3A       		.uleb128 0x3a
 2742 008a 0B       		.uleb128 0xb
 2743 008b 3B       		.uleb128 0x3b
 2744 008c 05       		.uleb128 0x5
 2745 008d 01       		.uleb128 0x1
 2746 008e 13       		.uleb128 0x13
 2747 008f 00       		.byte	0
 2748 0090 00       		.byte	0
 2749 0091 0C       		.uleb128 0xc
 2750 0092 15       		.uleb128 0x15
 2751 0093 01       		.byte	0x1
 2752 0094 27       		.uleb128 0x27
 2753 0095 19       		.uleb128 0x19
 2754 0096 01       		.uleb128 0x1
 2755 0097 13       		.uleb128 0x13
 2756 0098 00       		.byte	0
 2757 0099 00       		.byte	0
 2758 009a 0D       		.uleb128 0xd
 2759 009b 05       		.uleb128 0x5
 2760 009c 00       		.byte	0
 2761 009d 49       		.uleb128 0x49
 2762 009e 13       		.uleb128 0x13
 2763 009f 00       		.byte	0
 2764 00a0 00       		.byte	0
 2765 00a1 0E       		.uleb128 0xe
 2766 00a2 0F       		.uleb128 0xf
 2767 00a3 00       		.byte	0
 2768 00a4 0B       		.uleb128 0xb
 2769 00a5 0B       		.uleb128 0xb
 2770 00a6 00       		.byte	0
 2771 00a7 00       		.byte	0
 2772 00a8 0F       		.uleb128 0xf
 2773 00a9 13       		.uleb128 0x13
 2774 00aa 01       		.byte	0x1
 2775 00ab 03       		.uleb128 0x3
 2776 00ac 0E       		.uleb128 0xe
 2777 00ad 0B       		.uleb128 0xb
ARM GAS  /tmp/ccB3q9ZZ.s 			page 50


 2778 00ae 05       		.uleb128 0x5
 2779 00af 3A       		.uleb128 0x3a
 2780 00b0 0B       		.uleb128 0xb
 2781 00b1 3B       		.uleb128 0x3b
 2782 00b2 05       		.uleb128 0x5
 2783 00b3 01       		.uleb128 0x1
 2784 00b4 13       		.uleb128 0x13
 2785 00b5 00       		.byte	0
 2786 00b6 00       		.byte	0
 2787 00b7 10       		.uleb128 0x10
 2788 00b8 0D       		.uleb128 0xd
 2789 00b9 00       		.byte	0
 2790 00ba 03       		.uleb128 0x3
 2791 00bb 08       		.uleb128 0x8
 2792 00bc 3A       		.uleb128 0x3a
 2793 00bd 0B       		.uleb128 0xb
 2794 00be 3B       		.uleb128 0x3b
 2795 00bf 0B       		.uleb128 0xb
 2796 00c0 49       		.uleb128 0x49
 2797 00c1 13       		.uleb128 0x13
 2798 00c2 38       		.uleb128 0x38
 2799 00c3 0B       		.uleb128 0xb
 2800 00c4 00       		.byte	0
 2801 00c5 00       		.byte	0
 2802 00c6 11       		.uleb128 0x11
 2803 00c7 13       		.uleb128 0x13
 2804 00c8 01       		.byte	0x1
 2805 00c9 0B       		.uleb128 0xb
 2806 00ca 0B       		.uleb128 0xb
 2807 00cb 3A       		.uleb128 0x3a
 2808 00cc 0B       		.uleb128 0xb
 2809 00cd 3B       		.uleb128 0x3b
 2810 00ce 0B       		.uleb128 0xb
 2811 00cf 01       		.uleb128 0x1
 2812 00d0 13       		.uleb128 0x13
 2813 00d1 00       		.byte	0
 2814 00d2 00       		.byte	0
 2815 00d3 12       		.uleb128 0x12
 2816 00d4 17       		.uleb128 0x17
 2817 00d5 01       		.byte	0x1
 2818 00d6 0B       		.uleb128 0xb
 2819 00d7 0B       		.uleb128 0xb
 2820 00d8 3A       		.uleb128 0x3a
 2821 00d9 0B       		.uleb128 0xb
 2822 00da 3B       		.uleb128 0x3b
 2823 00db 0B       		.uleb128 0xb
 2824 00dc 01       		.uleb128 0x1
 2825 00dd 13       		.uleb128 0x13
 2826 00de 00       		.byte	0
 2827 00df 00       		.byte	0
 2828 00e0 13       		.uleb128 0x13
 2829 00e1 0D       		.uleb128 0xd
 2830 00e2 00       		.byte	0
 2831 00e3 03       		.uleb128 0x3
 2832 00e4 0E       		.uleb128 0xe
 2833 00e5 3A       		.uleb128 0x3a
 2834 00e6 0B       		.uleb128 0xb
ARM GAS  /tmp/ccB3q9ZZ.s 			page 51


 2835 00e7 3B       		.uleb128 0x3b
 2836 00e8 05       		.uleb128 0x5
 2837 00e9 49       		.uleb128 0x49
 2838 00ea 13       		.uleb128 0x13
 2839 00eb 00       		.byte	0
 2840 00ec 00       		.byte	0
 2841 00ed 14       		.uleb128 0x14
 2842 00ee 26       		.uleb128 0x26
 2843 00ef 00       		.byte	0
 2844 00f0 49       		.uleb128 0x49
 2845 00f1 13       		.uleb128 0x13
 2846 00f2 00       		.byte	0
 2847 00f3 00       		.byte	0
 2848 00f4 15       		.uleb128 0x15
 2849 00f5 01       		.uleb128 0x1
 2850 00f6 01       		.byte	0x1
 2851 00f7 49       		.uleb128 0x49
 2852 00f8 13       		.uleb128 0x13
 2853 00f9 01       		.uleb128 0x1
 2854 00fa 13       		.uleb128 0x13
 2855 00fb 00       		.byte	0
 2856 00fc 00       		.byte	0
 2857 00fd 16       		.uleb128 0x16
 2858 00fe 21       		.uleb128 0x21
 2859 00ff 00       		.byte	0
 2860 0100 49       		.uleb128 0x49
 2861 0101 13       		.uleb128 0x13
 2862 0102 2F       		.uleb128 0x2f
 2863 0103 0B       		.uleb128 0xb
 2864 0104 00       		.byte	0
 2865 0105 00       		.byte	0
 2866 0106 17       		.uleb128 0x17
 2867 0107 2E       		.uleb128 0x2e
 2868 0108 01       		.byte	0x1
 2869 0109 03       		.uleb128 0x3
 2870 010a 0E       		.uleb128 0xe
 2871 010b 3A       		.uleb128 0x3a
 2872 010c 0B       		.uleb128 0xb
 2873 010d 3B       		.uleb128 0x3b
 2874 010e 05       		.uleb128 0x5
 2875 010f 27       		.uleb128 0x27
 2876 0110 19       		.uleb128 0x19
 2877 0111 20       		.uleb128 0x20
 2878 0112 0B       		.uleb128 0xb
 2879 0113 01       		.uleb128 0x1
 2880 0114 13       		.uleb128 0x13
 2881 0115 00       		.byte	0
 2882 0116 00       		.byte	0
 2883 0117 18       		.uleb128 0x18
 2884 0118 05       		.uleb128 0x5
 2885 0119 00       		.byte	0
 2886 011a 03       		.uleb128 0x3
 2887 011b 0E       		.uleb128 0xe
 2888 011c 3A       		.uleb128 0x3a
 2889 011d 0B       		.uleb128 0xb
 2890 011e 3B       		.uleb128 0x3b
 2891 011f 05       		.uleb128 0x5
ARM GAS  /tmp/ccB3q9ZZ.s 			page 52


 2892 0120 49       		.uleb128 0x49
 2893 0121 13       		.uleb128 0x13
 2894 0122 00       		.byte	0
 2895 0123 00       		.byte	0
 2896 0124 19       		.uleb128 0x19
 2897 0125 2E       		.uleb128 0x2e
 2898 0126 00       		.byte	0
 2899 0127 03       		.uleb128 0x3
 2900 0128 0E       		.uleb128 0xe
 2901 0129 3A       		.uleb128 0x3a
 2902 012a 0B       		.uleb128 0xb
 2903 012b 3B       		.uleb128 0x3b
 2904 012c 05       		.uleb128 0x5
 2905 012d 27       		.uleb128 0x27
 2906 012e 19       		.uleb128 0x19
 2907 012f 20       		.uleb128 0x20
 2908 0130 0B       		.uleb128 0xb
 2909 0131 00       		.byte	0
 2910 0132 00       		.byte	0
 2911 0133 1A       		.uleb128 0x1a
 2912 0134 2E       		.uleb128 0x2e
 2913 0135 00       		.byte	0
 2914 0136 03       		.uleb128 0x3
 2915 0137 0E       		.uleb128 0xe
 2916 0138 3A       		.uleb128 0x3a
 2917 0139 0B       		.uleb128 0xb
 2918 013a 3B       		.uleb128 0x3b
 2919 013b 0B       		.uleb128 0xb
 2920 013c 27       		.uleb128 0x27
 2921 013d 19       		.uleb128 0x19
 2922 013e 49       		.uleb128 0x49
 2923 013f 13       		.uleb128 0x13
 2924 0140 20       		.uleb128 0x20
 2925 0141 0B       		.uleb128 0xb
 2926 0142 00       		.byte	0
 2927 0143 00       		.byte	0
 2928 0144 1B       		.uleb128 0x1b
 2929 0145 05       		.uleb128 0x5
 2930 0146 00       		.byte	0
 2931 0147 03       		.uleb128 0x3
 2932 0148 08       		.uleb128 0x8
 2933 0149 3A       		.uleb128 0x3a
 2934 014a 0B       		.uleb128 0xb
 2935 014b 3B       		.uleb128 0x3b
 2936 014c 05       		.uleb128 0x5
 2937 014d 49       		.uleb128 0x49
 2938 014e 13       		.uleb128 0x13
 2939 014f 00       		.byte	0
 2940 0150 00       		.byte	0
 2941 0151 1C       		.uleb128 0x1c
 2942 0152 2E       		.uleb128 0x2e
 2943 0153 01       		.byte	0x1
 2944 0154 03       		.uleb128 0x3
 2945 0155 0E       		.uleb128 0xe
 2946 0156 3A       		.uleb128 0x3a
 2947 0157 0B       		.uleb128 0xb
 2948 0158 3B       		.uleb128 0x3b
ARM GAS  /tmp/ccB3q9ZZ.s 			page 53


 2949 0159 05       		.uleb128 0x5
 2950 015a 27       		.uleb128 0x27
 2951 015b 19       		.uleb128 0x19
 2952 015c 49       		.uleb128 0x49
 2953 015d 13       		.uleb128 0x13
 2954 015e 20       		.uleb128 0x20
 2955 015f 0B       		.uleb128 0xb
 2956 0160 01       		.uleb128 0x1
 2957 0161 13       		.uleb128 0x13
 2958 0162 00       		.byte	0
 2959 0163 00       		.byte	0
 2960 0164 1D       		.uleb128 0x1d
 2961 0165 34       		.uleb128 0x34
 2962 0166 00       		.byte	0
 2963 0167 03       		.uleb128 0x3
 2964 0168 08       		.uleb128 0x8
 2965 0169 3A       		.uleb128 0x3a
 2966 016a 0B       		.uleb128 0xb
 2967 016b 3B       		.uleb128 0x3b
 2968 016c 05       		.uleb128 0x5
 2969 016d 49       		.uleb128 0x49
 2970 016e 13       		.uleb128 0x13
 2971 016f 00       		.byte	0
 2972 0170 00       		.byte	0
 2973 0171 1E       		.uleb128 0x1e
 2974 0172 34       		.uleb128 0x34
 2975 0173 00       		.byte	0
 2976 0174 03       		.uleb128 0x3
 2977 0175 0E       		.uleb128 0xe
 2978 0176 49       		.uleb128 0x49
 2979 0177 13       		.uleb128 0x13
 2980 0178 34       		.uleb128 0x34
 2981 0179 19       		.uleb128 0x19
 2982 017a 1C       		.uleb128 0x1c
 2983 017b 0E       		.uleb128 0xe
 2984 017c 00       		.byte	0
 2985 017d 00       		.byte	0
 2986 017e 1F       		.uleb128 0x1f
 2987 017f 2E       		.uleb128 0x2e
 2988 0180 01       		.byte	0x1
 2989 0181 3F       		.uleb128 0x3f
 2990 0182 19       		.uleb128 0x19
 2991 0183 03       		.uleb128 0x3
 2992 0184 0E       		.uleb128 0xe
 2993 0185 3A       		.uleb128 0x3a
 2994 0186 0B       		.uleb128 0xb
 2995 0187 3B       		.uleb128 0x3b
 2996 0188 0B       		.uleb128 0xb
 2997 0189 27       		.uleb128 0x27
 2998 018a 19       		.uleb128 0x19
 2999 018b 20       		.uleb128 0x20
 3000 018c 0B       		.uleb128 0xb
 3001 018d 01       		.uleb128 0x1
 3002 018e 13       		.uleb128 0x13
 3003 018f 00       		.byte	0
 3004 0190 00       		.byte	0
 3005 0191 20       		.uleb128 0x20
ARM GAS  /tmp/ccB3q9ZZ.s 			page 54


 3006 0192 05       		.uleb128 0x5
 3007 0193 00       		.byte	0
 3008 0194 03       		.uleb128 0x3
 3009 0195 08       		.uleb128 0x8
 3010 0196 3A       		.uleb128 0x3a
 3011 0197 0B       		.uleb128 0xb
 3012 0198 3B       		.uleb128 0x3b
 3013 0199 0B       		.uleb128 0xb
 3014 019a 49       		.uleb128 0x49
 3015 019b 13       		.uleb128 0x13
 3016 019c 00       		.byte	0
 3017 019d 00       		.byte	0
 3018 019e 21       		.uleb128 0x21
 3019 019f 2E       		.uleb128 0x2e
 3020 01a0 01       		.byte	0x1
 3021 01a1 3F       		.uleb128 0x3f
 3022 01a2 19       		.uleb128 0x19
 3023 01a3 03       		.uleb128 0x3
 3024 01a4 0E       		.uleb128 0xe
 3025 01a5 3A       		.uleb128 0x3a
 3026 01a6 0B       		.uleb128 0xb
 3027 01a7 3B       		.uleb128 0x3b
 3028 01a8 0B       		.uleb128 0xb
 3029 01a9 27       		.uleb128 0x27
 3030 01aa 19       		.uleb128 0x19
 3031 01ab 11       		.uleb128 0x11
 3032 01ac 01       		.uleb128 0x1
 3033 01ad 12       		.uleb128 0x12
 3034 01ae 06       		.uleb128 0x6
 3035 01af 40       		.uleb128 0x40
 3036 01b0 18       		.uleb128 0x18
 3037 01b1 9742     		.uleb128 0x2117
 3038 01b3 19       		.uleb128 0x19
 3039 01b4 01       		.uleb128 0x1
 3040 01b5 13       		.uleb128 0x13
 3041 01b6 00       		.byte	0
 3042 01b7 00       		.byte	0
 3043 01b8 22       		.uleb128 0x22
 3044 01b9 05       		.uleb128 0x5
 3045 01ba 00       		.byte	0
 3046 01bb 03       		.uleb128 0x3
 3047 01bc 08       		.uleb128 0x8
 3048 01bd 3A       		.uleb128 0x3a
 3049 01be 0B       		.uleb128 0xb
 3050 01bf 3B       		.uleb128 0x3b
 3051 01c0 0B       		.uleb128 0xb
 3052 01c1 49       		.uleb128 0x49
 3053 01c2 13       		.uleb128 0x13
 3054 01c3 02       		.uleb128 0x2
 3055 01c4 18       		.uleb128 0x18
 3056 01c5 00       		.byte	0
 3057 01c6 00       		.byte	0
 3058 01c7 23       		.uleb128 0x23
 3059 01c8 34       		.uleb128 0x34
 3060 01c9 00       		.byte	0
 3061 01ca 03       		.uleb128 0x3
 3062 01cb 0E       		.uleb128 0xe
ARM GAS  /tmp/ccB3q9ZZ.s 			page 55


 3063 01cc 49       		.uleb128 0x49
 3064 01cd 13       		.uleb128 0x13
 3065 01ce 34       		.uleb128 0x34
 3066 01cf 19       		.uleb128 0x19
 3067 01d0 00       		.byte	0
 3068 01d1 00       		.byte	0
 3069 01d2 24       		.uleb128 0x24
 3070 01d3 1D       		.uleb128 0x1d
 3071 01d4 01       		.byte	0x1
 3072 01d5 31       		.uleb128 0x31
 3073 01d6 13       		.uleb128 0x13
 3074 01d7 11       		.uleb128 0x11
 3075 01d8 01       		.uleb128 0x1
 3076 01d9 12       		.uleb128 0x12
 3077 01da 06       		.uleb128 0x6
 3078 01db 58       		.uleb128 0x58
 3079 01dc 0B       		.uleb128 0xb
 3080 01dd 59       		.uleb128 0x59
 3081 01de 0B       		.uleb128 0xb
 3082 01df 00       		.byte	0
 3083 01e0 00       		.byte	0
 3084 01e1 25       		.uleb128 0x25
 3085 01e2 05       		.uleb128 0x5
 3086 01e3 00       		.byte	0
 3087 01e4 31       		.uleb128 0x31
 3088 01e5 13       		.uleb128 0x13
 3089 01e6 02       		.uleb128 0x2
 3090 01e7 18       		.uleb128 0x18
 3091 01e8 00       		.byte	0
 3092 01e9 00       		.byte	0
 3093 01ea 26       		.uleb128 0x26
 3094 01eb 05       		.uleb128 0x5
 3095 01ec 00       		.byte	0
 3096 01ed 03       		.uleb128 0x3
 3097 01ee 08       		.uleb128 0x8
 3098 01ef 3A       		.uleb128 0x3a
 3099 01f0 0B       		.uleb128 0xb
 3100 01f1 3B       		.uleb128 0x3b
 3101 01f2 0B       		.uleb128 0xb
 3102 01f3 49       		.uleb128 0x49
 3103 01f4 13       		.uleb128 0x13
 3104 01f5 02       		.uleb128 0x2
 3105 01f6 17       		.uleb128 0x17
 3106 01f7 00       		.byte	0
 3107 01f8 00       		.byte	0
 3108 01f9 27       		.uleb128 0x27
 3109 01fa 1D       		.uleb128 0x1d
 3110 01fb 01       		.byte	0x1
 3111 01fc 31       		.uleb128 0x31
 3112 01fd 13       		.uleb128 0x13
 3113 01fe 11       		.uleb128 0x11
 3114 01ff 01       		.uleb128 0x1
 3115 0200 12       		.uleb128 0x12
 3116 0201 06       		.uleb128 0x6
 3117 0202 58       		.uleb128 0x58
 3118 0203 0B       		.uleb128 0xb
 3119 0204 59       		.uleb128 0x59
ARM GAS  /tmp/ccB3q9ZZ.s 			page 56


 3120 0205 0B       		.uleb128 0xb
 3121 0206 01       		.uleb128 0x1
 3122 0207 13       		.uleb128 0x13
 3123 0208 00       		.byte	0
 3124 0209 00       		.byte	0
 3125 020a 28       		.uleb128 0x28
 3126 020b 1D       		.uleb128 0x1d
 3127 020c 01       		.byte	0x1
 3128 020d 31       		.uleb128 0x31
 3129 020e 13       		.uleb128 0x13
 3130 020f 11       		.uleb128 0x11
 3131 0210 01       		.uleb128 0x1
 3132 0211 12       		.uleb128 0x12
 3133 0212 06       		.uleb128 0x6
 3134 0213 58       		.uleb128 0x58
 3135 0214 0B       		.uleb128 0xb
 3136 0215 59       		.uleb128 0x59
 3137 0216 05       		.uleb128 0x5
 3138 0217 00       		.byte	0
 3139 0218 00       		.byte	0
 3140 0219 29       		.uleb128 0x29
 3141 021a 05       		.uleb128 0x5
 3142 021b 00       		.byte	0
 3143 021c 31       		.uleb128 0x31
 3144 021d 13       		.uleb128 0x13
 3145 021e 1C       		.uleb128 0x1c
 3146 021f 0B       		.uleb128 0xb
 3147 0220 00       		.byte	0
 3148 0221 00       		.byte	0
 3149 0222 2A       		.uleb128 0x2a
 3150 0223 05       		.uleb128 0x5
 3151 0224 00       		.byte	0
 3152 0225 31       		.uleb128 0x31
 3153 0226 13       		.uleb128 0x13
 3154 0227 02       		.uleb128 0x2
 3155 0228 17       		.uleb128 0x17
 3156 0229 00       		.byte	0
 3157 022a 00       		.byte	0
 3158 022b 2B       		.uleb128 0x2b
 3159 022c 0B       		.uleb128 0xb
 3160 022d 01       		.byte	0x1
 3161 022e 11       		.uleb128 0x11
 3162 022f 01       		.uleb128 0x1
 3163 0230 12       		.uleb128 0x12
 3164 0231 06       		.uleb128 0x6
 3165 0232 00       		.byte	0
 3166 0233 00       		.byte	0
 3167 0234 2C       		.uleb128 0x2c
 3168 0235 34       		.uleb128 0x34
 3169 0236 00       		.byte	0
 3170 0237 31       		.uleb128 0x31
 3171 0238 13       		.uleb128 0x13
 3172 0239 02       		.uleb128 0x2
 3173 023a 17       		.uleb128 0x17
 3174 023b 00       		.byte	0
 3175 023c 00       		.byte	0
 3176 023d 2D       		.uleb128 0x2d
ARM GAS  /tmp/ccB3q9ZZ.s 			page 57


 3177 023e 34       		.uleb128 0x34
 3178 023f 00       		.byte	0
 3179 0240 31       		.uleb128 0x31
 3180 0241 13       		.uleb128 0x13
 3181 0242 00       		.byte	0
 3182 0243 00       		.byte	0
 3183 0244 2E       		.uleb128 0x2e
 3184 0245 898201   		.uleb128 0x4109
 3185 0248 01       		.byte	0x1
 3186 0249 11       		.uleb128 0x11
 3187 024a 01       		.uleb128 0x1
 3188 024b 31       		.uleb128 0x31
 3189 024c 13       		.uleb128 0x13
 3190 024d 00       		.byte	0
 3191 024e 00       		.byte	0
 3192 024f 2F       		.uleb128 0x2f
 3193 0250 8A8201   		.uleb128 0x410a
 3194 0253 00       		.byte	0
 3195 0254 02       		.uleb128 0x2
 3196 0255 18       		.uleb128 0x18
 3197 0256 9142     		.uleb128 0x2111
 3198 0258 18       		.uleb128 0x18
 3199 0259 00       		.byte	0
 3200 025a 00       		.byte	0
 3201 025b 30       		.uleb128 0x30
 3202 025c 34       		.uleb128 0x34
 3203 025d 00       		.byte	0
 3204 025e 03       		.uleb128 0x3
 3205 025f 08       		.uleb128 0x8
 3206 0260 3A       		.uleb128 0x3a
 3207 0261 0B       		.uleb128 0xb
 3208 0262 3B       		.uleb128 0x3b
 3209 0263 0B       		.uleb128 0xb
 3210 0264 49       		.uleb128 0x49
 3211 0265 13       		.uleb128 0x13
 3212 0266 00       		.byte	0
 3213 0267 00       		.byte	0
 3214 0268 31       		.uleb128 0x31
 3215 0269 1D       		.uleb128 0x1d
 3216 026a 01       		.byte	0x1
 3217 026b 31       		.uleb128 0x31
 3218 026c 13       		.uleb128 0x13
 3219 026d 52       		.uleb128 0x52
 3220 026e 01       		.uleb128 0x1
 3221 026f 55       		.uleb128 0x55
 3222 0270 17       		.uleb128 0x17
 3223 0271 58       		.uleb128 0x58
 3224 0272 0B       		.uleb128 0xb
 3225 0273 59       		.uleb128 0x59
 3226 0274 0B       		.uleb128 0xb
 3227 0275 01       		.uleb128 0x1
 3228 0276 13       		.uleb128 0x13
 3229 0277 00       		.byte	0
 3230 0278 00       		.byte	0
 3231 0279 32       		.uleb128 0x32
 3232 027a 0B       		.uleb128 0xb
 3233 027b 01       		.byte	0x1
ARM GAS  /tmp/ccB3q9ZZ.s 			page 58


 3234 027c 55       		.uleb128 0x55
 3235 027d 17       		.uleb128 0x17
 3236 027e 00       		.byte	0
 3237 027f 00       		.byte	0
 3238 0280 33       		.uleb128 0x33
 3239 0281 898201   		.uleb128 0x4109
 3240 0284 00       		.byte	0
 3241 0285 11       		.uleb128 0x11
 3242 0286 01       		.uleb128 0x1
 3243 0287 9542     		.uleb128 0x2115
 3244 0289 19       		.uleb128 0x19
 3245 028a 31       		.uleb128 0x31
 3246 028b 13       		.uleb128 0x13
 3247 028c 00       		.byte	0
 3248 028d 00       		.byte	0
 3249 028e 34       		.uleb128 0x34
 3250 028f 05       		.uleb128 0x5
 3251 0290 00       		.byte	0
 3252 0291 31       		.uleb128 0x31
 3253 0292 13       		.uleb128 0x13
 3254 0293 00       		.byte	0
 3255 0294 00       		.byte	0
 3256 0295 35       		.uleb128 0x35
 3257 0296 898201   		.uleb128 0x4109
 3258 0299 00       		.byte	0
 3259 029a 11       		.uleb128 0x11
 3260 029b 01       		.uleb128 0x1
 3261 029c 31       		.uleb128 0x31
 3262 029d 13       		.uleb128 0x13
 3263 029e 00       		.byte	0
 3264 029f 00       		.byte	0
 3265 02a0 36       		.uleb128 0x36
 3266 02a1 2E       		.uleb128 0x2e
 3267 02a2 01       		.byte	0x1
 3268 02a3 31       		.uleb128 0x31
 3269 02a4 13       		.uleb128 0x13
 3270 02a5 11       		.uleb128 0x11
 3271 02a6 01       		.uleb128 0x1
 3272 02a7 12       		.uleb128 0x12
 3273 02a8 06       		.uleb128 0x6
 3274 02a9 40       		.uleb128 0x40
 3275 02aa 18       		.uleb128 0x18
 3276 02ab 9742     		.uleb128 0x2117
 3277 02ad 19       		.uleb128 0x19
 3278 02ae 01       		.uleb128 0x1
 3279 02af 13       		.uleb128 0x13
 3280 02b0 00       		.byte	0
 3281 02b1 00       		.byte	0
 3282 02b2 37       		.uleb128 0x37
 3283 02b3 2E       		.uleb128 0x2e
 3284 02b4 01       		.byte	0x1
 3285 02b5 3F       		.uleb128 0x3f
 3286 02b6 19       		.uleb128 0x19
 3287 02b7 03       		.uleb128 0x3
 3288 02b8 0E       		.uleb128 0xe
 3289 02b9 3A       		.uleb128 0x3a
 3290 02ba 0B       		.uleb128 0xb
ARM GAS  /tmp/ccB3q9ZZ.s 			page 59


 3291 02bb 3B       		.uleb128 0x3b
 3292 02bc 0B       		.uleb128 0xb
 3293 02bd 27       		.uleb128 0x27
 3294 02be 19       		.uleb128 0x19
 3295 02bf 49       		.uleb128 0x49
 3296 02c0 13       		.uleb128 0x13
 3297 02c1 11       		.uleb128 0x11
 3298 02c2 01       		.uleb128 0x1
 3299 02c3 12       		.uleb128 0x12
 3300 02c4 06       		.uleb128 0x6
 3301 02c5 40       		.uleb128 0x40
 3302 02c6 18       		.uleb128 0x18
 3303 02c7 9742     		.uleb128 0x2117
 3304 02c9 19       		.uleb128 0x19
 3305 02ca 01       		.uleb128 0x1
 3306 02cb 13       		.uleb128 0x13
 3307 02cc 00       		.byte	0
 3308 02cd 00       		.byte	0
 3309 02ce 38       		.uleb128 0x38
 3310 02cf 34       		.uleb128 0x34
 3311 02d0 00       		.byte	0
 3312 02d1 03       		.uleb128 0x3
 3313 02d2 08       		.uleb128 0x8
 3314 02d3 3A       		.uleb128 0x3a
 3315 02d4 0B       		.uleb128 0xb
 3316 02d5 3B       		.uleb128 0x3b
 3317 02d6 0B       		.uleb128 0xb
 3318 02d7 49       		.uleb128 0x49
 3319 02d8 13       		.uleb128 0x13
 3320 02d9 02       		.uleb128 0x2
 3321 02da 17       		.uleb128 0x17
 3322 02db 00       		.byte	0
 3323 02dc 00       		.byte	0
 3324 02dd 39       		.uleb128 0x39
 3325 02de 1D       		.uleb128 0x1d
 3326 02df 00       		.byte	0
 3327 02e0 31       		.uleb128 0x31
 3328 02e1 13       		.uleb128 0x13
 3329 02e2 11       		.uleb128 0x11
 3330 02e3 01       		.uleb128 0x1
 3331 02e4 12       		.uleb128 0x12
 3332 02e5 06       		.uleb128 0x6
 3333 02e6 58       		.uleb128 0x58
 3334 02e7 0B       		.uleb128 0xb
 3335 02e8 59       		.uleb128 0x59
 3336 02e9 0B       		.uleb128 0xb
 3337 02ea 00       		.byte	0
 3338 02eb 00       		.byte	0
 3339 02ec 3A       		.uleb128 0x3a
 3340 02ed 898201   		.uleb128 0x4109
 3341 02f0 01       		.byte	0x1
 3342 02f1 11       		.uleb128 0x11
 3343 02f2 01       		.uleb128 0x1
 3344 02f3 31       		.uleb128 0x31
 3345 02f4 13       		.uleb128 0x13
 3346 02f5 01       		.uleb128 0x1
 3347 02f6 13       		.uleb128 0x13
ARM GAS  /tmp/ccB3q9ZZ.s 			page 60


 3348 02f7 00       		.byte	0
 3349 02f8 00       		.byte	0
 3350 02f9 3B       		.uleb128 0x3b
 3351 02fa 34       		.uleb128 0x34
 3352 02fb 00       		.byte	0
 3353 02fc 03       		.uleb128 0x3
 3354 02fd 08       		.uleb128 0x8
 3355 02fe 3A       		.uleb128 0x3a
 3356 02ff 0B       		.uleb128 0xb
 3357 0300 3B       		.uleb128 0x3b
 3358 0301 0B       		.uleb128 0xb
 3359 0302 49       		.uleb128 0x49
 3360 0303 13       		.uleb128 0x13
 3361 0304 02       		.uleb128 0x2
 3362 0305 18       		.uleb128 0x18
 3363 0306 00       		.byte	0
 3364 0307 00       		.byte	0
 3365 0308 3C       		.uleb128 0x3c
 3366 0309 2E       		.uleb128 0x2e
 3367 030a 01       		.byte	0x1
 3368 030b 3F       		.uleb128 0x3f
 3369 030c 19       		.uleb128 0x19
 3370 030d 03       		.uleb128 0x3
 3371 030e 0E       		.uleb128 0xe
 3372 030f 3A       		.uleb128 0x3a
 3373 0310 0B       		.uleb128 0xb
 3374 0311 3B       		.uleb128 0x3b
 3375 0312 05       		.uleb128 0x5
 3376 0313 27       		.uleb128 0x27
 3377 0314 19       		.uleb128 0x19
 3378 0315 49       		.uleb128 0x49
 3379 0316 13       		.uleb128 0x13
 3380 0317 11       		.uleb128 0x11
 3381 0318 01       		.uleb128 0x1
 3382 0319 12       		.uleb128 0x12
 3383 031a 06       		.uleb128 0x6
 3384 031b 40       		.uleb128 0x40
 3385 031c 18       		.uleb128 0x18
 3386 031d 9742     		.uleb128 0x2117
 3387 031f 19       		.uleb128 0x19
 3388 0320 01       		.uleb128 0x1
 3389 0321 13       		.uleb128 0x13
 3390 0322 00       		.byte	0
 3391 0323 00       		.byte	0
 3392 0324 3D       		.uleb128 0x3d
 3393 0325 05       		.uleb128 0x5
 3394 0326 00       		.byte	0
 3395 0327 03       		.uleb128 0x3
 3396 0328 08       		.uleb128 0x8
 3397 0329 3A       		.uleb128 0x3a
 3398 032a 0B       		.uleb128 0xb
 3399 032b 3B       		.uleb128 0x3b
 3400 032c 05       		.uleb128 0x5
 3401 032d 49       		.uleb128 0x49
 3402 032e 13       		.uleb128 0x13
 3403 032f 02       		.uleb128 0x2
 3404 0330 17       		.uleb128 0x17
ARM GAS  /tmp/ccB3q9ZZ.s 			page 61


 3405 0331 00       		.byte	0
 3406 0332 00       		.byte	0
 3407 0333 3E       		.uleb128 0x3e
 3408 0334 05       		.uleb128 0x5
 3409 0335 00       		.byte	0
 3410 0336 03       		.uleb128 0x3
 3411 0337 0E       		.uleb128 0xe
 3412 0338 3A       		.uleb128 0x3a
 3413 0339 0B       		.uleb128 0xb
 3414 033a 3B       		.uleb128 0x3b
 3415 033b 05       		.uleb128 0x5
 3416 033c 49       		.uleb128 0x49
 3417 033d 13       		.uleb128 0x13
 3418 033e 02       		.uleb128 0x2
 3419 033f 17       		.uleb128 0x17
 3420 0340 00       		.byte	0
 3421 0341 00       		.byte	0
 3422 0342 3F       		.uleb128 0x3f
 3423 0343 34       		.uleb128 0x34
 3424 0344 00       		.byte	0
 3425 0345 03       		.uleb128 0x3
 3426 0346 08       		.uleb128 0x8
 3427 0347 3A       		.uleb128 0x3a
 3428 0348 0B       		.uleb128 0xb
 3429 0349 3B       		.uleb128 0x3b
 3430 034a 05       		.uleb128 0x5
 3431 034b 49       		.uleb128 0x49
 3432 034c 13       		.uleb128 0x13
 3433 034d 02       		.uleb128 0x2
 3434 034e 17       		.uleb128 0x17
 3435 034f 00       		.byte	0
 3436 0350 00       		.byte	0
 3437 0351 40       		.uleb128 0x40
 3438 0352 1D       		.uleb128 0x1d
 3439 0353 01       		.byte	0x1
 3440 0354 31       		.uleb128 0x31
 3441 0355 13       		.uleb128 0x13
 3442 0356 11       		.uleb128 0x11
 3443 0357 01       		.uleb128 0x1
 3444 0358 12       		.uleb128 0x12
 3445 0359 06       		.uleb128 0x6
 3446 035a 58       		.uleb128 0x58
 3447 035b 0B       		.uleb128 0xb
 3448 035c 59       		.uleb128 0x59
 3449 035d 05       		.uleb128 0x5
 3450 035e 01       		.uleb128 0x1
 3451 035f 13       		.uleb128 0x13
 3452 0360 00       		.byte	0
 3453 0361 00       		.byte	0
 3454 0362 41       		.uleb128 0x41
 3455 0363 1D       		.uleb128 0x1d
 3456 0364 01       		.byte	0x1
 3457 0365 31       		.uleb128 0x31
 3458 0366 13       		.uleb128 0x13
 3459 0367 52       		.uleb128 0x52
 3460 0368 01       		.uleb128 0x1
 3461 0369 55       		.uleb128 0x55
ARM GAS  /tmp/ccB3q9ZZ.s 			page 62


 3462 036a 17       		.uleb128 0x17
 3463 036b 58       		.uleb128 0x58
 3464 036c 0B       		.uleb128 0xb
 3465 036d 59       		.uleb128 0x59
 3466 036e 05       		.uleb128 0x5
 3467 036f 01       		.uleb128 0x1
 3468 0370 13       		.uleb128 0x13
 3469 0371 00       		.byte	0
 3470 0372 00       		.byte	0
 3471 0373 42       		.uleb128 0x42
 3472 0374 34       		.uleb128 0x34
 3473 0375 00       		.byte	0
 3474 0376 03       		.uleb128 0x3
 3475 0377 08       		.uleb128 0x8
 3476 0378 3A       		.uleb128 0x3a
 3477 0379 0B       		.uleb128 0xb
 3478 037a 3B       		.uleb128 0x3b
 3479 037b 05       		.uleb128 0x5
 3480 037c 49       		.uleb128 0x49
 3481 037d 13       		.uleb128 0x13
 3482 037e 02       		.uleb128 0x2
 3483 037f 18       		.uleb128 0x18
 3484 0380 00       		.byte	0
 3485 0381 00       		.byte	0
 3486 0382 43       		.uleb128 0x43
 3487 0383 34       		.uleb128 0x34
 3488 0384 00       		.byte	0
 3489 0385 03       		.uleb128 0x3
 3490 0386 0E       		.uleb128 0xe
 3491 0387 3A       		.uleb128 0x3a
 3492 0388 0B       		.uleb128 0xb
 3493 0389 3B       		.uleb128 0x3b
 3494 038a 05       		.uleb128 0x5
 3495 038b 49       		.uleb128 0x49
 3496 038c 13       		.uleb128 0x13
 3497 038d 3F       		.uleb128 0x3f
 3498 038e 19       		.uleb128 0x19
 3499 038f 3C       		.uleb128 0x3c
 3500 0390 19       		.uleb128 0x19
 3501 0391 00       		.byte	0
 3502 0392 00       		.byte	0
 3503 0393 44       		.uleb128 0x44
 3504 0394 34       		.uleb128 0x34
 3505 0395 00       		.byte	0
 3506 0396 03       		.uleb128 0x3
 3507 0397 08       		.uleb128 0x8
 3508 0398 3A       		.uleb128 0x3a
 3509 0399 0B       		.uleb128 0xb
 3510 039a 3B       		.uleb128 0x3b
 3511 039b 05       		.uleb128 0x5
 3512 039c 49       		.uleb128 0x49
 3513 039d 13       		.uleb128 0x13
 3514 039e 3F       		.uleb128 0x3f
 3515 039f 19       		.uleb128 0x19
 3516 03a0 3C       		.uleb128 0x3c
 3517 03a1 19       		.uleb128 0x19
 3518 03a2 00       		.byte	0
ARM GAS  /tmp/ccB3q9ZZ.s 			page 63


 3519 03a3 00       		.byte	0
 3520 03a4 45       		.uleb128 0x45
 3521 03a5 2E       		.uleb128 0x2e
 3522 03a6 00       		.byte	0
 3523 03a7 3F       		.uleb128 0x3f
 3524 03a8 19       		.uleb128 0x19
 3525 03a9 3C       		.uleb128 0x3c
 3526 03aa 19       		.uleb128 0x19
 3527 03ab 6E       		.uleb128 0x6e
 3528 03ac 0E       		.uleb128 0xe
 3529 03ad 03       		.uleb128 0x3
 3530 03ae 0E       		.uleb128 0xe
 3531 03af 3A       		.uleb128 0x3a
 3532 03b0 0B       		.uleb128 0xb
 3533 03b1 3B       		.uleb128 0x3b
 3534 03b2 05       		.uleb128 0x5
 3535 03b3 00       		.byte	0
 3536 03b4 00       		.byte	0
 3537 03b5 46       		.uleb128 0x46
 3538 03b6 2E       		.uleb128 0x2e
 3539 03b7 00       		.byte	0
 3540 03b8 3F       		.uleb128 0x3f
 3541 03b9 19       		.uleb128 0x19
 3542 03ba 3C       		.uleb128 0x3c
 3543 03bb 19       		.uleb128 0x19
 3544 03bc 6E       		.uleb128 0x6e
 3545 03bd 0E       		.uleb128 0xe
 3546 03be 03       		.uleb128 0x3
 3547 03bf 0E       		.uleb128 0xe
 3548 03c0 3A       		.uleb128 0x3a
 3549 03c1 0B       		.uleb128 0xb
 3550 03c2 3B       		.uleb128 0x3b
 3551 03c3 0B       		.uleb128 0xb
 3552 03c4 00       		.byte	0
 3553 03c5 00       		.byte	0
 3554 03c6 00       		.byte	0
 3555              		.section	.debug_loc,"",%progbits
 3556              	.Ldebug_loc0:
 3557              	.LLST0:
 3558 0000 00000000 		.4byte	.LVL1
 3559 0004 18000000 		.4byte	.LVL4
 3560 0008 0100     		.2byte	0x1
 3561 000a 50       		.byte	0x50
 3562 000b 18000000 		.4byte	.LVL4
 3563 000f 1D000000 		.4byte	.LVL5-1
 3564 0013 0100     		.2byte	0x1
 3565 0015 53       		.byte	0x53
 3566 0016 1D000000 		.4byte	.LVL5-1
 3567 001a 26000000 		.4byte	.LFE230
 3568 001e 0400     		.2byte	0x4
 3569 0020 F3       		.byte	0xf3
 3570 0021 01       		.uleb128 0x1
 3571 0022 50       		.byte	0x50
 3572 0023 9F       		.byte	0x9f
 3573 0024 00000000 		.4byte	0
 3574 0028 00000000 		.4byte	0
 3575              	.LLST1:
ARM GAS  /tmp/ccB3q9ZZ.s 			page 64


 3576 002c 08000000 		.4byte	.LVL2
 3577 0030 18000000 		.4byte	.LVL4
 3578 0034 0100     		.2byte	0x1
 3579 0036 50       		.byte	0x50
 3580 0037 18000000 		.4byte	.LVL4
 3581 003b 1D000000 		.4byte	.LVL5-1
 3582 003f 0100     		.2byte	0x1
 3583 0041 53       		.byte	0x53
 3584 0042 1D000000 		.4byte	.LVL5-1
 3585 0046 26000000 		.4byte	.LFE230
 3586 004a 0400     		.2byte	0x4
 3587 004c F3       		.byte	0xf3
 3588 004d 01       		.uleb128 0x1
 3589 004e 50       		.byte	0x50
 3590 004f 9F       		.byte	0x9f
 3591 0050 00000000 		.4byte	0
 3592 0054 00000000 		.4byte	0
 3593              	.LLST2:
 3594 0058 14000000 		.4byte	.LVL3
 3595 005c 18000000 		.4byte	.LVL4
 3596 0060 0100     		.2byte	0x1
 3597 0062 50       		.byte	0x50
 3598 0063 18000000 		.4byte	.LVL4
 3599 0067 1D000000 		.4byte	.LVL5-1
 3600 006b 0100     		.2byte	0x1
 3601 006d 53       		.byte	0x53
 3602 006e 1D000000 		.4byte	.LVL5-1
 3603 0072 1E000000 		.4byte	.LVL5
 3604 0076 0400     		.2byte	0x4
 3605 0078 F3       		.byte	0xf3
 3606 0079 01       		.uleb128 0x1
 3607 007a 50       		.byte	0x50
 3608 007b 9F       		.byte	0x9f
 3609 007c 00000000 		.4byte	0
 3610 0080 00000000 		.4byte	0
 3611              	.LLST3:
 3612 0084 14000000 		.4byte	.LVL3
 3613 0088 1D000000 		.4byte	.LVL5-1
 3614 008c 0100     		.2byte	0x1
 3615 008e 52       		.byte	0x52
 3616 008f 00000000 		.4byte	0
 3617 0093 00000000 		.4byte	0
 3618              	.LLST4:
 3619 0097 00000000 		.4byte	.LVL6
 3620 009b 10000000 		.4byte	.LVL8
 3621 009f 0100     		.2byte	0x1
 3622 00a1 50       		.byte	0x50
 3623 00a2 10000000 		.4byte	.LVL8
 3624 00a6 12000000 		.4byte	.LVL9
 3625 00aa 0200     		.2byte	0x2
 3626 00ac 72       		.byte	0x72
 3627 00ad 04       		.sleb128 4
 3628 00ae 12000000 		.4byte	.LVL9
 3629 00b2 16000000 		.4byte	.LVL10
 3630 00b6 0400     		.2byte	0x4
 3631 00b8 F3       		.byte	0xf3
 3632 00b9 01       		.uleb128 0x1
ARM GAS  /tmp/ccB3q9ZZ.s 			page 65


 3633 00ba 50       		.byte	0x50
 3634 00bb 9F       		.byte	0x9f
 3635 00bc 16000000 		.4byte	.LVL10
 3636 00c0 18000000 		.4byte	.LFE231
 3637 00c4 0100     		.2byte	0x1
 3638 00c6 50       		.byte	0x50
 3639 00c7 00000000 		.4byte	0
 3640 00cb 00000000 		.4byte	0
 3641              	.LLST5:
 3642 00cf 00000000 		.4byte	.LVL6
 3643 00d3 10000000 		.4byte	.LVL8
 3644 00d7 0100     		.2byte	0x1
 3645 00d9 50       		.byte	0x50
 3646 00da 10000000 		.4byte	.LVL8
 3647 00de 12000000 		.4byte	.LVL9
 3648 00e2 0200     		.2byte	0x2
 3649 00e4 72       		.byte	0x72
 3650 00e5 04       		.sleb128 4
 3651 00e6 12000000 		.4byte	.LVL9
 3652 00ea 16000000 		.4byte	.LVL10
 3653 00ee 0400     		.2byte	0x4
 3654 00f0 F3       		.byte	0xf3
 3655 00f1 01       		.uleb128 0x1
 3656 00f2 50       		.byte	0x50
 3657 00f3 9F       		.byte	0x9f
 3658 00f4 16000000 		.4byte	.LVL10
 3659 00f8 18000000 		.4byte	.LFE231
 3660 00fc 0100     		.2byte	0x1
 3661 00fe 50       		.byte	0x50
 3662 00ff 00000000 		.4byte	0
 3663 0103 00000000 		.4byte	0
 3664              	.LLST6:
 3665 0107 06000000 		.4byte	.LVL7
 3666 010b 10000000 		.4byte	.LVL8
 3667 010f 0100     		.2byte	0x1
 3668 0111 50       		.byte	0x50
 3669 0112 10000000 		.4byte	.LVL8
 3670 0116 12000000 		.4byte	.LVL9
 3671 011a 0200     		.2byte	0x2
 3672 011c 72       		.byte	0x72
 3673 011d 04       		.sleb128 4
 3674 011e 12000000 		.4byte	.LVL9
 3675 0122 16000000 		.4byte	.LVL10
 3676 0126 0400     		.2byte	0x4
 3677 0128 F3       		.byte	0xf3
 3678 0129 01       		.uleb128 0x1
 3679 012a 50       		.byte	0x50
 3680 012b 9F       		.byte	0x9f
 3681 012c 00000000 		.4byte	0
 3682 0130 00000000 		.4byte	0
 3683              	.LLST7:
 3684 0134 06000000 		.4byte	.LVL7
 3685 0138 15000000 		.4byte	.LVL10-1
 3686 013c 0100     		.2byte	0x1
 3687 013e 53       		.byte	0x53
 3688 013f 00000000 		.4byte	0
 3689 0143 00000000 		.4byte	0
ARM GAS  /tmp/ccB3q9ZZ.s 			page 66


 3690              	.LLST8:
 3691 0147 00000000 		.4byte	.LVL11
 3692 014b 0C000000 		.4byte	.LVL13
 3693 014f 0100     		.2byte	0x1
 3694 0151 50       		.byte	0x50
 3695 0152 0C000000 		.4byte	.LVL13
 3696 0156 34000000 		.4byte	.LFE232
 3697 015a 0100     		.2byte	0x1
 3698 015c 54       		.byte	0x54
 3699 015d 00000000 		.4byte	0
 3700 0161 00000000 		.4byte	0
 3701              	.LLST9:
 3702 0165 0A000000 		.4byte	.LVL12
 3703 0169 0C000000 		.4byte	.LVL13
 3704 016d 0100     		.2byte	0x1
 3705 016f 50       		.byte	0x50
 3706 0170 0C000000 		.4byte	.LVL13
 3707 0174 34000000 		.4byte	.LFE232
 3708 0178 0100     		.2byte	0x1
 3709 017a 54       		.byte	0x54
 3710 017b 00000000 		.4byte	0
 3711 017f 00000000 		.4byte	0
 3712              	.LLST10:
 3713 0183 16000000 		.4byte	.LVL14
 3714 0187 28000000 		.4byte	.LVL16
 3715 018b 0100     		.2byte	0x1
 3716 018d 54       		.byte	0x54
 3717 018e 00000000 		.4byte	0
 3718 0192 00000000 		.4byte	0
 3719              	.LLST11:
 3720 0196 16000000 		.4byte	.LVL14
 3721 019a 1F000000 		.4byte	.LVL15-1
 3722 019e 0100     		.2byte	0x1
 3723 01a0 50       		.byte	0x50
 3724 01a1 00000000 		.4byte	0
 3725 01a5 00000000 		.4byte	0
 3726              	.LLST12:
 3727 01a9 00000000 		.4byte	.LVL18
 3728 01ad 06000000 		.4byte	.LVL20
 3729 01b1 0100     		.2byte	0x1
 3730 01b3 50       		.byte	0x50
 3731 01b4 06000000 		.4byte	.LVL20
 3732 01b8 22000000 		.4byte	.LFE233
 3733 01bc 0100     		.2byte	0x1
 3734 01be 54       		.byte	0x54
 3735 01bf 00000000 		.4byte	0
 3736 01c3 00000000 		.4byte	0
 3737              	.LLST13:
 3738 01c7 04000000 		.4byte	.LVL19
 3739 01cb 06000000 		.4byte	.LVL20
 3740 01cf 0100     		.2byte	0x1
 3741 01d1 50       		.byte	0x50
 3742 01d2 06000000 		.4byte	.LVL20
 3743 01d6 22000000 		.4byte	.LFE233
 3744 01da 0100     		.2byte	0x1
 3745 01dc 54       		.byte	0x54
 3746 01dd 00000000 		.4byte	0
ARM GAS  /tmp/ccB3q9ZZ.s 			page 67


 3747 01e1 00000000 		.4byte	0
 3748              	.LLST14:
 3749 01e5 0E000000 		.4byte	.LVL21
 3750 01e9 20000000 		.4byte	.LVL23
 3751 01ed 0100     		.2byte	0x1
 3752 01ef 54       		.byte	0x54
 3753 01f0 00000000 		.4byte	0
 3754 01f4 00000000 		.4byte	0
 3755              	.LLST15:
 3756 01f8 0E000000 		.4byte	.LVL21
 3757 01fc 17000000 		.4byte	.LVL22-1
 3758 0200 0100     		.2byte	0x1
 3759 0202 50       		.byte	0x50
 3760 0203 00000000 		.4byte	0
 3761 0207 00000000 		.4byte	0
 3762              	.LLST16:
 3763 020b 00000000 		.4byte	.LVL24
 3764 020f 0C000000 		.4byte	.LVL26
 3765 0213 0100     		.2byte	0x1
 3766 0215 50       		.byte	0x50
 3767 0216 0C000000 		.4byte	.LVL26
 3768 021a 40000000 		.4byte	.LVL35
 3769 021e 0100     		.2byte	0x1
 3770 0220 55       		.byte	0x55
 3771 0221 40000000 		.4byte	.LVL35
 3772 0225 44000000 		.4byte	.LFE235
 3773 0229 0400     		.2byte	0x4
 3774 022b F3       		.byte	0xf3
 3775 022c 01       		.uleb128 0x1
 3776 022d 50       		.byte	0x50
 3777 022e 9F       		.byte	0x9f
 3778 022f 00000000 		.4byte	0
 3779 0233 00000000 		.4byte	0
 3780              	.LLST17:
 3781 0237 06000000 		.4byte	.LVL25
 3782 023b 36000000 		.4byte	.LVL33
 3783 023f 0100     		.2byte	0x1
 3784 0241 54       		.byte	0x54
 3785 0242 00000000 		.4byte	0
 3786 0246 00000000 		.4byte	0
 3787              	.LLST18:
 3788 024a 36000000 		.4byte	.LVL33
 3789 024e 40000000 		.4byte	.LVL35
 3790 0252 0100     		.2byte	0x1
 3791 0254 54       		.byte	0x54
 3792 0255 40000000 		.4byte	.LVL35
 3793 0259 44000000 		.4byte	.LFE235
 3794 025d 0100     		.2byte	0x1
 3795 025f 50       		.byte	0x50
 3796 0260 00000000 		.4byte	0
 3797 0264 00000000 		.4byte	0
 3798              	.LLST19:
 3799 0268 12000000 		.4byte	.LVL28
 3800 026c 40000000 		.4byte	.LVL35
 3801 0270 0100     		.2byte	0x1
 3802 0272 55       		.byte	0x55
 3803 0273 40000000 		.4byte	.LVL35
ARM GAS  /tmp/ccB3q9ZZ.s 			page 68


 3804 0277 44000000 		.4byte	.LFE235
 3805 027b 0400     		.2byte	0x4
 3806 027d F3       		.byte	0xf3
 3807 027e 01       		.uleb128 0x1
 3808 027f 50       		.byte	0x50
 3809 0280 9F       		.byte	0x9f
 3810 0281 00000000 		.4byte	0
 3811 0285 00000000 		.4byte	0
 3812              	.LLST20:
 3813 0289 12000000 		.4byte	.LVL28
 3814 028d 36000000 		.4byte	.LVL33
 3815 0291 0100     		.2byte	0x1
 3816 0293 54       		.byte	0x54
 3817 0294 00000000 		.4byte	0
 3818 0298 00000000 		.4byte	0
 3819              	.LLST21:
 3820 029c 16000000 		.4byte	.LVL29
 3821 02a0 33000000 		.4byte	.LVL32-1
 3822 02a4 0100     		.2byte	0x1
 3823 02a6 53       		.byte	0x53
 3824 02a7 00000000 		.4byte	0
 3825 02ab 00000000 		.4byte	0
 3826              	.LLST22:
 3827 02af 00000000 		.4byte	.LVL36
 3828 02b3 0B000000 		.4byte	.LVL37-1
 3829 02b7 0100     		.2byte	0x1
 3830 02b9 50       		.byte	0x50
 3831 02ba 0B000000 		.4byte	.LVL37-1
 3832 02be 14000000 		.4byte	.LFE234
 3833 02c2 0400     		.2byte	0x4
 3834 02c4 F3       		.byte	0xf3
 3835 02c5 01       		.uleb128 0x1
 3836 02c6 50       		.byte	0x50
 3837 02c7 9F       		.byte	0x9f
 3838 02c8 00000000 		.4byte	0
 3839 02cc 00000000 		.4byte	0
 3840              	.LLST23:
 3841 02d0 00000000 		.4byte	.LVL38
 3842 02d4 0C000000 		.4byte	.LVL39
 3843 02d8 0100     		.2byte	0x1
 3844 02da 50       		.byte	0x50
 3845 02db 0C000000 		.4byte	.LVL39
 3846 02df 4A000000 		.4byte	.LVL49
 3847 02e3 0100     		.2byte	0x1
 3848 02e5 55       		.byte	0x55
 3849 02e6 4A000000 		.4byte	.LVL49
 3850 02ea 50000000 		.4byte	.LFE237
 3851 02ee 0400     		.2byte	0x4
 3852 02f0 F3       		.byte	0xf3
 3853 02f1 01       		.uleb128 0x1
 3854 02f2 50       		.byte	0x50
 3855 02f3 9F       		.byte	0x9f
 3856 02f4 00000000 		.4byte	0
 3857 02f8 00000000 		.4byte	0
 3858              	.LLST24:
 3859 02fc 00000000 		.4byte	.LVL38
 3860 0300 11000000 		.4byte	.LVL40-1
ARM GAS  /tmp/ccB3q9ZZ.s 			page 69


 3861 0304 0100     		.2byte	0x1
 3862 0306 51       		.byte	0x51
 3863 0307 11000000 		.4byte	.LVL40-1
 3864 030b 4A000000 		.4byte	.LVL49
 3865 030f 0100     		.2byte	0x1
 3866 0311 57       		.byte	0x57
 3867 0312 4A000000 		.4byte	.LVL49
 3868 0316 50000000 		.4byte	.LFE237
 3869 031a 0400     		.2byte	0x4
 3870 031c F3       		.byte	0xf3
 3871 031d 01       		.uleb128 0x1
 3872 031e 51       		.byte	0x51
 3873 031f 9F       		.byte	0x9f
 3874 0320 00000000 		.4byte	0
 3875 0324 00000000 		.4byte	0
 3876              	.LLST25:
 3877 0328 3E000000 		.4byte	.LVL46
 3878 032c 42000000 		.4byte	.LVL47
 3879 0330 0100     		.2byte	0x1
 3880 0332 50       		.byte	0x50
 3881 0333 42000000 		.4byte	.LVL47
 3882 0337 4A000000 		.4byte	.LVL49
 3883 033b 0100     		.2byte	0x1
 3884 033d 54       		.byte	0x54
 3885 033e 4A000000 		.4byte	.LVL49
 3886 0342 50000000 		.4byte	.LFE237
 3887 0346 0100     		.2byte	0x1
 3888 0348 50       		.byte	0x50
 3889 0349 00000000 		.4byte	0
 3890 034d 00000000 		.4byte	0
 3891              	.LLST26:
 3892 0351 18000000 		.4byte	.LVL41
 3893 0355 4A000000 		.4byte	.LVL49
 3894 0359 0100     		.2byte	0x1
 3895 035b 55       		.byte	0x55
 3896 035c 4A000000 		.4byte	.LVL49
 3897 0360 50000000 		.4byte	.LFE237
 3898 0364 0400     		.2byte	0x4
 3899 0366 F3       		.byte	0xf3
 3900 0367 01       		.uleb128 0x1
 3901 0368 50       		.byte	0x50
 3902 0369 9F       		.byte	0x9f
 3903 036a 00000000 		.4byte	0
 3904 036e 00000000 		.4byte	0
 3905              	.LLST27:
 3906 0372 18000000 		.4byte	.LVL41
 3907 0376 3E000000 		.4byte	.LVL46
 3908 037a 0100     		.2byte	0x1
 3909 037c 54       		.byte	0x54
 3910 037d 00000000 		.4byte	0
 3911 0381 00000000 		.4byte	0
 3912              	.LLST28:
 3913 0385 1A000000 		.4byte	.LVL42
 3914 0389 39000000 		.4byte	.LVL45-1
 3915 038d 0100     		.2byte	0x1
 3916 038f 53       		.byte	0x53
 3917 0390 00000000 		.4byte	0
ARM GAS  /tmp/ccB3q9ZZ.s 			page 70


 3918 0394 00000000 		.4byte	0
 3919              	.LLST29:
 3920 0398 00000000 		.4byte	.LVL50
 3921 039c 0B000000 		.4byte	.LVL51-1
 3922 03a0 0100     		.2byte	0x1
 3923 03a2 50       		.byte	0x50
 3924 03a3 0B000000 		.4byte	.LVL51-1
 3925 03a7 14000000 		.4byte	.LFE236
 3926 03ab 0400     		.2byte	0x4
 3927 03ad F3       		.byte	0xf3
 3928 03ae 01       		.uleb128 0x1
 3929 03af 50       		.byte	0x50
 3930 03b0 9F       		.byte	0x9f
 3931 03b1 00000000 		.4byte	0
 3932 03b5 00000000 		.4byte	0
 3933              	.LLST30:
 3934 03b9 00000000 		.4byte	.LVL50
 3935 03bd 0B000000 		.4byte	.LVL51-1
 3936 03c1 0100     		.2byte	0x1
 3937 03c3 51       		.byte	0x51
 3938 03c4 0B000000 		.4byte	.LVL51-1
 3939 03c8 14000000 		.4byte	.LFE236
 3940 03cc 0400     		.2byte	0x4
 3941 03ce F3       		.byte	0xf3
 3942 03cf 01       		.uleb128 0x1
 3943 03d0 51       		.byte	0x51
 3944 03d1 9F       		.byte	0x9f
 3945 03d2 00000000 		.4byte	0
 3946 03d6 00000000 		.4byte	0
 3947              		.section	.debug_aranges,"",%progbits
 3948 0000 5C000000 		.4byte	0x5c
 3949 0004 0200     		.2byte	0x2
 3950 0006 00000000 		.4byte	.Ldebug_info0
 3951 000a 04       		.byte	0x4
 3952 000b 00       		.byte	0
 3953 000c 0000     		.2byte	0
 3954 000e 0000     		.2byte	0
 3955 0010 00000000 		.4byte	.LFB229
 3956 0014 06000000 		.4byte	.LFE229-.LFB229
 3957 0018 00000000 		.4byte	.LFB230
 3958 001c 26000000 		.4byte	.LFE230-.LFB230
 3959 0020 00000000 		.4byte	.LFB231
 3960 0024 18000000 		.4byte	.LFE231-.LFB231
 3961 0028 00000000 		.4byte	.LFB232
 3962 002c 34000000 		.4byte	.LFE232-.LFB232
 3963 0030 00000000 		.4byte	.LFB233
 3964 0034 22000000 		.4byte	.LFE233-.LFB233
 3965 0038 00000000 		.4byte	.LFB235
 3966 003c 44000000 		.4byte	.LFE235-.LFB235
 3967 0040 00000000 		.4byte	.LFB234
 3968 0044 14000000 		.4byte	.LFE234-.LFB234
 3969 0048 00000000 		.4byte	.LFB237
 3970 004c 50000000 		.4byte	.LFE237-.LFB237
 3971 0050 00000000 		.4byte	.LFB236
 3972 0054 14000000 		.4byte	.LFE236-.LFB236
 3973 0058 00000000 		.4byte	0
 3974 005c 00000000 		.4byte	0
ARM GAS  /tmp/ccB3q9ZZ.s 			page 71


 3975              		.section	.debug_ranges,"",%progbits
 3976              	.Ldebug_ranges0:
 3977 0000 06000000 		.4byte	.LBB107
 3978 0004 0A000000 		.4byte	.LBE107
 3979 0008 0C000000 		.4byte	.LBB110
 3980 000c 0E000000 		.4byte	.LBE110
 3981 0010 00000000 		.4byte	0
 3982 0014 00000000 		.4byte	0
 3983 0018 0A000000 		.4byte	.LBB117
 3984 001c 0C000000 		.4byte	.LBE117
 3985 0020 22000000 		.4byte	.LBB122
 3986 0024 24000000 		.4byte	.LBE122
 3987 0028 00000000 		.4byte	0
 3988 002c 00000000 		.4byte	0
 3989 0030 04000000 		.4byte	.LBB128
 3990 0034 06000000 		.4byte	.LBE128
 3991 0038 1A000000 		.4byte	.LBB133
 3992 003c 1C000000 		.4byte	.LBE133
 3993 0040 00000000 		.4byte	0
 3994 0044 00000000 		.4byte	0
 3995 0048 12000000 		.4byte	.LBB136
 3996 004c 2A000000 		.4byte	.LBE136
 3997 0050 2C000000 		.4byte	.LBB139
 3998 0054 30000000 		.4byte	.LBE139
 3999 0058 00000000 		.4byte	0
 4000 005c 00000000 		.4byte	0
 4001 0060 14000000 		.4byte	.LBB153
 4002 0064 16000000 		.4byte	.LBE153
 4003 0068 1A000000 		.4byte	.LBB158
 4004 006c 2E000000 		.4byte	.LBE158
 4005 0070 30000000 		.4byte	.LBB159
 4006 0074 32000000 		.4byte	.LBE159
 4007 0078 34000000 		.4byte	.LBB160
 4008 007c 36000000 		.4byte	.LBE160
 4009 0080 00000000 		.4byte	0
 4010 0084 00000000 		.4byte	0
 4011 0088 00000000 		.4byte	.LFB229
 4012 008c 06000000 		.4byte	.LFE229
 4013 0090 00000000 		.4byte	.LFB230
 4014 0094 26000000 		.4byte	.LFE230
 4015 0098 00000000 		.4byte	.LFB231
 4016 009c 18000000 		.4byte	.LFE231
 4017 00a0 00000000 		.4byte	.LFB232
 4018 00a4 34000000 		.4byte	.LFE232
 4019 00a8 00000000 		.4byte	.LFB233
 4020 00ac 22000000 		.4byte	.LFE233
 4021 00b0 00000000 		.4byte	.LFB235
 4022 00b4 44000000 		.4byte	.LFE235
 4023 00b8 00000000 		.4byte	.LFB234
 4024 00bc 14000000 		.4byte	.LFE234
 4025 00c0 00000000 		.4byte	.LFB237
 4026 00c4 50000000 		.4byte	.LFE237
 4027 00c8 00000000 		.4byte	.LFB236
 4028 00cc 14000000 		.4byte	.LFE236
 4029 00d0 00000000 		.4byte	0
 4030 00d4 00000000 		.4byte	0
 4031              		.section	.debug_line,"",%progbits
ARM GAS  /tmp/ccB3q9ZZ.s 			page 72


 4032              	.Ldebug_line0:
 4033 0000 A8030000 		.section	.debug_str,"MS",%progbits,1
 4033      0200A601 
 4033      00000201 
 4033      FB0E0D00 
 4033      01010101 
 4034              	.LASF51:
 4035 0000 72656164 		.ascii	"ready_list_t\000"
 4035      795F6C69 
 4035      73745F74 
 4035      00
 4036              	.LASF89:
 4037 000d 77747472 		.ascii	"wttrp\000"
 4037      7000
 4038              	.LASF86:
 4039 0013 7264796D 		.ascii	"rdymsg\000"
 4039      736700
 4040              	.LASF17:
 4041 001a 75696E74 		.ascii	"uint64_t\000"
 4041      36345F74 
 4041      00
 4042              	.LASF7:
 4043 0023 5F5F7569 		.ascii	"__uint8_t\000"
 4043      6E74385F 
 4043      7400
 4044              	.LASF83:
 4045 002d 706F7274 		.ascii	"port_intctx\000"
 4045      5F696E74 
 4045      63747800 
 4046              	.LASF70:
 4047 0039 73797374 		.ascii	"system_debug_t\000"
 4047      656D5F64 
 4047      65627567 
 4047      5F7400
 4048              	.LASF108:
 4049 0048 71756575 		.ascii	"queue_init\000"
 4049      655F696E 
 4049      697400
 4050              	.LASF105:
 4051 0053 706F7274 		.ascii	"port_lock\000"
 4051      5F6C6F63 
 4051      6B00
 4052              	.LASF116:
 4053 005d 6368436F 		.ascii	"chCondBroadcastI\000"
 4053      6E644272 
 4053      6F616463 
 4053      61737449 
 4053      00
 4054              	.LASF13:
 4055 006e 6C6F6E67 		.ascii	"long long unsigned int\000"
 4055      206C6F6E 
 4055      6720756E 
 4055      7369676E 
 4055      65642069 
 4056              	.LASF87:
 4057 0085 65786974 		.ascii	"exitcode\000"
 4057      636F6465 
ARM GAS  /tmp/ccB3q9ZZ.s 			page 73


 4057      00
 4058              	.LASF77:
 4059 008e 6D61696E 		.ascii	"mainthread\000"
 4059      74687265 
 4059      616400
 4060              	.LASF67:
 4061 0099 76697274 		.ascii	"virtual_timers_list_t\000"
 4061      75616C5F 
 4061      74696D65 
 4061      72735F6C 
 4061      6973745F 
 4062              	.LASF129:
 4063 00af 49544D5F 		.ascii	"ITM_RxBuffer\000"
 4063      52784275 
 4063      66666572 
 4063      00
 4064              	.LASF50:
 4065 00bc 63685F74 		.ascii	"ch_threads_queue\000"
 4065      68726561 
 4065      64735F71 
 4065      75657565 
 4065      00
 4066              	.LASF30:
 4067 00cd 705F7072 		.ascii	"p_prio\000"
 4067      696F00
 4068              	.LASF1:
 4069 00d4 6C6F6E67 		.ascii	"long long int\000"
 4069      206C6F6E 
 4069      6720696E 
 4069      7400
 4070              	.LASF3:
 4071 00e2 7369676E 		.ascii	"signed char\000"
 4071      65642063 
 4071      68617200 
 4072              	.LASF104:
 4073 00ee 636F6E64 		.ascii	"condition_variable_t\000"
 4073      6974696F 
 4073      6E5F7661 
 4073      72696162 
 4073      6C655F74 
 4074              	.LASF44:
 4075 0103 705F6D70 		.ascii	"p_mpool\000"
 4075      6F6F6C00 
 4076              	.LASF97:
 4077 010b 6D5F7175 		.ascii	"m_queue\000"
 4077      65756500 
 4078              	.LASF76:
 4079 0113 76746C69 		.ascii	"vtlist\000"
 4079      737400
 4080              	.LASF106:
 4081 011a 706F7274 		.ascii	"port_unlock\000"
 4081      5F756E6C 
 4081      6F636B00 
 4082              	.LASF74:
 4083 0126 63685F73 		.ascii	"ch_system\000"
 4083      79737465 
 4083      6D00
ARM GAS  /tmp/ccB3q9ZZ.s 			page 74


 4084              	.LASF9:
 4085 0130 6C6F6E67 		.ascii	"long int\000"
 4085      20696E74 
 4085      00
 4086              	.LASF20:
 4087 0139 74737461 		.ascii	"tstate_t\000"
 4087      74655F74 
 4087      00
 4088              	.LASF112:
 4089 0142 71756575 		.ascii	"queue_notempty\000"
 4089      655F6E6F 
 4089      74656D70 
 4089      747900
 4090              	.LASF32:
 4091 0151 705F6E65 		.ascii	"p_newer\000"
 4091      77657200 
 4092              	.LASF94:
 4093 0159 735F7175 		.ascii	"s_queue\000"
 4093      65756500 
 4094              	.LASF132:
 4095 0161 63685363 		.ascii	"chSchRescheduleS\000"
 4095      68526573 
 4095      63686564 
 4095      756C6553 
 4095      00
 4096              	.LASF56:
 4097 0172 725F6E65 		.ascii	"r_newer\000"
 4097      77657200 
 4098              	.LASF80:
 4099 017a 72656761 		.ascii	"regarm_t\000"
 4099      726D5F74 
 4099      00
 4100              	.LASF63:
 4101 0183 76745F70 		.ascii	"vt_prev\000"
 4101      72657600 
 4102              	.LASF138:
 4103 018b 2E2E2F2E 		.ascii	"../../os/rt/src/chcond.c\000"
 4103      2E2F6F73 
 4103      2F72742F 
 4103      7372632F 
 4103      6368636F 
 4104              	.LASF101:
 4105 01a4 6D757465 		.ascii	"mutex_t\000"
 4105      785F7400 
 4106              	.LASF109:
 4107 01ac 76616C75 		.ascii	"value\000"
 4107      6500
 4108              	.LASF121:
 4109 01b2 6368436F 		.ascii	"chCondSignal\000"
 4109      6E645369 
 4109      676E616C 
 4109      00
 4110              	.LASF78:
 4111 01bf 69646C65 		.ascii	"idle_thread_wa\000"
 4111      5F746872 
 4111      6561645F 
 4111      776100
ARM GAS  /tmp/ccB3q9ZZ.s 			page 75


 4112              	.LASF25:
 4113 01ce 636E745F 		.ascii	"cnt_t\000"
 4113      7400
 4114              	.LASF133:
 4115 01d4 63684D74 		.ascii	"chMtxUnlockS\000"
 4115      78556E6C 
 4115      6F636B53 
 4115      00
 4116              	.LASF0:
 4117 01e1 756E7369 		.ascii	"unsigned int\000"
 4117      676E6564 
 4117      20696E74 
 4117      00
 4118              	.LASF62:
 4119 01ee 76745F6E 		.ascii	"vt_next\000"
 4119      65787400 
 4120              	.LASF90:
 4121 01f6 77747365 		.ascii	"wtsemp\000"
 4121      6D7000
 4122              	.LASF64:
 4123 01fd 76745F64 		.ascii	"vt_delta\000"
 4123      656C7461 
 4123      00
 4124              	.LASF39:
 4125 0206 705F6D73 		.ascii	"p_msgqueue\000"
 4125      67717565 
 4125      756500
 4126              	.LASF95:
 4127 0211 735F636E 		.ascii	"s_cnt\000"
 4127      7400
 4128              	.LASF6:
 4129 0217 73686F72 		.ascii	"short unsigned int\000"
 4129      7420756E 
 4129      7369676E 
 4129      65642069 
 4129      6E7400
 4130              	.LASF47:
 4131 022a 63685F74 		.ascii	"ch_thread\000"
 4131      68726561 
 4131      6400
 4132              	.LASF130:
 4133 0234 63685363 		.ascii	"chSchWakeupS\000"
 4133      6857616B 
 4133      65757053 
 4133      00
 4134              	.LASF23:
 4135 0241 6D73675F 		.ascii	"msg_t\000"
 4135      7400
 4136              	.LASF73:
 4137 0247 63685F73 		.ascii	"ch_system_t\000"
 4137      79737465 
 4137      6D5F7400 
 4138              	.LASF19:
 4139 0253 746D6F64 		.ascii	"tmode_t\000"
 4139      655F7400 
 4140              	.LASF52:
 4141 025b 63685F72 		.ascii	"ch_ready_list\000"
ARM GAS  /tmp/ccB3q9ZZ.s 			page 76


 4141      65616479 
 4141      5F6C6973 
 4141      7400
 4142              	.LASF24:
 4143 0269 6576656E 		.ascii	"eventmask_t\000"
 4143      746D6173 
 4143      6B5F7400 
 4144              	.LASF8:
 4145 0275 5F5F696E 		.ascii	"__int32_t\000"
 4145      7433325F 
 4145      7400
 4146              	.LASF81:
 4147 027f 73746B61 		.ascii	"stkalign_t\000"
 4147      6C69676E 
 4147      5F7400
 4148              	.LASF137:
 4149 028a 474E5520 		.ascii	"GNU C11 5.2.0 -mcpu=cortex-m4 -mfloat-abi=hard -mfp"
 4149      43313120 
 4149      352E322E 
 4149      30202D6D 
 4149      6370753D 
 4150 02bd 753D6670 		.ascii	"u=fpv4-sp-d16 -mno-thumb-interwork -mthumb -ggdb -O"
 4150      76342D73 
 4150      702D6431 
 4150      36202D6D 
 4150      6E6F2D74 
 4151 02f0 32202D66 		.ascii	"2 -fomit-frame-pointer -falign-functions=16 -ffunct"
 4151      6F6D6974 
 4151      2D667261 
 4151      6D652D70 
 4151      6F696E74 
 4152 0323 696F6E2D 		.ascii	"ion-sections -fdata-sections -fno-common -fsingle-p"
 4152      73656374 
 4152      696F6E73 
 4152      202D6664 
 4152      6174612D 
 4153 0356 72656369 		.ascii	"recision-constant\000"
 4153      73696F6E 
 4153      2D636F6E 
 4153      7374616E 
 4153      7400
 4154              	.LASF38:
 4155 0368 705F7761 		.ascii	"p_waiting\000"
 4155      6974696E 
 4155      6700
 4156              	.LASF79:
 4157 0372 73697A65 		.ascii	"sizetype\000"
 4157      74797065 
 4157      00
 4158              	.LASF45:
 4159 037b 74687265 		.ascii	"thread_reference_t\000"
 4159      61645F72 
 4159      65666572 
 4159      656E6365 
 4159      5F7400
 4160              	.LASF68:
 4161 038e 63685F76 		.ascii	"ch_virtual_timers_list\000"
ARM GAS  /tmp/ccB3q9ZZ.s 			page 77


 4161      69727475 
 4161      616C5F74 
 4161      696D6572 
 4161      735F6C69 
 4162              	.LASF102:
 4163 03a5 636F6E64 		.ascii	"condition_variable\000"
 4163      6974696F 
 4163      6E5F7661 
 4163      72696162 
 4163      6C6500
 4164              	.LASF126:
 4165 03b8 6368436F 		.ascii	"chCondWaitTimeoutS\000"
 4165      6E645761 
 4165      69745469 
 4165      6D656F75 
 4165      745300
 4166              	.LASF69:
 4167 03cb 76745F6C 		.ascii	"vt_lasttime\000"
 4167      61737474 
 4167      696D6500 
 4168              	.LASF33:
 4169 03d7 705F6F6C 		.ascii	"p_older\000"
 4169      64657200 
 4170              	.LASF55:
 4171 03df 725F6374 		.ascii	"r_ctx\000"
 4171      7800
 4172              	.LASF85:
 4173 03e5 746D5F63 		.ascii	"tm_calibration_t\000"
 4173      616C6962 
 4173      72617469 
 4173      6F6E5F74 
 4173      00
 4174              	.LASF99:
 4175 03f6 6D5F6E65 		.ascii	"m_next\000"
 4175      787400
 4176              	.LASF127:
 4177 03fd 74696D65 		.ascii	"time\000"
 4177      00
 4178              	.LASF58:
 4179 0402 725F6375 		.ascii	"r_current\000"
 4179      7272656E 
 4179      7400
 4180              	.LASF57:
 4181 040c 725F6F6C 		.ascii	"r_older\000"
 4181      64657200 
 4182              	.LASF123:
 4183 0414 6368436F 		.ascii	"chCondBroadcast\000"
 4183      6E644272 
 4183      6F616463 
 4183      61737400 
 4184              	.LASF12:
 4185 0424 5F5F7569 		.ascii	"__uint64_t\000"
 4185      6E743634 
 4185      5F7400
 4186              	.LASF21:
 4187 042f 74726566 		.ascii	"trefs_t\000"
 4187      735F7400 
ARM GAS  /tmp/ccB3q9ZZ.s 			page 78


 4188              	.LASF60:
 4189 0437 76697274 		.ascii	"virtual_timer_t\000"
 4189      75616C5F 
 4189      74696D65 
 4189      725F7400 
 4190              	.LASF29:
 4191 0447 705F7072 		.ascii	"p_prev\000"
 4191      657600
 4192              	.LASF22:
 4193 044e 74707269 		.ascii	"tprio_t\000"
 4193      6F5F7400 
 4194              	.LASF122:
 4195 0456 6368436F 		.ascii	"chCondSignalI\000"
 4195      6E645369 
 4195      676E616C 
 4195      4900
 4196              	.LASF110:
 4197 0464 5F426F6F 		.ascii	"_Bool\000"
 4197      6C00
 4198              	.LASF15:
 4199 046a 696E7433 		.ascii	"int32_t\000"
 4199      325F7400 
 4200              	.LASF4:
 4201 0472 756E7369 		.ascii	"unsigned char\000"
 4201      676E6564 
 4201      20636861 
 4201      7200
 4202              	.LASF42:
 4203 0480 705F6D74 		.ascii	"p_mtxlist\000"
 4203      786C6973 
 4203      7400
 4204              	.LASF5:
 4205 048a 73686F72 		.ascii	"short int\000"
 4205      7420696E 
 4205      7400
 4206              	.LASF35:
 4207 0494 705F7374 		.ascii	"p_state\000"
 4207      61746500 
 4208              	.LASF54:
 4209 049c 725F7072 		.ascii	"r_prio\000"
 4209      696F00
 4210              	.LASF92:
 4211 04a3 65776D61 		.ascii	"ewmask\000"
 4211      736B00
 4212              	.LASF28:
 4213 04aa 705F6E65 		.ascii	"p_next\000"
 4213      787400
 4214              	.LASF36:
 4215 04b1 705F666C 		.ascii	"p_flags\000"
 4215      61677300 
 4216              	.LASF115:
 4217 04b9 5F5F6675 		.ascii	"__func__\000"
 4217      6E635F5F 
 4217      00
 4218              	.LASF111:
 4219 04c2 63685379 		.ascii	"chSysLock\000"
 4219      734C6F63 
ARM GAS  /tmp/ccB3q9ZZ.s 			page 79


 4219      6B00
 4220              	.LASF61:
 4221 04cc 63685F76 		.ascii	"ch_virtual_timer\000"
 4221      69727475 
 4221      616C5F74 
 4221      696D6572 
 4221      00
 4222              	.LASF103:
 4223 04dd 635F7175 		.ascii	"c_queue\000"
 4223      65756500 
 4224              	.LASF93:
 4225 04e5 63685F73 		.ascii	"ch_semaphore\000"
 4225      656D6170 
 4225      686F7265 
 4225      00
 4226              	.LASF134:
 4227 04f2 63685363 		.ascii	"chSchGoSleepS\000"
 4227      68476F53 
 4227      6C656570 
 4227      5300
 4228              	.LASF41:
 4229 0500 705F6570 		.ascii	"p_epending\000"
 4229      656E6469 
 4229      6E6700
 4230              	.LASF119:
 4231 050b 63684D74 		.ascii	"chMtxGetNextMutexS\000"
 4231      78476574 
 4231      4E657874 
 4231      4D757465 
 4231      785300
 4232              	.LASF16:
 4233 051e 75696E74 		.ascii	"uint32_t\000"
 4233      33325F74 
 4233      00
 4234              	.LASF91:
 4235 0527 77746D74 		.ascii	"wtmtxp\000"
 4235      787000
 4236              	.LASF53:
 4237 052e 725F7175 		.ascii	"r_queue\000"
 4237      65756500 
 4238              	.LASF131:
 4239 0536 63685363 		.ascii	"chSchReadyI\000"
 4239      68526561 
 4239      64794900 
 4240              	.LASF48:
 4241 0542 63685F74 		.ascii	"ch_threads_list\000"
 4241      68726561 
 4241      64735F6C 
 4241      69737400 
 4242              	.LASF11:
 4243 0552 6C6F6E67 		.ascii	"long unsigned int\000"
 4243      20756E73 
 4243      69676E65 
 4243      6420696E 
 4243      7400
 4244              	.LASF100:
 4245 0564 63686172 		.ascii	"char\000"
ARM GAS  /tmp/ccB3q9ZZ.s 			page 80


 4245      00
 4246              	.LASF124:
 4247 0569 6368436F 		.ascii	"chCondWaitS\000"
 4247      6E645761 
 4247      69745300 
 4248              	.LASF120:
 4249 0575 6368436F 		.ascii	"chCondObjectInit\000"
 4249      6E644F62 
 4249      6A656374 
 4249      496E6974 
 4249      00
 4250              	.LASF2:
 4251 0586 6C6F6E67 		.ascii	"long double\000"
 4251      20646F75 
 4251      626C6500 
 4252              	.LASF113:
 4253 0592 71756575 		.ascii	"queue_fifo_remove\000"
 4253      655F6669 
 4253      666F5F72 
 4253      656D6F76 
 4253      6500
 4254              	.LASF26:
 4255 05a4 73797374 		.ascii	"systime_t\000"
 4255      696D655F 
 4255      7400
 4256              	.LASF43:
 4257 05ae 705F7265 		.ascii	"p_realprio\000"
 4257      616C7072 
 4257      696F00
 4258              	.LASF59:
 4259 05b9 76746675 		.ascii	"vtfunc_t\000"
 4259      6E635F74 
 4259      00
 4260              	.LASF10:
 4261 05c2 5F5F7569 		.ascii	"__uint32_t\000"
 4261      6E743332 
 4261      5F7400
 4262              	.LASF107:
 4263 05cd 5F5F7365 		.ascii	"__set_BASEPRI\000"
 4263      745F4241 
 4263      53455052 
 4263      4900
 4264              	.LASF72:
 4265 05db 70616E69 		.ascii	"panic_msg\000"
 4265      635F6D73 
 4265      6700
 4266              	.LASF139:
 4267 05e5 2F686F6D 		.ascii	"/home/sssilvar/Documents/embebidos/ChibiOS/iflab/pr"
 4267      652F7373 
 4267      73696C76 
 4267      61722F44 
 4267      6F63756D 
 4268 0618 6F6A6563 		.ascii	"ojects/UART\000"
 4268      74732F55 
 4268      41525400 
 4269              	.LASF84:
 4270 0624 6F666673 		.ascii	"offset\000"
ARM GAS  /tmp/ccB3q9ZZ.s 			page 81


 4270      657400
 4271              	.LASF82:
 4272 062b 636F6E74 		.ascii	"context\000"
 4272      65787400 
 4273              	.LASF40:
 4274 0633 705F6D73 		.ascii	"p_msg\000"
 4274      6700
 4275              	.LASF18:
 4276 0639 7274636E 		.ascii	"rtcnt_t\000"
 4276      745F7400 
 4277              	.LASF125:
 4278 0641 6368436F 		.ascii	"chCondWait\000"
 4278      6E645761 
 4278      697400
 4279              	.LASF66:
 4280 064c 76745F70 		.ascii	"vt_par\000"
 4280      617200
 4281              	.LASF49:
 4282 0653 74687265 		.ascii	"threads_queue_t\000"
 4282      6164735F 
 4282      71756575 
 4282      655F7400 
 4283              	.LASF96:
 4284 0663 63685F6D 		.ascii	"ch_mutex\000"
 4284      75746578 
 4284      00
 4285              	.LASF37:
 4286 066c 705F7265 		.ascii	"p_refs\000"
 4286      667300
 4287              	.LASF27:
 4288 0673 74687265 		.ascii	"thread_t\000"
 4288      61645F74 
 4288      00
 4289              	.LASF75:
 4290 067c 726C6973 		.ascii	"rlist\000"
 4290      7400
 4291              	.LASF118:
 4292 0682 63685468 		.ascii	"chThdGetSelfX\000"
 4292      64476574 
 4292      53656C66 
 4292      5800
 4293              	.LASF14:
 4294 0690 75696E74 		.ascii	"uint8_t\000"
 4294      385F7400 
 4295              	.LASF88:
 4296 0698 77746F62 		.ascii	"wtobjp\000"
 4296      6A7000
 4297              	.LASF34:
 4298 069f 705F6E61 		.ascii	"p_name\000"
 4298      6D6500
 4299              	.LASF128:
 4300 06a6 6368436F 		.ascii	"chCondWaitTimeout\000"
 4300      6E645761 
 4300      69745469 
 4300      6D656F75 
 4300      7400
 4301              	.LASF46:
ARM GAS  /tmp/ccB3q9ZZ.s 			page 82


 4302 06b8 74687265 		.ascii	"threads_list_t\000"
 4302      6164735F 
 4302      6C697374 
 4302      5F7400
 4303              	.LASF136:
 4304 06c7 63685363 		.ascii	"chSchGoSleepTimeoutS\000"
 4304      68476F53 
 4304      6C656570 
 4304      54696D65 
 4304      6F757453 
 4305              	.LASF114:
 4306 06dc 63685379 		.ascii	"chSysUnlock\000"
 4306      73556E6C 
 4306      6F636B00 
 4307              	.LASF71:
 4308 06e8 63685F73 		.ascii	"ch_system_debug\000"
 4308      79737465 
 4308      6D5F6465 
 4308      62756700 
 4309              	.LASF135:
 4310 06f8 63684D74 		.ascii	"chMtxLockS\000"
 4310      784C6F63 
 4310      6B5300
 4311              	.LASF117:
 4312 0703 71756575 		.ascii	"queue_prio_insert\000"
 4312      655F7072 
 4312      696F5F69 
 4312      6E736572 
 4312      7400
 4313              	.LASF98:
 4314 0715 6D5F6F77 		.ascii	"m_owner\000"
 4314      6E657200 
 4315              	.LASF31:
 4316 071d 705F6374 		.ascii	"p_ctx\000"
 4316      7800
 4317              	.LASF65:
 4318 0723 76745F66 		.ascii	"vt_func\000"
 4318      756E6300 
 4319              		.ident	"GCC: (Fedora 5.2.0-3.fc22) 5.2.0"
ARM GAS  /tmp/ccB3q9ZZ.s 			page 83


DEFINED SYMBOLS
                            *ABS*:0000000000000000 chcond.c
     /tmp/ccB3q9ZZ.s:22     .text.chCondObjectInit:0000000000000000 $t
     /tmp/ccB3q9ZZ.s:28     .text.chCondObjectInit:0000000000000000 chCondObjectInit
     /tmp/ccB3q9ZZ.s:51     .text.chCondSignal:0000000000000000 $t
     /tmp/ccB3q9ZZ.s:57     .text.chCondSignal:0000000000000000 chCondSignal
     /tmp/ccB3q9ZZ.s:136    .text.chCondSignalI:0000000000000000 $t
     /tmp/ccB3q9ZZ.s:142    .text.chCondSignalI:0000000000000000 chCondSignalI
     /tmp/ccB3q9ZZ.s:192    .text.chCondBroadcast:0000000000000000 $t
     /tmp/ccB3q9ZZ.s:198    .text.chCondBroadcast:0000000000000000 chCondBroadcast
     /tmp/ccB3q9ZZ.s:301    .text.chCondBroadcastI:0000000000000000 $t
     /tmp/ccB3q9ZZ.s:307    .text.chCondBroadcastI:0000000000000000 chCondBroadcastI
     /tmp/ccB3q9ZZ.s:366    .text.chCondWaitS:0000000000000000 $t
     /tmp/ccB3q9ZZ.s:372    .text.chCondWaitS:0000000000000000 chCondWaitS
     /tmp/ccB3q9ZZ.s:463    .text.chCondWaitS:0000000000000040 $d
     /tmp/ccB3q9ZZ.s:468    .text.chCondWait:0000000000000000 $t
     /tmp/ccB3q9ZZ.s:474    .text.chCondWait:0000000000000000 chCondWait
     /tmp/ccB3q9ZZ.s:528    .text.chCondWaitTimeoutS:0000000000000000 $t
     /tmp/ccB3q9ZZ.s:534    .text.chCondWaitTimeoutS:0000000000000000 chCondWaitTimeoutS
     /tmp/ccB3q9ZZ.s:649    .text.chCondWaitTimeoutS:000000000000004c $d
     /tmp/ccB3q9ZZ.s:654    .text.chCondWaitTimeout:0000000000000000 $t
     /tmp/ccB3q9ZZ.s:660    .text.chCondWaitTimeout:0000000000000000 chCondWaitTimeout
                     .debug_frame:0000000000000010 $d
     /tmp/ccB3q9ZZ.s:467    .text.chCondWaitS:0000000000000044 $t

UNDEFINED SYMBOLS
chSchWakeupS
chSchReadyI
chSchRescheduleS
chMtxUnlockS
chSchGoSleepS
chMtxLockS
ch
chSchGoSleepTimeoutS
