ARM GAS  /tmp/ccYX3KMT.s 			page 1


   1              		.syntax unified
   2              		.cpu cortex-m4
   3              		.eabi_attribute 27, 1
   4              		.eabi_attribute 28, 1
   5              		.fpu fpv4-sp-d16
   6              		.eabi_attribute 20, 1
   7              		.eabi_attribute 21, 1
   8              		.eabi_attribute 23, 3
   9              		.eabi_attribute 24, 1
  10              		.eabi_attribute 25, 1
  11              		.eabi_attribute 26, 1
  12              		.eabi_attribute 30, 2
  13              		.eabi_attribute 34, 1
  14              		.eabi_attribute 18, 4
  15              		.thumb
  16              		.syntax unified
  17              		.file	"main.c"
  18              		.text
  19              	.Ltext0:
  20              		.cfi_sections	.debug_frame
  21              		.section	.text.adcerrorcallback,"ax",%progbits
  22              		.align	2
  23              		.p2align 4,,15
  24              		.thumb
  25              		.thumb_func
  26              		.type	adcerrorcallback, %function
  27              	adcerrorcallback:
  28              	.LFB261:
  29              		.file 1 "main.c"
  30              		.loc 1 36 0
  31              		.cfi_startproc
  32              		@ args = 0, pretend = 0, frame = 0
  33              		@ frame_needed = 0, uses_anonymous_args = 0
  34              		@ link register save eliminated.
  35              	.LVL0:
  36 0000 7047     		bx	lr
  37              		.cfi_endproc
  38              	.LFE261:
  39              		.size	adcerrorcallback, .-adcerrorcallback
  40 0002 00BFAFF3 		.section	.text.Thread1,"ax",%progbits
  40      0080AFF3 
  40      0080AFF3 
  40      0080
  41              		.align	2
  42              		.p2align 4,,15
  43              		.thumb
  44              		.thumb_func
  45              		.type	Thread1, %function
  46              	Thread1:
  47              	.LFB262:
  48              		.loc 1 67 0
  49              		.cfi_startproc
  50              		@ Volatile: function does not return.
  51              		@ args = 0, pretend = 0, frame = 0
  52              		@ frame_needed = 0, uses_anonymous_args = 0
  53              	.LVL1:
  54              		.loc 1 67 0
ARM GAS  /tmp/ccYX3KMT.s 			page 2


  55 0000 08B5     		push	{r3, lr}
  56              		.cfi_def_cfa_offset 8
  57              		.cfi_offset 3, -8
  58              		.cfi_offset 14, -4
  59              	.LBB32:
  60              	.LBB33:
  61              		.file 2 "../../os/rt/include/chregistry.h"
  62              		.loc 2 135 0
  63 0002 094B     		ldr	r3, .L6
  64 0004 094A     		ldr	r2, .L6+4
  65 0006 9B69     		ldr	r3, [r3, #24]
  66              	.LBE33:
  67              	.LBE32:
  68              		.loc 1 72 0
  69 0008 094C     		ldr	r4, .L6+8
  70              	.LBB35:
  71              	.LBB34:
  72              		.loc 2 135 0
  73 000a 9A61     		str	r2, [r3, #24]
  74              	.LBE34:
  75              	.LBE35:
  76              		.loc 1 72 0
  77 000c 4FF40055 		mov	r5, #8192
  78 0010 2E46     		mov	r6, r5	@ movhi
  79              	.LVL2:
  80              	.L3:
  81              		.loc 1 72 0 is_stmt 0 discriminator 1
  82 0012 2683     		strh	r6, [r4, #24]	@ movhi
  83              		.loc 1 73 0 is_stmt 1 discriminator 1
  84 0014 42F21070 		movw	r0, #10000
  85 0018 FFF7FEFF 		bl	chThdSleep
  86              	.LVL3:
  87              		.loc 1 74 0 discriminator 1
  88 001c 6583     		strh	r5, [r4, #26]	@ movhi
  89              		.loc 1 75 0 discriminator 1
  90 001e 42F21070 		movw	r0, #10000
  91 0022 FFF7FEFF 		bl	chThdSleep
  92              	.LVL4:
  93 0026 F4E7     		b	.L3
  94              	.L7:
  95              		.align	2
  96              	.L6:
  97 0028 00000000 		.word	ch
  98 002c 00000000 		.word	.LC0
  99 0030 00080240 		.word	1073874944
 100              		.cfi_endproc
 101              	.LFE262:
 102              		.size	Thread1, .-Thread1
 103 0034 AFF30080 		.section	.text.ADCThread1,"ax",%progbits
 103      AFF30080 
 103      AFF30080 
 104              		.align	2
 105              		.p2align 4,,15
 106              		.thumb
 107              		.thumb_func
 108              		.type	ADCThread1, %function
 109              	ADCThread1:
ARM GAS  /tmp/ccYX3KMT.s 			page 3


 110              	.LFB263:
 111              		.loc 1 84 0
 112              		.cfi_startproc
 113              		@ args = 0, pretend = 0, frame = 0
 114              		@ frame_needed = 0, uses_anonymous_args = 0
 115              	.LVL5:
 116              	.LBB36:
 117              	.LBB37:
 118              		.loc 2 135 0
 119 0000 114B     		ldr	r3, .L12
 120 0002 124A     		ldr	r2, .L12+4
 121 0004 9B69     		ldr	r3, [r3, #24]
 122              	.LBE37:
 123              	.LBE36:
 124              		.loc 1 84 0
 125 0006 70B5     		push	{r4, r5, r6, lr}
 126              		.cfi_def_cfa_offset 16
 127              		.cfi_offset 4, -16
 128              		.cfi_offset 5, -12
 129              		.cfi_offset 6, -8
 130              		.cfi_offset 14, -4
 131 0008 114D     		ldr	r5, .L12+8
 132 000a 124C     		ldr	r4, .L12+12
 133              	.LBB39:
 134              	.LBB38:
 135              		.loc 2 135 0
 136 000c 9A61     		str	r2, [r3, #24]
 137 000e 05F50066 		add	r6, r5, #2048
 138              	.LVL6:
 139              	.L9:
 140              	.LBE38:
 141              	.LBE39:
 142              		.loc 1 91 0 discriminator 3
 143 0012 0423     		movs	r3, #4
 144 0014 0F4A     		ldr	r2, .L12+12
 145 0016 1049     		ldr	r1, .L12+16
 146 0018 1048     		ldr	r0, .L12+20
 147 001a FFF7FEFF 		bl	adcStartConversion
 148              	.LVL7:
 149              		.loc 1 92 0 discriminator 3
 150 001e 0120     		movs	r0, #1
 151 0020 FFF7FEFF 		bl	chThdSleep
 152              	.LVL8:
 153              		.loc 1 93 0 discriminator 3
 154 0024 2088     		ldrh	r0, [r4]
 155 0026 6388     		ldrh	r3, [r4, #2]
 156 0028 A188     		ldrh	r1, [r4, #4]
 157 002a E288     		ldrh	r2, [r4, #6]
 158 002c 0344     		add	r3, r3, r0
 159 002e 0B44     		add	r3, r3, r1
 160 0030 1344     		add	r3, r3, r2
 161 0032 9B10     		asrs	r3, r3, #2
 162 0034 25F8023F 		strh	r3, [r5, #2]!	@ movhi
 163              		.loc 1 90 0 discriminator 3
 164 0038 B542     		cmp	r5, r6
 165 003a EAD1     		bne	.L9
 166              		.loc 1 95 0
ARM GAS  /tmp/ccYX3KMT.s 			page 4


 167 003c 4CF25030 		movw	r0, #50000
 168              		.loc 1 96 0
 169 0040 BDE87040 		pop	{r4, r5, r6, lr}
 170              		.cfi_restore 14
 171              		.cfi_restore 6
 172              		.cfi_restore 5
 173              		.cfi_restore 4
 174              		.cfi_def_cfa_offset 0
 175              		.loc 1 95 0
 176 0044 FFF7FEBF 		b	chThdSleep
 177              	.LVL9:
 178              	.L13:
 179              		.align	2
 180              	.L12:
 181 0048 00000000 		.word	ch
 182 004c 08000000 		.word	.LC1
 183 0050 FEFFFFFF 		.word	.LANCHOR0-2
 184 0054 00000000 		.word	.LANCHOR1
 185 0058 00000000 		.word	.LANCHOR2
 186 005c 00000000 		.word	ADCD1
 187              		.cfi_endproc
 188              	.LFE263:
 189              		.size	ADCThread1, .-ADCThread1
 190              		.section	.text.chprintf.constprop.0,"ax",%progbits
 191              		.align	2
 192              		.p2align 4,,15
 193              		.thumb
 194              		.thumb_func
 195              		.type	chprintf.constprop.0, %function
 196              	chprintf.constprop.0:
 197              	.LFB265:
 198              		.file 3 "../../os/hal/lib/streams/chprintf.h"
 199              		.loc 3 69 0
 200              		.cfi_startproc
 201              		@ args = 4, pretend = 12, frame = 8
 202              		@ frame_needed = 0, uses_anonymous_args = 1
 203              	.LVL10:
 204 0000 0EB4     		push	{r1, r2, r3}
 205              		.cfi_def_cfa_offset 12
 206              		.cfi_offset 1, -12
 207              		.cfi_offset 2, -8
 208              		.cfi_offset 3, -4
 209 0002 00B5     		push	{lr}
 210              		.cfi_def_cfa_offset 16
 211              		.cfi_offset 14, -16
 212 0004 82B0     		sub	sp, sp, #8
 213              		.cfi_def_cfa_offset 24
 214              		.loc 3 73 0
 215 0006 04AB     		add	r3, sp, #16
 216              		.loc 3 74 0
 217 0008 1A46     		mov	r2, r3
 218 000a 0549     		ldr	r1, .L16
 219 000c 0548     		ldr	r0, .L16+4
 220              	.LVL11:
 221              		.loc 3 73 0
 222 000e 0193     		str	r3, [sp, #4]
 223              		.loc 3 74 0
ARM GAS  /tmp/ccYX3KMT.s 			page 5


 224 0010 FFF7FEFF 		bl	chvprintf
 225              	.LVL12:
 226              		.loc 3 78 0
 227 0014 02B0     		add	sp, sp, #8
 228              		.cfi_def_cfa_offset 16
 229              		@ sp needed
 230 0016 5DF804EB 		ldr	lr, [sp], #4
 231              		.cfi_restore 14
 232              		.cfi_def_cfa_offset 12
 233 001a 03B0     		add	sp, sp, #12
 234              		.cfi_restore 3
 235              		.cfi_restore 2
 236              		.cfi_restore 1
 237              		.cfi_def_cfa_offset 0
 238 001c 7047     		bx	lr
 239              	.L17:
 240 001e 00BF     		.align	2
 241              	.L16:
 242 0020 14000000 		.word	.LC2
 243 0024 00000000 		.word	SD1
 244              		.cfi_endproc
 245              	.LFE265:
 246              		.size	chprintf.constprop.0, .-chprintf.constprop.0
 247 0028 AFF30080 		.section	.text.startup.main,"ax",%progbits
 247      AFF30080 
 248              		.align	2
 249              		.p2align 4,,15
 250              		.global	main
 251              		.thumb
 252              		.thumb_func
 253              		.type	main, %function
 254              	main:
 255              	.LFB264:
 256              		.loc 1 102 0
 257              		.cfi_startproc
 258              		@ args = 0, pretend = 0, frame = 0
 259              		@ frame_needed = 0, uses_anonymous_args = 0
 260 0000 30B5     		push	{r4, r5, lr}
 261              		.cfi_def_cfa_offset 12
 262              		.cfi_offset 4, -12
 263              		.cfi_offset 5, -8
 264              		.cfi_offset 14, -4
 265 0002 83B0     		sub	sp, sp, #12
 266              		.cfi_def_cfa_offset 24
 267              		.loc 1 111 0
 268 0004 FFF7FEFF 		bl	halInit
 269              	.LVL13:
 270              	.LBB40:
 271              	.LBB41:
 272              	.LBB42:
 273              	.LBB43:
 274              	.LBB44:
 275              		.file 4 "../../os/ext/CMSIS/include/core_cmFunc.h"
 276              		.loc 4 546 0
 277 0008 0025     		movs	r5, #0
 278              	.LBE44:
 279              	.LBE43:
ARM GAS  /tmp/ccYX3KMT.s 			page 6


 280              	.LBE42:
 281              	.LBE41:
 282              	.LBE40:
 283              		.loc 1 112 0
 284 000a FFF7FEFF 		bl	chSysInit
 285              	.LVL14:
 286              	.LBB51:
 287              	.LBB50:
 288              	.LBB49:
 289              	.LBB46:
 290              	.LBB45:
 291              		.loc 4 546 0
 292              		.syntax unified
 293              	@ 546 "../../os/ext/CMSIS/include/core_cmFunc.h" 1
 294 000e 85F31188 		MSR basepri, r5
 295              	@ 0 "" 2
 296              		.thumb
 297              		.syntax unified
 298              	.LBE45:
 299              	.LBE46:
 300              	.LBB47:
 301              	.LBB48:
 302              		.loc 4 331 0
 303              		.syntax unified
 304              	@ 331 "../../os/ext/CMSIS/include/core_cmFunc.h" 1
 305 0012 62B6     		cpsie i
 306              	@ 0 "" 2
 307              		.thumb
 308              		.syntax unified
 309              	.LBE48:
 310              	.LBE47:
 311              	.LBE49:
 312              	.LBE50:
 313              	.LBE51:
 314              		.loc 1 119 0
 315 0014 0122     		movs	r2, #1
 316 0016 4FF40051 		mov	r1, #8192
 317 001a 1E48     		ldr	r0, .L24
 318 001c 1E4C     		ldr	r4, .L24+4
 319 001e FFF7FEFF 		bl	_pal_lld_setgroupmode
 320              	.LVL15:
 321              		.loc 1 125 0
 322 0022 2946     		mov	r1, r5
 323 0024 1D48     		ldr	r0, .L24+8
 324 0026 FFF7FEFF 		bl	sdStart
 325              	.LVL16:
 326              		.loc 1 126 0
 327 002a 40F28232 		movw	r2, #898
 328 002e 4021     		movs	r1, #64
 329 0030 1B48     		ldr	r0, .L24+12
 330 0032 FFF7FEFF 		bl	_pal_lld_setgroupmode
 331              	.LVL17:
 332              		.loc 1 127 0
 333 0036 40F28232 		movw	r2, #898
 334 003a 8021     		movs	r1, #128
 335 003c 1848     		ldr	r0, .L24+12
 336 003e FFF7FEFF 		bl	_pal_lld_setgroupmode
ARM GAS  /tmp/ccYX3KMT.s 			page 7


 337              	.LVL18:
 338              		.loc 1 132 0
 339 0042 0095     		str	r5, [sp]
 340 0044 174B     		ldr	r3, .L24+16
 341 0046 1848     		ldr	r0, .L24+20
 342 0048 4022     		movs	r2, #64
 343 004a 4FF4E871 		mov	r1, #464
 344 004e FFF7FEFF 		bl	chThdCreateStatic
 345              	.LVL19:
 346              		.loc 1 133 0
 347 0052 164B     		ldr	r3, .L24+24
 348 0054 0095     		str	r5, [sp]
 349 0056 4022     		movs	r2, #64
 350 0058 4FF41471 		mov	r1, #592
 351 005c 1448     		ldr	r0, .L24+28
 352 005e FFF7FEFF 		bl	chThdCreateStatic
 353              	.LVL20:
 354              		.loc 1 140 0
 355 0062 2946     		mov	r1, r5
 356 0064 1348     		ldr	r0, .L24+32
 357 0066 FFF7FEFF 		bl	adcStart
 358              	.LVL21:
 359              		.loc 1 141 0
 360 006a FFF7FEFF 		bl	adcSTM32EnableTSVREFE
 361              	.LVL22:
 362              		.loc 1 142 0
 363 006e 0322     		movs	r2, #3
 364 0070 0221     		movs	r1, #2
 365 0072 1148     		ldr	r0, .L24+36
 366 0074 FFF7FEFF 		bl	_pal_lld_setgroupmode
 367              	.LVL23:
 368 0078 04F50065 		add	r5, r4, #2048
 369              	.LVL24:
 370              	.L19:
 371              	.LBB52:
 372              		.loc 1 155 0 discriminator 3
 373 007c 34F8022F 		ldrh	r2, [r4, #2]!
 374 0080 0E49     		ldr	r1, .L24+40
 375 0082 0648     		ldr	r0, .L24+8
 376 0084 FFF7FEFF 		bl	chprintf.constprop.0
 377              	.LVL25:
 378              		.loc 1 156 0 discriminator 3
 379 0088 6420     		movs	r0, #100
 380 008a FFF7FEFF 		bl	chThdSleep
 381              	.LVL26:
 382              		.loc 1 153 0 discriminator 3
 383 008e AC42     		cmp	r4, r5
 384 0090 F4D1     		bne	.L19
 385              	.L22:
 386 0092 FEE7     		b	.L22
 387              	.L25:
 388              		.align	2
 389              	.L24:
 390 0094 00080240 		.word	1073874944
 391 0098 FEFFFFFF 		.word	.LANCHOR0-2
 392 009c 00000000 		.word	SD1
 393 00a0 00040240 		.word	1073873920
ARM GAS  /tmp/ccYX3KMT.s 			page 8


 394 00a4 00000000 		.word	Thread1
 395 00a8 00000000 		.word	.LANCHOR3
 396 00ac 00000000 		.word	ADCThread1
 397 00b0 00000000 		.word	.LANCHOR4
 398 00b4 00000000 		.word	ADCD1
 399 00b8 00000240 		.word	1073872896
 400 00bc 14000000 		.word	.LC2
 401              	.LBE52:
 402              		.cfi_endproc
 403              	.LFE264:
 404              		.size	main, .-main
 405              		.global	data1
 406              		.section	.bss.waThread1,"aw",%nobits
 407              		.align	3
 408              		.set	.LANCHOR3,. + 0
 409              		.type	waThread1, %object
 410              		.size	waThread1, 464
 411              	waThread1:
 412 0000 00000000 		.space	464
 412      00000000 
 412      00000000 
 412      00000000 
 412      00000000 
 413              		.section	.bss.waADCThread1,"aw",%nobits
 414              		.align	3
 415              		.set	.LANCHOR4,. + 0
 416              		.type	waADCThread1, %object
 417              		.size	waADCThread1, 592
 418              	waADCThread1:
 419 0000 00000000 		.space	592
 419      00000000 
 419      00000000 
 419      00000000 
 419      00000000 
 420              		.section	.rodata.str1.4,"aMS",%progbits,1
 421              		.align	2
 422              	.LC0:
 423 0000 626C696E 		.ascii	"blinker\000"
 423      6B657200 
 424              	.LC1:
 425 0008 56612053 		.ascii	"Va Samples\000"
 425      616D706C 
 425      657300
 426 0013 00       		.space	1
 427              	.LC2:
 428 0014 25640D0A 		.ascii	"%d\015\012\000"
 428      00
 429 0019 000000   		.section	.rodata.adcgrpcfg1,"a",%progbits
 430              		.align	2
 431              		.set	.LANCHOR2,. + 0
 432              		.type	adcgrpcfg1, %object
 433              		.size	adcgrpcfg1, 40
 434              	adcgrpcfg1:
 435 0000 00       		.byte	0
 436 0001 00       		.space	1
 437 0002 0100     		.short	1
 438 0004 00000000 		.word	0
ARM GAS  /tmp/ccYX3KMT.s 			page 9


 439 0008 00000000 		.word	adcerrorcallback
 440 000c 00000000 		.word	0
 441 0010 00000040 		.word	1073741824
 442 0014 00000000 		.word	0
 443 0018 00000000 		.word	0
 444 001c 00000000 		.word	0
 445 0020 00000000 		.word	0
 446 0024 01000000 		.word	1
 447              		.section	.bss.samples1,"aw",%nobits
 448              		.align	2
 449              		.set	.LANCHOR1,. + 0
 450              		.type	samples1, %object
 451              		.size	samples1, 8
 452              	samples1:
 453 0000 00000000 		.space	8
 453      00000000 
 454              		.section	.bss.data1,"aw",%nobits
 455              		.align	2
 456              		.set	.LANCHOR0,. + 0
 457              		.type	data1, %object
 458              		.size	data1, 2048
 459              	data1:
 460 0000 00000000 		.space	2048
 460      00000000 
 460      00000000 
 460      00000000 
 460      00000000 
 461              		.text
 462              	.Letext0:
 463              		.file 5 "/usr/lib/gcc/arm-none-eabi/5.2.0/include/stddef.h"
 464              		.file 6 "/usr/arm-none-eabi/include/machine/_default_types.h"
 465              		.file 7 "/usr/arm-none-eabi/include/stdint.h"
 466              		.file 8 "../../os/rt/ports/ARMCMx/compilers/GCC/chtypes.h"
 467              		.file 9 "../../os/rt/include/chsystypes.h"
 468              		.file 10 "../../os/rt/include/chschd.h"
 469              		.file 11 "../../os/ext/CMSIS/ST/stm32f401xc.h"
 470              		.file 12 "../../os/rt/ports/ARMCMx/chcore.h"
 471              		.file 13 "../../os/rt/ports/ARMCMx/chcore_v7m.h"
 472              		.file 14 "../../os/rt/include/chtm.h"
 473              		.file 15 "../../os/rt/include/chsem.h"
 474              		.file 16 "../../os/rt/include/chmtx.h"
 475              		.file 17 "../../os/rt/include/chevents.h"
 476              		.file 18 "../../os/rt/include/chqueues.h"
 477              		.file 19 "../../os/rt/include/chstreams.h"
 478              		.file 20 "../../os/hal/ports/STM32/STM32F4xx/stm32_dma.h"
 479              		.file 21 "../../os/hal/ports/STM32/LLD/GPIOv2/pal_lld.h"
 480              		.file 22 "../../os/hal/include/adc.h"
 481              		.file 23 "../../os/hal/ports/STM32/STM32F4xx/adc_lld.h"
 482              		.file 24 "../../os/hal/include/serial.h"
 483              		.file 25 "/usr/lib/gcc/arm-none-eabi/5.2.0/include/stdarg.h"
 484              		.file 26 "<built-in>"
 485              		.file 27 "../../os/rt/include/chsys.h"
 486              		.file 28 "../../os/hal/osal/rt/osal.h"
 487              		.file 29 "../../os/ext/CMSIS/include/core_cm4.h"
 488              		.file 30 "../../os/hal/ports/STM32/LLD/USARTv1/serial_lld.h"
 489              		.file 31 "../../os/rt/include/chthreads.h"
 490              		.file 32 "../../os/hal/include/hal.h"
ARM GAS  /tmp/ccYX3KMT.s 			page 10

