ARM GAS  /tmp/ccn8STLw.s 			page 1


   1              		.syntax unified
   2              		.cpu cortex-m4
   3              		.eabi_attribute 27, 1
   4              		.eabi_attribute 28, 1
   5              		.fpu fpv4-sp-d16
   6              		.eabi_attribute 20, 1
   7              		.eabi_attribute 21, 1
   8              		.eabi_attribute 23, 3
   9              		.eabi_attribute 24, 1
  10              		.eabi_attribute 25, 1
  11              		.eabi_attribute 26, 1
  12              		.eabi_attribute 30, 2
  13              		.eabi_attribute 34, 1
  14              		.eabi_attribute 18, 4
  15              		.thumb
  16              		.syntax unified
  17              		.file	"uart.c"
  18              		.text
  19              	.Ltext0:
  20              		.cfi_sections	.debug_frame
  21              		.section	.text.uartInit,"ax",%progbits
  22              		.align	2
  23              		.p2align 4,,15
  24              		.global	uartInit
  25              		.thumb
  26              		.thumb_func
  27              		.type	uartInit, %function
  28              	uartInit:
  29              	.LFB260:
  30              		.file 1 "../../os/hal/src/uart.c"
  31              		.loc 1 56 0
  32              		.cfi_startproc
  33              		@ args = 0, pretend = 0, frame = 0
  34              		@ frame_needed = 0, uses_anonymous_args = 0
  35              		@ link register save eliminated.
  36              		.loc 1 58 0
  37 0000 FFF7FEBF 		b	uart_lld_init
  38              	.LVL0:
  39              		.cfi_endproc
  40              	.LFE260:
  41              		.size	uartInit, .-uartInit
  42 0004 AFF30080 		.section	.text.uartObjectInit,"ax",%progbits
  42      AFF30080 
  42      AFF30080 
  43              		.align	2
  44              		.p2align 4,,15
  45              		.global	uartObjectInit
  46              		.thumb
  47              		.thumb_func
  48              		.type	uartObjectInit, %function
  49              	uartObjectInit:
  50              	.LFB261:
  51              		.loc 1 68 0
  52              		.cfi_startproc
  53              		@ args = 0, pretend = 0, frame = 0
  54              		@ frame_needed = 0, uses_anonymous_args = 0
  55              		@ link register save eliminated.
ARM GAS  /tmp/ccn8STLw.s 			page 2


  56              	.LVL1:
  57              		.loc 1 71 0
  58 0000 0023     		movs	r3, #0
  59              		.loc 1 70 0
  60 0002 0122     		movs	r2, #1
  61 0004 0270     		strb	r2, [r0]
  62              		.loc 1 71 0
  63 0006 4370     		strb	r3, [r0, #1]
  64              		.loc 1 72 0
  65 0008 8370     		strb	r3, [r0, #2]
  66              		.loc 1 73 0
  67 000a 4360     		str	r3, [r0, #4]
  68 000c 7047     		bx	lr
  69              		.cfi_endproc
  70              	.LFE261:
  71              		.size	uartObjectInit, .-uartObjectInit
  72 000e 00BF     		.section	.text.uartStart,"ax",%progbits
  73              		.align	2
  74              		.p2align 4,,15
  75              		.global	uartStart
  76              		.thumb
  77              		.thumb_func
  78              		.type	uartStart, %function
  79              	uartStart:
  80              	.LFB262:
  81              		.loc 1 88 0
  82              		.cfi_startproc
  83              		@ args = 0, pretend = 0, frame = 0
  84              		@ frame_needed = 0, uses_anonymous_args = 0
  85              	.LVL2:
  86 0000 10B5     		push	{r4, lr}
  87              		.cfi_def_cfa_offset 8
  88              		.cfi_offset 4, -8
  89              		.cfi_offset 14, -4
  90              	.LBB102:
  91              	.LBB103:
  92              	.LBB104:
  93              	.LBB105:
  94              	.LBB106:
  95              		.file 2 "../../os/ext/CMSIS/include/core_cmFunc.h"
  96              		.loc 2 546 0
  97 0002 2023     		movs	r3, #32
  98              	.LBE106:
  99              	.LBE105:
 100              	.LBE104:
 101              	.LBE103:
 102              	.LBE102:
 103              		.loc 1 88 0
 104 0004 0446     		mov	r4, r0
 105              	.LBB111:
 106              	.LBB110:
 107              	.LBB109:
 108              	.LBB108:
 109              	.LBB107:
 110              		.loc 2 546 0
 111              		.syntax unified
 112              	@ 546 "../../os/ext/CMSIS/include/core_cmFunc.h" 1
ARM GAS  /tmp/ccn8STLw.s 			page 3


 113 0006 83F31188 		MSR basepri, r3
 114              	@ 0 "" 2
 115              		.thumb
 116              		.syntax unified
 117              	.LBE107:
 118              	.LBE108:
 119              	.LBE109:
 120              	.LBE110:
 121              	.LBE111:
 122              		.loc 1 96 0
 123 000a 4160     		str	r1, [r0, #4]
 124              		.loc 1 97 0
 125 000c FFF7FEFF 		bl	uart_lld_start
 126              	.LVL3:
 127              		.loc 1 98 0
 128 0010 0223     		movs	r3, #2
 129 0012 2370     		strb	r3, [r4]
 130              	.LVL4:
 131              	.LBB112:
 132              	.LBB113:
 133              	.LBB114:
 134              	.LBB115:
 135              	.LBB116:
 136              	.LBB117:
 137              		.loc 2 546 0
 138 0014 0023     		movs	r3, #0
 139              		.syntax unified
 140              	@ 546 "../../os/ext/CMSIS/include/core_cmFunc.h" 1
 141 0016 83F31188 		MSR basepri, r3
 142              	@ 0 "" 2
 143              		.thumb
 144              		.syntax unified
 145 001a 10BD     		pop	{r4, pc}
 146              	.LBE117:
 147              	.LBE116:
 148              	.LBE115:
 149              	.LBE114:
 150              	.LBE113:
 151              	.LBE112:
 152              		.cfi_endproc
 153              	.LFE262:
 154              		.size	uartStart, .-uartStart
 155 001c AFF30080 		.section	.text.uartStop,"ax",%progbits
 156              		.align	2
 157              		.p2align 4,,15
 158              		.global	uartStop
 159              		.thumb
 160              		.thumb_func
 161              		.type	uartStop, %function
 162              	uartStop:
 163              	.LFB263:
 164              		.loc 1 109 0
 165              		.cfi_startproc
 166              		@ args = 0, pretend = 0, frame = 0
 167              		@ frame_needed = 0, uses_anonymous_args = 0
 168              	.LVL5:
 169 0000 10B5     		push	{r4, lr}
ARM GAS  /tmp/ccn8STLw.s 			page 4


 170              		.cfi_def_cfa_offset 8
 171              		.cfi_offset 4, -8
 172              		.cfi_offset 14, -4
 173              	.LBB118:
 174              	.LBB119:
 175              	.LBB120:
 176              	.LBB121:
 177              	.LBB122:
 178              		.loc 2 546 0
 179 0002 2023     		movs	r3, #32
 180              	.LBE122:
 181              	.LBE121:
 182              	.LBE120:
 183              	.LBE119:
 184              	.LBE118:
 185              		.loc 1 109 0
 186 0004 0446     		mov	r4, r0
 187              	.LBB127:
 188              	.LBB126:
 189              	.LBB125:
 190              	.LBB124:
 191              	.LBB123:
 192              		.loc 2 546 0
 193              		.syntax unified
 194              	@ 546 "../../os/ext/CMSIS/include/core_cmFunc.h" 1
 195 0006 83F31188 		MSR basepri, r3
 196              	@ 0 "" 2
 197              		.thumb
 198              		.syntax unified
 199              	.LBE123:
 200              	.LBE124:
 201              	.LBE125:
 202              	.LBE126:
 203              	.LBE127:
 204              		.loc 1 117 0
 205 000a FFF7FEFF 		bl	uart_lld_stop
 206              	.LVL6:
 207              		.loc 1 119 0
 208 000e 0023     		movs	r3, #0
 209              		.loc 1 118 0
 210 0010 0122     		movs	r2, #1
 211 0012 2270     		strb	r2, [r4]
 212              		.loc 1 119 0
 213 0014 6370     		strb	r3, [r4, #1]
 214              		.loc 1 120 0
 215 0016 A370     		strb	r3, [r4, #2]
 216              	.LVL7:
 217              	.LBB128:
 218              	.LBB129:
 219              	.LBB130:
 220              	.LBB131:
 221              	.LBB132:
 222              	.LBB133:
 223              		.loc 2 546 0
 224              		.syntax unified
 225              	@ 546 "../../os/ext/CMSIS/include/core_cmFunc.h" 1
 226 0018 83F31188 		MSR basepri, r3
ARM GAS  /tmp/ccn8STLw.s 			page 5


 227              	@ 0 "" 2
 228              		.thumb
 229              		.syntax unified
 230 001c 10BD     		pop	{r4, pc}
 231              	.LBE133:
 232              	.LBE132:
 233              	.LBE131:
 234              	.LBE130:
 235              	.LBE129:
 236              	.LBE128:
 237              		.cfi_endproc
 238              	.LFE263:
 239              		.size	uartStop, .-uartStop
 240 001e 00BF     		.section	.text.uartStartSend,"ax",%progbits
 241              		.align	2
 242              		.p2align 4,,15
 243              		.global	uartStartSend
 244              		.thumb
 245              		.thumb_func
 246              		.type	uartStartSend, %function
 247              	uartStartSend:
 248              	.LFB264:
 249              		.loc 1 135 0
 250              		.cfi_startproc
 251              		@ args = 0, pretend = 0, frame = 0
 252              		@ frame_needed = 0, uses_anonymous_args = 0
 253              	.LVL8:
 254 0000 10B5     		push	{r4, lr}
 255              		.cfi_def_cfa_offset 8
 256              		.cfi_offset 4, -8
 257              		.cfi_offset 14, -4
 258              	.LBB134:
 259              	.LBB135:
 260              	.LBB136:
 261              	.LBB137:
 262              	.LBB138:
 263              		.loc 2 546 0
 264 0002 2023     		movs	r3, #32
 265              	.LBE138:
 266              	.LBE137:
 267              	.LBE136:
 268              	.LBE135:
 269              	.LBE134:
 270              		.loc 1 135 0
 271 0004 0446     		mov	r4, r0
 272              	.LBB143:
 273              	.LBB142:
 274              	.LBB141:
 275              	.LBB140:
 276              	.LBB139:
 277              		.loc 2 546 0
 278              		.syntax unified
 279              	@ 546 "../../os/ext/CMSIS/include/core_cmFunc.h" 1
 280 0006 83F31188 		MSR basepri, r3
 281              	@ 0 "" 2
 282              		.thumb
 283              		.syntax unified
ARM GAS  /tmp/ccn8STLw.s 			page 6


 284              	.LBE139:
 285              	.LBE140:
 286              	.LBE141:
 287              	.LBE142:
 288              	.LBE143:
 289              		.loc 1 143 0
 290 000a FFF7FEFF 		bl	uart_lld_start_send
 291              	.LVL9:
 292              		.loc 1 144 0
 293 000e 0123     		movs	r3, #1
 294 0010 6370     		strb	r3, [r4, #1]
 295              	.LVL10:
 296              	.LBB144:
 297              	.LBB145:
 298              	.LBB146:
 299              	.LBB147:
 300              	.LBB148:
 301              	.LBB149:
 302              		.loc 2 546 0
 303 0012 0023     		movs	r3, #0
 304              		.syntax unified
 305              	@ 546 "../../os/ext/CMSIS/include/core_cmFunc.h" 1
 306 0014 83F31188 		MSR basepri, r3
 307              	@ 0 "" 2
 308              		.thumb
 309              		.syntax unified
 310 0018 10BD     		pop	{r4, pc}
 311              	.LBE149:
 312              	.LBE148:
 313              	.LBE147:
 314              	.LBE146:
 315              	.LBE145:
 316              	.LBE144:
 317              		.cfi_endproc
 318              	.LFE264:
 319              		.size	uartStartSend, .-uartStartSend
 320 001a 00BFAFF3 		.section	.text.uartStartSendI,"ax",%progbits
 320      0080
 321              		.align	2
 322              		.p2align 4,,15
 323              		.global	uartStartSendI
 324              		.thumb
 325              		.thumb_func
 326              		.type	uartStartSendI, %function
 327              	uartStartSendI:
 328              	.LFB265:
 329              		.loc 1 160 0
 330              		.cfi_startproc
 331              		@ args = 0, pretend = 0, frame = 0
 332              		@ frame_needed = 0, uses_anonymous_args = 0
 333              	.LVL11:
 334 0000 10B5     		push	{r4, lr}
 335              		.cfi_def_cfa_offset 8
 336              		.cfi_offset 4, -8
 337              		.cfi_offset 14, -4
 338              		.loc 1 160 0
 339 0002 0446     		mov	r4, r0
ARM GAS  /tmp/ccn8STLw.s 			page 7


 340              		.loc 1 167 0
 341 0004 FFF7FEFF 		bl	uart_lld_start_send
 342              	.LVL12:
 343              		.loc 1 168 0
 344 0008 0123     		movs	r3, #1
 345 000a 6370     		strb	r3, [r4, #1]
 346 000c 10BD     		pop	{r4, pc}
 347              		.cfi_endproc
 348              	.LFE265:
 349              		.size	uartStartSendI, .-uartStartSendI
 350 000e 00BF     		.section	.text.uartStopSend,"ax",%progbits
 351              		.align	2
 352              		.p2align 4,,15
 353              		.global	uartStopSend
 354              		.thumb
 355              		.thumb_func
 356              		.type	uartStopSend, %function
 357              	uartStopSend:
 358              	.LFB266:
 359              		.loc 1 183 0
 360              		.cfi_startproc
 361              		@ args = 0, pretend = 0, frame = 0
 362              		@ frame_needed = 0, uses_anonymous_args = 0
 363              	.LVL13:
 364              	.LBB150:
 365              	.LBB151:
 366              	.LBB152:
 367              	.LBB153:
 368              	.LBB154:
 369              		.loc 2 546 0
 370 0000 2022     		movs	r2, #32
 371              		.syntax unified
 372              	@ 546 "../../os/ext/CMSIS/include/core_cmFunc.h" 1
 373 0002 82F31188 		MSR basepri, r2
 374              	@ 0 "" 2
 375              		.thumb
 376              		.syntax unified
 377              	.LBE154:
 378              	.LBE153:
 379              	.LBE152:
 380              	.LBE151:
 381              	.LBE150:
 382              		.loc 1 191 0
 383 0006 4278     		ldrb	r2, [r0, #1]	@ zero_extendqisi2
 384 0008 012A     		cmp	r2, #1
 385 000a 04D0     		beq	.L17
 386              		.loc 1 196 0
 387 000c 0020     		movs	r0, #0
 388              	.LVL14:
 389              	.LBB155:
 390              	.LBB156:
 391              	.LBB157:
 392              	.LBB158:
 393              	.LBB159:
 394              	.LBB160:
 395              		.loc 2 546 0
 396 000e 0023     		movs	r3, #0
ARM GAS  /tmp/ccn8STLw.s 			page 8


 397              		.syntax unified
 398              	@ 546 "../../os/ext/CMSIS/include/core_cmFunc.h" 1
 399 0010 83F31188 		MSR basepri, r3
 400              	@ 0 "" 2
 401              		.thumb
 402              		.syntax unified
 403              	.LBE160:
 404              	.LBE159:
 405              	.LBE158:
 406              	.LBE157:
 407              	.LBE156:
 408              	.LBE155:
 409              		.loc 1 201 0
 410 0014 7047     		bx	lr
 411              	.LVL15:
 412              	.L17:
 413              		.loc 1 183 0
 414 0016 10B5     		push	{r4, lr}
 415              		.cfi_def_cfa_offset 8
 416              		.cfi_offset 4, -8
 417              		.cfi_offset 14, -4
 418 0018 0446     		mov	r4, r0
 419              		.loc 1 192 0
 420 001a FFF7FEFF 		bl	uart_lld_stop_send
 421              	.LVL16:
 422              		.loc 1 193 0
 423 001e 0023     		movs	r3, #0
 424 0020 6370     		strb	r3, [r4, #1]
 425              	.LVL17:
 426              	.LBB166:
 427              	.LBB165:
 428              	.LBB164:
 429              	.LBB163:
 430              	.LBB162:
 431              	.LBB161:
 432              		.loc 2 546 0
 433 0022 0023     		movs	r3, #0
 434              		.syntax unified
 435              	@ 546 "../../os/ext/CMSIS/include/core_cmFunc.h" 1
 436 0024 83F31188 		MSR basepri, r3
 437              	@ 0 "" 2
 438              		.thumb
 439              		.syntax unified
 440              	.LBE161:
 441              	.LBE162:
 442              	.LBE163:
 443              	.LBE164:
 444              	.LBE165:
 445              	.LBE166:
 446              		.loc 1 201 0
 447 0028 10BD     		pop	{r4, pc}
 448              		.cfi_endproc
 449              	.LFE266:
 450              		.size	uartStopSend, .-uartStopSend
 451 002a 00BFAFF3 		.section	.text.uartStopSendI,"ax",%progbits
 451      0080
 452              		.align	2
ARM GAS  /tmp/ccn8STLw.s 			page 9


 453              		.p2align 4,,15
 454              		.global	uartStopSendI
 455              		.thumb
 456              		.thumb_func
 457              		.type	uartStopSendI, %function
 458              	uartStopSendI:
 459              	.LFB267:
 460              		.loc 1 216 0
 461              		.cfi_startproc
 462              		@ args = 0, pretend = 0, frame = 0
 463              		@ frame_needed = 0, uses_anonymous_args = 0
 464              	.LVL18:
 465              		.loc 1 222 0
 466 0000 4278     		ldrb	r2, [r0, #1]	@ zero_extendqisi2
 467 0002 012A     		cmp	r2, #1
 468 0004 01D0     		beq	.L23
 469              		.loc 1 227 0
 470 0006 0020     		movs	r0, #0
 471              	.LVL19:
 472 0008 7047     		bx	lr
 473              	.LVL20:
 474              	.L23:
 475              		.loc 1 216 0
 476 000a 10B5     		push	{r4, lr}
 477              		.cfi_def_cfa_offset 8
 478              		.cfi_offset 4, -8
 479              		.cfi_offset 14, -4
 480 000c 0446     		mov	r4, r0
 481              	.LBB167:
 482              		.loc 1 223 0
 483 000e FFF7FEFF 		bl	uart_lld_stop_send
 484              	.LVL21:
 485              		.loc 1 224 0
 486 0012 0023     		movs	r3, #0
 487 0014 6370     		strb	r3, [r4, #1]
 488              		.loc 1 225 0
 489 0016 10BD     		pop	{r4, pc}
 490              	.LBE167:
 491              		.cfi_endproc
 492              	.LFE267:
 493              		.size	uartStopSendI, .-uartStopSendI
 494 0018 AFF30080 		.section	.text.uartStartReceive,"ax",%progbits
 494      AFF30080 
 495              		.align	2
 496              		.p2align 4,,15
 497              		.global	uartStartReceive
 498              		.thumb
 499              		.thumb_func
 500              		.type	uartStartReceive, %function
 501              	uartStartReceive:
 502              	.LFB268:
 503              		.loc 1 241 0
 504              		.cfi_startproc
 505              		@ args = 0, pretend = 0, frame = 0
 506              		@ frame_needed = 0, uses_anonymous_args = 0
 507              	.LVL22:
 508 0000 10B5     		push	{r4, lr}
ARM GAS  /tmp/ccn8STLw.s 			page 10


 509              		.cfi_def_cfa_offset 8
 510              		.cfi_offset 4, -8
 511              		.cfi_offset 14, -4
 512              	.LBB168:
 513              	.LBB169:
 514              	.LBB170:
 515              	.LBB171:
 516              	.LBB172:
 517              		.loc 2 546 0
 518 0002 2023     		movs	r3, #32
 519              	.LBE172:
 520              	.LBE171:
 521              	.LBE170:
 522              	.LBE169:
 523              	.LBE168:
 524              		.loc 1 241 0
 525 0004 0446     		mov	r4, r0
 526              	.LBB177:
 527              	.LBB176:
 528              	.LBB175:
 529              	.LBB174:
 530              	.LBB173:
 531              		.loc 2 546 0
 532              		.syntax unified
 533              	@ 546 "../../os/ext/CMSIS/include/core_cmFunc.h" 1
 534 0006 83F31188 		MSR basepri, r3
 535              	@ 0 "" 2
 536              		.thumb
 537              		.syntax unified
 538              	.LBE173:
 539              	.LBE174:
 540              	.LBE175:
 541              	.LBE176:
 542              	.LBE177:
 543              		.loc 1 249 0
 544 000a FFF7FEFF 		bl	uart_lld_start_receive
 545              	.LVL23:
 546              		.loc 1 250 0
 547 000e 0123     		movs	r3, #1
 548 0010 A370     		strb	r3, [r4, #2]
 549              	.LVL24:
 550              	.LBB178:
 551              	.LBB179:
 552              	.LBB180:
 553              	.LBB181:
 554              	.LBB182:
 555              	.LBB183:
 556              		.loc 2 546 0
 557 0012 0023     		movs	r3, #0
 558              		.syntax unified
 559              	@ 546 "../../os/ext/CMSIS/include/core_cmFunc.h" 1
 560 0014 83F31188 		MSR basepri, r3
 561              	@ 0 "" 2
 562              		.thumb
 563              		.syntax unified
 564 0018 10BD     		pop	{r4, pc}
 565              	.LBE183:
ARM GAS  /tmp/ccn8STLw.s 			page 11


 566              	.LBE182:
 567              	.LBE181:
 568              	.LBE180:
 569              	.LBE179:
 570              	.LBE178:
 571              		.cfi_endproc
 572              	.LFE268:
 573              		.size	uartStartReceive, .-uartStartReceive
 574 001a 00BFAFF3 		.section	.text.uartStartReceiveI,"ax",%progbits
 574      0080
 575              		.align	2
 576              		.p2align 4,,15
 577              		.global	uartStartReceiveI
 578              		.thumb
 579              		.thumb_func
 580              		.type	uartStartReceiveI, %function
 581              	uartStartReceiveI:
 582              	.LFB269:
 583              		.loc 1 266 0
 584              		.cfi_startproc
 585              		@ args = 0, pretend = 0, frame = 0
 586              		@ frame_needed = 0, uses_anonymous_args = 0
 587              	.LVL25:
 588 0000 10B5     		push	{r4, lr}
 589              		.cfi_def_cfa_offset 8
 590              		.cfi_offset 4, -8
 591              		.cfi_offset 14, -4
 592              		.loc 1 266 0
 593 0002 0446     		mov	r4, r0
 594              		.loc 1 273 0
 595 0004 FFF7FEFF 		bl	uart_lld_start_receive
 596              	.LVL26:
 597              		.loc 1 274 0
 598 0008 0123     		movs	r3, #1
 599 000a A370     		strb	r3, [r4, #2]
 600 000c 10BD     		pop	{r4, pc}
 601              		.cfi_endproc
 602              	.LFE269:
 603              		.size	uartStartReceiveI, .-uartStartReceiveI
 604 000e 00BF     		.section	.text.uartStopReceive,"ax",%progbits
 605              		.align	2
 606              		.p2align 4,,15
 607              		.global	uartStopReceive
 608              		.thumb
 609              		.thumb_func
 610              		.type	uartStopReceive, %function
 611              	uartStopReceive:
 612              	.LFB270:
 613              		.loc 1 289 0
 614              		.cfi_startproc
 615              		@ args = 0, pretend = 0, frame = 0
 616              		@ frame_needed = 0, uses_anonymous_args = 0
 617              	.LVL27:
 618              	.LBB184:
 619              	.LBB185:
 620              	.LBB186:
 621              	.LBB187:
ARM GAS  /tmp/ccn8STLw.s 			page 12


 622              	.LBB188:
 623              		.loc 2 546 0
 624 0000 2022     		movs	r2, #32
 625              		.syntax unified
 626              	@ 546 "../../os/ext/CMSIS/include/core_cmFunc.h" 1
 627 0002 82F31188 		MSR basepri, r2
 628              	@ 0 "" 2
 629              		.thumb
 630              		.syntax unified
 631              	.LBE188:
 632              	.LBE187:
 633              	.LBE186:
 634              	.LBE185:
 635              	.LBE184:
 636              		.loc 1 297 0
 637 0006 8278     		ldrb	r2, [r0, #2]	@ zero_extendqisi2
 638 0008 012A     		cmp	r2, #1
 639 000a 04D0     		beq	.L33
 640              		.loc 1 302 0
 641 000c 0020     		movs	r0, #0
 642              	.LVL28:
 643              	.LBB189:
 644              	.LBB190:
 645              	.LBB191:
 646              	.LBB192:
 647              	.LBB193:
 648              	.LBB194:
 649              		.loc 2 546 0
 650 000e 0023     		movs	r3, #0
 651              		.syntax unified
 652              	@ 546 "../../os/ext/CMSIS/include/core_cmFunc.h" 1
 653 0010 83F31188 		MSR basepri, r3
 654              	@ 0 "" 2
 655              		.thumb
 656              		.syntax unified
 657              	.LBE194:
 658              	.LBE193:
 659              	.LBE192:
 660              	.LBE191:
 661              	.LBE190:
 662              	.LBE189:
 663              		.loc 1 307 0
 664 0014 7047     		bx	lr
 665              	.LVL29:
 666              	.L33:
 667              		.loc 1 289 0
 668 0016 10B5     		push	{r4, lr}
 669              		.cfi_def_cfa_offset 8
 670              		.cfi_offset 4, -8
 671              		.cfi_offset 14, -4
 672 0018 0446     		mov	r4, r0
 673              		.loc 1 298 0
 674 001a FFF7FEFF 		bl	uart_lld_stop_receive
 675              	.LVL30:
 676              		.loc 1 299 0
 677 001e 0023     		movs	r3, #0
 678 0020 A370     		strb	r3, [r4, #2]
ARM GAS  /tmp/ccn8STLw.s 			page 13


 679              	.LVL31:
 680              	.LBB200:
 681              	.LBB199:
 682              	.LBB198:
 683              	.LBB197:
 684              	.LBB196:
 685              	.LBB195:
 686              		.loc 2 546 0
 687 0022 0023     		movs	r3, #0
 688              		.syntax unified
 689              	@ 546 "../../os/ext/CMSIS/include/core_cmFunc.h" 1
 690 0024 83F31188 		MSR basepri, r3
 691              	@ 0 "" 2
 692              		.thumb
 693              		.syntax unified
 694              	.LBE195:
 695              	.LBE196:
 696              	.LBE197:
 697              	.LBE198:
 698              	.LBE199:
 699              	.LBE200:
 700              		.loc 1 307 0
 701 0028 10BD     		pop	{r4, pc}
 702              		.cfi_endproc
 703              	.LFE270:
 704              		.size	uartStopReceive, .-uartStopReceive
 705 002a 00BFAFF3 		.section	.text.uartStopReceiveI,"ax",%progbits
 705      0080
 706              		.align	2
 707              		.p2align 4,,15
 708              		.global	uartStopReceiveI
 709              		.thumb
 710              		.thumb_func
 711              		.type	uartStopReceiveI, %function
 712              	uartStopReceiveI:
 713              	.LFB271:
 714              		.loc 1 322 0
 715              		.cfi_startproc
 716              		@ args = 0, pretend = 0, frame = 0
 717              		@ frame_needed = 0, uses_anonymous_args = 0
 718              	.LVL32:
 719              		.loc 1 328 0
 720 0000 8278     		ldrb	r2, [r0, #2]	@ zero_extendqisi2
 721 0002 012A     		cmp	r2, #1
 722 0004 01D0     		beq	.L39
 723              		.loc 1 333 0
 724 0006 0020     		movs	r0, #0
 725              	.LVL33:
 726 0008 7047     		bx	lr
 727              	.LVL34:
 728              	.L39:
 729              		.loc 1 322 0
 730 000a 10B5     		push	{r4, lr}
 731              		.cfi_def_cfa_offset 8
 732              		.cfi_offset 4, -8
 733              		.cfi_offset 14, -4
 734 000c 0446     		mov	r4, r0
ARM GAS  /tmp/ccn8STLw.s 			page 14


 735              	.LBB201:
 736              		.loc 1 329 0
 737 000e FFF7FEFF 		bl	uart_lld_stop_receive
 738              	.LVL35:
 739              		.loc 1 330 0
 740 0012 0023     		movs	r3, #0
 741 0014 A370     		strb	r3, [r4, #2]
 742              		.loc 1 331 0
 743 0016 10BD     		pop	{r4, pc}
 744              	.LBE201:
 745              		.cfi_endproc
 746              	.LFE271:
 747              		.size	uartStopReceiveI, .-uartStopReceiveI
 748 0018 AFF30080 		.text
 748      AFF30080 
 749              	.Letext0:
 750              		.file 3 "/usr/lib/gcc/arm-none-eabi/5.2.0/include/stddef.h"
 751              		.file 4 "/usr/arm-none-eabi/include/machine/_default_types.h"
 752              		.file 5 "/usr/arm-none-eabi/include/stdint.h"
 753              		.file 6 "../../os/rt/ports/ARMCMx/compilers/GCC/chtypes.h"
 754              		.file 7 "../../os/rt/include/chsystypes.h"
 755              		.file 8 "../../os/rt/include/chschd.h"
 756              		.file 9 "../../os/ext/CMSIS/ST/stm32f401xc.h"
 757              		.file 10 "../../os/rt/ports/ARMCMx/chcore.h"
 758              		.file 11 "../../os/rt/ports/ARMCMx/chcore_v7m.h"
 759              		.file 12 "../../os/rt/include/chtm.h"
 760              		.file 13 "../../os/rt/include/chsem.h"
 761              		.file 14 "../../os/rt/include/chmtx.h"
 762              		.file 15 "../../os/hal/ports/STM32/STM32F4xx/stm32_dma.h"
 763              		.file 16 "../../os/hal/include/uart.h"
 764              		.file 17 "../../os/hal/ports/STM32/LLD/USARTv1/uart_lld.h"
 765              		.file 18 "../../os/rt/include/chsys.h"
 766              		.file 19 "../../os/hal/osal/rt/osal.h"
 767              		.file 20 "../../os/ext/CMSIS/include/core_cm4.h"
 768              		.section	.debug_info,"",%progbits
 769              	.Ldebug_info0:
 770 0000 B8130000 		.4byte	0x13b8
 771 0004 0400     		.2byte	0x4
 772 0006 00000000 		.4byte	.Ldebug_abbrev0
 773 000a 04       		.byte	0x4
 774 000b 01       		.uleb128 0x1
 775 000c 91030000 		.4byte	.LASF181
 776 0010 0C       		.byte	0xc
 777 0011 99000000 		.4byte	.LASF182
 778 0015 56050000 		.4byte	.LASF183
 779 0019 90000000 		.4byte	.Ldebug_ranges0+0x90
 780 001d 00000000 		.4byte	0
 781 0021 00000000 		.4byte	.Ldebug_line0
 782 0025 02       		.uleb128 0x2
 783 0026 04       		.byte	0x4
 784 0027 05       		.byte	0x5
 785 0028 696E7400 		.ascii	"int\000"
 786 002c 03       		.uleb128 0x3
 787 002d 38000000 		.4byte	.LASF4
 788 0031 03       		.byte	0x3
 789 0032 D8       		.byte	0xd8
 790 0033 37000000 		.4byte	0x37
ARM GAS  /tmp/ccn8STLw.s 			page 15


 791 0037 04       		.uleb128 0x4
 792 0038 04       		.byte	0x4
 793 0039 07       		.byte	0x7
 794 003a 98020000 		.4byte	.LASF0
 795 003e 04       		.uleb128 0x4
 796 003f 08       		.byte	0x8
 797 0040 05       		.byte	0x5
 798 0041 4F010000 		.4byte	.LASF1
 799 0045 04       		.uleb128 0x4
 800 0046 08       		.byte	0x8
 801 0047 04       		.byte	0x4
 802 0048 23020000 		.4byte	.LASF2
 803 004c 04       		.uleb128 0x4
 804 004d 01       		.byte	0x1
 805 004e 06       		.byte	0x6
 806 004f 5D010000 		.4byte	.LASF3
 807 0053 03       		.uleb128 0x3
 808 0054 65000000 		.4byte	.LASF5
 809 0058 04       		.byte	0x4
 810 0059 1D       		.byte	0x1d
 811 005a 5E000000 		.4byte	0x5e
 812 005e 04       		.uleb128 0x4
 813 005f 01       		.byte	0x1
 814 0060 08       		.byte	0x8
 815 0061 09060000 		.4byte	.LASF6
 816 0065 04       		.uleb128 0x4
 817 0066 02       		.byte	0x2
 818 0067 05       		.byte	0x5
 819 0068 21060000 		.4byte	.LASF7
 820 006c 03       		.uleb128 0x3
 821 006d 31070000 		.4byte	.LASF8
 822 0071 04       		.byte	0x4
 823 0072 2B       		.byte	0x2b
 824 0073 77000000 		.4byte	0x77
 825 0077 04       		.uleb128 0x4
 826 0078 02       		.byte	0x2
 827 0079 07       		.byte	0x7
 828 007a F8020000 		.4byte	.LASF9
 829 007e 03       		.uleb128 0x3
 830 007f 7C030000 		.4byte	.LASF10
 831 0083 04       		.byte	0x4
 832 0084 3F       		.byte	0x3f
 833 0085 89000000 		.4byte	0x89
 834 0089 04       		.uleb128 0x4
 835 008a 04       		.byte	0x4
 836 008b 05       		.byte	0x5
 837 008c BE010000 		.4byte	.LASF11
 838 0090 03       		.uleb128 0x3
 839 0091 75070000 		.4byte	.LASF12
 840 0095 04       		.byte	0x4
 841 0096 41       		.byte	0x41
 842 0097 9B000000 		.4byte	0x9b
 843 009b 04       		.uleb128 0x4
 844 009c 04       		.byte	0x4
 845 009d 07       		.byte	0x7
 846 009e F7060000 		.4byte	.LASF13
 847 00a2 03       		.uleb128 0x3
ARM GAS  /tmp/ccn8STLw.s 			page 16


 848 00a3 4B050000 		.4byte	.LASF14
 849 00a7 04       		.byte	0x4
 850 00a8 5B       		.byte	0x5b
 851 00a9 AD000000 		.4byte	0xad
 852 00ad 04       		.uleb128 0x4
 853 00ae 08       		.byte	0x8
 854 00af 07       		.byte	0x7
 855 00b0 C2000000 		.4byte	.LASF15
 856 00b4 03       		.uleb128 0x3
 857 00b5 3A080000 		.4byte	.LASF16
 858 00b9 05       		.byte	0x5
 859 00ba 15       		.byte	0x15
 860 00bb 53000000 		.4byte	0x53
 861 00bf 03       		.uleb128 0x3
 862 00c0 59030000 		.4byte	.LASF17
 863 00c4 05       		.byte	0x5
 864 00c5 21       		.byte	0x21
 865 00c6 6C000000 		.4byte	0x6c
 866 00ca 03       		.uleb128 0x3
 867 00cb 01060000 		.4byte	.LASF18
 868 00cf 05       		.byte	0x5
 869 00d0 2C       		.byte	0x2c
 870 00d1 7E000000 		.4byte	0x7e
 871 00d5 03       		.uleb128 0x3
 872 00d6 BC060000 		.4byte	.LASF19
 873 00da 05       		.byte	0x5
 874 00db 2D       		.byte	0x2d
 875 00dc 90000000 		.4byte	0x90
 876 00e0 03       		.uleb128 0x3
 877 00e1 50000000 		.4byte	.LASF20
 878 00e5 05       		.byte	0x5
 879 00e6 39       		.byte	0x39
 880 00e7 A2000000 		.4byte	0xa2
 881 00eb 05       		.uleb128 0x5
 882 00ec BF000000 		.4byte	0xbf
 883 00f0 05       		.uleb128 0x5
 884 00f1 CA000000 		.4byte	0xca
 885 00f5 05       		.uleb128 0x5
 886 00f6 D5000000 		.4byte	0xd5
 887 00fa 03       		.uleb128 0x3
 888 00fb DD070000 		.4byte	.LASF21
 889 00ff 06       		.byte	0x6
 890 0100 45       		.byte	0x45
 891 0101 D5000000 		.4byte	0xd5
 892 0105 03       		.uleb128 0x3
 893 0106 51030000 		.4byte	.LASF22
 894 010a 06       		.byte	0x6
 895 010b 48       		.byte	0x48
 896 010c B4000000 		.4byte	0xb4
 897 0110 03       		.uleb128 0x3
 898 0111 D8010000 		.4byte	.LASF23
 899 0115 06       		.byte	0x6
 900 0116 49       		.byte	0x49
 901 0117 B4000000 		.4byte	0xb4
 902 011b 03       		.uleb128 0x3
 903 011c 95050000 		.4byte	.LASF24
 904 0120 06       		.byte	0x6
ARM GAS  /tmp/ccn8STLw.s 			page 17


 905 0121 4A       		.byte	0x4a
 906 0122 B4000000 		.4byte	0xb4
 907 0126 03       		.uleb128 0x3
 908 0127 D1050000 		.4byte	.LASF25
 909 012b 06       		.byte	0x6
 910 012c 4C       		.byte	0x4c
 911 012d D5000000 		.4byte	0xd5
 912 0131 03       		.uleb128 0x3
 913 0132 31030000 		.4byte	.LASF26
 914 0136 06       		.byte	0x6
 915 0137 4D       		.byte	0x4d
 916 0138 CA000000 		.4byte	0xca
 917 013c 03       		.uleb128 0x3
 918 013d 70030000 		.4byte	.LASF27
 919 0141 06       		.byte	0x6
 920 0142 4F       		.byte	0x4f
 921 0143 D5000000 		.4byte	0xd5
 922 0147 03       		.uleb128 0x3
 923 0148 CD040000 		.4byte	.LASF28
 924 014c 06       		.byte	0x6
 925 014d 51       		.byte	0x51
 926 014e CA000000 		.4byte	0xca
 927 0152 03       		.uleb128 0x3
 928 0153 57070000 		.4byte	.LASF29
 929 0157 07       		.byte	0x7
 930 0158 33       		.byte	0x33
 931 0159 D5000000 		.4byte	0xd5
 932 015d 03       		.uleb128 0x3
 933 015e 47070000 		.4byte	.LASF30
 934 0162 07       		.byte	0x7
 935 0163 3F       		.byte	0x3f
 936 0164 68010000 		.4byte	0x168
 937 0168 06       		.uleb128 0x6
 938 0169 21030000 		.4byte	.LASF50
 939 016d 44       		.byte	0x44
 940 016e 08       		.byte	0x8
 941 016f C2       		.byte	0xc2
 942 0170 55020000 		.4byte	0x255
 943 0174 07       		.uleb128 0x7
 944 0175 41060000 		.4byte	.LASF31
 945 0179 08       		.byte	0x8
 946 017a C3       		.byte	0xc3
 947 017b 60020000 		.4byte	0x260
 948 017f 00       		.byte	0
 949 0180 07       		.uleb128 0x7
 950 0181 AD050000 		.4byte	.LASF32
 951 0185 08       		.byte	0x8
 952 0186 C5       		.byte	0xc5
 953 0187 60020000 		.4byte	0x260
 954 018b 04       		.byte	0x4
 955 018c 07       		.uleb128 0x7
 956 018d 32010000 		.4byte	.LASF33
 957 0191 08       		.byte	0x8
 958 0192 C7       		.byte	0xc7
 959 0193 26010000 		.4byte	0x126
 960 0197 08       		.byte	0x8
 961 0198 07       		.uleb128 0x7
ARM GAS  /tmp/ccn8STLw.s 			page 18


 962 0199 C2080000 		.4byte	.LASF34
 963 019d 08       		.byte	0x8
 964 019e C8       		.byte	0xc8
 965 019f 5A050000 		.4byte	0x55a
 966 01a3 0C       		.byte	0xc
 967 01a4 07       		.uleb128 0x7
 968 01a5 FF010000 		.4byte	.LASF35
 969 01a9 08       		.byte	0x8
 970 01aa CA       		.byte	0xca
 971 01ab 60020000 		.4byte	0x260
 972 01af 10       		.byte	0x10
 973 01b0 07       		.uleb128 0x7
 974 01b1 E8040000 		.4byte	.LASF36
 975 01b5 08       		.byte	0x8
 976 01b6 CB       		.byte	0xcb
 977 01b7 60020000 		.4byte	0x260
 978 01bb 14       		.byte	0x14
 979 01bc 07       		.uleb128 0x7
 980 01bd 65060000 		.4byte	.LASF37
 981 01c1 08       		.byte	0x8
 982 01c2 D2       		.byte	0xd2
 983 01c3 9F070000 		.4byte	0x79f
 984 01c7 18       		.byte	0x18
 985 01c8 07       		.uleb128 0x7
 986 01c9 2B060000 		.4byte	.LASF38
 987 01cd 08       		.byte	0x8
 988 01ce DD       		.byte	0xdd
 989 01cf 10010000 		.4byte	0x110
 990 01d3 1C       		.byte	0x1c
 991 01d4 07       		.uleb128 0x7
 992 01d5 54060000 		.4byte	.LASF39
 993 01d9 08       		.byte	0x8
 994 01da E1       		.byte	0xe1
 995 01db 05010000 		.4byte	0x105
 996 01df 1D       		.byte	0x1d
 997 01e0 07       		.uleb128 0x7
 998 01e1 14080000 		.4byte	.LASF40
 999 01e5 08       		.byte	0x8
 1000 01e6 E6       		.byte	0xe6
 1001 01e7 1B010000 		.4byte	0x11b
 1002 01eb 1E       		.byte	0x1e
 1003 01ec 08       		.uleb128 0x8
 1004 01ed 705F7500 		.ascii	"p_u\000"
 1005 01f1 08       		.byte	0x8
 1006 01f2 3101     		.2byte	0x131
 1007 01f4 DA060000 		.4byte	0x6da
 1008 01f8 20       		.byte	0x20
 1009 01f9 09       		.uleb128 0x9
 1010 01fa 7D040000 		.4byte	.LASF41
 1011 01fe 08       		.byte	0x8
 1012 01ff 3601     		.2byte	0x136
 1013 0201 66020000 		.4byte	0x266
 1014 0205 24       		.byte	0x24
 1015 0206 09       		.uleb128 0x9
 1016 0207 D6020000 		.4byte	.LASF42
 1017 020b 08       		.byte	0x8
 1018 020c 3C01     		.2byte	0x13c
ARM GAS  /tmp/ccn8STLw.s 			page 19


 1019 020e 8A020000 		.4byte	0x28a
 1020 0212 28       		.byte	0x28
 1021 0213 09       		.uleb128 0x9
 1022 0214 86080000 		.4byte	.LASF43
 1023 0218 08       		.byte	0x8
 1024 0219 4001     		.2byte	0x140
 1025 021b 31010000 		.4byte	0x131
 1026 021f 30       		.byte	0x30
 1027 0220 09       		.uleb128 0x9
 1028 0221 AC060000 		.4byte	.LASF44
 1029 0225 08       		.byte	0x8
 1030 0226 4601     		.2byte	0x146
 1031 0228 3C010000 		.4byte	0x13c
 1032 022c 34       		.byte	0x34
 1033 022d 09       		.uleb128 0x9
 1034 022e 17060000 		.4byte	.LASF45
 1035 0232 08       		.byte	0x8
 1036 0233 4D01     		.2byte	0x14d
 1037 0235 99070000 		.4byte	0x799
 1038 0239 38       		.byte	0x38
 1039 023a 09       		.uleb128 0x9
 1040 023b 61070000 		.4byte	.LASF46
 1041 023f 08       		.byte	0x8
 1042 0240 5101     		.2byte	0x151
 1043 0242 26010000 		.4byte	0x126
 1044 0246 3C       		.byte	0x3c
 1045 0247 09       		.uleb128 0x9
 1046 0248 7B010000 		.4byte	.LASF47
 1047 024c 08       		.byte	0x8
 1048 024d 5801     		.2byte	0x158
 1049 024f 3D030000 		.4byte	0x33d
 1050 0253 40       		.byte	0x40
 1051 0254 00       		.byte	0
 1052 0255 03       		.uleb128 0x3
 1053 0256 90040000 		.4byte	.LASF48
 1054 025a 07       		.byte	0x7
 1055 025b 44       		.byte	0x44
 1056 025c 60020000 		.4byte	0x260
 1057 0260 0A       		.uleb128 0xa
 1058 0261 04       		.byte	0x4
 1059 0262 5D010000 		.4byte	0x15d
 1060 0266 03       		.uleb128 0x3
 1061 0267 57080000 		.4byte	.LASF49
 1062 026b 07       		.byte	0x7
 1063 026c 49       		.byte	0x49
 1064 026d 71020000 		.4byte	0x271
 1065 0271 06       		.uleb128 0x6
 1066 0272 D4060000 		.4byte	.LASF51
 1067 0276 04       		.byte	0x4
 1068 0277 08       		.byte	0x8
 1069 0278 B0       		.byte	0xb0
 1070 0279 8A020000 		.4byte	0x28a
 1071 027d 07       		.uleb128 0x7
 1072 027e 41060000 		.4byte	.LASF31
 1073 0282 08       		.byte	0x8
 1074 0283 B1       		.byte	0xb1
 1075 0284 60020000 		.4byte	0x260
ARM GAS  /tmp/ccn8STLw.s 			page 20


 1076 0288 00       		.byte	0
 1077 0289 00       		.byte	0
 1078 028a 03       		.uleb128 0x3
 1079 028b FB070000 		.4byte	.LASF52
 1080 028f 07       		.byte	0x7
 1081 0290 50       		.byte	0x50
 1082 0291 95020000 		.4byte	0x295
 1083 0295 06       		.uleb128 0x6
 1084 0296 21010000 		.4byte	.LASF53
 1085 029a 08       		.byte	0x8
 1086 029b 08       		.byte	0x8
 1087 029c B7       		.byte	0xb7
 1088 029d BA020000 		.4byte	0x2ba
 1089 02a1 07       		.uleb128 0x7
 1090 02a2 41060000 		.4byte	.LASF31
 1091 02a6 08       		.byte	0x8
 1092 02a7 B8       		.byte	0xb8
 1093 02a8 60020000 		.4byte	0x260
 1094 02ac 00       		.byte	0
 1095 02ad 07       		.uleb128 0x7
 1096 02ae AD050000 		.4byte	.LASF32
 1097 02b2 08       		.byte	0x8
 1098 02b3 B9       		.byte	0xb9
 1099 02b4 60020000 		.4byte	0x260
 1100 02b8 04       		.byte	0x4
 1101 02b9 00       		.byte	0
 1102 02ba 03       		.uleb128 0x3
 1103 02bb 1D000000 		.4byte	.LASF54
 1104 02bf 07       		.byte	0x7
 1105 02c0 57       		.byte	0x57
 1106 02c1 C5020000 		.4byte	0x2c5
 1107 02c5 0B       		.uleb128 0xb
 1108 02c6 62030000 		.4byte	.LASF55
 1109 02ca 1C       		.byte	0x1c
 1110 02cb 08       		.byte	0x8
 1111 02cc 9001     		.2byte	0x190
 1112 02ce 21030000 		.4byte	0x321
 1113 02d2 09       		.uleb128 0x9
 1114 02d3 CC060000 		.4byte	.LASF56
 1115 02d7 08       		.byte	0x8
 1116 02d8 9101     		.2byte	0x191
 1117 02da 8A020000 		.4byte	0x28a
 1118 02de 00       		.byte	0
 1119 02df 09       		.uleb128 0x9
 1120 02e0 33060000 		.4byte	.LASF57
 1121 02e4 08       		.byte	0x8
 1122 02e5 9201     		.2byte	0x192
 1123 02e7 26010000 		.4byte	0x126
 1124 02eb 08       		.byte	0x8
 1125 02ec 09       		.uleb128 0x9
 1126 02ed F0040000 		.4byte	.LASF58
 1127 02f1 08       		.byte	0x8
 1128 02f2 9401     		.2byte	0x194
 1129 02f4 5A050000 		.4byte	0x55a
 1130 02f8 0C       		.byte	0xc
 1131 02f9 09       		.uleb128 0x9
 1132 02fa 3A020000 		.4byte	.LASF59
ARM GAS  /tmp/ccn8STLw.s 			page 21


 1133 02fe 08       		.byte	0x8
 1134 02ff 9701     		.2byte	0x197
 1135 0301 60020000 		.4byte	0x260
 1136 0305 10       		.byte	0x10
 1137 0306 09       		.uleb128 0x9
 1138 0307 3E050000 		.4byte	.LASF60
 1139 030b 08       		.byte	0x8
 1140 030c 9801     		.2byte	0x198
 1141 030e 60020000 		.4byte	0x260
 1142 0312 14       		.byte	0x14
 1143 0313 09       		.uleb128 0x9
 1144 0314 34050000 		.4byte	.LASF61
 1145 0318 08       		.byte	0x8
 1146 0319 9B01     		.2byte	0x19b
 1147 031b 60020000 		.4byte	0x260
 1148 031f 18       		.byte	0x18
 1149 0320 00       		.byte	0
 1150 0321 03       		.uleb128 0x3
 1151 0322 6C070000 		.4byte	.LASF62
 1152 0326 07       		.byte	0x7
 1153 0327 5C       		.byte	0x5c
 1154 0328 2C030000 		.4byte	0x32c
 1155 032c 0A       		.uleb128 0xa
 1156 032d 04       		.byte	0x4
 1157 032e 32030000 		.4byte	0x332
 1158 0332 0C       		.uleb128 0xc
 1159 0333 3D030000 		.4byte	0x33d
 1160 0337 0D       		.uleb128 0xd
 1161 0338 3D030000 		.4byte	0x33d
 1162 033c 00       		.byte	0
 1163 033d 0E       		.uleb128 0xe
 1164 033e 04       		.byte	0x4
 1165 033f 03       		.uleb128 0x3
 1166 0340 9D050000 		.4byte	.LASF63
 1167 0344 07       		.byte	0x7
 1168 0345 61       		.byte	0x61
 1169 0346 4A030000 		.4byte	0x34a
 1170 034a 0B       		.uleb128 0xb
 1171 034b CC070000 		.4byte	.LASF64
 1172 034f 14       		.byte	0x14
 1173 0350 08       		.byte	0x8
 1174 0351 6B01     		.2byte	0x16b
 1175 0353 99030000 		.4byte	0x399
 1176 0357 09       		.uleb128 0x9
 1177 0358 A5020000 		.4byte	.LASF65
 1178 035c 08       		.byte	0x8
 1179 035d 6C01     		.2byte	0x16c
 1180 035f B1070000 		.4byte	0x7b1
 1181 0363 00       		.byte	0
 1182 0364 09       		.uleb128 0x9
 1183 0365 4B020000 		.4byte	.LASF66
 1184 0369 08       		.byte	0x8
 1185 036a 6D01     		.2byte	0x16d
 1186 036c B1070000 		.4byte	0x7b1
 1187 0370 04       		.byte	0x4
 1188 0371 09       		.uleb128 0x9
 1189 0372 BA020000 		.4byte	.LASF67
ARM GAS  /tmp/ccn8STLw.s 			page 22


 1190 0376 08       		.byte	0x8
 1191 0377 6E01     		.2byte	0x16e
 1192 0379 52010000 		.4byte	0x152
 1193 037d 08       		.byte	0x8
 1194 037e 09       		.uleb128 0x9
 1195 037f C8080000 		.4byte	.LASF68
 1196 0383 08       		.byte	0x8
 1197 0384 6F01     		.2byte	0x16f
 1198 0386 21030000 		.4byte	0x321
 1199 038a 0C       		.byte	0xc
 1200 038b 09       		.uleb128 0x9
 1201 038c F4070000 		.4byte	.LASF69
 1202 0390 08       		.byte	0x8
 1203 0391 7101     		.2byte	0x171
 1204 0393 3D030000 		.4byte	0x33d
 1205 0397 10       		.byte	0x10
 1206 0398 00       		.byte	0
 1207 0399 03       		.uleb128 0x3
 1208 039a ED000000 		.4byte	.LASF70
 1209 039e 07       		.byte	0x7
 1210 039f 66       		.byte	0x66
 1211 03a0 A4030000 		.4byte	0x3a4
 1212 03a4 0B       		.uleb128 0xb
 1213 03a5 A3040000 		.4byte	.LASF71
 1214 03a9 10       		.byte	0x10
 1215 03aa 08       		.byte	0x8
 1216 03ab 7B01     		.2byte	0x17b
 1217 03ad E6030000 		.4byte	0x3e6
 1218 03b1 09       		.uleb128 0x9
 1219 03b2 A5020000 		.4byte	.LASF65
 1220 03b6 08       		.byte	0x8
 1221 03b7 7C01     		.2byte	0x17c
 1222 03b9 B1070000 		.4byte	0x7b1
 1223 03bd 00       		.byte	0
 1224 03be 09       		.uleb128 0x9
 1225 03bf 4B020000 		.4byte	.LASF66
 1226 03c3 08       		.byte	0x8
 1227 03c4 7E01     		.2byte	0x17e
 1228 03c6 B1070000 		.4byte	0x7b1
 1229 03ca 04       		.byte	0x4
 1230 03cb 09       		.uleb128 0x9
 1231 03cc BA020000 		.4byte	.LASF67
 1232 03d0 08       		.byte	0x8
 1233 03d1 8001     		.2byte	0x180
 1234 03d3 52010000 		.4byte	0x152
 1235 03d7 08       		.byte	0x8
 1236 03d8 09       		.uleb128 0x9
 1237 03d9 DC040000 		.4byte	.LASF72
 1238 03dd 08       		.byte	0x8
 1239 03de 8801     		.2byte	0x188
 1240 03e0 52010000 		.4byte	0x152
 1241 03e4 0C       		.byte	0xc
 1242 03e5 00       		.byte	0
 1243 03e6 03       		.uleb128 0x3
 1244 03e7 8A000000 		.4byte	.LASF73
 1245 03eb 07       		.byte	0x7
 1246 03ec 6B       		.byte	0x6b
ARM GAS  /tmp/ccn8STLw.s 			page 23


 1247 03ed F1030000 		.4byte	0x3f1
 1248 03f1 0B       		.uleb128 0xb
 1249 03f2 EB050000 		.4byte	.LASF74
 1250 03f6 04       		.byte	0x4
 1251 03f7 08       		.byte	0x8
 1252 03f8 A201     		.2byte	0x1a2
 1253 03fa 0C040000 		.4byte	0x40c
 1254 03fe 09       		.uleb128 0x9
 1255 03ff A0070000 		.4byte	.LASF75
 1256 0403 08       		.byte	0x8
 1257 0404 AA01     		.2byte	0x1aa
 1258 0406 B7070000 		.4byte	0x7b7
 1259 040a 00       		.byte	0
 1260 040b 00       		.byte	0
 1261 040c 03       		.uleb128 0x3
 1262 040d 37030000 		.4byte	.LASF76
 1263 0411 07       		.byte	0x7
 1264 0412 70       		.byte	0x70
 1265 0413 17040000 		.4byte	0x417
 1266 0417 0F       		.uleb128 0xf
 1267 0418 76060000 		.4byte	.LASF77
 1268 041c D801     		.2byte	0x1d8
 1269 041e 08       		.byte	0x8
 1270 041f C201     		.2byte	0x1c2
 1271 0421 73040000 		.4byte	0x473
 1272 0425 09       		.uleb128 0x9
 1273 0426 34080000 		.4byte	.LASF78
 1274 042a 08       		.byte	0x8
 1275 042b C601     		.2byte	0x1c6
 1276 042d BA020000 		.4byte	0x2ba
 1277 0431 00       		.byte	0
 1278 0432 09       		.uleb128 0x9
 1279 0433 53020000 		.4byte	.LASF79
 1280 0437 08       		.byte	0x8
 1281 0438 CA01     		.2byte	0x1ca
 1282 043a 99030000 		.4byte	0x399
 1283 043e 1C       		.byte	0x1c
 1284 043f 08       		.uleb128 0x8
 1285 0440 64626700 		.ascii	"dbg\000"
 1286 0444 08       		.byte	0x8
 1287 0445 CE01     		.2byte	0x1ce
 1288 0447 E6030000 		.4byte	0x3e6
 1289 044b 2C       		.byte	0x2c
 1290 044c 09       		.uleb128 0x9
 1291 044d E2000000 		.4byte	.LASF80
 1292 0451 08       		.byte	0x8
 1293 0452 D201     		.2byte	0x1d2
 1294 0454 5D010000 		.4byte	0x15d
 1295 0458 30       		.byte	0x30
 1296 0459 08       		.uleb128 0x8
 1297 045a 746D00   		.ascii	"tm\000"
 1298 045d 08       		.byte	0x8
 1299 045e D701     		.2byte	0x1d7
 1300 0460 CF060000 		.4byte	0x6cf
 1301 0464 74       		.byte	0x74
 1302 0465 09       		.uleb128 0x9
 1303 0466 74020000 		.4byte	.LASF81
ARM GAS  /tmp/ccn8STLw.s 			page 24


 1304 046a 08       		.byte	0x8
 1305 046b E301     		.2byte	0x1e3
 1306 046d BC070000 		.4byte	0x7bc
 1307 0471 78       		.byte	0x78
 1308 0472 00       		.byte	0
 1309 0473 04       		.uleb128 0x4
 1310 0474 04       		.byte	0x4
 1311 0475 07       		.byte	0x7
 1312 0476 87040000 		.4byte	.LASF82
 1313 047a 10       		.uleb128 0x10
 1314 047b 18       		.byte	0x18
 1315 047c 09       		.byte	0x9
 1316 047d E9       		.byte	0xe9
 1317 047e CA040000 		.4byte	0x4ca
 1318 0482 11       		.uleb128 0x11
 1319 0483 435200   		.ascii	"CR\000"
 1320 0486 09       		.byte	0x9
 1321 0487 EB       		.byte	0xeb
 1322 0488 F5000000 		.4byte	0xf5
 1323 048c 00       		.byte	0
 1324 048d 07       		.uleb128 0x7
 1325 048e 9B070000 		.4byte	.LASF83
 1326 0492 09       		.byte	0x9
 1327 0493 EC       		.byte	0xec
 1328 0494 F5000000 		.4byte	0xf5
 1329 0498 04       		.byte	0x4
 1330 0499 11       		.uleb128 0x11
 1331 049a 50415200 		.ascii	"PAR\000"
 1332 049e 09       		.byte	0x9
 1333 049f ED       		.byte	0xed
 1334 04a0 F5000000 		.4byte	0xf5
 1335 04a4 08       		.byte	0x8
 1336 04a5 07       		.uleb128 0x7
 1337 04a6 60000000 		.4byte	.LASF84
 1338 04aa 09       		.byte	0x9
 1339 04ab EE       		.byte	0xee
 1340 04ac F5000000 		.4byte	0xf5
 1341 04b0 0C       		.byte	0xc
 1342 04b1 07       		.uleb128 0x7
 1343 04b2 E5070000 		.4byte	.LASF85
 1344 04b6 09       		.byte	0x9
 1345 04b7 EF       		.byte	0xef
 1346 04b8 F5000000 		.4byte	0xf5
 1347 04bc 10       		.byte	0x10
 1348 04bd 11       		.uleb128 0x11
 1349 04be 46435200 		.ascii	"FCR\000"
 1350 04c2 09       		.byte	0x9
 1351 04c3 F0       		.byte	0xf0
 1352 04c4 F5000000 		.4byte	0xf5
 1353 04c8 14       		.byte	0x14
 1354 04c9 00       		.byte	0
 1355 04ca 03       		.uleb128 0x3
 1356 04cb B1070000 		.4byte	.LASF86
 1357 04cf 09       		.byte	0x9
 1358 04d0 F1       		.byte	0xf1
 1359 04d1 7A040000 		.4byte	0x47a
 1360 04d5 12       		.uleb128 0x12
ARM GAS  /tmp/ccn8STLw.s 			page 25


 1361 04d6 1C       		.byte	0x1c
 1362 04d7 09       		.byte	0x9
 1363 04d8 0602     		.2byte	0x206
 1364 04da 38050000 		.4byte	0x538
 1365 04de 08       		.uleb128 0x8
 1366 04df 535200   		.ascii	"SR\000"
 1367 04e2 09       		.byte	0x9
 1368 04e3 0802     		.2byte	0x208
 1369 04e5 F5000000 		.4byte	0xf5
 1370 04e9 00       		.byte	0
 1371 04ea 08       		.uleb128 0x8
 1372 04eb 445200   		.ascii	"DR\000"
 1373 04ee 09       		.byte	0x9
 1374 04ef 0902     		.2byte	0x209
 1375 04f1 F5000000 		.4byte	0xf5
 1376 04f5 04       		.byte	0x4
 1377 04f6 08       		.uleb128 0x8
 1378 04f7 42525200 		.ascii	"BRR\000"
 1379 04fb 09       		.byte	0x9
 1380 04fc 0A02     		.2byte	0x20a
 1381 04fe F5000000 		.4byte	0xf5
 1382 0502 08       		.byte	0x8
 1383 0503 08       		.uleb128 0x8
 1384 0504 43523100 		.ascii	"CR1\000"
 1385 0508 09       		.byte	0x9
 1386 0509 0B02     		.2byte	0x20b
 1387 050b F5000000 		.4byte	0xf5
 1388 050f 0C       		.byte	0xc
 1389 0510 08       		.uleb128 0x8
 1390 0511 43523200 		.ascii	"CR2\000"
 1391 0515 09       		.byte	0x9
 1392 0516 0C02     		.2byte	0x20c
 1393 0518 F5000000 		.4byte	0xf5
 1394 051c 10       		.byte	0x10
 1395 051d 08       		.uleb128 0x8
 1396 051e 43523300 		.ascii	"CR3\000"
 1397 0522 09       		.byte	0x9
 1398 0523 0D02     		.2byte	0x20d
 1399 0525 F5000000 		.4byte	0xf5
 1400 0529 14       		.byte	0x14
 1401 052a 09       		.uleb128 0x9
 1402 052b 46050000 		.4byte	.LASF87
 1403 052f 09       		.byte	0x9
 1404 0530 0E02     		.2byte	0x20e
 1405 0532 F5000000 		.4byte	0xf5
 1406 0536 18       		.byte	0x18
 1407 0537 00       		.byte	0
 1408 0538 13       		.uleb128 0x13
 1409 0539 43030000 		.4byte	.LASF88
 1410 053d 09       		.byte	0x9
 1411 053e 0F02     		.2byte	0x20f
 1412 0540 D5040000 		.4byte	0x4d5
 1413 0544 03       		.uleb128 0x3
 1414 0545 42020000 		.4byte	.LASF89
 1415 0549 0A       		.byte	0xa
 1416 054a 65       		.byte	0x65
 1417 054b 3D030000 		.4byte	0x33d
ARM GAS  /tmp/ccn8STLw.s 			page 26


 1418 054f 03       		.uleb128 0x3
 1419 0550 86030000 		.4byte	.LASF90
 1420 0554 0A       		.byte	0xa
 1421 0555 6D       		.byte	0x6d
 1422 0556 E0000000 		.4byte	0xe0
 1423 055a 06       		.uleb128 0x6
 1424 055b C4070000 		.4byte	.LASF91
 1425 055f 04       		.byte	0x4
 1426 0560 0A       		.byte	0xa
 1427 0561 89       		.byte	0x89
 1428 0562 73050000 		.4byte	0x573
 1429 0566 11       		.uleb128 0x11
 1430 0567 72313300 		.ascii	"r13\000"
 1431 056b 0A       		.byte	0xa
 1432 056c 8A       		.byte	0x8a
 1433 056d B4060000 		.4byte	0x6b4
 1434 0571 00       		.byte	0
 1435 0572 00       		.byte	0
 1436 0573 06       		.uleb128 0x6
 1437 0574 7E000000 		.4byte	.LASF92
 1438 0578 64       		.byte	0x64
 1439 0579 0B       		.byte	0xb
 1440 057a F4       		.byte	0xf4
 1441 057b B4060000 		.4byte	0x6b4
 1442 057f 11       		.uleb128 0x11
 1443 0580 73313600 		.ascii	"s16\000"
 1444 0584 0B       		.byte	0xb
 1445 0585 F6       		.byte	0xf6
 1446 0586 44050000 		.4byte	0x544
 1447 058a 00       		.byte	0
 1448 058b 11       		.uleb128 0x11
 1449 058c 73313700 		.ascii	"s17\000"
 1450 0590 0B       		.byte	0xb
 1451 0591 F7       		.byte	0xf7
 1452 0592 44050000 		.4byte	0x544
 1453 0596 04       		.byte	0x4
 1454 0597 11       		.uleb128 0x11
 1455 0598 73313800 		.ascii	"s18\000"
 1456 059c 0B       		.byte	0xb
 1457 059d F8       		.byte	0xf8
 1458 059e 44050000 		.4byte	0x544
 1459 05a2 08       		.byte	0x8
 1460 05a3 11       		.uleb128 0x11
 1461 05a4 73313900 		.ascii	"s19\000"
 1462 05a8 0B       		.byte	0xb
 1463 05a9 F9       		.byte	0xf9
 1464 05aa 44050000 		.4byte	0x544
 1465 05ae 0C       		.byte	0xc
 1466 05af 11       		.uleb128 0x11
 1467 05b0 73323000 		.ascii	"s20\000"
 1468 05b4 0B       		.byte	0xb
 1469 05b5 FA       		.byte	0xfa
 1470 05b6 44050000 		.4byte	0x544
 1471 05ba 10       		.byte	0x10
 1472 05bb 11       		.uleb128 0x11
 1473 05bc 73323100 		.ascii	"s21\000"
 1474 05c0 0B       		.byte	0xb
ARM GAS  /tmp/ccn8STLw.s 			page 27


 1475 05c1 FB       		.byte	0xfb
 1476 05c2 44050000 		.4byte	0x544
 1477 05c6 14       		.byte	0x14
 1478 05c7 11       		.uleb128 0x11
 1479 05c8 73323200 		.ascii	"s22\000"
 1480 05cc 0B       		.byte	0xb
 1481 05cd FC       		.byte	0xfc
 1482 05ce 44050000 		.4byte	0x544
 1483 05d2 18       		.byte	0x18
 1484 05d3 11       		.uleb128 0x11
 1485 05d4 73323300 		.ascii	"s23\000"
 1486 05d8 0B       		.byte	0xb
 1487 05d9 FD       		.byte	0xfd
 1488 05da 44050000 		.4byte	0x544
 1489 05de 1C       		.byte	0x1c
 1490 05df 11       		.uleb128 0x11
 1491 05e0 73323400 		.ascii	"s24\000"
 1492 05e4 0B       		.byte	0xb
 1493 05e5 FE       		.byte	0xfe
 1494 05e6 44050000 		.4byte	0x544
 1495 05ea 20       		.byte	0x20
 1496 05eb 11       		.uleb128 0x11
 1497 05ec 73323500 		.ascii	"s25\000"
 1498 05f0 0B       		.byte	0xb
 1499 05f1 FF       		.byte	0xff
 1500 05f2 44050000 		.4byte	0x544
 1501 05f6 24       		.byte	0x24
 1502 05f7 08       		.uleb128 0x8
 1503 05f8 73323600 		.ascii	"s26\000"
 1504 05fc 0B       		.byte	0xb
 1505 05fd 0001     		.2byte	0x100
 1506 05ff 44050000 		.4byte	0x544
 1507 0603 28       		.byte	0x28
 1508 0604 08       		.uleb128 0x8
 1509 0605 73323700 		.ascii	"s27\000"
 1510 0609 0B       		.byte	0xb
 1511 060a 0101     		.2byte	0x101
 1512 060c 44050000 		.4byte	0x544
 1513 0610 2C       		.byte	0x2c
 1514 0611 08       		.uleb128 0x8
 1515 0612 73323800 		.ascii	"s28\000"
 1516 0616 0B       		.byte	0xb
 1517 0617 0201     		.2byte	0x102
 1518 0619 44050000 		.4byte	0x544
 1519 061d 30       		.byte	0x30
 1520 061e 08       		.uleb128 0x8
 1521 061f 73323900 		.ascii	"s29\000"
 1522 0623 0B       		.byte	0xb
 1523 0624 0301     		.2byte	0x103
 1524 0626 44050000 		.4byte	0x544
 1525 062a 34       		.byte	0x34
 1526 062b 08       		.uleb128 0x8
 1527 062c 73333000 		.ascii	"s30\000"
 1528 0630 0B       		.byte	0xb
 1529 0631 0401     		.2byte	0x104
 1530 0633 44050000 		.4byte	0x544
 1531 0637 38       		.byte	0x38
ARM GAS  /tmp/ccn8STLw.s 			page 28


 1532 0638 08       		.uleb128 0x8
 1533 0639 73333100 		.ascii	"s31\000"
 1534 063d 0B       		.byte	0xb
 1535 063e 0501     		.2byte	0x105
 1536 0640 44050000 		.4byte	0x544
 1537 0644 3C       		.byte	0x3c
 1538 0645 08       		.uleb128 0x8
 1539 0646 723400   		.ascii	"r4\000"
 1540 0649 0B       		.byte	0xb
 1541 064a 0701     		.2byte	0x107
 1542 064c 44050000 		.4byte	0x544
 1543 0650 40       		.byte	0x40
 1544 0651 08       		.uleb128 0x8
 1545 0652 723500   		.ascii	"r5\000"
 1546 0655 0B       		.byte	0xb
 1547 0656 0801     		.2byte	0x108
 1548 0658 44050000 		.4byte	0x544
 1549 065c 44       		.byte	0x44
 1550 065d 08       		.uleb128 0x8
 1551 065e 723600   		.ascii	"r6\000"
 1552 0661 0B       		.byte	0xb
 1553 0662 0901     		.2byte	0x109
 1554 0664 44050000 		.4byte	0x544
 1555 0668 48       		.byte	0x48
 1556 0669 08       		.uleb128 0x8
 1557 066a 723700   		.ascii	"r7\000"
 1558 066d 0B       		.byte	0xb
 1559 066e 0A01     		.2byte	0x10a
 1560 0670 44050000 		.4byte	0x544
 1561 0674 4C       		.byte	0x4c
 1562 0675 08       		.uleb128 0x8
 1563 0676 723800   		.ascii	"r8\000"
 1564 0679 0B       		.byte	0xb
 1565 067a 0B01     		.2byte	0x10b
 1566 067c 44050000 		.4byte	0x544
 1567 0680 50       		.byte	0x50
 1568 0681 08       		.uleb128 0x8
 1569 0682 723900   		.ascii	"r9\000"
 1570 0685 0B       		.byte	0xb
 1571 0686 0C01     		.2byte	0x10c
 1572 0688 44050000 		.4byte	0x544
 1573 068c 54       		.byte	0x54
 1574 068d 08       		.uleb128 0x8
 1575 068e 72313000 		.ascii	"r10\000"
 1576 0692 0B       		.byte	0xb
 1577 0693 0D01     		.2byte	0x10d
 1578 0695 44050000 		.4byte	0x544
 1579 0699 58       		.byte	0x58
 1580 069a 08       		.uleb128 0x8
 1581 069b 72313100 		.ascii	"r11\000"
 1582 069f 0B       		.byte	0xb
 1583 06a0 0E01     		.2byte	0x10e
 1584 06a2 44050000 		.4byte	0x544
 1585 06a6 5C       		.byte	0x5c
 1586 06a7 08       		.uleb128 0x8
 1587 06a8 6C7200   		.ascii	"lr\000"
 1588 06ab 0B       		.byte	0xb
ARM GAS  /tmp/ccn8STLw.s 			page 29


 1589 06ac 0F01     		.2byte	0x10f
 1590 06ae 44050000 		.4byte	0x544
 1591 06b2 60       		.byte	0x60
 1592 06b3 00       		.byte	0
 1593 06b4 0A       		.uleb128 0xa
 1594 06b5 04       		.byte	0x4
 1595 06b6 73050000 		.4byte	0x573
 1596 06ba 10       		.uleb128 0x10
 1597 06bb 04       		.byte	0x4
 1598 06bc 0C       		.byte	0xc
 1599 06bd 38       		.byte	0x38
 1600 06be CF060000 		.4byte	0x6cf
 1601 06c2 07       		.uleb128 0x7
 1602 06c3 AA070000 		.4byte	.LASF93
 1603 06c7 0C       		.byte	0xc
 1604 06c8 3C       		.byte	0x3c
 1605 06c9 FA000000 		.4byte	0xfa
 1606 06cd 00       		.byte	0
 1607 06ce 00       		.byte	0
 1608 06cf 03       		.uleb128 0x3
 1609 06d0 15050000 		.4byte	.LASF94
 1610 06d4 0C       		.byte	0xc
 1611 06d5 3D       		.byte	0x3d
 1612 06d6 BA060000 		.4byte	0x6ba
 1613 06da 14       		.uleb128 0x14
 1614 06db 04       		.byte	0x4
 1615 06dc 08       		.byte	0x8
 1616 06dd FA       		.byte	0xfa
 1617 06de 37070000 		.4byte	0x737
 1618 06e2 15       		.uleb128 0x15
 1619 06e3 49000000 		.4byte	.LASF95
 1620 06e7 08       		.byte	0x8
 1621 06e8 0101     		.2byte	0x101
 1622 06ea 31010000 		.4byte	0x131
 1623 06ee 15       		.uleb128 0x15
 1624 06ef D9000000 		.4byte	.LASF96
 1625 06f3 08       		.byte	0x8
 1626 06f4 0801     		.2byte	0x108
 1627 06f6 31010000 		.4byte	0x131
 1628 06fa 15       		.uleb128 0x15
 1629 06fb 4A080000 		.4byte	.LASF97
 1630 06ff 08       		.byte	0x8
 1631 0700 0F01     		.2byte	0x10f
 1632 0702 3D030000 		.4byte	0x33d
 1633 0706 15       		.uleb128 0x15
 1634 0707 BA040000 		.4byte	.LASF98
 1635 070b 08       		.byte	0x8
 1636 070c 1601     		.2byte	0x116
 1637 070e 37070000 		.4byte	0x737
 1638 0712 15       		.uleb128 0x15
 1639 0713 B3020000 		.4byte	.LASF99
 1640 0717 08       		.byte	0x8
 1641 0718 1E01     		.2byte	0x11e
 1642 071a 62070000 		.4byte	0x762
 1643 071e 15       		.uleb128 0x15
 1644 071f C5060000 		.4byte	.LASF100
 1645 0723 08       		.byte	0x8
ARM GAS  /tmp/ccn8STLw.s 			page 30


 1646 0724 2701     		.2byte	0x127
 1647 0726 99070000 		.4byte	0x799
 1648 072a 15       		.uleb128 0x15
 1649 072b 3A060000 		.4byte	.LASF101
 1650 072f 08       		.byte	0x8
 1651 0730 2F01     		.2byte	0x12f
 1652 0732 3C010000 		.4byte	0x13c
 1653 0736 00       		.byte	0
 1654 0737 0A       		.uleb128 0xa
 1655 0738 04       		.byte	0x4
 1656 0739 55020000 		.4byte	0x255
 1657 073d 06       		.uleb128 0x6
 1658 073e 9F060000 		.4byte	.LASF102
 1659 0742 0C       		.byte	0xc
 1660 0743 0D       		.byte	0xd
 1661 0744 34       		.byte	0x34
 1662 0745 62070000 		.4byte	0x762
 1663 0749 07       		.uleb128 0x7
 1664 074a 07020000 		.4byte	.LASF103
 1665 074e 0D       		.byte	0xd
 1666 074f 35       		.byte	0x35
 1667 0750 8A020000 		.4byte	0x28a
 1668 0754 00       		.byte	0
 1669 0755 07       		.uleb128 0x7
 1670 0756 F2020000 		.4byte	.LASF104
 1671 075a 0D       		.byte	0xd
 1672 075b 37       		.byte	0x37
 1673 075c 47010000 		.4byte	0x147
 1674 0760 08       		.byte	0x8
 1675 0761 00       		.byte	0
 1676 0762 0A       		.uleb128 0xa
 1677 0763 04       		.byte	0x4
 1678 0764 3D070000 		.4byte	0x73d
 1679 0768 06       		.uleb128 0x6
 1680 0769 0B080000 		.4byte	.LASF105
 1681 076d 10       		.byte	0x10
 1682 076e 0E       		.byte	0xe
 1683 076f 39       		.byte	0x39
 1684 0770 99070000 		.4byte	0x799
 1685 0774 07       		.uleb128 0x7
 1686 0775 8B010000 		.4byte	.LASF106
 1687 0779 0E       		.byte	0xe
 1688 077a 3A       		.byte	0x3a
 1689 077b 8A020000 		.4byte	0x28a
 1690 077f 00       		.byte	0
 1691 0780 07       		.uleb128 0x7
 1692 0781 AB080000 		.4byte	.LASF107
 1693 0785 0E       		.byte	0xe
 1694 0786 3C       		.byte	0x3c
 1695 0787 60020000 		.4byte	0x260
 1696 078b 08       		.byte	0x8
 1697 078c 07       		.uleb128 0x7
 1698 078d 50070000 		.4byte	.LASF108
 1699 0791 0E       		.byte	0xe
 1700 0792 3E       		.byte	0x3e
 1701 0793 D7070000 		.4byte	0x7d7
 1702 0797 0C       		.byte	0xc
ARM GAS  /tmp/ccn8STLw.s 			page 31


 1703 0798 00       		.byte	0
 1704 0799 0A       		.uleb128 0xa
 1705 079a 04       		.byte	0x4
 1706 079b 68070000 		.4byte	0x768
 1707 079f 0A       		.uleb128 0xa
 1708 07a0 04       		.byte	0x4
 1709 07a1 AC070000 		.4byte	0x7ac
 1710 07a5 04       		.uleb128 0x4
 1711 07a6 01       		.byte	0x1
 1712 07a7 08       		.byte	0x8
 1713 07a8 18070000 		.4byte	.LASF109
 1714 07ac 16       		.uleb128 0x16
 1715 07ad A5070000 		.4byte	0x7a5
 1716 07b1 0A       		.uleb128 0xa
 1717 07b2 04       		.byte	0x4
 1718 07b3 3F030000 		.4byte	0x33f
 1719 07b7 05       		.uleb128 0x5
 1720 07b8 9F070000 		.4byte	0x79f
 1721 07bc 17       		.uleb128 0x17
 1722 07bd 4F050000 		.4byte	0x54f
 1723 07c1 CC070000 		.4byte	0x7cc
 1724 07c5 18       		.uleb128 0x18
 1725 07c6 73040000 		.4byte	0x473
 1726 07ca 2B       		.byte	0x2b
 1727 07cb 00       		.byte	0
 1728 07cc 03       		.uleb128 0x3
 1729 07cd 66020000 		.4byte	.LASF110
 1730 07d1 0E       		.byte	0xe
 1731 07d2 34       		.byte	0x34
 1732 07d3 68070000 		.4byte	0x768
 1733 07d7 0A       		.uleb128 0xa
 1734 07d8 04       		.byte	0x4
 1735 07d9 CC070000 		.4byte	0x7cc
 1736 07dd 10       		.uleb128 0x10
 1737 07de 0C       		.byte	0xc
 1738 07df 0F       		.byte	0xf
 1739 07e0 DA       		.byte	0xda
 1740 07e1 22080000 		.4byte	0x822
 1741 07e5 07       		.uleb128 0x7
 1742 07e6 B1000000 		.4byte	.LASF111
 1743 07ea 0F       		.byte	0xf
 1744 07eb DB       		.byte	0xdb
 1745 07ec 22080000 		.4byte	0x822
 1746 07f0 00       		.byte	0
 1747 07f1 07       		.uleb128 0x7
 1748 07f2 B7060000 		.4byte	.LASF112
 1749 07f6 0F       		.byte	0xf
 1750 07f7 DC       		.byte	0xdc
 1751 07f8 28080000 		.4byte	0x828
 1752 07fc 04       		.byte	0x4
 1753 07fd 07       		.uleb128 0x7
 1754 07fe EB020000 		.4byte	.LASF113
 1755 0802 0F       		.byte	0xf
 1756 0803 DD       		.byte	0xdd
 1757 0804 B4000000 		.4byte	0xb4
 1758 0808 08       		.byte	0x8
 1759 0809 07       		.uleb128 0x7
ARM GAS  /tmp/ccn8STLw.s 			page 32


 1760 080a EA070000 		.4byte	.LASF114
 1761 080e 0F       		.byte	0xf
 1762 080f DF       		.byte	0xdf
 1763 0810 B4000000 		.4byte	0xb4
 1764 0814 09       		.byte	0x9
 1765 0815 07       		.uleb128 0x7
 1766 0816 59000000 		.4byte	.LASF115
 1767 081a 0F       		.byte	0xf
 1768 081b E0       		.byte	0xe0
 1769 081c B4000000 		.4byte	0xb4
 1770 0820 0A       		.byte	0xa
 1771 0821 00       		.byte	0
 1772 0822 0A       		.uleb128 0xa
 1773 0823 04       		.byte	0x4
 1774 0824 CA040000 		.4byte	0x4ca
 1775 0828 0A       		.uleb128 0xa
 1776 0829 04       		.byte	0x4
 1777 082a F5000000 		.4byte	0xf5
 1778 082e 03       		.uleb128 0x3
 1779 082f B4050000 		.4byte	.LASF116
 1780 0833 0F       		.byte	0xf
 1781 0834 E1       		.byte	0xe1
 1782 0835 DD070000 		.4byte	0x7dd
 1783 0839 04       		.uleb128 0x4
 1784 083a 01       		.byte	0x1
 1785 083b 02       		.byte	0x2
 1786 083c FB050000 		.4byte	.LASF117
 1787 0840 0A       		.uleb128 0xa
 1788 0841 04       		.byte	0x4
 1789 0842 46080000 		.4byte	0x846
 1790 0846 16       		.uleb128 0x16
 1791 0847 2E080000 		.4byte	0x82e
 1792 084b 0A       		.uleb128 0xa
 1793 084c 04       		.byte	0x4
 1794 084d 38050000 		.4byte	0x538
 1795 0851 19       		.uleb128 0x19
 1796 0852 01       		.byte	0x1
 1797 0853 5E000000 		.4byte	0x5e
 1798 0857 10       		.byte	0x10
 1799 0858 3D       		.byte	0x3d
 1800 0859 70080000 		.4byte	0x870
 1801 085d 1A       		.uleb128 0x1a
 1802 085e 0B030000 		.4byte	.LASF118
 1803 0862 00       		.byte	0
 1804 0863 1A       		.uleb128 0x1a
 1805 0864 17030000 		.4byte	.LASF119
 1806 0868 01       		.byte	0x1
 1807 0869 1A       		.uleb128 0x1a
 1808 086a 3C070000 		.4byte	.LASF120
 1809 086e 02       		.byte	0x2
 1810 086f 00       		.byte	0
 1811 0870 03       		.uleb128 0x3
 1812 0871 48060000 		.4byte	.LASF121
 1813 0875 10       		.byte	0x10
 1814 0876 41       		.byte	0x41
 1815 0877 51080000 		.4byte	0x851
 1816 087b 19       		.uleb128 0x19
ARM GAS  /tmp/ccn8STLw.s 			page 33


 1817 087c 01       		.byte	0x1
 1818 087d 5E000000 		.4byte	0x5e
 1819 0881 10       		.byte	0x10
 1820 0882 46       		.byte	0x46
 1821 0883 9A080000 		.4byte	0x89a
 1822 0887 1A       		.uleb128 0x1a
 1823 0888 8E070000 		.4byte	.LASF122
 1824 088c 00       		.byte	0
 1825 088d 1A       		.uleb128 0x1a
 1826 088e 83020000 		.4byte	.LASF123
 1827 0892 01       		.byte	0x1
 1828 0893 1A       		.uleb128 0x1a
 1829 0894 8E060000 		.4byte	.LASF124
 1830 0898 02       		.byte	0x2
 1831 0899 00       		.byte	0
 1832 089a 03       		.uleb128 0x3
 1833 089b 26050000 		.4byte	.LASF125
 1834 089f 10       		.byte	0x10
 1835 08a0 4A       		.byte	0x4a
 1836 08a1 7B080000 		.4byte	0x87b
 1837 08a5 19       		.uleb128 0x19
 1838 08a6 01       		.byte	0x1
 1839 08a7 5E000000 		.4byte	0x5e
 1840 08ab 10       		.byte	0x10
 1841 08ac 4F       		.byte	0x4f
 1842 08ad C4080000 		.4byte	0x8c4
 1843 08b1 1A       		.uleb128 0x1a
 1844 08b2 24070000 		.4byte	.LASF126
 1845 08b6 00       		.byte	0
 1846 08b7 1A       		.uleb128 0x1a
 1847 08b8 B3080000 		.4byte	.LASF127
 1848 08bc 01       		.byte	0x1
 1849 08bd 1A       		.uleb128 0x1a
 1850 08be 93010000 		.4byte	.LASF128
 1851 08c2 02       		.byte	0x2
 1852 08c3 00       		.byte	0
 1853 08c4 03       		.uleb128 0x3
 1854 08c5 0F020000 		.4byte	.LASF129
 1855 08c9 10       		.byte	0x10
 1856 08ca 53       		.byte	0x53
 1857 08cb A5080000 		.4byte	0x8a5
 1858 08cf 13       		.uleb128 0x13
 1859 08d0 F6040000 		.4byte	.LASF130
 1860 08d4 11       		.byte	0x11
 1861 08d5 B101     		.2byte	0x1b1
 1862 08d7 D5000000 		.4byte	0xd5
 1863 08db 13       		.uleb128 0x13
 1864 08dc 2F020000 		.4byte	.LASF131
 1865 08e0 11       		.byte	0x11
 1866 08e1 B601     		.2byte	0x1b6
 1867 08e3 E7080000 		.4byte	0x8e7
 1868 08e7 0B       		.uleb128 0xb
 1869 08e8 2F020000 		.4byte	.LASF131
 1870 08ec 1C       		.byte	0x1c
 1871 08ed 11       		.byte	0x11
 1872 08ee FE01     		.2byte	0x1fe
 1873 08f0 6A090000 		.4byte	0x96a
ARM GAS  /tmp/ccn8STLw.s 			page 34


 1874 08f4 09       		.uleb128 0x9
 1875 08f5 B0010000 		.4byte	.LASF132
 1876 08f9 11       		.byte	0x11
 1877 08fa 0202     		.2byte	0x202
 1878 08fc 70080000 		.4byte	0x870
 1879 0900 00       		.byte	0
 1880 0901 09       		.uleb128 0x9
 1881 0902 B6010000 		.4byte	.LASF133
 1882 0906 11       		.byte	0x11
 1883 0907 0602     		.2byte	0x206
 1884 0909 9A080000 		.4byte	0x89a
 1885 090d 01       		.byte	0x1
 1886 090e 09       		.uleb128 0x9
 1887 090f 83010000 		.4byte	.LASF134
 1888 0913 11       		.byte	0x11
 1889 0914 0A02     		.2byte	0x20a
 1890 0916 C4080000 		.4byte	0x8c4
 1891 091a 02       		.byte	0x2
 1892 091b 09       		.uleb128 0x9
 1893 091c 1D070000 		.4byte	.LASF135
 1894 0920 11       		.byte	0x11
 1895 0921 0E02     		.2byte	0x20e
 1896 0923 5C0A0000 		.4byte	0xa5c
 1897 0927 04       		.byte	0x4
 1898 0928 09       		.uleb128 0x9
 1899 0929 92020000 		.4byte	.LASF136
 1900 092d 11       		.byte	0x11
 1901 092e 1602     		.2byte	0x216
 1902 0930 4B080000 		.4byte	0x84b
 1903 0934 08       		.byte	0x8
 1904 0935 09       		.uleb128 0x9
 1905 0936 42080000 		.4byte	.LASF137
 1906 093a 11       		.byte	0x11
 1907 093b 1A02     		.2byte	0x21a
 1908 093d D5000000 		.4byte	0xd5
 1909 0941 0C       		.byte	0xc
 1910 0942 09       		.uleb128 0x9
 1911 0943 17000000 		.4byte	.LASF138
 1912 0947 11       		.byte	0x11
 1913 0948 1E02     		.2byte	0x21e
 1914 094a 40080000 		.4byte	0x840
 1915 094e 10       		.byte	0x10
 1916 094f 09       		.uleb128 0x9
 1917 0950 1D020000 		.4byte	.LASF139
 1918 0954 11       		.byte	0x11
 1919 0955 2202     		.2byte	0x222
 1920 0957 40080000 		.4byte	0x840
 1921 095b 14       		.byte	0x14
 1922 095c 09       		.uleb128 0x9
 1923 095d 1B010000 		.4byte	.LASF140
 1924 0961 11       		.byte	0x11
 1925 0962 2602     		.2byte	0x226
 1926 0964 EB000000 		.4byte	0xeb
 1927 0968 18       		.byte	0x18
 1928 0969 00       		.byte	0
 1929 096a 13       		.uleb128 0x13
 1930 096b 69010000 		.4byte	.LASF141
ARM GAS  /tmp/ccn8STLw.s 			page 35


 1931 096f 11       		.byte	0x11
 1932 0970 BD01     		.2byte	0x1bd
 1933 0972 76090000 		.4byte	0x976
 1934 0976 0A       		.uleb128 0xa
 1935 0977 04       		.byte	0x4
 1936 0978 7C090000 		.4byte	0x97c
 1937 097c 0C       		.uleb128 0xc
 1938 097d 87090000 		.4byte	0x987
 1939 0981 0D       		.uleb128 0xd
 1940 0982 87090000 		.4byte	0x987
 1941 0986 00       		.byte	0
 1942 0987 0A       		.uleb128 0xa
 1943 0988 04       		.byte	0x4
 1944 0989 DB080000 		.4byte	0x8db
 1945 098d 13       		.uleb128 0x13
 1946 098e E4060000 		.4byte	.LASF142
 1947 0992 11       		.byte	0x11
 1948 0993 C501     		.2byte	0x1c5
 1949 0995 99090000 		.4byte	0x999
 1950 0999 0A       		.uleb128 0xa
 1951 099a 04       		.byte	0x4
 1952 099b 9F090000 		.4byte	0x99f
 1953 099f 0C       		.uleb128 0xc
 1954 09a0 AF090000 		.4byte	0x9af
 1955 09a4 0D       		.uleb128 0xd
 1956 09a5 87090000 		.4byte	0x987
 1957 09a9 0D       		.uleb128 0xd
 1958 09aa BF000000 		.4byte	0xbf
 1959 09ae 00       		.byte	0
 1960 09af 13       		.uleb128 0x13
 1961 09b0 E1020000 		.4byte	.LASF143
 1962 09b4 11       		.byte	0x11
 1963 09b5 CD01     		.2byte	0x1cd
 1964 09b7 BB090000 		.4byte	0x9bb
 1965 09bb 0A       		.uleb128 0xa
 1966 09bc 04       		.byte	0x4
 1967 09bd C1090000 		.4byte	0x9c1
 1968 09c1 0C       		.uleb128 0xc
 1969 09c2 D1090000 		.4byte	0x9d1
 1970 09c6 0D       		.uleb128 0xd
 1971 09c7 87090000 		.4byte	0x987
 1972 09cb 0D       		.uleb128 0xd
 1973 09cc CF080000 		.4byte	0x8cf
 1974 09d0 00       		.byte	0
 1975 09d1 12       		.uleb128 0x12
 1976 09d2 20       		.byte	0x20
 1977 09d3 11       		.byte	0x11
 1978 09d4 D301     		.2byte	0x1d3
 1979 09d6 500A0000 		.4byte	0xa50
 1980 09da 09       		.uleb128 0x9
 1981 09db 1B080000 		.4byte	.LASF144
 1982 09df 11       		.byte	0x11
 1983 09e0 D701     		.2byte	0x1d7
 1984 09e2 6A090000 		.4byte	0x96a
 1985 09e6 00       		.byte	0
 1986 09e7 09       		.uleb128 0x9
 1987 09e8 C7050000 		.4byte	.LASF145
ARM GAS  /tmp/ccn8STLw.s 			page 36


 1988 09ec 11       		.byte	0x11
 1989 09ed DB01     		.2byte	0x1db
 1990 09ef 6A090000 		.4byte	0x96a
 1991 09f3 04       		.byte	0x4
 1992 09f4 09       		.uleb128 0x9
 1993 09f5 0C050000 		.4byte	.LASF146
 1994 09f9 11       		.byte	0x11
 1995 09fa DF01     		.2byte	0x1df
 1996 09fc 6A090000 		.4byte	0x96a
 1997 0a00 08       		.byte	0x8
 1998 0a01 09       		.uleb128 0x9
 1999 0a02 3F000000 		.4byte	.LASF147
 2000 0a06 11       		.byte	0x11
 2001 0a07 E301     		.2byte	0x1e3
 2002 0a09 8D090000 		.4byte	0x98d
 2003 0a0d 0C       		.byte	0xc
 2004 0a0e 09       		.uleb128 0x9
 2005 0a0f D3040000 		.4byte	.LASF148
 2006 0a13 11       		.byte	0x11
 2007 0a14 E701     		.2byte	0x1e7
 2008 0a16 AF090000 		.4byte	0x9af
 2009 0a1a 10       		.byte	0x10
 2010 0a1b 09       		.uleb128 0x9
 2011 0a1c 51080000 		.4byte	.LASF149
 2012 0a20 11       		.byte	0x11
 2013 0a21 EC01     		.2byte	0x1ec
 2014 0a23 D5000000 		.4byte	0xd5
 2015 0a27 14       		.byte	0x14
 2016 0a28 08       		.uleb128 0x8
 2017 0a29 63723100 		.ascii	"cr1\000"
 2018 0a2d 11       		.byte	0x11
 2019 0a2e F001     		.2byte	0x1f0
 2020 0a30 BF000000 		.4byte	0xbf
 2021 0a34 18       		.byte	0x18
 2022 0a35 08       		.uleb128 0x8
 2023 0a36 63723200 		.ascii	"cr2\000"
 2024 0a3a 11       		.byte	0x11
 2025 0a3b F401     		.2byte	0x1f4
 2026 0a3d BF000000 		.4byte	0xbf
 2027 0a41 1A       		.byte	0x1a
 2028 0a42 08       		.uleb128 0x8
 2029 0a43 63723300 		.ascii	"cr3\000"
 2030 0a47 11       		.byte	0x11
 2031 0a48 F801     		.2byte	0x1f8
 2032 0a4a BF000000 		.4byte	0xbf
 2033 0a4e 1C       		.byte	0x1c
 2034 0a4f 00       		.byte	0
 2035 0a50 13       		.uleb128 0x13
 2036 0a51 03010000 		.4byte	.LASF150
 2037 0a55 11       		.byte	0x11
 2038 0a56 F901     		.2byte	0x1f9
 2039 0a58 D1090000 		.4byte	0x9d1
 2040 0a5c 0A       		.uleb128 0xa
 2041 0a5d 04       		.byte	0x4
 2042 0a5e 620A0000 		.4byte	0xa62
 2043 0a62 16       		.uleb128 0x16
 2044 0a63 500A0000 		.4byte	0xa50
ARM GAS  /tmp/ccn8STLw.s 			page 37


 2045 0a67 1B       		.uleb128 0x1b
 2046 0a68 80070000 		.4byte	.LASF154
 2047 0a6c 02       		.byte	0x2
 2048 0a6d 2002     		.2byte	0x220
 2049 0a6f 03       		.byte	0x3
 2050 0a70 810A0000 		.4byte	0xa81
 2051 0a74 1C       		.uleb128 0x1c
 2052 0a75 6E020000 		.4byte	.LASF184
 2053 0a79 02       		.byte	0x2
 2054 0a7a 2002     		.2byte	0x220
 2055 0a7c D5000000 		.4byte	0xd5
 2056 0a80 00       		.byte	0
 2057 0a81 1D       		.uleb128 0x1d
 2058 0a82 B8000000 		.4byte	.LASF151
 2059 0a86 0B       		.byte	0xb
 2060 0a87 BC01     		.2byte	0x1bc
 2061 0a89 03       		.byte	0x3
 2062 0a8a 1D       		.uleb128 0x1d
 2063 0a8b A4010000 		.4byte	.LASF152
 2064 0a8f 0B       		.byte	0xb
 2065 0a90 CA01     		.2byte	0x1ca
 2066 0a92 03       		.byte	0x3
 2067 0a93 1D       		.uleb128 0x1d
 2068 0a94 6C060000 		.4byte	.LASF153
 2069 0a98 12       		.byte	0x12
 2070 0a99 5A01     		.2byte	0x15a
 2071 0a9b 03       		.byte	0x3
 2072 0a9c 1B       		.uleb128 0x1b
 2073 0a9d 7A080000 		.4byte	.LASF155
 2074 0aa1 12       		.byte	0x12
 2075 0aa2 6601     		.2byte	0x166
 2076 0aa4 03       		.byte	0x3
 2077 0aa5 B70A0000 		.4byte	0xab7
 2078 0aa9 1E       		.uleb128 0x1e
 2079 0aaa 5C060000 		.4byte	.LASF163
 2080 0aae C70A0000 		.4byte	0xac7
 2081 0ab2 7A080000 		.4byte	.LASF155
 2082 0ab6 00       		.byte	0
 2083 0ab7 17       		.uleb128 0x17
 2084 0ab8 A5070000 		.4byte	0x7a5
 2085 0abc C70A0000 		.4byte	0xac7
 2086 0ac0 18       		.uleb128 0x18
 2087 0ac1 73040000 		.4byte	0x473
 2088 0ac5 0B       		.byte	0xb
 2089 0ac6 00       		.byte	0
 2090 0ac7 16       		.uleb128 0x16
 2091 0ac8 B70A0000 		.4byte	0xab7
 2092 0acc 1D       		.uleb128 0x1d
 2093 0acd 80060000 		.4byte	.LASF156
 2094 0ad1 13       		.byte	0x13
 2095 0ad2 C801     		.2byte	0x1c8
 2096 0ad4 03       		.byte	0x3
 2097 0ad5 1D       		.uleb128 0x1d
 2098 0ad6 5A020000 		.4byte	.LASF157
 2099 0ada 13       		.byte	0x13
 2100 0adb BD01     		.2byte	0x1bd
 2101 0add 03       		.byte	0x3
ARM GAS  /tmp/ccn8STLw.s 			page 38


 2102 0ade 1F       		.uleb128 0x1f
 2103 0adf 72010000 		.4byte	.LASF158
 2104 0ae3 01       		.byte	0x1
 2105 0ae4 38       		.byte	0x38
 2106 0ae5 00000000 		.4byte	.LFB260
 2107 0ae9 04000000 		.4byte	.LFE260-.LFB260
 2108 0aed 01       		.uleb128 0x1
 2109 0aee 9C       		.byte	0x9c
 2110 0aef FD0A0000 		.4byte	0xafd
 2111 0af3 20       		.uleb128 0x20
 2112 0af4 04000000 		.4byte	.LVL0
 2113 0af8 67130000 		.4byte	0x1367
 2114 0afc 00       		.byte	0
 2115 0afd 1F       		.uleb128 0x1f
 2116 0afe 6F000000 		.4byte	.LASF159
 2117 0b02 01       		.byte	0x1
 2118 0b03 44       		.byte	0x44
 2119 0b04 00000000 		.4byte	.LFB261
 2120 0b08 0E000000 		.4byte	.LFE261-.LFB261
 2121 0b0c 01       		.uleb128 0x1
 2122 0b0d 9C       		.byte	0x9c
 2123 0b0e 200B0000 		.4byte	0xb20
 2124 0b12 21       		.uleb128 0x21
 2125 0b13 2B030000 		.4byte	.LASF161
 2126 0b17 01       		.byte	0x1
 2127 0b18 44       		.byte	0x44
 2128 0b19 87090000 		.4byte	0x987
 2129 0b1d 01       		.uleb128 0x1
 2130 0b1e 50       		.byte	0x50
 2131 0b1f 00       		.byte	0
 2132 0b20 1F       		.uleb128 0x1f
 2133 0b21 02050000 		.4byte	.LASF160
 2134 0b25 01       		.byte	0x1
 2135 0b26 58       		.byte	0x58
 2136 0b27 00000000 		.4byte	.LFB262
 2137 0b2b 1C000000 		.4byte	.LFE262-.LFB262
 2138 0b2f 01       		.uleb128 0x1
 2139 0b30 9C       		.byte	0x9c
 2140 0b31 160C0000 		.4byte	0xc16
 2141 0b35 22       		.uleb128 0x22
 2142 0b36 2B030000 		.4byte	.LASF161
 2143 0b3a 01       		.byte	0x1
 2144 0b3b 58       		.byte	0x58
 2145 0b3c 87090000 		.4byte	0x987
 2146 0b40 00000000 		.4byte	.LLST0
 2147 0b44 22       		.uleb128 0x22
 2148 0b45 1D070000 		.4byte	.LASF135
 2149 0b49 01       		.byte	0x1
 2150 0b4a 58       		.byte	0x58
 2151 0b4b 5C0A0000 		.4byte	0xa5c
 2152 0b4f 1E000000 		.4byte	.LLST1
 2153 0b53 23       		.uleb128 0x23
 2154 0b54 5C060000 		.4byte	.LASF163
 2155 0b58 260C0000 		.4byte	0xc26
 2156 0b5c 24       		.uleb128 0x24
 2157 0b5d D50A0000 		.4byte	0xad5
 2158 0b61 02000000 		.4byte	.LBB102
ARM GAS  /tmp/ccn8STLw.s 			page 39


 2159 0b65 00000000 		.4byte	.Ldebug_ranges0+0
 2160 0b69 01       		.byte	0x1
 2161 0b6a 5C       		.byte	0x5c
 2162 0b6b A90B0000 		.4byte	0xba9
 2163 0b6f 25       		.uleb128 0x25
 2164 0b70 930A0000 		.4byte	0xa93
 2165 0b74 02000000 		.4byte	.LBB103
 2166 0b78 00000000 		.4byte	.Ldebug_ranges0+0
 2167 0b7c 13       		.byte	0x13
 2168 0b7d BF01     		.2byte	0x1bf
 2169 0b7f 25       		.uleb128 0x25
 2170 0b80 810A0000 		.4byte	0xa81
 2171 0b84 02000000 		.4byte	.LBB104
 2172 0b88 00000000 		.4byte	.Ldebug_ranges0+0
 2173 0b8c 12       		.byte	0x12
 2174 0b8d 5C01     		.2byte	0x15c
 2175 0b8f 25       		.uleb128 0x25
 2176 0b90 670A0000 		.4byte	0xa67
 2177 0b94 02000000 		.4byte	.LBB105
 2178 0b98 00000000 		.4byte	.Ldebug_ranges0+0
 2179 0b9c 0B       		.byte	0xb
 2180 0b9d BF01     		.2byte	0x1bf
 2181 0b9f 26       		.uleb128 0x26
 2182 0ba0 740A0000 		.4byte	0xa74
 2183 0ba4 20       		.byte	0x20
 2184 0ba5 00       		.byte	0
 2185 0ba6 00       		.byte	0
 2186 0ba7 00       		.byte	0
 2187 0ba8 00       		.byte	0
 2188 0ba9 27       		.uleb128 0x27
 2189 0baa CC0A0000 		.4byte	0xacc
 2190 0bae 14000000 		.4byte	.LBB112
 2191 0bb2 08000000 		.4byte	.LBE112-.LBB112
 2192 0bb6 01       		.byte	0x1
 2193 0bb7 63       		.byte	0x63
 2194 0bb8 050C0000 		.4byte	0xc05
 2195 0bbc 28       		.uleb128 0x28
 2196 0bbd 9C0A0000 		.4byte	0xa9c
 2197 0bc1 14000000 		.4byte	.LBB113
 2198 0bc5 08000000 		.4byte	.LBE113-.LBB113
 2199 0bc9 13       		.byte	0x13
 2200 0bca CA01     		.2byte	0x1ca
 2201 0bcc 29       		.uleb128 0x29
 2202 0bcd 14000000 		.4byte	.LBB114
 2203 0bd1 08000000 		.4byte	.LBE114-.LBB114
 2204 0bd5 2A       		.uleb128 0x2a
 2205 0bd6 A90A0000 		.4byte	0xaa9
 2206 0bda 28       		.uleb128 0x28
 2207 0bdb 8A0A0000 		.4byte	0xa8a
 2208 0bdf 14000000 		.4byte	.LBB115
 2209 0be3 08000000 		.4byte	.LBE115-.LBB115
 2210 0be7 12       		.byte	0x12
 2211 0be8 7301     		.2byte	0x173
 2212 0bea 28       		.uleb128 0x28
 2213 0beb 670A0000 		.4byte	0xa67
 2214 0bef 14000000 		.4byte	.LBB116
 2215 0bf3 08000000 		.4byte	.LBE116-.LBB116
ARM GAS  /tmp/ccn8STLw.s 			page 40


 2216 0bf7 0B       		.byte	0xb
 2217 0bf8 CD01     		.2byte	0x1cd
 2218 0bfa 26       		.uleb128 0x26
 2219 0bfb 740A0000 		.4byte	0xa74
 2220 0bff 00       		.byte	0
 2221 0c00 00       		.byte	0
 2222 0c01 00       		.byte	0
 2223 0c02 00       		.byte	0
 2224 0c03 00       		.byte	0
 2225 0c04 00       		.byte	0
 2226 0c05 2B       		.uleb128 0x2b
 2227 0c06 10000000 		.4byte	.LVL3
 2228 0c0a 73130000 		.4byte	0x1373
 2229 0c0e 2C       		.uleb128 0x2c
 2230 0c0f 01       		.uleb128 0x1
 2231 0c10 50       		.byte	0x50
 2232 0c11 02       		.uleb128 0x2
 2233 0c12 74       		.byte	0x74
 2234 0c13 00       		.sleb128 0
 2235 0c14 00       		.byte	0
 2236 0c15 00       		.byte	0
 2237 0c16 17       		.uleb128 0x17
 2238 0c17 A5070000 		.4byte	0x7a5
 2239 0c1b 260C0000 		.4byte	0xc26
 2240 0c1f 18       		.uleb128 0x18
 2241 0c20 73040000 		.4byte	0x473
 2242 0c24 09       		.byte	0x9
 2243 0c25 00       		.byte	0
 2244 0c26 16       		.uleb128 0x16
 2245 0c27 160C0000 		.4byte	0xc16
 2246 0c2b 1F       		.uleb128 0x1f
 2247 0c2c EE060000 		.4byte	.LASF162
 2248 0c30 01       		.byte	0x1
 2249 0c31 6D       		.byte	0x6d
 2250 0c32 00000000 		.4byte	.LFB263
 2251 0c36 1E000000 		.4byte	.LFE263-.LFB263
 2252 0c3a 01       		.uleb128 0x1
 2253 0c3b 9C       		.byte	0x9c
 2254 0c3c 120D0000 		.4byte	0xd12
 2255 0c40 22       		.uleb128 0x22
 2256 0c41 2B030000 		.4byte	.LASF161
 2257 0c45 01       		.byte	0x1
 2258 0c46 6D       		.byte	0x6d
 2259 0c47 87090000 		.4byte	0x987
 2260 0c4b 3F000000 		.4byte	.LLST2
 2261 0c4f 23       		.uleb128 0x23
 2262 0c50 5C060000 		.4byte	.LASF163
 2263 0c54 220D0000 		.4byte	0xd22
 2264 0c58 24       		.uleb128 0x24
 2265 0c59 D50A0000 		.4byte	0xad5
 2266 0c5d 02000000 		.4byte	.LBB118
 2267 0c61 18000000 		.4byte	.Ldebug_ranges0+0x18
 2268 0c65 01       		.byte	0x1
 2269 0c66 71       		.byte	0x71
 2270 0c67 A50C0000 		.4byte	0xca5
 2271 0c6b 25       		.uleb128 0x25
 2272 0c6c 930A0000 		.4byte	0xa93
ARM GAS  /tmp/ccn8STLw.s 			page 41


 2273 0c70 02000000 		.4byte	.LBB119
 2274 0c74 18000000 		.4byte	.Ldebug_ranges0+0x18
 2275 0c78 13       		.byte	0x13
 2276 0c79 BF01     		.2byte	0x1bf
 2277 0c7b 25       		.uleb128 0x25
 2278 0c7c 810A0000 		.4byte	0xa81
 2279 0c80 02000000 		.4byte	.LBB120
 2280 0c84 18000000 		.4byte	.Ldebug_ranges0+0x18
 2281 0c88 12       		.byte	0x12
 2282 0c89 5C01     		.2byte	0x15c
 2283 0c8b 25       		.uleb128 0x25
 2284 0c8c 670A0000 		.4byte	0xa67
 2285 0c90 02000000 		.4byte	.LBB121
 2286 0c94 18000000 		.4byte	.Ldebug_ranges0+0x18
 2287 0c98 0B       		.byte	0xb
 2288 0c99 BF01     		.2byte	0x1bf
 2289 0c9b 26       		.uleb128 0x26
 2290 0c9c 740A0000 		.4byte	0xa74
 2291 0ca0 20       		.byte	0x20
 2292 0ca1 00       		.byte	0
 2293 0ca2 00       		.byte	0
 2294 0ca3 00       		.byte	0
 2295 0ca4 00       		.byte	0
 2296 0ca5 27       		.uleb128 0x27
 2297 0ca6 CC0A0000 		.4byte	0xacc
 2298 0caa 18000000 		.4byte	.LBB128
 2299 0cae 06000000 		.4byte	.LBE128-.LBB128
 2300 0cb2 01       		.byte	0x1
 2301 0cb3 79       		.byte	0x79
 2302 0cb4 010D0000 		.4byte	0xd01
 2303 0cb8 28       		.uleb128 0x28
 2304 0cb9 9C0A0000 		.4byte	0xa9c
 2305 0cbd 18000000 		.4byte	.LBB129
 2306 0cc1 06000000 		.4byte	.LBE129-.LBB129
 2307 0cc5 13       		.byte	0x13
 2308 0cc6 CA01     		.2byte	0x1ca
 2309 0cc8 29       		.uleb128 0x29
 2310 0cc9 18000000 		.4byte	.LBB130
 2311 0ccd 06000000 		.4byte	.LBE130-.LBB130
 2312 0cd1 2A       		.uleb128 0x2a
 2313 0cd2 A90A0000 		.4byte	0xaa9
 2314 0cd6 28       		.uleb128 0x28
 2315 0cd7 8A0A0000 		.4byte	0xa8a
 2316 0cdb 18000000 		.4byte	.LBB131
 2317 0cdf 06000000 		.4byte	.LBE131-.LBB131
 2318 0ce3 12       		.byte	0x12
 2319 0ce4 7301     		.2byte	0x173
 2320 0ce6 28       		.uleb128 0x28
 2321 0ce7 670A0000 		.4byte	0xa67
 2322 0ceb 18000000 		.4byte	.LBB132
 2323 0cef 06000000 		.4byte	.LBE132-.LBB132
 2324 0cf3 0B       		.byte	0xb
 2325 0cf4 CD01     		.2byte	0x1cd
 2326 0cf6 26       		.uleb128 0x26
 2327 0cf7 740A0000 		.4byte	0xa74
 2328 0cfb 00       		.byte	0
 2329 0cfc 00       		.byte	0
ARM GAS  /tmp/ccn8STLw.s 			page 42


 2330 0cfd 00       		.byte	0
 2331 0cfe 00       		.byte	0
 2332 0cff 00       		.byte	0
 2333 0d00 00       		.byte	0
 2334 0d01 2B       		.uleb128 0x2b
 2335 0d02 0E000000 		.4byte	.LVL6
 2336 0d06 7F130000 		.4byte	0x137f
 2337 0d0a 2C       		.uleb128 0x2c
 2338 0d0b 01       		.uleb128 0x1
 2339 0d0c 50       		.byte	0x50
 2340 0d0d 02       		.uleb128 0x2
 2341 0d0e 74       		.byte	0x74
 2342 0d0f 00       		.sleb128 0
 2343 0d10 00       		.byte	0
 2344 0d11 00       		.byte	0
 2345 0d12 17       		.uleb128 0x17
 2346 0d13 A5070000 		.4byte	0x7a5
 2347 0d17 220D0000 		.4byte	0xd22
 2348 0d1b 18       		.uleb128 0x18
 2349 0d1c 73040000 		.4byte	0x473
 2350 0d20 08       		.byte	0x8
 2351 0d21 00       		.byte	0
 2352 0d22 16       		.uleb128 0x16
 2353 0d23 120D0000 		.4byte	0xd12
 2354 0d27 1F       		.uleb128 0x1f
 2355 0d28 F1010000 		.4byte	.LASF164
 2356 0d2c 01       		.byte	0x1
 2357 0d2d 87       		.byte	0x87
 2358 0d2e 00000000 		.4byte	.LFB264
 2359 0d32 1A000000 		.4byte	.LFE264-.LFB264
 2360 0d36 01       		.uleb128 0x1
 2361 0d37 9C       		.byte	0x9c
 2362 0d38 380E0000 		.4byte	0xe38
 2363 0d3c 22       		.uleb128 0x22
 2364 0d3d 2B030000 		.4byte	.LASF161
 2365 0d41 01       		.byte	0x1
 2366 0d42 87       		.byte	0x87
 2367 0d43 87090000 		.4byte	0x987
 2368 0d47 5D000000 		.4byte	.LLST3
 2369 0d4b 2D       		.uleb128 0x2d
 2370 0d4c 6E00     		.ascii	"n\000"
 2371 0d4e 01       		.byte	0x1
 2372 0d4f 87       		.byte	0x87
 2373 0d50 2C000000 		.4byte	0x2c
 2374 0d54 7B000000 		.4byte	.LLST4
 2375 0d58 22       		.uleb128 0x22
 2376 0d59 AD020000 		.4byte	.LASF165
 2377 0d5d 01       		.byte	0x1
 2378 0d5e 87       		.byte	0x87
 2379 0d5f 380E0000 		.4byte	0xe38
 2380 0d63 9C000000 		.4byte	.LLST5
 2381 0d67 23       		.uleb128 0x23
 2382 0d68 5C060000 		.4byte	.LASF163
 2383 0d6c 4F0E0000 		.4byte	0xe4f
 2384 0d70 24       		.uleb128 0x24
 2385 0d71 D50A0000 		.4byte	0xad5
 2386 0d75 02000000 		.4byte	.LBB134
ARM GAS  /tmp/ccn8STLw.s 			page 43


 2387 0d79 30000000 		.4byte	.Ldebug_ranges0+0x30
 2388 0d7d 01       		.byte	0x1
 2389 0d7e 8B       		.byte	0x8b
 2390 0d7f BD0D0000 		.4byte	0xdbd
 2391 0d83 25       		.uleb128 0x25
 2392 0d84 930A0000 		.4byte	0xa93
 2393 0d88 02000000 		.4byte	.LBB135
 2394 0d8c 30000000 		.4byte	.Ldebug_ranges0+0x30
 2395 0d90 13       		.byte	0x13
 2396 0d91 BF01     		.2byte	0x1bf
 2397 0d93 25       		.uleb128 0x25
 2398 0d94 810A0000 		.4byte	0xa81
 2399 0d98 02000000 		.4byte	.LBB136
 2400 0d9c 30000000 		.4byte	.Ldebug_ranges0+0x30
 2401 0da0 12       		.byte	0x12
 2402 0da1 5C01     		.2byte	0x15c
 2403 0da3 25       		.uleb128 0x25
 2404 0da4 670A0000 		.4byte	0xa67
 2405 0da8 02000000 		.4byte	.LBB137
 2406 0dac 30000000 		.4byte	.Ldebug_ranges0+0x30
 2407 0db0 0B       		.byte	0xb
 2408 0db1 BF01     		.2byte	0x1bf
 2409 0db3 26       		.uleb128 0x26
 2410 0db4 740A0000 		.4byte	0xa74
 2411 0db8 20       		.byte	0x20
 2412 0db9 00       		.byte	0
 2413 0dba 00       		.byte	0
 2414 0dbb 00       		.byte	0
 2415 0dbc 00       		.byte	0
 2416 0dbd 27       		.uleb128 0x27
 2417 0dbe CC0A0000 		.4byte	0xacc
 2418 0dc2 12000000 		.4byte	.LBB144
 2419 0dc6 08000000 		.4byte	.LBE144-.LBB144
 2420 0dca 01       		.byte	0x1
 2421 0dcb 91       		.byte	0x91
 2422 0dcc 190E0000 		.4byte	0xe19
 2423 0dd0 28       		.uleb128 0x28
 2424 0dd1 9C0A0000 		.4byte	0xa9c
 2425 0dd5 12000000 		.4byte	.LBB145
 2426 0dd9 08000000 		.4byte	.LBE145-.LBB145
 2427 0ddd 13       		.byte	0x13
 2428 0dde CA01     		.2byte	0x1ca
 2429 0de0 29       		.uleb128 0x29
 2430 0de1 12000000 		.4byte	.LBB146
 2431 0de5 08000000 		.4byte	.LBE146-.LBB146
 2432 0de9 2A       		.uleb128 0x2a
 2433 0dea A90A0000 		.4byte	0xaa9
 2434 0dee 28       		.uleb128 0x28
 2435 0def 8A0A0000 		.4byte	0xa8a
 2436 0df3 12000000 		.4byte	.LBB147
 2437 0df7 08000000 		.4byte	.LBE147-.LBB147
 2438 0dfb 12       		.byte	0x12
 2439 0dfc 7301     		.2byte	0x173
 2440 0dfe 28       		.uleb128 0x28
 2441 0dff 670A0000 		.4byte	0xa67
 2442 0e03 12000000 		.4byte	.LBB148
 2443 0e07 08000000 		.4byte	.LBE148-.LBB148
ARM GAS  /tmp/ccn8STLw.s 			page 44


 2444 0e0b 0B       		.byte	0xb
 2445 0e0c CD01     		.2byte	0x1cd
 2446 0e0e 26       		.uleb128 0x26
 2447 0e0f 740A0000 		.4byte	0xa74
 2448 0e13 00       		.byte	0
 2449 0e14 00       		.byte	0
 2450 0e15 00       		.byte	0
 2451 0e16 00       		.byte	0
 2452 0e17 00       		.byte	0
 2453 0e18 00       		.byte	0
 2454 0e19 2B       		.uleb128 0x2b
 2455 0e1a 0E000000 		.4byte	.LVL9
 2456 0e1e 8B130000 		.4byte	0x138b
 2457 0e22 2C       		.uleb128 0x2c
 2458 0e23 01       		.uleb128 0x1
 2459 0e24 50       		.byte	0x50
 2460 0e25 02       		.uleb128 0x2
 2461 0e26 74       		.byte	0x74
 2462 0e27 00       		.sleb128 0
 2463 0e28 2C       		.uleb128 0x2c
 2464 0e29 01       		.uleb128 0x1
 2465 0e2a 51       		.byte	0x51
 2466 0e2b 03       		.uleb128 0x3
 2467 0e2c F3       		.byte	0xf3
 2468 0e2d 01       		.uleb128 0x1
 2469 0e2e 51       		.byte	0x51
 2470 0e2f 2C       		.uleb128 0x2c
 2471 0e30 01       		.uleb128 0x1
 2472 0e31 52       		.byte	0x52
 2473 0e32 03       		.uleb128 0x3
 2474 0e33 F3       		.byte	0xf3
 2475 0e34 01       		.uleb128 0x1
 2476 0e35 52       		.byte	0x52
 2477 0e36 00       		.byte	0
 2478 0e37 00       		.byte	0
 2479 0e38 0A       		.uleb128 0xa
 2480 0e39 04       		.byte	0x4
 2481 0e3a 3E0E0000 		.4byte	0xe3e
 2482 0e3e 2E       		.uleb128 0x2e
 2483 0e3f 17       		.uleb128 0x17
 2484 0e40 A5070000 		.4byte	0x7a5
 2485 0e44 4F0E0000 		.4byte	0xe4f
 2486 0e48 18       		.uleb128 0x18
 2487 0e49 73040000 		.4byte	0x473
 2488 0e4d 0D       		.byte	0xd
 2489 0e4e 00       		.byte	0
 2490 0e4f 16       		.uleb128 0x16
 2491 0e50 3F0E0000 		.4byte	0xe3f
 2492 0e54 1F       		.uleb128 0x1f
 2493 0e55 25080000 		.4byte	.LASF166
 2494 0e59 01       		.byte	0x1
 2495 0e5a A0       		.byte	0xa0
 2496 0e5b 00000000 		.4byte	.LFB265
 2497 0e5f 0E000000 		.4byte	.LFE265-.LFB265
 2498 0e63 01       		.uleb128 0x1
 2499 0e64 9C       		.byte	0x9c
 2500 0e65 BC0E0000 		.4byte	0xebc
ARM GAS  /tmp/ccn8STLw.s 			page 45


 2501 0e69 22       		.uleb128 0x22
 2502 0e6a 2B030000 		.4byte	.LASF161
 2503 0e6e 01       		.byte	0x1
 2504 0e6f A0       		.byte	0xa0
 2505 0e70 87090000 		.4byte	0x987
 2506 0e74 BD000000 		.4byte	.LLST6
 2507 0e78 2D       		.uleb128 0x2d
 2508 0e79 6E00     		.ascii	"n\000"
 2509 0e7b 01       		.byte	0x1
 2510 0e7c A0       		.byte	0xa0
 2511 0e7d 2C000000 		.4byte	0x2c
 2512 0e81 DB000000 		.4byte	.LLST7
 2513 0e85 22       		.uleb128 0x22
 2514 0e86 AD020000 		.4byte	.LASF165
 2515 0e8a 01       		.byte	0x1
 2516 0e8b A0       		.byte	0xa0
 2517 0e8c 380E0000 		.4byte	0xe38
 2518 0e90 FC000000 		.4byte	.LLST8
 2519 0e94 23       		.uleb128 0x23
 2520 0e95 5C060000 		.4byte	.LASF163
 2521 0e99 CC0E0000 		.4byte	0xecc
 2522 0e9d 2B       		.uleb128 0x2b
 2523 0e9e 08000000 		.4byte	.LVL12
 2524 0ea2 8B130000 		.4byte	0x138b
 2525 0ea6 2C       		.uleb128 0x2c
 2526 0ea7 01       		.uleb128 0x1
 2527 0ea8 50       		.byte	0x50
 2528 0ea9 02       		.uleb128 0x2
 2529 0eaa 74       		.byte	0x74
 2530 0eab 00       		.sleb128 0
 2531 0eac 2C       		.uleb128 0x2c
 2532 0ead 01       		.uleb128 0x1
 2533 0eae 51       		.byte	0x51
 2534 0eaf 03       		.uleb128 0x3
 2535 0eb0 F3       		.byte	0xf3
 2536 0eb1 01       		.uleb128 0x1
 2537 0eb2 51       		.byte	0x51
 2538 0eb3 2C       		.uleb128 0x2c
 2539 0eb4 01       		.uleb128 0x1
 2540 0eb5 52       		.byte	0x52
 2541 0eb6 03       		.uleb128 0x3
 2542 0eb7 F3       		.byte	0xf3
 2543 0eb8 01       		.uleb128 0x1
 2544 0eb9 52       		.byte	0x52
 2545 0eba 00       		.byte	0
 2546 0ebb 00       		.byte	0
 2547 0ebc 17       		.uleb128 0x17
 2548 0ebd A5070000 		.4byte	0x7a5
 2549 0ec1 CC0E0000 		.4byte	0xecc
 2550 0ec5 18       		.uleb128 0x18
 2551 0ec6 73040000 		.4byte	0x473
 2552 0eca 0E       		.byte	0xe
 2553 0ecb 00       		.byte	0
 2554 0ecc 16       		.uleb128 0x16
 2555 0ecd BC0E0000 		.4byte	0xebc
 2556 0ed1 2F       		.uleb128 0x2f
 2557 0ed2 C0040000 		.4byte	.LASF167
ARM GAS  /tmp/ccn8STLw.s 			page 46


 2558 0ed6 01       		.byte	0x1
 2559 0ed7 B7       		.byte	0xb7
 2560 0ed8 2C000000 		.4byte	0x2c
 2561 0edc 00000000 		.4byte	.LFB266
 2562 0ee0 2A000000 		.4byte	.LFE266-.LFB266
 2563 0ee4 01       		.uleb128 0x1
 2564 0ee5 9C       		.byte	0x9c
 2565 0ee6 C80F0000 		.4byte	0xfc8
 2566 0eea 22       		.uleb128 0x22
 2567 0eeb 2B030000 		.4byte	.LASF161
 2568 0eef 01       		.byte	0x1
 2569 0ef0 B7       		.byte	0xb7
 2570 0ef1 87090000 		.4byte	0x987
 2571 0ef5 1D010000 		.4byte	.LLST9
 2572 0ef9 30       		.uleb128 0x30
 2573 0efa 6E00     		.ascii	"n\000"
 2574 0efc 01       		.byte	0x1
 2575 0efd B8       		.byte	0xb8
 2576 0efe 2C000000 		.4byte	0x2c
 2577 0f02 54010000 		.4byte	.LLST10
 2578 0f06 23       		.uleb128 0x23
 2579 0f07 5C060000 		.4byte	.LASF163
 2580 0f0b D80F0000 		.4byte	0xfd8
 2581 0f0f 27       		.uleb128 0x27
 2582 0f10 D50A0000 		.4byte	0xad5
 2583 0f14 00000000 		.4byte	.LBB150
 2584 0f18 06000000 		.4byte	.LBE150-.LBB150
 2585 0f1c 01       		.byte	0x1
 2586 0f1d BC       		.byte	0xbc
 2587 0f1e 5C0F0000 		.4byte	0xf5c
 2588 0f22 28       		.uleb128 0x28
 2589 0f23 930A0000 		.4byte	0xa93
 2590 0f27 00000000 		.4byte	.LBB151
 2591 0f2b 06000000 		.4byte	.LBE151-.LBB151
 2592 0f2f 13       		.byte	0x13
 2593 0f30 BF01     		.2byte	0x1bf
 2594 0f32 28       		.uleb128 0x28
 2595 0f33 810A0000 		.4byte	0xa81
 2596 0f37 00000000 		.4byte	.LBB152
 2597 0f3b 06000000 		.4byte	.LBE152-.LBB152
 2598 0f3f 12       		.byte	0x12
 2599 0f40 5C01     		.2byte	0x15c
 2600 0f42 28       		.uleb128 0x28
 2601 0f43 670A0000 		.4byte	0xa67
 2602 0f47 00000000 		.4byte	.LBB153
 2603 0f4b 06000000 		.4byte	.LBE153-.LBB153
 2604 0f4f 0B       		.byte	0xb
 2605 0f50 BF01     		.2byte	0x1bf
 2606 0f52 26       		.uleb128 0x26
 2607 0f53 740A0000 		.4byte	0xa74
 2608 0f57 20       		.byte	0x20
 2609 0f58 00       		.byte	0
 2610 0f59 00       		.byte	0
 2611 0f5a 00       		.byte	0
 2612 0f5b 00       		.byte	0
 2613 0f5c 24       		.uleb128 0x24
 2614 0f5d CC0A0000 		.4byte	0xacc
ARM GAS  /tmp/ccn8STLw.s 			page 47


 2615 0f61 0E000000 		.4byte	.LBB155
 2616 0f65 48000000 		.4byte	.Ldebug_ranges0+0x48
 2617 0f69 01       		.byte	0x1
 2618 0f6a C6       		.byte	0xc6
 2619 0f6b B70F0000 		.4byte	0xfb7
 2620 0f6f 25       		.uleb128 0x25
 2621 0f70 9C0A0000 		.4byte	0xa9c
 2622 0f74 0E000000 		.4byte	.LBB156
 2623 0f78 48000000 		.4byte	.Ldebug_ranges0+0x48
 2624 0f7c 13       		.byte	0x13
 2625 0f7d CA01     		.2byte	0x1ca
 2626 0f7f 31       		.uleb128 0x31
 2627 0f80 48000000 		.4byte	.Ldebug_ranges0+0x48
 2628 0f84 2A       		.uleb128 0x2a
 2629 0f85 A90A0000 		.4byte	0xaa9
 2630 0f89 25       		.uleb128 0x25
 2631 0f8a 8A0A0000 		.4byte	0xa8a
 2632 0f8e 0E000000 		.4byte	.LBB158
 2633 0f92 48000000 		.4byte	.Ldebug_ranges0+0x48
 2634 0f96 12       		.byte	0x12
 2635 0f97 7301     		.2byte	0x173
 2636 0f99 25       		.uleb128 0x25
 2637 0f9a 670A0000 		.4byte	0xa67
 2638 0f9e 0E000000 		.4byte	.LBB159
 2639 0fa2 48000000 		.4byte	.Ldebug_ranges0+0x48
 2640 0fa6 0B       		.byte	0xb
 2641 0fa7 CD01     		.2byte	0x1cd
 2642 0fa9 32       		.uleb128 0x32
 2643 0faa 740A0000 		.4byte	0xa74
 2644 0fae 72010000 		.4byte	.LLST11
 2645 0fb2 00       		.byte	0
 2646 0fb3 00       		.byte	0
 2647 0fb4 00       		.byte	0
 2648 0fb5 00       		.byte	0
 2649 0fb6 00       		.byte	0
 2650 0fb7 2B       		.uleb128 0x2b
 2651 0fb8 1E000000 		.4byte	.LVL16
 2652 0fbc 97130000 		.4byte	0x1397
 2653 0fc0 2C       		.uleb128 0x2c
 2654 0fc1 01       		.uleb128 0x1
 2655 0fc2 50       		.byte	0x50
 2656 0fc3 02       		.uleb128 0x2
 2657 0fc4 74       		.byte	0x74
 2658 0fc5 00       		.sleb128 0
 2659 0fc6 00       		.byte	0
 2660 0fc7 00       		.byte	0
 2661 0fc8 17       		.uleb128 0x17
 2662 0fc9 A5070000 		.4byte	0x7a5
 2663 0fcd D80F0000 		.4byte	0xfd8
 2664 0fd1 18       		.uleb128 0x18
 2665 0fd2 73040000 		.4byte	0x473
 2666 0fd6 0C       		.byte	0xc
 2667 0fd7 00       		.byte	0
 2668 0fd8 16       		.uleb128 0x16
 2669 0fd9 C80F0000 		.4byte	0xfc8
 2670 0fdd 2F       		.uleb128 0x2f
 2671 0fde 6F040000 		.4byte	.LASF168
ARM GAS  /tmp/ccn8STLw.s 			page 48


 2672 0fe2 01       		.byte	0x1
 2673 0fe3 D8       		.byte	0xd8
 2674 0fe4 2C000000 		.4byte	0x2c
 2675 0fe8 00000000 		.4byte	.LFB267
 2676 0fec 18000000 		.4byte	.LFE267-.LFB267
 2677 0ff0 01       		.uleb128 0x1
 2678 0ff1 9C       		.byte	0x9c
 2679 0ff2 34100000 		.4byte	0x1034
 2680 0ff6 22       		.uleb128 0x22
 2681 0ff7 2B030000 		.4byte	.LASF161
 2682 0ffb 01       		.byte	0x1
 2683 0ffc D8       		.byte	0xd8
 2684 0ffd 87090000 		.4byte	0x987
 2685 1001 92010000 		.4byte	.LLST12
 2686 1005 23       		.uleb128 0x23
 2687 1006 5C060000 		.4byte	.LASF163
 2688 100a 34100000 		.4byte	0x1034
 2689 100e 29       		.uleb128 0x29
 2690 100f 0E000000 		.4byte	.LBB167
 2691 1013 0A000000 		.4byte	.LBE167-.LBB167
 2692 1017 33       		.uleb128 0x33
 2693 1018 6E00     		.ascii	"n\000"
 2694 101a 01       		.byte	0x1
 2695 101b DF       		.byte	0xdf
 2696 101c 2C000000 		.4byte	0x2c
 2697 1020 01       		.uleb128 0x1
 2698 1021 50       		.byte	0x50
 2699 1022 2B       		.uleb128 0x2b
 2700 1023 12000000 		.4byte	.LVL21
 2701 1027 97130000 		.4byte	0x1397
 2702 102b 2C       		.uleb128 0x2c
 2703 102c 01       		.uleb128 0x1
 2704 102d 50       		.byte	0x50
 2705 102e 02       		.uleb128 0x2
 2706 102f 74       		.byte	0x74
 2707 1030 00       		.sleb128 0
 2708 1031 00       		.byte	0
 2709 1032 00       		.byte	0
 2710 1033 00       		.byte	0
 2711 1034 16       		.uleb128 0x16
 2712 1035 3F0E0000 		.4byte	0xe3f
 2713 1039 1F       		.uleb128 0x1f
 2714 103a 9A080000 		.4byte	.LASF169
 2715 103e 01       		.byte	0x1
 2716 103f F1       		.byte	0xf1
 2717 1040 00000000 		.4byte	.LFB268
 2718 1044 1A000000 		.4byte	.LFE268-.LFB268
 2719 1048 01       		.uleb128 0x1
 2720 1049 9C       		.byte	0x9c
 2721 104a 4A110000 		.4byte	0x114a
 2722 104e 22       		.uleb128 0x22
 2723 104f 2B030000 		.4byte	.LASF161
 2724 1053 01       		.byte	0x1
 2725 1054 F1       		.byte	0xf1
 2726 1055 87090000 		.4byte	0x987
 2727 1059 C9010000 		.4byte	.LLST13
 2728 105d 2D       		.uleb128 0x2d
ARM GAS  /tmp/ccn8STLw.s 			page 49


 2729 105e 6E00     		.ascii	"n\000"
 2730 1060 01       		.byte	0x1
 2731 1061 F1       		.byte	0xf1
 2732 1062 2C000000 		.4byte	0x2c
 2733 1066 E7010000 		.4byte	.LLST14
 2734 106a 22       		.uleb128 0x22
 2735 106b 1B010000 		.4byte	.LASF140
 2736 106f 01       		.byte	0x1
 2737 1070 F1       		.byte	0xf1
 2738 1071 3D030000 		.4byte	0x33d
 2739 1075 08020000 		.4byte	.LLST15
 2740 1079 23       		.uleb128 0x23
 2741 107a 5C060000 		.4byte	.LASF163
 2742 107e 5A110000 		.4byte	0x115a
 2743 1082 24       		.uleb128 0x24
 2744 1083 D50A0000 		.4byte	0xad5
 2745 1087 02000000 		.4byte	.LBB168
 2746 108b 60000000 		.4byte	.Ldebug_ranges0+0x60
 2747 108f 01       		.byte	0x1
 2748 1090 F5       		.byte	0xf5
 2749 1091 CF100000 		.4byte	0x10cf
 2750 1095 25       		.uleb128 0x25
 2751 1096 930A0000 		.4byte	0xa93
 2752 109a 02000000 		.4byte	.LBB169
 2753 109e 60000000 		.4byte	.Ldebug_ranges0+0x60
 2754 10a2 13       		.byte	0x13
 2755 10a3 BF01     		.2byte	0x1bf
 2756 10a5 25       		.uleb128 0x25
 2757 10a6 810A0000 		.4byte	0xa81
 2758 10aa 02000000 		.4byte	.LBB170
 2759 10ae 60000000 		.4byte	.Ldebug_ranges0+0x60
 2760 10b2 12       		.byte	0x12
 2761 10b3 5C01     		.2byte	0x15c
 2762 10b5 25       		.uleb128 0x25
 2763 10b6 670A0000 		.4byte	0xa67
 2764 10ba 02000000 		.4byte	.LBB171
 2765 10be 60000000 		.4byte	.Ldebug_ranges0+0x60
 2766 10c2 0B       		.byte	0xb
 2767 10c3 BF01     		.2byte	0x1bf
 2768 10c5 26       		.uleb128 0x26
 2769 10c6 740A0000 		.4byte	0xa74
 2770 10ca 20       		.byte	0x20
 2771 10cb 00       		.byte	0
 2772 10cc 00       		.byte	0
 2773 10cd 00       		.byte	0
 2774 10ce 00       		.byte	0
 2775 10cf 27       		.uleb128 0x27
 2776 10d0 CC0A0000 		.4byte	0xacc
 2777 10d4 12000000 		.4byte	.LBB178
 2778 10d8 08000000 		.4byte	.LBE178-.LBB178
 2779 10dc 01       		.byte	0x1
 2780 10dd FB       		.byte	0xfb
 2781 10de 2B110000 		.4byte	0x112b
 2782 10e2 28       		.uleb128 0x28
 2783 10e3 9C0A0000 		.4byte	0xa9c
 2784 10e7 12000000 		.4byte	.LBB179
 2785 10eb 08000000 		.4byte	.LBE179-.LBB179
ARM GAS  /tmp/ccn8STLw.s 			page 50


 2786 10ef 13       		.byte	0x13
 2787 10f0 CA01     		.2byte	0x1ca
 2788 10f2 29       		.uleb128 0x29
 2789 10f3 12000000 		.4byte	.LBB180
 2790 10f7 08000000 		.4byte	.LBE180-.LBB180
 2791 10fb 2A       		.uleb128 0x2a
 2792 10fc A90A0000 		.4byte	0xaa9
 2793 1100 28       		.uleb128 0x28
 2794 1101 8A0A0000 		.4byte	0xa8a
 2795 1105 12000000 		.4byte	.LBB181
 2796 1109 08000000 		.4byte	.LBE181-.LBB181
 2797 110d 12       		.byte	0x12
 2798 110e 7301     		.2byte	0x173
 2799 1110 28       		.uleb128 0x28
 2800 1111 670A0000 		.4byte	0xa67
 2801 1115 12000000 		.4byte	.LBB182
 2802 1119 08000000 		.4byte	.LBE182-.LBB182
 2803 111d 0B       		.byte	0xb
 2804 111e CD01     		.2byte	0x1cd
 2805 1120 26       		.uleb128 0x26
 2806 1121 740A0000 		.4byte	0xa74
 2807 1125 00       		.byte	0
 2808 1126 00       		.byte	0
 2809 1127 00       		.byte	0
 2810 1128 00       		.byte	0
 2811 1129 00       		.byte	0
 2812 112a 00       		.byte	0
 2813 112b 2B       		.uleb128 0x2b
 2814 112c 0E000000 		.4byte	.LVL23
 2815 1130 A3130000 		.4byte	0x13a3
 2816 1134 2C       		.uleb128 0x2c
 2817 1135 01       		.uleb128 0x1
 2818 1136 50       		.byte	0x50
 2819 1137 02       		.uleb128 0x2
 2820 1138 74       		.byte	0x74
 2821 1139 00       		.sleb128 0
 2822 113a 2C       		.uleb128 0x2c
 2823 113b 01       		.uleb128 0x1
 2824 113c 51       		.byte	0x51
 2825 113d 03       		.uleb128 0x3
 2826 113e F3       		.byte	0xf3
 2827 113f 01       		.uleb128 0x1
 2828 1140 51       		.byte	0x51
 2829 1141 2C       		.uleb128 0x2c
 2830 1142 01       		.uleb128 0x1
 2831 1143 52       		.byte	0x52
 2832 1144 03       		.uleb128 0x3
 2833 1145 F3       		.byte	0xf3
 2834 1146 01       		.uleb128 0x1
 2835 1147 52       		.byte	0x52
 2836 1148 00       		.byte	0
 2837 1149 00       		.byte	0
 2838 114a 17       		.uleb128 0x17
 2839 114b A5070000 		.4byte	0x7a5
 2840 114f 5A110000 		.4byte	0x115a
 2841 1153 18       		.uleb128 0x18
 2842 1154 73040000 		.4byte	0x473
ARM GAS  /tmp/ccn8STLw.s 			page 51


 2843 1158 10       		.byte	0x10
 2844 1159 00       		.byte	0
 2845 115a 16       		.uleb128 0x16
 2846 115b 4A110000 		.4byte	0x114a
 2847 115f 34       		.uleb128 0x34
 2848 1160 D9050000 		.4byte	.LASF170
 2849 1164 01       		.byte	0x1
 2850 1165 0A01     		.2byte	0x10a
 2851 1167 00000000 		.4byte	.LFB269
 2852 116b 0E000000 		.4byte	.LFE269-.LFB269
 2853 116f 01       		.uleb128 0x1
 2854 1170 9C       		.byte	0x9c
 2855 1171 CB110000 		.4byte	0x11cb
 2856 1175 35       		.uleb128 0x35
 2857 1176 2B030000 		.4byte	.LASF161
 2858 117a 01       		.byte	0x1
 2859 117b 0A01     		.2byte	0x10a
 2860 117d 87090000 		.4byte	0x987
 2861 1181 29020000 		.4byte	.LLST16
 2862 1185 36       		.uleb128 0x36
 2863 1186 6E00     		.ascii	"n\000"
 2864 1188 01       		.byte	0x1
 2865 1189 0A01     		.2byte	0x10a
 2866 118b 2C000000 		.4byte	0x2c
 2867 118f 47020000 		.4byte	.LLST17
 2868 1193 35       		.uleb128 0x35
 2869 1194 1B010000 		.4byte	.LASF140
 2870 1198 01       		.byte	0x1
 2871 1199 0A01     		.2byte	0x10a
 2872 119b 3D030000 		.4byte	0x33d
 2873 119f 68020000 		.4byte	.LLST18
 2874 11a3 23       		.uleb128 0x23
 2875 11a4 5C060000 		.4byte	.LASF163
 2876 11a8 DB110000 		.4byte	0x11db
 2877 11ac 2B       		.uleb128 0x2b
 2878 11ad 08000000 		.4byte	.LVL26
 2879 11b1 A3130000 		.4byte	0x13a3
 2880 11b5 2C       		.uleb128 0x2c
 2881 11b6 01       		.uleb128 0x1
 2882 11b7 50       		.byte	0x50
 2883 11b8 02       		.uleb128 0x2
 2884 11b9 74       		.byte	0x74
 2885 11ba 00       		.sleb128 0
 2886 11bb 2C       		.uleb128 0x2c
 2887 11bc 01       		.uleb128 0x1
 2888 11bd 51       		.byte	0x51
 2889 11be 03       		.uleb128 0x3
 2890 11bf F3       		.byte	0xf3
 2891 11c0 01       		.uleb128 0x1
 2892 11c1 51       		.byte	0x51
 2893 11c2 2C       		.uleb128 0x2c
 2894 11c3 01       		.uleb128 0x1
 2895 11c4 52       		.byte	0x52
 2896 11c5 03       		.uleb128 0x3
 2897 11c6 F3       		.byte	0xf3
 2898 11c7 01       		.uleb128 0x1
 2899 11c8 52       		.byte	0x52
ARM GAS  /tmp/ccn8STLw.s 			page 52


 2900 11c9 00       		.byte	0
 2901 11ca 00       		.byte	0
 2902 11cb 17       		.uleb128 0x17
 2903 11cc A5070000 		.4byte	0x7a5
 2904 11d0 DB110000 		.4byte	0x11db
 2905 11d4 18       		.uleb128 0x18
 2906 11d5 73040000 		.4byte	0x473
 2907 11d9 11       		.byte	0x11
 2908 11da 00       		.byte	0
 2909 11db 16       		.uleb128 0x16
 2910 11dc CB110000 		.4byte	0x11cb
 2911 11e0 37       		.uleb128 0x37
 2912 11e1 E1010000 		.4byte	.LASF171
 2913 11e5 01       		.byte	0x1
 2914 11e6 2101     		.2byte	0x121
 2915 11e8 2C000000 		.4byte	0x2c
 2916 11ec 00000000 		.4byte	.LFB270
 2917 11f0 2A000000 		.4byte	.LFE270-.LFB270
 2918 11f4 01       		.uleb128 0x1
 2919 11f5 9C       		.byte	0x9c
 2920 11f6 DC120000 		.4byte	0x12dc
 2921 11fa 35       		.uleb128 0x35
 2922 11fb 2B030000 		.4byte	.LASF161
 2923 11ff 01       		.byte	0x1
 2924 1200 2101     		.2byte	0x121
 2925 1202 87090000 		.4byte	0x987
 2926 1206 89020000 		.4byte	.LLST19
 2927 120a 38       		.uleb128 0x38
 2928 120b 6E00     		.ascii	"n\000"
 2929 120d 01       		.byte	0x1
 2930 120e 2201     		.2byte	0x122
 2931 1210 2C000000 		.4byte	0x2c
 2932 1214 C0020000 		.4byte	.LLST20
 2933 1218 23       		.uleb128 0x23
 2934 1219 5C060000 		.4byte	.LASF163
 2935 121d EC120000 		.4byte	0x12ec
 2936 1221 39       		.uleb128 0x39
 2937 1222 D50A0000 		.4byte	0xad5
 2938 1226 00000000 		.4byte	.LBB184
 2939 122a 06000000 		.4byte	.LBE184-.LBB184
 2940 122e 01       		.byte	0x1
 2941 122f 2601     		.2byte	0x126
 2942 1231 6F120000 		.4byte	0x126f
 2943 1235 28       		.uleb128 0x28
 2944 1236 930A0000 		.4byte	0xa93
 2945 123a 00000000 		.4byte	.LBB185
 2946 123e 06000000 		.4byte	.LBE185-.LBB185
 2947 1242 13       		.byte	0x13
 2948 1243 BF01     		.2byte	0x1bf
 2949 1245 28       		.uleb128 0x28
 2950 1246 810A0000 		.4byte	0xa81
 2951 124a 00000000 		.4byte	.LBB186
 2952 124e 06000000 		.4byte	.LBE186-.LBB186
 2953 1252 12       		.byte	0x12
 2954 1253 5C01     		.2byte	0x15c
 2955 1255 28       		.uleb128 0x28
 2956 1256 670A0000 		.4byte	0xa67
ARM GAS  /tmp/ccn8STLw.s 			page 53


 2957 125a 00000000 		.4byte	.LBB187
 2958 125e 06000000 		.4byte	.LBE187-.LBB187
 2959 1262 0B       		.byte	0xb
 2960 1263 BF01     		.2byte	0x1bf
 2961 1265 26       		.uleb128 0x26
 2962 1266 740A0000 		.4byte	0xa74
 2963 126a 20       		.byte	0x20
 2964 126b 00       		.byte	0
 2965 126c 00       		.byte	0
 2966 126d 00       		.byte	0
 2967 126e 00       		.byte	0
 2968 126f 3A       		.uleb128 0x3a
 2969 1270 CC0A0000 		.4byte	0xacc
 2970 1274 0E000000 		.4byte	.LBB189
 2971 1278 78000000 		.4byte	.Ldebug_ranges0+0x78
 2972 127c 01       		.byte	0x1
 2973 127d 3001     		.2byte	0x130
 2974 127f CB120000 		.4byte	0x12cb
 2975 1283 25       		.uleb128 0x25
 2976 1284 9C0A0000 		.4byte	0xa9c
 2977 1288 0E000000 		.4byte	.LBB190
 2978 128c 78000000 		.4byte	.Ldebug_ranges0+0x78
 2979 1290 13       		.byte	0x13
 2980 1291 CA01     		.2byte	0x1ca
 2981 1293 31       		.uleb128 0x31
 2982 1294 78000000 		.4byte	.Ldebug_ranges0+0x78
 2983 1298 2A       		.uleb128 0x2a
 2984 1299 A90A0000 		.4byte	0xaa9
 2985 129d 25       		.uleb128 0x25
 2986 129e 8A0A0000 		.4byte	0xa8a
 2987 12a2 0E000000 		.4byte	.LBB192
 2988 12a6 78000000 		.4byte	.Ldebug_ranges0+0x78
 2989 12aa 12       		.byte	0x12
 2990 12ab 7301     		.2byte	0x173
 2991 12ad 25       		.uleb128 0x25
 2992 12ae 670A0000 		.4byte	0xa67
 2993 12b2 0E000000 		.4byte	.LBB193
 2994 12b6 78000000 		.4byte	.Ldebug_ranges0+0x78
 2995 12ba 0B       		.byte	0xb
 2996 12bb CD01     		.2byte	0x1cd
 2997 12bd 32       		.uleb128 0x32
 2998 12be 740A0000 		.4byte	0xa74
 2999 12c2 DE020000 		.4byte	.LLST21
 3000 12c6 00       		.byte	0
 3001 12c7 00       		.byte	0
 3002 12c8 00       		.byte	0
 3003 12c9 00       		.byte	0
 3004 12ca 00       		.byte	0
 3005 12cb 2B       		.uleb128 0x2b
 3006 12cc 1E000000 		.4byte	.LVL30
 3007 12d0 AF130000 		.4byte	0x13af
 3008 12d4 2C       		.uleb128 0x2c
 3009 12d5 01       		.uleb128 0x1
 3010 12d6 50       		.byte	0x50
 3011 12d7 02       		.uleb128 0x2
 3012 12d8 74       		.byte	0x74
 3013 12d9 00       		.sleb128 0
ARM GAS  /tmp/ccn8STLw.s 			page 54


 3014 12da 00       		.byte	0
 3015 12db 00       		.byte	0
 3016 12dc 17       		.uleb128 0x17
 3017 12dd A5070000 		.4byte	0x7a5
 3018 12e1 EC120000 		.4byte	0x12ec
 3019 12e5 18       		.uleb128 0x18
 3020 12e6 73040000 		.4byte	0x473
 3021 12ea 0F       		.byte	0xf
 3022 12eb 00       		.byte	0
 3023 12ec 16       		.uleb128 0x16
 3024 12ed DC120000 		.4byte	0x12dc
 3025 12f1 37       		.uleb128 0x37
 3026 12f2 C7010000 		.4byte	.LASF172
 3027 12f6 01       		.byte	0x1
 3028 12f7 4201     		.2byte	0x142
 3029 12f9 2C000000 		.4byte	0x2c
 3030 12fd 00000000 		.4byte	.LFB271
 3031 1301 18000000 		.4byte	.LFE271-.LFB271
 3032 1305 01       		.uleb128 0x1
 3033 1306 9C       		.byte	0x9c
 3034 1307 4B130000 		.4byte	0x134b
 3035 130b 35       		.uleb128 0x35
 3036 130c 2B030000 		.4byte	.LASF161
 3037 1310 01       		.byte	0x1
 3038 1311 4201     		.2byte	0x142
 3039 1313 87090000 		.4byte	0x987
 3040 1317 FE020000 		.4byte	.LLST22
 3041 131b 23       		.uleb128 0x23
 3042 131c 5C060000 		.4byte	.LASF163
 3043 1320 4B130000 		.4byte	0x134b
 3044 1324 29       		.uleb128 0x29
 3045 1325 0E000000 		.4byte	.LBB201
 3046 1329 0A000000 		.4byte	.LBE201-.LBB201
 3047 132d 3B       		.uleb128 0x3b
 3048 132e 6E00     		.ascii	"n\000"
 3049 1330 01       		.byte	0x1
 3050 1331 4901     		.2byte	0x149
 3051 1333 2C000000 		.4byte	0x2c
 3052 1337 01       		.uleb128 0x1
 3053 1338 50       		.byte	0x50
 3054 1339 2B       		.uleb128 0x2b
 3055 133a 12000000 		.4byte	.LVL35
 3056 133e AF130000 		.4byte	0x13af
 3057 1342 2C       		.uleb128 0x2c
 3058 1343 01       		.uleb128 0x1
 3059 1344 50       		.byte	0x50
 3060 1345 02       		.uleb128 0x2
 3061 1346 74       		.byte	0x74
 3062 1347 00       		.sleb128 0
 3063 1348 00       		.byte	0
 3064 1349 00       		.byte	0
 3065 134a 00       		.byte	0
 3066 134b 16       		.uleb128 0x16
 3067 134c 4A110000 		.4byte	0x114a
 3068 1350 3C       		.uleb128 0x3c
 3069 1351 0E010000 		.4byte	.LASF173
 3070 1355 14       		.byte	0x14
ARM GAS  /tmp/ccn8STLw.s 			page 55


 3071 1356 A706     		.2byte	0x6a7
 3072 1358 F0000000 		.4byte	0xf0
 3073 135c 3D       		.uleb128 0x3d
 3074 135d 636800   		.ascii	"ch\000"
 3075 1360 08       		.byte	0x8
 3076 1361 0902     		.2byte	0x209
 3077 1363 0C040000 		.4byte	0x40c
 3078 1367 3E       		.uleb128 0x3e
 3079 1368 2A000000 		.4byte	.LASF174
 3080 136c 2A000000 		.4byte	.LASF174
 3081 1370 11       		.byte	0x11
 3082 1371 4C02     		.2byte	0x24c
 3083 1373 3E       		.uleb128 0x3e
 3084 1374 09070000 		.4byte	.LASF175
 3085 1378 09070000 		.4byte	.LASF175
 3086 137c 11       		.byte	0x11
 3087 137d 4D02     		.2byte	0x24d
 3088 137f 3E       		.uleb128 0x3e
 3089 1380 8C080000 		.4byte	.LASF176
 3090 1384 8C080000 		.4byte	.LASF176
 3091 1388 11       		.byte	0x11
 3092 1389 4E02     		.2byte	0x24e
 3093 138b 3E       		.uleb128 0x3e
 3094 138c 66080000 		.4byte	.LASF177
 3095 1390 66080000 		.4byte	.LASF177
 3096 1394 11       		.byte	0x11
 3097 1395 4F02     		.2byte	0x24f
 3098 1397 3E       		.uleb128 0x3e
 3099 1398 C3020000 		.4byte	.LASF178
 3100 139c C3020000 		.4byte	.LASF178
 3101 13a0 11       		.byte	0x11
 3102 13a1 5002     		.2byte	0x250
 3103 13a3 3E       		.uleb128 0x3e
 3104 13a4 00000000 		.4byte	.LASF179
 3105 13a8 00000000 		.4byte	.LASF179
 3106 13ac 11       		.byte	0x11
 3107 13ad 5102     		.2byte	0x251
 3108 13af 3E       		.uleb128 0x3e
 3109 13b0 39010000 		.4byte	.LASF180
 3110 13b4 39010000 		.4byte	.LASF180
 3111 13b8 11       		.byte	0x11
 3112 13b9 5202     		.2byte	0x252
 3113 13bb 00       		.byte	0
 3114              		.section	.debug_abbrev,"",%progbits
 3115              	.Ldebug_abbrev0:
 3116 0000 01       		.uleb128 0x1
 3117 0001 11       		.uleb128 0x11
 3118 0002 01       		.byte	0x1
 3119 0003 25       		.uleb128 0x25
 3120 0004 0E       		.uleb128 0xe
 3121 0005 13       		.uleb128 0x13
 3122 0006 0B       		.uleb128 0xb
 3123 0007 03       		.uleb128 0x3
 3124 0008 0E       		.uleb128 0xe
 3125 0009 1B       		.uleb128 0x1b
 3126 000a 0E       		.uleb128 0xe
 3127 000b 55       		.uleb128 0x55
ARM GAS  /tmp/ccn8STLw.s 			page 56


 3128 000c 17       		.uleb128 0x17
 3129 000d 11       		.uleb128 0x11
 3130 000e 01       		.uleb128 0x1
 3131 000f 10       		.uleb128 0x10
 3132 0010 17       		.uleb128 0x17
 3133 0011 00       		.byte	0
 3134 0012 00       		.byte	0
 3135 0013 02       		.uleb128 0x2
 3136 0014 24       		.uleb128 0x24
 3137 0015 00       		.byte	0
 3138 0016 0B       		.uleb128 0xb
 3139 0017 0B       		.uleb128 0xb
 3140 0018 3E       		.uleb128 0x3e
 3141 0019 0B       		.uleb128 0xb
 3142 001a 03       		.uleb128 0x3
 3143 001b 08       		.uleb128 0x8
 3144 001c 00       		.byte	0
 3145 001d 00       		.byte	0
 3146 001e 03       		.uleb128 0x3
 3147 001f 16       		.uleb128 0x16
 3148 0020 00       		.byte	0
 3149 0021 03       		.uleb128 0x3
 3150 0022 0E       		.uleb128 0xe
 3151 0023 3A       		.uleb128 0x3a
 3152 0024 0B       		.uleb128 0xb
 3153 0025 3B       		.uleb128 0x3b
 3154 0026 0B       		.uleb128 0xb
 3155 0027 49       		.uleb128 0x49
 3156 0028 13       		.uleb128 0x13
 3157 0029 00       		.byte	0
 3158 002a 00       		.byte	0
 3159 002b 04       		.uleb128 0x4
 3160 002c 24       		.uleb128 0x24
 3161 002d 00       		.byte	0
 3162 002e 0B       		.uleb128 0xb
 3163 002f 0B       		.uleb128 0xb
 3164 0030 3E       		.uleb128 0x3e
 3165 0031 0B       		.uleb128 0xb
 3166 0032 03       		.uleb128 0x3
 3167 0033 0E       		.uleb128 0xe
 3168 0034 00       		.byte	0
 3169 0035 00       		.byte	0
 3170 0036 05       		.uleb128 0x5
 3171 0037 35       		.uleb128 0x35
 3172 0038 00       		.byte	0
 3173 0039 49       		.uleb128 0x49
 3174 003a 13       		.uleb128 0x13
 3175 003b 00       		.byte	0
 3176 003c 00       		.byte	0
 3177 003d 06       		.uleb128 0x6
 3178 003e 13       		.uleb128 0x13
 3179 003f 01       		.byte	0x1
 3180 0040 03       		.uleb128 0x3
 3181 0041 0E       		.uleb128 0xe
 3182 0042 0B       		.uleb128 0xb
 3183 0043 0B       		.uleb128 0xb
 3184 0044 3A       		.uleb128 0x3a
ARM GAS  /tmp/ccn8STLw.s 			page 57


 3185 0045 0B       		.uleb128 0xb
 3186 0046 3B       		.uleb128 0x3b
 3187 0047 0B       		.uleb128 0xb
 3188 0048 01       		.uleb128 0x1
 3189 0049 13       		.uleb128 0x13
 3190 004a 00       		.byte	0
 3191 004b 00       		.byte	0
 3192 004c 07       		.uleb128 0x7
 3193 004d 0D       		.uleb128 0xd
 3194 004e 00       		.byte	0
 3195 004f 03       		.uleb128 0x3
 3196 0050 0E       		.uleb128 0xe
 3197 0051 3A       		.uleb128 0x3a
 3198 0052 0B       		.uleb128 0xb
 3199 0053 3B       		.uleb128 0x3b
 3200 0054 0B       		.uleb128 0xb
 3201 0055 49       		.uleb128 0x49
 3202 0056 13       		.uleb128 0x13
 3203 0057 38       		.uleb128 0x38
 3204 0058 0B       		.uleb128 0xb
 3205 0059 00       		.byte	0
 3206 005a 00       		.byte	0
 3207 005b 08       		.uleb128 0x8
 3208 005c 0D       		.uleb128 0xd
 3209 005d 00       		.byte	0
 3210 005e 03       		.uleb128 0x3
 3211 005f 08       		.uleb128 0x8
 3212 0060 3A       		.uleb128 0x3a
 3213 0061 0B       		.uleb128 0xb
 3214 0062 3B       		.uleb128 0x3b
 3215 0063 05       		.uleb128 0x5
 3216 0064 49       		.uleb128 0x49
 3217 0065 13       		.uleb128 0x13
 3218 0066 38       		.uleb128 0x38
 3219 0067 0B       		.uleb128 0xb
 3220 0068 00       		.byte	0
 3221 0069 00       		.byte	0
 3222 006a 09       		.uleb128 0x9
 3223 006b 0D       		.uleb128 0xd
 3224 006c 00       		.byte	0
 3225 006d 03       		.uleb128 0x3
 3226 006e 0E       		.uleb128 0xe
 3227 006f 3A       		.uleb128 0x3a
 3228 0070 0B       		.uleb128 0xb
 3229 0071 3B       		.uleb128 0x3b
 3230 0072 05       		.uleb128 0x5
 3231 0073 49       		.uleb128 0x49
 3232 0074 13       		.uleb128 0x13
 3233 0075 38       		.uleb128 0x38
 3234 0076 0B       		.uleb128 0xb
 3235 0077 00       		.byte	0
 3236 0078 00       		.byte	0
 3237 0079 0A       		.uleb128 0xa
 3238 007a 0F       		.uleb128 0xf
 3239 007b 00       		.byte	0
 3240 007c 0B       		.uleb128 0xb
 3241 007d 0B       		.uleb128 0xb
ARM GAS  /tmp/ccn8STLw.s 			page 58


 3242 007e 49       		.uleb128 0x49
 3243 007f 13       		.uleb128 0x13
 3244 0080 00       		.byte	0
 3245 0081 00       		.byte	0
 3246 0082 0B       		.uleb128 0xb
 3247 0083 13       		.uleb128 0x13
 3248 0084 01       		.byte	0x1
 3249 0085 03       		.uleb128 0x3
 3250 0086 0E       		.uleb128 0xe
 3251 0087 0B       		.uleb128 0xb
 3252 0088 0B       		.uleb128 0xb
 3253 0089 3A       		.uleb128 0x3a
 3254 008a 0B       		.uleb128 0xb
 3255 008b 3B       		.uleb128 0x3b
 3256 008c 05       		.uleb128 0x5
 3257 008d 01       		.uleb128 0x1
 3258 008e 13       		.uleb128 0x13
 3259 008f 00       		.byte	0
 3260 0090 00       		.byte	0
 3261 0091 0C       		.uleb128 0xc
 3262 0092 15       		.uleb128 0x15
 3263 0093 01       		.byte	0x1
 3264 0094 27       		.uleb128 0x27
 3265 0095 19       		.uleb128 0x19
 3266 0096 01       		.uleb128 0x1
 3267 0097 13       		.uleb128 0x13
 3268 0098 00       		.byte	0
 3269 0099 00       		.byte	0
 3270 009a 0D       		.uleb128 0xd
 3271 009b 05       		.uleb128 0x5
 3272 009c 00       		.byte	0
 3273 009d 49       		.uleb128 0x49
 3274 009e 13       		.uleb128 0x13
 3275 009f 00       		.byte	0
 3276 00a0 00       		.byte	0
 3277 00a1 0E       		.uleb128 0xe
 3278 00a2 0F       		.uleb128 0xf
 3279 00a3 00       		.byte	0
 3280 00a4 0B       		.uleb128 0xb
 3281 00a5 0B       		.uleb128 0xb
 3282 00a6 00       		.byte	0
 3283 00a7 00       		.byte	0
 3284 00a8 0F       		.uleb128 0xf
 3285 00a9 13       		.uleb128 0x13
 3286 00aa 01       		.byte	0x1
 3287 00ab 03       		.uleb128 0x3
 3288 00ac 0E       		.uleb128 0xe
 3289 00ad 0B       		.uleb128 0xb
 3290 00ae 05       		.uleb128 0x5
 3291 00af 3A       		.uleb128 0x3a
 3292 00b0 0B       		.uleb128 0xb
 3293 00b1 3B       		.uleb128 0x3b
 3294 00b2 05       		.uleb128 0x5
 3295 00b3 01       		.uleb128 0x1
 3296 00b4 13       		.uleb128 0x13
 3297 00b5 00       		.byte	0
 3298 00b6 00       		.byte	0
ARM GAS  /tmp/ccn8STLw.s 			page 59


 3299 00b7 10       		.uleb128 0x10
 3300 00b8 13       		.uleb128 0x13
 3301 00b9 01       		.byte	0x1
 3302 00ba 0B       		.uleb128 0xb
 3303 00bb 0B       		.uleb128 0xb
 3304 00bc 3A       		.uleb128 0x3a
 3305 00bd 0B       		.uleb128 0xb
 3306 00be 3B       		.uleb128 0x3b
 3307 00bf 0B       		.uleb128 0xb
 3308 00c0 01       		.uleb128 0x1
 3309 00c1 13       		.uleb128 0x13
 3310 00c2 00       		.byte	0
 3311 00c3 00       		.byte	0
 3312 00c4 11       		.uleb128 0x11
 3313 00c5 0D       		.uleb128 0xd
 3314 00c6 00       		.byte	0
 3315 00c7 03       		.uleb128 0x3
 3316 00c8 08       		.uleb128 0x8
 3317 00c9 3A       		.uleb128 0x3a
 3318 00ca 0B       		.uleb128 0xb
 3319 00cb 3B       		.uleb128 0x3b
 3320 00cc 0B       		.uleb128 0xb
 3321 00cd 49       		.uleb128 0x49
 3322 00ce 13       		.uleb128 0x13
 3323 00cf 38       		.uleb128 0x38
 3324 00d0 0B       		.uleb128 0xb
 3325 00d1 00       		.byte	0
 3326 00d2 00       		.byte	0
 3327 00d3 12       		.uleb128 0x12
 3328 00d4 13       		.uleb128 0x13
 3329 00d5 01       		.byte	0x1
 3330 00d6 0B       		.uleb128 0xb
 3331 00d7 0B       		.uleb128 0xb
 3332 00d8 3A       		.uleb128 0x3a
 3333 00d9 0B       		.uleb128 0xb
 3334 00da 3B       		.uleb128 0x3b
 3335 00db 05       		.uleb128 0x5
 3336 00dc 01       		.uleb128 0x1
 3337 00dd 13       		.uleb128 0x13
 3338 00de 00       		.byte	0
 3339 00df 00       		.byte	0
 3340 00e0 13       		.uleb128 0x13
 3341 00e1 16       		.uleb128 0x16
 3342 00e2 00       		.byte	0
 3343 00e3 03       		.uleb128 0x3
 3344 00e4 0E       		.uleb128 0xe
 3345 00e5 3A       		.uleb128 0x3a
 3346 00e6 0B       		.uleb128 0xb
 3347 00e7 3B       		.uleb128 0x3b
 3348 00e8 05       		.uleb128 0x5
 3349 00e9 49       		.uleb128 0x49
 3350 00ea 13       		.uleb128 0x13
 3351 00eb 00       		.byte	0
 3352 00ec 00       		.byte	0
 3353 00ed 14       		.uleb128 0x14
 3354 00ee 17       		.uleb128 0x17
 3355 00ef 01       		.byte	0x1
ARM GAS  /tmp/ccn8STLw.s 			page 60


 3356 00f0 0B       		.uleb128 0xb
 3357 00f1 0B       		.uleb128 0xb
 3358 00f2 3A       		.uleb128 0x3a
 3359 00f3 0B       		.uleb128 0xb
 3360 00f4 3B       		.uleb128 0x3b
 3361 00f5 0B       		.uleb128 0xb
 3362 00f6 01       		.uleb128 0x1
 3363 00f7 13       		.uleb128 0x13
 3364 00f8 00       		.byte	0
 3365 00f9 00       		.byte	0
 3366 00fa 15       		.uleb128 0x15
 3367 00fb 0D       		.uleb128 0xd
 3368 00fc 00       		.byte	0
 3369 00fd 03       		.uleb128 0x3
 3370 00fe 0E       		.uleb128 0xe
 3371 00ff 3A       		.uleb128 0x3a
 3372 0100 0B       		.uleb128 0xb
 3373 0101 3B       		.uleb128 0x3b
 3374 0102 05       		.uleb128 0x5
 3375 0103 49       		.uleb128 0x49
 3376 0104 13       		.uleb128 0x13
 3377 0105 00       		.byte	0
 3378 0106 00       		.byte	0
 3379 0107 16       		.uleb128 0x16
 3380 0108 26       		.uleb128 0x26
 3381 0109 00       		.byte	0
 3382 010a 49       		.uleb128 0x49
 3383 010b 13       		.uleb128 0x13
 3384 010c 00       		.byte	0
 3385 010d 00       		.byte	0
 3386 010e 17       		.uleb128 0x17
 3387 010f 01       		.uleb128 0x1
 3388 0110 01       		.byte	0x1
 3389 0111 49       		.uleb128 0x49
 3390 0112 13       		.uleb128 0x13
 3391 0113 01       		.uleb128 0x1
 3392 0114 13       		.uleb128 0x13
 3393 0115 00       		.byte	0
 3394 0116 00       		.byte	0
 3395 0117 18       		.uleb128 0x18
 3396 0118 21       		.uleb128 0x21
 3397 0119 00       		.byte	0
 3398 011a 49       		.uleb128 0x49
 3399 011b 13       		.uleb128 0x13
 3400 011c 2F       		.uleb128 0x2f
 3401 011d 0B       		.uleb128 0xb
 3402 011e 00       		.byte	0
 3403 011f 00       		.byte	0
 3404 0120 19       		.uleb128 0x19
 3405 0121 04       		.uleb128 0x4
 3406 0122 01       		.byte	0x1
 3407 0123 0B       		.uleb128 0xb
 3408 0124 0B       		.uleb128 0xb
 3409 0125 49       		.uleb128 0x49
 3410 0126 13       		.uleb128 0x13
 3411 0127 3A       		.uleb128 0x3a
 3412 0128 0B       		.uleb128 0xb
ARM GAS  /tmp/ccn8STLw.s 			page 61


 3413 0129 3B       		.uleb128 0x3b
 3414 012a 0B       		.uleb128 0xb
 3415 012b 01       		.uleb128 0x1
 3416 012c 13       		.uleb128 0x13
 3417 012d 00       		.byte	0
 3418 012e 00       		.byte	0
 3419 012f 1A       		.uleb128 0x1a
 3420 0130 28       		.uleb128 0x28
 3421 0131 00       		.byte	0
 3422 0132 03       		.uleb128 0x3
 3423 0133 0E       		.uleb128 0xe
 3424 0134 1C       		.uleb128 0x1c
 3425 0135 0B       		.uleb128 0xb
 3426 0136 00       		.byte	0
 3427 0137 00       		.byte	0
 3428 0138 1B       		.uleb128 0x1b
 3429 0139 2E       		.uleb128 0x2e
 3430 013a 01       		.byte	0x1
 3431 013b 03       		.uleb128 0x3
 3432 013c 0E       		.uleb128 0xe
 3433 013d 3A       		.uleb128 0x3a
 3434 013e 0B       		.uleb128 0xb
 3435 013f 3B       		.uleb128 0x3b
 3436 0140 05       		.uleb128 0x5
 3437 0141 27       		.uleb128 0x27
 3438 0142 19       		.uleb128 0x19
 3439 0143 20       		.uleb128 0x20
 3440 0144 0B       		.uleb128 0xb
 3441 0145 01       		.uleb128 0x1
 3442 0146 13       		.uleb128 0x13
 3443 0147 00       		.byte	0
 3444 0148 00       		.byte	0
 3445 0149 1C       		.uleb128 0x1c
 3446 014a 05       		.uleb128 0x5
 3447 014b 00       		.byte	0
 3448 014c 03       		.uleb128 0x3
 3449 014d 0E       		.uleb128 0xe
 3450 014e 3A       		.uleb128 0x3a
 3451 014f 0B       		.uleb128 0xb
 3452 0150 3B       		.uleb128 0x3b
 3453 0151 05       		.uleb128 0x5
 3454 0152 49       		.uleb128 0x49
 3455 0153 13       		.uleb128 0x13
 3456 0154 00       		.byte	0
 3457 0155 00       		.byte	0
 3458 0156 1D       		.uleb128 0x1d
 3459 0157 2E       		.uleb128 0x2e
 3460 0158 00       		.byte	0
 3461 0159 03       		.uleb128 0x3
 3462 015a 0E       		.uleb128 0xe
 3463 015b 3A       		.uleb128 0x3a
 3464 015c 0B       		.uleb128 0xb
 3465 015d 3B       		.uleb128 0x3b
 3466 015e 05       		.uleb128 0x5
 3467 015f 27       		.uleb128 0x27
 3468 0160 19       		.uleb128 0x19
 3469 0161 20       		.uleb128 0x20
ARM GAS  /tmp/ccn8STLw.s 			page 62


 3470 0162 0B       		.uleb128 0xb
 3471 0163 00       		.byte	0
 3472 0164 00       		.byte	0
 3473 0165 1E       		.uleb128 0x1e
 3474 0166 34       		.uleb128 0x34
 3475 0167 00       		.byte	0
 3476 0168 03       		.uleb128 0x3
 3477 0169 0E       		.uleb128 0xe
 3478 016a 49       		.uleb128 0x49
 3479 016b 13       		.uleb128 0x13
 3480 016c 34       		.uleb128 0x34
 3481 016d 19       		.uleb128 0x19
 3482 016e 1C       		.uleb128 0x1c
 3483 016f 0E       		.uleb128 0xe
 3484 0170 00       		.byte	0
 3485 0171 00       		.byte	0
 3486 0172 1F       		.uleb128 0x1f
 3487 0173 2E       		.uleb128 0x2e
 3488 0174 01       		.byte	0x1
 3489 0175 3F       		.uleb128 0x3f
 3490 0176 19       		.uleb128 0x19
 3491 0177 03       		.uleb128 0x3
 3492 0178 0E       		.uleb128 0xe
 3493 0179 3A       		.uleb128 0x3a
 3494 017a 0B       		.uleb128 0xb
 3495 017b 3B       		.uleb128 0x3b
 3496 017c 0B       		.uleb128 0xb
 3497 017d 27       		.uleb128 0x27
 3498 017e 19       		.uleb128 0x19
 3499 017f 11       		.uleb128 0x11
 3500 0180 01       		.uleb128 0x1
 3501 0181 12       		.uleb128 0x12
 3502 0182 06       		.uleb128 0x6
 3503 0183 40       		.uleb128 0x40
 3504 0184 18       		.uleb128 0x18
 3505 0185 9742     		.uleb128 0x2117
 3506 0187 19       		.uleb128 0x19
 3507 0188 01       		.uleb128 0x1
 3508 0189 13       		.uleb128 0x13
 3509 018a 00       		.byte	0
 3510 018b 00       		.byte	0
 3511 018c 20       		.uleb128 0x20
 3512 018d 898201   		.uleb128 0x4109
 3513 0190 00       		.byte	0
 3514 0191 11       		.uleb128 0x11
 3515 0192 01       		.uleb128 0x1
 3516 0193 9542     		.uleb128 0x2115
 3517 0195 19       		.uleb128 0x19
 3518 0196 31       		.uleb128 0x31
 3519 0197 13       		.uleb128 0x13
 3520 0198 00       		.byte	0
 3521 0199 00       		.byte	0
 3522 019a 21       		.uleb128 0x21
 3523 019b 05       		.uleb128 0x5
 3524 019c 00       		.byte	0
 3525 019d 03       		.uleb128 0x3
 3526 019e 0E       		.uleb128 0xe
ARM GAS  /tmp/ccn8STLw.s 			page 63


 3527 019f 3A       		.uleb128 0x3a
 3528 01a0 0B       		.uleb128 0xb
 3529 01a1 3B       		.uleb128 0x3b
 3530 01a2 0B       		.uleb128 0xb
 3531 01a3 49       		.uleb128 0x49
 3532 01a4 13       		.uleb128 0x13
 3533 01a5 02       		.uleb128 0x2
 3534 01a6 18       		.uleb128 0x18
 3535 01a7 00       		.byte	0
 3536 01a8 00       		.byte	0
 3537 01a9 22       		.uleb128 0x22
 3538 01aa 05       		.uleb128 0x5
 3539 01ab 00       		.byte	0
 3540 01ac 03       		.uleb128 0x3
 3541 01ad 0E       		.uleb128 0xe
 3542 01ae 3A       		.uleb128 0x3a
 3543 01af 0B       		.uleb128 0xb
 3544 01b0 3B       		.uleb128 0x3b
 3545 01b1 0B       		.uleb128 0xb
 3546 01b2 49       		.uleb128 0x49
 3547 01b3 13       		.uleb128 0x13
 3548 01b4 02       		.uleb128 0x2
 3549 01b5 17       		.uleb128 0x17
 3550 01b6 00       		.byte	0
 3551 01b7 00       		.byte	0
 3552 01b8 23       		.uleb128 0x23
 3553 01b9 34       		.uleb128 0x34
 3554 01ba 00       		.byte	0
 3555 01bb 03       		.uleb128 0x3
 3556 01bc 0E       		.uleb128 0xe
 3557 01bd 49       		.uleb128 0x49
 3558 01be 13       		.uleb128 0x13
 3559 01bf 34       		.uleb128 0x34
 3560 01c0 19       		.uleb128 0x19
 3561 01c1 00       		.byte	0
 3562 01c2 00       		.byte	0
 3563 01c3 24       		.uleb128 0x24
 3564 01c4 1D       		.uleb128 0x1d
 3565 01c5 01       		.byte	0x1
 3566 01c6 31       		.uleb128 0x31
 3567 01c7 13       		.uleb128 0x13
 3568 01c8 52       		.uleb128 0x52
 3569 01c9 01       		.uleb128 0x1
 3570 01ca 55       		.uleb128 0x55
 3571 01cb 17       		.uleb128 0x17
 3572 01cc 58       		.uleb128 0x58
 3573 01cd 0B       		.uleb128 0xb
 3574 01ce 59       		.uleb128 0x59
 3575 01cf 0B       		.uleb128 0xb
 3576 01d0 01       		.uleb128 0x1
 3577 01d1 13       		.uleb128 0x13
 3578 01d2 00       		.byte	0
 3579 01d3 00       		.byte	0
 3580 01d4 25       		.uleb128 0x25
 3581 01d5 1D       		.uleb128 0x1d
 3582 01d6 01       		.byte	0x1
 3583 01d7 31       		.uleb128 0x31
ARM GAS  /tmp/ccn8STLw.s 			page 64


 3584 01d8 13       		.uleb128 0x13
 3585 01d9 52       		.uleb128 0x52
 3586 01da 01       		.uleb128 0x1
 3587 01db 55       		.uleb128 0x55
 3588 01dc 17       		.uleb128 0x17
 3589 01dd 58       		.uleb128 0x58
 3590 01de 0B       		.uleb128 0xb
 3591 01df 59       		.uleb128 0x59
 3592 01e0 05       		.uleb128 0x5
 3593 01e1 00       		.byte	0
 3594 01e2 00       		.byte	0
 3595 01e3 26       		.uleb128 0x26
 3596 01e4 05       		.uleb128 0x5
 3597 01e5 00       		.byte	0
 3598 01e6 31       		.uleb128 0x31
 3599 01e7 13       		.uleb128 0x13
 3600 01e8 1C       		.uleb128 0x1c
 3601 01e9 0B       		.uleb128 0xb
 3602 01ea 00       		.byte	0
 3603 01eb 00       		.byte	0
 3604 01ec 27       		.uleb128 0x27
 3605 01ed 1D       		.uleb128 0x1d
 3606 01ee 01       		.byte	0x1
 3607 01ef 31       		.uleb128 0x31
 3608 01f0 13       		.uleb128 0x13
 3609 01f1 11       		.uleb128 0x11
 3610 01f2 01       		.uleb128 0x1
 3611 01f3 12       		.uleb128 0x12
 3612 01f4 06       		.uleb128 0x6
 3613 01f5 58       		.uleb128 0x58
 3614 01f6 0B       		.uleb128 0xb
 3615 01f7 59       		.uleb128 0x59
 3616 01f8 0B       		.uleb128 0xb
 3617 01f9 01       		.uleb128 0x1
 3618 01fa 13       		.uleb128 0x13
 3619 01fb 00       		.byte	0
 3620 01fc 00       		.byte	0
 3621 01fd 28       		.uleb128 0x28
 3622 01fe 1D       		.uleb128 0x1d
 3623 01ff 01       		.byte	0x1
 3624 0200 31       		.uleb128 0x31
 3625 0201 13       		.uleb128 0x13
 3626 0202 11       		.uleb128 0x11
 3627 0203 01       		.uleb128 0x1
 3628 0204 12       		.uleb128 0x12
 3629 0205 06       		.uleb128 0x6
 3630 0206 58       		.uleb128 0x58
 3631 0207 0B       		.uleb128 0xb
 3632 0208 59       		.uleb128 0x59
 3633 0209 05       		.uleb128 0x5
 3634 020a 00       		.byte	0
 3635 020b 00       		.byte	0
 3636 020c 29       		.uleb128 0x29
 3637 020d 0B       		.uleb128 0xb
 3638 020e 01       		.byte	0x1
 3639 020f 11       		.uleb128 0x11
 3640 0210 01       		.uleb128 0x1
ARM GAS  /tmp/ccn8STLw.s 			page 65


 3641 0211 12       		.uleb128 0x12
 3642 0212 06       		.uleb128 0x6
 3643 0213 00       		.byte	0
 3644 0214 00       		.byte	0
 3645 0215 2A       		.uleb128 0x2a
 3646 0216 34       		.uleb128 0x34
 3647 0217 00       		.byte	0
 3648 0218 31       		.uleb128 0x31
 3649 0219 13       		.uleb128 0x13
 3650 021a 00       		.byte	0
 3651 021b 00       		.byte	0
 3652 021c 2B       		.uleb128 0x2b
 3653 021d 898201   		.uleb128 0x4109
 3654 0220 01       		.byte	0x1
 3655 0221 11       		.uleb128 0x11
 3656 0222 01       		.uleb128 0x1
 3657 0223 31       		.uleb128 0x31
 3658 0224 13       		.uleb128 0x13
 3659 0225 00       		.byte	0
 3660 0226 00       		.byte	0
 3661 0227 2C       		.uleb128 0x2c
 3662 0228 8A8201   		.uleb128 0x410a
 3663 022b 00       		.byte	0
 3664 022c 02       		.uleb128 0x2
 3665 022d 18       		.uleb128 0x18
 3666 022e 9142     		.uleb128 0x2111
 3667 0230 18       		.uleb128 0x18
 3668 0231 00       		.byte	0
 3669 0232 00       		.byte	0
 3670 0233 2D       		.uleb128 0x2d
 3671 0234 05       		.uleb128 0x5
 3672 0235 00       		.byte	0
 3673 0236 03       		.uleb128 0x3
 3674 0237 08       		.uleb128 0x8
 3675 0238 3A       		.uleb128 0x3a
 3676 0239 0B       		.uleb128 0xb
 3677 023a 3B       		.uleb128 0x3b
 3678 023b 0B       		.uleb128 0xb
 3679 023c 49       		.uleb128 0x49
 3680 023d 13       		.uleb128 0x13
 3681 023e 02       		.uleb128 0x2
 3682 023f 17       		.uleb128 0x17
 3683 0240 00       		.byte	0
 3684 0241 00       		.byte	0
 3685 0242 2E       		.uleb128 0x2e
 3686 0243 26       		.uleb128 0x26
 3687 0244 00       		.byte	0
 3688 0245 00       		.byte	0
 3689 0246 00       		.byte	0
 3690 0247 2F       		.uleb128 0x2f
 3691 0248 2E       		.uleb128 0x2e
 3692 0249 01       		.byte	0x1
 3693 024a 3F       		.uleb128 0x3f
 3694 024b 19       		.uleb128 0x19
 3695 024c 03       		.uleb128 0x3
 3696 024d 0E       		.uleb128 0xe
 3697 024e 3A       		.uleb128 0x3a
ARM GAS  /tmp/ccn8STLw.s 			page 66


 3698 024f 0B       		.uleb128 0xb
 3699 0250 3B       		.uleb128 0x3b
 3700 0251 0B       		.uleb128 0xb
 3701 0252 27       		.uleb128 0x27
 3702 0253 19       		.uleb128 0x19
 3703 0254 49       		.uleb128 0x49
 3704 0255 13       		.uleb128 0x13
 3705 0256 11       		.uleb128 0x11
 3706 0257 01       		.uleb128 0x1
 3707 0258 12       		.uleb128 0x12
 3708 0259 06       		.uleb128 0x6
 3709 025a 40       		.uleb128 0x40
 3710 025b 18       		.uleb128 0x18
 3711 025c 9742     		.uleb128 0x2117
 3712 025e 19       		.uleb128 0x19
 3713 025f 01       		.uleb128 0x1
 3714 0260 13       		.uleb128 0x13
 3715 0261 00       		.byte	0
 3716 0262 00       		.byte	0
 3717 0263 30       		.uleb128 0x30
 3718 0264 34       		.uleb128 0x34
 3719 0265 00       		.byte	0
 3720 0266 03       		.uleb128 0x3
 3721 0267 08       		.uleb128 0x8
 3722 0268 3A       		.uleb128 0x3a
 3723 0269 0B       		.uleb128 0xb
 3724 026a 3B       		.uleb128 0x3b
 3725 026b 0B       		.uleb128 0xb
 3726 026c 49       		.uleb128 0x49
 3727 026d 13       		.uleb128 0x13
 3728 026e 02       		.uleb128 0x2
 3729 026f 17       		.uleb128 0x17
 3730 0270 00       		.byte	0
 3731 0271 00       		.byte	0
 3732 0272 31       		.uleb128 0x31
 3733 0273 0B       		.uleb128 0xb
 3734 0274 01       		.byte	0x1
 3735 0275 55       		.uleb128 0x55
 3736 0276 17       		.uleb128 0x17
 3737 0277 00       		.byte	0
 3738 0278 00       		.byte	0
 3739 0279 32       		.uleb128 0x32
 3740 027a 05       		.uleb128 0x5
 3741 027b 00       		.byte	0
 3742 027c 31       		.uleb128 0x31
 3743 027d 13       		.uleb128 0x13
 3744 027e 02       		.uleb128 0x2
 3745 027f 17       		.uleb128 0x17
 3746 0280 00       		.byte	0
 3747 0281 00       		.byte	0
 3748 0282 33       		.uleb128 0x33
 3749 0283 34       		.uleb128 0x34
 3750 0284 00       		.byte	0
 3751 0285 03       		.uleb128 0x3
 3752 0286 08       		.uleb128 0x8
 3753 0287 3A       		.uleb128 0x3a
 3754 0288 0B       		.uleb128 0xb
ARM GAS  /tmp/ccn8STLw.s 			page 67


 3755 0289 3B       		.uleb128 0x3b
 3756 028a 0B       		.uleb128 0xb
 3757 028b 49       		.uleb128 0x49
 3758 028c 13       		.uleb128 0x13
 3759 028d 02       		.uleb128 0x2
 3760 028e 18       		.uleb128 0x18
 3761 028f 00       		.byte	0
 3762 0290 00       		.byte	0
 3763 0291 34       		.uleb128 0x34
 3764 0292 2E       		.uleb128 0x2e
 3765 0293 01       		.byte	0x1
 3766 0294 3F       		.uleb128 0x3f
 3767 0295 19       		.uleb128 0x19
 3768 0296 03       		.uleb128 0x3
 3769 0297 0E       		.uleb128 0xe
 3770 0298 3A       		.uleb128 0x3a
 3771 0299 0B       		.uleb128 0xb
 3772 029a 3B       		.uleb128 0x3b
 3773 029b 05       		.uleb128 0x5
 3774 029c 27       		.uleb128 0x27
 3775 029d 19       		.uleb128 0x19
 3776 029e 11       		.uleb128 0x11
 3777 029f 01       		.uleb128 0x1
 3778 02a0 12       		.uleb128 0x12
 3779 02a1 06       		.uleb128 0x6
 3780 02a2 40       		.uleb128 0x40
 3781 02a3 18       		.uleb128 0x18
 3782 02a4 9742     		.uleb128 0x2117
 3783 02a6 19       		.uleb128 0x19
 3784 02a7 01       		.uleb128 0x1
 3785 02a8 13       		.uleb128 0x13
 3786 02a9 00       		.byte	0
 3787 02aa 00       		.byte	0
 3788 02ab 35       		.uleb128 0x35
 3789 02ac 05       		.uleb128 0x5
 3790 02ad 00       		.byte	0
 3791 02ae 03       		.uleb128 0x3
 3792 02af 0E       		.uleb128 0xe
 3793 02b0 3A       		.uleb128 0x3a
 3794 02b1 0B       		.uleb128 0xb
 3795 02b2 3B       		.uleb128 0x3b
 3796 02b3 05       		.uleb128 0x5
 3797 02b4 49       		.uleb128 0x49
 3798 02b5 13       		.uleb128 0x13
 3799 02b6 02       		.uleb128 0x2
 3800 02b7 17       		.uleb128 0x17
 3801 02b8 00       		.byte	0
 3802 02b9 00       		.byte	0
 3803 02ba 36       		.uleb128 0x36
 3804 02bb 05       		.uleb128 0x5
 3805 02bc 00       		.byte	0
 3806 02bd 03       		.uleb128 0x3
 3807 02be 08       		.uleb128 0x8
 3808 02bf 3A       		.uleb128 0x3a
 3809 02c0 0B       		.uleb128 0xb
 3810 02c1 3B       		.uleb128 0x3b
 3811 02c2 05       		.uleb128 0x5
ARM GAS  /tmp/ccn8STLw.s 			page 68


 3812 02c3 49       		.uleb128 0x49
 3813 02c4 13       		.uleb128 0x13
 3814 02c5 02       		.uleb128 0x2
 3815 02c6 17       		.uleb128 0x17
 3816 02c7 00       		.byte	0
 3817 02c8 00       		.byte	0
 3818 02c9 37       		.uleb128 0x37
 3819 02ca 2E       		.uleb128 0x2e
 3820 02cb 01       		.byte	0x1
 3821 02cc 3F       		.uleb128 0x3f
 3822 02cd 19       		.uleb128 0x19
 3823 02ce 03       		.uleb128 0x3
 3824 02cf 0E       		.uleb128 0xe
 3825 02d0 3A       		.uleb128 0x3a
 3826 02d1 0B       		.uleb128 0xb
 3827 02d2 3B       		.uleb128 0x3b
 3828 02d3 05       		.uleb128 0x5
 3829 02d4 27       		.uleb128 0x27
 3830 02d5 19       		.uleb128 0x19
 3831 02d6 49       		.uleb128 0x49
 3832 02d7 13       		.uleb128 0x13
 3833 02d8 11       		.uleb128 0x11
 3834 02d9 01       		.uleb128 0x1
 3835 02da 12       		.uleb128 0x12
 3836 02db 06       		.uleb128 0x6
 3837 02dc 40       		.uleb128 0x40
 3838 02dd 18       		.uleb128 0x18
 3839 02de 9742     		.uleb128 0x2117
 3840 02e0 19       		.uleb128 0x19
 3841 02e1 01       		.uleb128 0x1
 3842 02e2 13       		.uleb128 0x13
 3843 02e3 00       		.byte	0
 3844 02e4 00       		.byte	0
 3845 02e5 38       		.uleb128 0x38
 3846 02e6 34       		.uleb128 0x34
 3847 02e7 00       		.byte	0
 3848 02e8 03       		.uleb128 0x3
 3849 02e9 08       		.uleb128 0x8
 3850 02ea 3A       		.uleb128 0x3a
 3851 02eb 0B       		.uleb128 0xb
 3852 02ec 3B       		.uleb128 0x3b
 3853 02ed 05       		.uleb128 0x5
 3854 02ee 49       		.uleb128 0x49
 3855 02ef 13       		.uleb128 0x13
 3856 02f0 02       		.uleb128 0x2
 3857 02f1 17       		.uleb128 0x17
 3858 02f2 00       		.byte	0
 3859 02f3 00       		.byte	0
 3860 02f4 39       		.uleb128 0x39
 3861 02f5 1D       		.uleb128 0x1d
 3862 02f6 01       		.byte	0x1
 3863 02f7 31       		.uleb128 0x31
 3864 02f8 13       		.uleb128 0x13
 3865 02f9 11       		.uleb128 0x11
 3866 02fa 01       		.uleb128 0x1
 3867 02fb 12       		.uleb128 0x12
 3868 02fc 06       		.uleb128 0x6
ARM GAS  /tmp/ccn8STLw.s 			page 69


 3869 02fd 58       		.uleb128 0x58
 3870 02fe 0B       		.uleb128 0xb
 3871 02ff 59       		.uleb128 0x59
 3872 0300 05       		.uleb128 0x5
 3873 0301 01       		.uleb128 0x1
 3874 0302 13       		.uleb128 0x13
 3875 0303 00       		.byte	0
 3876 0304 00       		.byte	0
 3877 0305 3A       		.uleb128 0x3a
 3878 0306 1D       		.uleb128 0x1d
 3879 0307 01       		.byte	0x1
 3880 0308 31       		.uleb128 0x31
 3881 0309 13       		.uleb128 0x13
 3882 030a 52       		.uleb128 0x52
 3883 030b 01       		.uleb128 0x1
 3884 030c 55       		.uleb128 0x55
 3885 030d 17       		.uleb128 0x17
 3886 030e 58       		.uleb128 0x58
 3887 030f 0B       		.uleb128 0xb
 3888 0310 59       		.uleb128 0x59
 3889 0311 05       		.uleb128 0x5
 3890 0312 01       		.uleb128 0x1
 3891 0313 13       		.uleb128 0x13
 3892 0314 00       		.byte	0
 3893 0315 00       		.byte	0
 3894 0316 3B       		.uleb128 0x3b
 3895 0317 34       		.uleb128 0x34
 3896 0318 00       		.byte	0
 3897 0319 03       		.uleb128 0x3
 3898 031a 08       		.uleb128 0x8
 3899 031b 3A       		.uleb128 0x3a
 3900 031c 0B       		.uleb128 0xb
 3901 031d 3B       		.uleb128 0x3b
 3902 031e 05       		.uleb128 0x5
 3903 031f 49       		.uleb128 0x49
 3904 0320 13       		.uleb128 0x13
 3905 0321 02       		.uleb128 0x2
 3906 0322 18       		.uleb128 0x18
 3907 0323 00       		.byte	0
 3908 0324 00       		.byte	0
 3909 0325 3C       		.uleb128 0x3c
 3910 0326 34       		.uleb128 0x34
 3911 0327 00       		.byte	0
 3912 0328 03       		.uleb128 0x3
 3913 0329 0E       		.uleb128 0xe
 3914 032a 3A       		.uleb128 0x3a
 3915 032b 0B       		.uleb128 0xb
 3916 032c 3B       		.uleb128 0x3b
 3917 032d 05       		.uleb128 0x5
 3918 032e 49       		.uleb128 0x49
 3919 032f 13       		.uleb128 0x13
 3920 0330 3F       		.uleb128 0x3f
 3921 0331 19       		.uleb128 0x19
 3922 0332 3C       		.uleb128 0x3c
 3923 0333 19       		.uleb128 0x19
 3924 0334 00       		.byte	0
 3925 0335 00       		.byte	0
ARM GAS  /tmp/ccn8STLw.s 			page 70


 3926 0336 3D       		.uleb128 0x3d
 3927 0337 34       		.uleb128 0x34
 3928 0338 00       		.byte	0
 3929 0339 03       		.uleb128 0x3
 3930 033a 08       		.uleb128 0x8
 3931 033b 3A       		.uleb128 0x3a
 3932 033c 0B       		.uleb128 0xb
 3933 033d 3B       		.uleb128 0x3b
 3934 033e 05       		.uleb128 0x5
 3935 033f 49       		.uleb128 0x49
 3936 0340 13       		.uleb128 0x13
 3937 0341 3F       		.uleb128 0x3f
 3938 0342 19       		.uleb128 0x19
 3939 0343 3C       		.uleb128 0x3c
 3940 0344 19       		.uleb128 0x19
 3941 0345 00       		.byte	0
 3942 0346 00       		.byte	0
 3943 0347 3E       		.uleb128 0x3e
 3944 0348 2E       		.uleb128 0x2e
 3945 0349 00       		.byte	0
 3946 034a 3F       		.uleb128 0x3f
 3947 034b 19       		.uleb128 0x19
 3948 034c 3C       		.uleb128 0x3c
 3949 034d 19       		.uleb128 0x19
 3950 034e 6E       		.uleb128 0x6e
 3951 034f 0E       		.uleb128 0xe
 3952 0350 03       		.uleb128 0x3
 3953 0351 0E       		.uleb128 0xe
 3954 0352 3A       		.uleb128 0x3a
 3955 0353 0B       		.uleb128 0xb
 3956 0354 3B       		.uleb128 0x3b
 3957 0355 05       		.uleb128 0x5
 3958 0356 00       		.byte	0
 3959 0357 00       		.byte	0
 3960 0358 00       		.byte	0
 3961              		.section	.debug_loc,"",%progbits
 3962              	.Ldebug_loc0:
 3963              	.LLST0:
 3964 0000 00000000 		.4byte	.LVL2
 3965 0004 0F000000 		.4byte	.LVL3-1
 3966 0008 0100     		.2byte	0x1
 3967 000a 50       		.byte	0x50
 3968 000b 0F000000 		.4byte	.LVL3-1
 3969 000f 1C000000 		.4byte	.LFE262
 3970 0013 0100     		.2byte	0x1
 3971 0015 54       		.byte	0x54
 3972 0016 00000000 		.4byte	0
 3973 001a 00000000 		.4byte	0
 3974              	.LLST1:
 3975 001e 00000000 		.4byte	.LVL2
 3976 0022 0F000000 		.4byte	.LVL3-1
 3977 0026 0100     		.2byte	0x1
 3978 0028 51       		.byte	0x51
 3979 0029 0F000000 		.4byte	.LVL3-1
 3980 002d 1C000000 		.4byte	.LFE262
 3981 0031 0400     		.2byte	0x4
 3982 0033 F3       		.byte	0xf3
ARM GAS  /tmp/ccn8STLw.s 			page 71


 3983 0034 01       		.uleb128 0x1
 3984 0035 51       		.byte	0x51
 3985 0036 9F       		.byte	0x9f
 3986 0037 00000000 		.4byte	0
 3987 003b 00000000 		.4byte	0
 3988              	.LLST2:
 3989 003f 00000000 		.4byte	.LVL5
 3990 0043 0D000000 		.4byte	.LVL6-1
 3991 0047 0100     		.2byte	0x1
 3992 0049 50       		.byte	0x50
 3993 004a 0D000000 		.4byte	.LVL6-1
 3994 004e 1E000000 		.4byte	.LFE263
 3995 0052 0100     		.2byte	0x1
 3996 0054 54       		.byte	0x54
 3997 0055 00000000 		.4byte	0
 3998 0059 00000000 		.4byte	0
 3999              	.LLST3:
 4000 005d 00000000 		.4byte	.LVL8
 4001 0061 0D000000 		.4byte	.LVL9-1
 4002 0065 0100     		.2byte	0x1
 4003 0067 50       		.byte	0x50
 4004 0068 0D000000 		.4byte	.LVL9-1
 4005 006c 1A000000 		.4byte	.LFE264
 4006 0070 0100     		.2byte	0x1
 4007 0072 54       		.byte	0x54
 4008 0073 00000000 		.4byte	0
 4009 0077 00000000 		.4byte	0
 4010              	.LLST4:
 4011 007b 00000000 		.4byte	.LVL8
 4012 007f 0D000000 		.4byte	.LVL9-1
 4013 0083 0100     		.2byte	0x1
 4014 0085 51       		.byte	0x51
 4015 0086 0D000000 		.4byte	.LVL9-1
 4016 008a 1A000000 		.4byte	.LFE264
 4017 008e 0400     		.2byte	0x4
 4018 0090 F3       		.byte	0xf3
 4019 0091 01       		.uleb128 0x1
 4020 0092 51       		.byte	0x51
 4021 0093 9F       		.byte	0x9f
 4022 0094 00000000 		.4byte	0
 4023 0098 00000000 		.4byte	0
 4024              	.LLST5:
 4025 009c 00000000 		.4byte	.LVL8
 4026 00a0 0D000000 		.4byte	.LVL9-1
 4027 00a4 0100     		.2byte	0x1
 4028 00a6 52       		.byte	0x52
 4029 00a7 0D000000 		.4byte	.LVL9-1
 4030 00ab 1A000000 		.4byte	.LFE264
 4031 00af 0400     		.2byte	0x4
 4032 00b1 F3       		.byte	0xf3
 4033 00b2 01       		.uleb128 0x1
 4034 00b3 52       		.byte	0x52
 4035 00b4 9F       		.byte	0x9f
 4036 00b5 00000000 		.4byte	0
 4037 00b9 00000000 		.4byte	0
 4038              	.LLST6:
 4039 00bd 00000000 		.4byte	.LVL11
ARM GAS  /tmp/ccn8STLw.s 			page 72


 4040 00c1 07000000 		.4byte	.LVL12-1
 4041 00c5 0100     		.2byte	0x1
 4042 00c7 50       		.byte	0x50
 4043 00c8 07000000 		.4byte	.LVL12-1
 4044 00cc 0E000000 		.4byte	.LFE265
 4045 00d0 0100     		.2byte	0x1
 4046 00d2 54       		.byte	0x54
 4047 00d3 00000000 		.4byte	0
 4048 00d7 00000000 		.4byte	0
 4049              	.LLST7:
 4050 00db 00000000 		.4byte	.LVL11
 4051 00df 07000000 		.4byte	.LVL12-1
 4052 00e3 0100     		.2byte	0x1
 4053 00e5 51       		.byte	0x51
 4054 00e6 07000000 		.4byte	.LVL12-1
 4055 00ea 0E000000 		.4byte	.LFE265
 4056 00ee 0400     		.2byte	0x4
 4057 00f0 F3       		.byte	0xf3
 4058 00f1 01       		.uleb128 0x1
 4059 00f2 51       		.byte	0x51
 4060 00f3 9F       		.byte	0x9f
 4061 00f4 00000000 		.4byte	0
 4062 00f8 00000000 		.4byte	0
 4063              	.LLST8:
 4064 00fc 00000000 		.4byte	.LVL11
 4065 0100 07000000 		.4byte	.LVL12-1
 4066 0104 0100     		.2byte	0x1
 4067 0106 52       		.byte	0x52
 4068 0107 07000000 		.4byte	.LVL12-1
 4069 010b 0E000000 		.4byte	.LFE265
 4070 010f 0400     		.2byte	0x4
 4071 0111 F3       		.byte	0xf3
 4072 0112 01       		.uleb128 0x1
 4073 0113 52       		.byte	0x52
 4074 0114 9F       		.byte	0x9f
 4075 0115 00000000 		.4byte	0
 4076 0119 00000000 		.4byte	0
 4077              	.LLST9:
 4078 011d 00000000 		.4byte	.LVL13
 4079 0121 0E000000 		.4byte	.LVL14
 4080 0125 0100     		.2byte	0x1
 4081 0127 50       		.byte	0x50
 4082 0128 0E000000 		.4byte	.LVL14
 4083 012c 16000000 		.4byte	.LVL15
 4084 0130 0400     		.2byte	0x4
 4085 0132 F3       		.byte	0xf3
 4086 0133 01       		.uleb128 0x1
 4087 0134 50       		.byte	0x50
 4088 0135 9F       		.byte	0x9f
 4089 0136 16000000 		.4byte	.LVL15
 4090 013a 1D000000 		.4byte	.LVL16-1
 4091 013e 0100     		.2byte	0x1
 4092 0140 50       		.byte	0x50
 4093 0141 1D000000 		.4byte	.LVL16-1
 4094 0145 2A000000 		.4byte	.LFE266
 4095 0149 0100     		.2byte	0x1
 4096 014b 54       		.byte	0x54
ARM GAS  /tmp/ccn8STLw.s 			page 73


 4097 014c 00000000 		.4byte	0
 4098 0150 00000000 		.4byte	0
 4099              	.LLST10:
 4100 0154 0E000000 		.4byte	.LVL14
 4101 0158 16000000 		.4byte	.LVL15
 4102 015c 0100     		.2byte	0x1
 4103 015e 50       		.byte	0x50
 4104 015f 1E000000 		.4byte	.LVL16
 4105 0163 2A000000 		.4byte	.LFE266
 4106 0167 0100     		.2byte	0x1
 4107 0169 50       		.byte	0x50
 4108 016a 00000000 		.4byte	0
 4109 016e 00000000 		.4byte	0
 4110              	.LLST11:
 4111 0172 0E000000 		.4byte	.LVL14
 4112 0176 16000000 		.4byte	.LVL15
 4113 017a 0200     		.2byte	0x2
 4114 017c 30       		.byte	0x30
 4115 017d 9F       		.byte	0x9f
 4116 017e 22000000 		.4byte	.LVL17
 4117 0182 2A000000 		.4byte	.LFE266
 4118 0186 0200     		.2byte	0x2
 4119 0188 30       		.byte	0x30
 4120 0189 9F       		.byte	0x9f
 4121 018a 00000000 		.4byte	0
 4122 018e 00000000 		.4byte	0
 4123              	.LLST12:
 4124 0192 00000000 		.4byte	.LVL18
 4125 0196 08000000 		.4byte	.LVL19
 4126 019a 0100     		.2byte	0x1
 4127 019c 50       		.byte	0x50
 4128 019d 08000000 		.4byte	.LVL19
 4129 01a1 0A000000 		.4byte	.LVL20
 4130 01a5 0400     		.2byte	0x4
 4131 01a7 F3       		.byte	0xf3
 4132 01a8 01       		.uleb128 0x1
 4133 01a9 50       		.byte	0x50
 4134 01aa 9F       		.byte	0x9f
 4135 01ab 0A000000 		.4byte	.LVL20
 4136 01af 11000000 		.4byte	.LVL21-1
 4137 01b3 0100     		.2byte	0x1
 4138 01b5 50       		.byte	0x50
 4139 01b6 11000000 		.4byte	.LVL21-1
 4140 01ba 18000000 		.4byte	.LFE267
 4141 01be 0100     		.2byte	0x1
 4142 01c0 54       		.byte	0x54
 4143 01c1 00000000 		.4byte	0
 4144 01c5 00000000 		.4byte	0
 4145              	.LLST13:
 4146 01c9 00000000 		.4byte	.LVL22
 4147 01cd 0D000000 		.4byte	.LVL23-1
 4148 01d1 0100     		.2byte	0x1
 4149 01d3 50       		.byte	0x50
 4150 01d4 0D000000 		.4byte	.LVL23-1
 4151 01d8 1A000000 		.4byte	.LFE268
 4152 01dc 0100     		.2byte	0x1
 4153 01de 54       		.byte	0x54
ARM GAS  /tmp/ccn8STLw.s 			page 74


 4154 01df 00000000 		.4byte	0
 4155 01e3 00000000 		.4byte	0
 4156              	.LLST14:
 4157 01e7 00000000 		.4byte	.LVL22
 4158 01eb 0D000000 		.4byte	.LVL23-1
 4159 01ef 0100     		.2byte	0x1
 4160 01f1 51       		.byte	0x51
 4161 01f2 0D000000 		.4byte	.LVL23-1
 4162 01f6 1A000000 		.4byte	.LFE268
 4163 01fa 0400     		.2byte	0x4
 4164 01fc F3       		.byte	0xf3
 4165 01fd 01       		.uleb128 0x1
 4166 01fe 51       		.byte	0x51
 4167 01ff 9F       		.byte	0x9f
 4168 0200 00000000 		.4byte	0
 4169 0204 00000000 		.4byte	0
 4170              	.LLST15:
 4171 0208 00000000 		.4byte	.LVL22
 4172 020c 0D000000 		.4byte	.LVL23-1
 4173 0210 0100     		.2byte	0x1
 4174 0212 52       		.byte	0x52
 4175 0213 0D000000 		.4byte	.LVL23-1
 4176 0217 1A000000 		.4byte	.LFE268
 4177 021b 0400     		.2byte	0x4
 4178 021d F3       		.byte	0xf3
 4179 021e 01       		.uleb128 0x1
 4180 021f 52       		.byte	0x52
 4181 0220 9F       		.byte	0x9f
 4182 0221 00000000 		.4byte	0
 4183 0225 00000000 		.4byte	0
 4184              	.LLST16:
 4185 0229 00000000 		.4byte	.LVL25
 4186 022d 07000000 		.4byte	.LVL26-1
 4187 0231 0100     		.2byte	0x1
 4188 0233 50       		.byte	0x50
 4189 0234 07000000 		.4byte	.LVL26-1
 4190 0238 0E000000 		.4byte	.LFE269
 4191 023c 0100     		.2byte	0x1
 4192 023e 54       		.byte	0x54
 4193 023f 00000000 		.4byte	0
 4194 0243 00000000 		.4byte	0
 4195              	.LLST17:
 4196 0247 00000000 		.4byte	.LVL25
 4197 024b 07000000 		.4byte	.LVL26-1
 4198 024f 0100     		.2byte	0x1
 4199 0251 51       		.byte	0x51
 4200 0252 07000000 		.4byte	.LVL26-1
 4201 0256 0E000000 		.4byte	.LFE269
 4202 025a 0400     		.2byte	0x4
 4203 025c F3       		.byte	0xf3
 4204 025d 01       		.uleb128 0x1
 4205 025e 51       		.byte	0x51
 4206 025f 9F       		.byte	0x9f
 4207 0260 00000000 		.4byte	0
 4208 0264 00000000 		.4byte	0
 4209              	.LLST18:
 4210 0268 00000000 		.4byte	.LVL25
ARM GAS  /tmp/ccn8STLw.s 			page 75


 4211 026c 07000000 		.4byte	.LVL26-1
 4212 0270 0100     		.2byte	0x1
 4213 0272 52       		.byte	0x52
 4214 0273 07000000 		.4byte	.LVL26-1
 4215 0277 0E000000 		.4byte	.LFE269
 4216 027b 0400     		.2byte	0x4
 4217 027d F3       		.byte	0xf3
 4218 027e 01       		.uleb128 0x1
 4219 027f 52       		.byte	0x52
 4220 0280 9F       		.byte	0x9f
 4221 0281 00000000 		.4byte	0
 4222 0285 00000000 		.4byte	0
 4223              	.LLST19:
 4224 0289 00000000 		.4byte	.LVL27
 4225 028d 0E000000 		.4byte	.LVL28
 4226 0291 0100     		.2byte	0x1
 4227 0293 50       		.byte	0x50
 4228 0294 0E000000 		.4byte	.LVL28
 4229 0298 16000000 		.4byte	.LVL29
 4230 029c 0400     		.2byte	0x4
 4231 029e F3       		.byte	0xf3
 4232 029f 01       		.uleb128 0x1
 4233 02a0 50       		.byte	0x50
 4234 02a1 9F       		.byte	0x9f
 4235 02a2 16000000 		.4byte	.LVL29
 4236 02a6 1D000000 		.4byte	.LVL30-1
 4237 02aa 0100     		.2byte	0x1
 4238 02ac 50       		.byte	0x50
 4239 02ad 1D000000 		.4byte	.LVL30-1
 4240 02b1 2A000000 		.4byte	.LFE270
 4241 02b5 0100     		.2byte	0x1
 4242 02b7 54       		.byte	0x54
 4243 02b8 00000000 		.4byte	0
 4244 02bc 00000000 		.4byte	0
 4245              	.LLST20:
 4246 02c0 0E000000 		.4byte	.LVL28
 4247 02c4 16000000 		.4byte	.LVL29
 4248 02c8 0100     		.2byte	0x1
 4249 02ca 50       		.byte	0x50
 4250 02cb 1E000000 		.4byte	.LVL30
 4251 02cf 2A000000 		.4byte	.LFE270
 4252 02d3 0100     		.2byte	0x1
 4253 02d5 50       		.byte	0x50
 4254 02d6 00000000 		.4byte	0
 4255 02da 00000000 		.4byte	0
 4256              	.LLST21:
 4257 02de 0E000000 		.4byte	.LVL28
 4258 02e2 16000000 		.4byte	.LVL29
 4259 02e6 0200     		.2byte	0x2
 4260 02e8 30       		.byte	0x30
 4261 02e9 9F       		.byte	0x9f
 4262 02ea 22000000 		.4byte	.LVL31
 4263 02ee 2A000000 		.4byte	.LFE270
 4264 02f2 0200     		.2byte	0x2
 4265 02f4 30       		.byte	0x30
 4266 02f5 9F       		.byte	0x9f
 4267 02f6 00000000 		.4byte	0
ARM GAS  /tmp/ccn8STLw.s 			page 76


 4268 02fa 00000000 		.4byte	0
 4269              	.LLST22:
 4270 02fe 00000000 		.4byte	.LVL32
 4271 0302 08000000 		.4byte	.LVL33
 4272 0306 0100     		.2byte	0x1
 4273 0308 50       		.byte	0x50
 4274 0309 08000000 		.4byte	.LVL33
 4275 030d 0A000000 		.4byte	.LVL34
 4276 0311 0400     		.2byte	0x4
 4277 0313 F3       		.byte	0xf3
 4278 0314 01       		.uleb128 0x1
 4279 0315 50       		.byte	0x50
 4280 0316 9F       		.byte	0x9f
 4281 0317 0A000000 		.4byte	.LVL34
 4282 031b 11000000 		.4byte	.LVL35-1
 4283 031f 0100     		.2byte	0x1
 4284 0321 50       		.byte	0x50
 4285 0322 11000000 		.4byte	.LVL35-1
 4286 0326 18000000 		.4byte	.LFE271
 4287 032a 0100     		.2byte	0x1
 4288 032c 54       		.byte	0x54
 4289 032d 00000000 		.4byte	0
 4290 0331 00000000 		.4byte	0
 4291              		.section	.debug_aranges,"",%progbits
 4292 0000 74000000 		.4byte	0x74
 4293 0004 0200     		.2byte	0x2
 4294 0006 00000000 		.4byte	.Ldebug_info0
 4295 000a 04       		.byte	0x4
 4296 000b 00       		.byte	0
 4297 000c 0000     		.2byte	0
 4298 000e 0000     		.2byte	0
 4299 0010 00000000 		.4byte	.LFB260
 4300 0014 04000000 		.4byte	.LFE260-.LFB260
 4301 0018 00000000 		.4byte	.LFB261
 4302 001c 0E000000 		.4byte	.LFE261-.LFB261
 4303 0020 00000000 		.4byte	.LFB262
 4304 0024 1C000000 		.4byte	.LFE262-.LFB262
 4305 0028 00000000 		.4byte	.LFB263
 4306 002c 1E000000 		.4byte	.LFE263-.LFB263
 4307 0030 00000000 		.4byte	.LFB264
 4308 0034 1A000000 		.4byte	.LFE264-.LFB264
 4309 0038 00000000 		.4byte	.LFB265
 4310 003c 0E000000 		.4byte	.LFE265-.LFB265
 4311 0040 00000000 		.4byte	.LFB266
 4312 0044 2A000000 		.4byte	.LFE266-.LFB266
 4313 0048 00000000 		.4byte	.LFB267
 4314 004c 18000000 		.4byte	.LFE267-.LFB267
 4315 0050 00000000 		.4byte	.LFB268
 4316 0054 1A000000 		.4byte	.LFE268-.LFB268
 4317 0058 00000000 		.4byte	.LFB269
 4318 005c 0E000000 		.4byte	.LFE269-.LFB269
 4319 0060 00000000 		.4byte	.LFB270
 4320 0064 2A000000 		.4byte	.LFE270-.LFB270
 4321 0068 00000000 		.4byte	.LFB271
 4322 006c 18000000 		.4byte	.LFE271-.LFB271
 4323 0070 00000000 		.4byte	0
 4324 0074 00000000 		.4byte	0
ARM GAS  /tmp/ccn8STLw.s 			page 77


 4325              		.section	.debug_ranges,"",%progbits
 4326              	.Ldebug_ranges0:
 4327 0000 02000000 		.4byte	.LBB102
 4328 0004 04000000 		.4byte	.LBE102
 4329 0008 06000000 		.4byte	.LBB111
 4330 000c 0A000000 		.4byte	.LBE111
 4331 0010 00000000 		.4byte	0
 4332 0014 00000000 		.4byte	0
 4333 0018 02000000 		.4byte	.LBB118
 4334 001c 04000000 		.4byte	.LBE118
 4335 0020 06000000 		.4byte	.LBB127
 4336 0024 0A000000 		.4byte	.LBE127
 4337 0028 00000000 		.4byte	0
 4338 002c 00000000 		.4byte	0
 4339 0030 02000000 		.4byte	.LBB134
 4340 0034 04000000 		.4byte	.LBE134
 4341 0038 06000000 		.4byte	.LBB143
 4342 003c 0A000000 		.4byte	.LBE143
 4343 0040 00000000 		.4byte	0
 4344 0044 00000000 		.4byte	0
 4345 0048 0E000000 		.4byte	.LBB155
 4346 004c 14000000 		.4byte	.LBE155
 4347 0050 22000000 		.4byte	.LBB166
 4348 0054 28000000 		.4byte	.LBE166
 4349 0058 00000000 		.4byte	0
 4350 005c 00000000 		.4byte	0
 4351 0060 02000000 		.4byte	.LBB168
 4352 0064 04000000 		.4byte	.LBE168
 4353 0068 06000000 		.4byte	.LBB177
 4354 006c 0A000000 		.4byte	.LBE177
 4355 0070 00000000 		.4byte	0
 4356 0074 00000000 		.4byte	0
 4357 0078 0E000000 		.4byte	.LBB189
 4358 007c 14000000 		.4byte	.LBE189
 4359 0080 22000000 		.4byte	.LBB200
 4360 0084 28000000 		.4byte	.LBE200
 4361 0088 00000000 		.4byte	0
 4362 008c 00000000 		.4byte	0
 4363 0090 00000000 		.4byte	.LFB260
 4364 0094 04000000 		.4byte	.LFE260
 4365 0098 00000000 		.4byte	.LFB261
 4366 009c 0E000000 		.4byte	.LFE261
 4367 00a0 00000000 		.4byte	.LFB262
 4368 00a4 1C000000 		.4byte	.LFE262
 4369 00a8 00000000 		.4byte	.LFB263
 4370 00ac 1E000000 		.4byte	.LFE263
 4371 00b0 00000000 		.4byte	.LFB264
 4372 00b4 1A000000 		.4byte	.LFE264
 4373 00b8 00000000 		.4byte	.LFB265
 4374 00bc 0E000000 		.4byte	.LFE265
 4375 00c0 00000000 		.4byte	.LFB266
 4376 00c4 2A000000 		.4byte	.LFE266
 4377 00c8 00000000 		.4byte	.LFB267
 4378 00cc 18000000 		.4byte	.LFE267
 4379 00d0 00000000 		.4byte	.LFB268
 4380 00d4 1A000000 		.4byte	.LFE268
 4381 00d8 00000000 		.4byte	.LFB269
ARM GAS  /tmp/ccn8STLw.s 			page 78


 4382 00dc 0E000000 		.4byte	.LFE269
 4383 00e0 00000000 		.4byte	.LFB270
 4384 00e4 2A000000 		.4byte	.LFE270
 4385 00e8 00000000 		.4byte	.LFB271
 4386 00ec 18000000 		.4byte	.LFE271
 4387 00f0 00000000 		.4byte	0
 4388 00f4 00000000 		.4byte	0
 4389              		.section	.debug_line,"",%progbits
 4390              	.Ldebug_line0:
 4391 0000 42040000 		.section	.debug_str,"MS",%progbits,1
 4391      02008902 
 4391      00000201 
 4391      FB0E0D00 
 4391      01010101 
 4392              	.LASF179:
 4393 0000 75617274 		.ascii	"uart_lld_start_receive\000"
 4393      5F6C6C64 
 4393      5F737461 
 4393      72745F72 
 4393      65636569 
 4394              	.LASF138:
 4395 0017 646D6172 		.ascii	"dmarx\000"
 4395      7800
 4396              	.LASF54:
 4397 001d 72656164 		.ascii	"ready_list_t\000"
 4397      795F6C69 
 4397      73745F74 
 4397      00
 4398              	.LASF174:
 4399 002a 75617274 		.ascii	"uart_lld_init\000"
 4399      5F6C6C64 
 4399      5F696E69 
 4399      7400
 4400              	.LASF4:
 4401 0038 73697A65 		.ascii	"size_t\000"
 4401      5F7400
 4402              	.LASF147:
 4403 003f 72786368 		.ascii	"rxchar_cb\000"
 4403      61725F63 
 4403      6200
 4404              	.LASF95:
 4405 0049 7264796D 		.ascii	"rdymsg\000"
 4405      736700
 4406              	.LASF20:
 4407 0050 75696E74 		.ascii	"uint64_t\000"
 4407      36345F74 
 4407      00
 4408              	.LASF115:
 4409 0059 76656374 		.ascii	"vector\000"
 4409      6F7200
 4410              	.LASF84:
 4411 0060 4D304152 		.ascii	"M0AR\000"
 4411      00
 4412              	.LASF5:
 4413 0065 5F5F7569 		.ascii	"__uint8_t\000"
 4413      6E74385F 
 4413      7400
ARM GAS  /tmp/ccn8STLw.s 			page 79


 4414              	.LASF159:
 4415 006f 75617274 		.ascii	"uartObjectInit\000"
 4415      4F626A65 
 4415      6374496E 
 4415      697400
 4416              	.LASF92:
 4417 007e 706F7274 		.ascii	"port_intctx\000"
 4417      5F696E74 
 4417      63747800 
 4418              	.LASF73:
 4419 008a 73797374 		.ascii	"system_debug_t\000"
 4419      656D5F64 
 4419      65627567 
 4419      5F7400
 4420              	.LASF182:
 4421 0099 2E2E2F2E 		.ascii	"../../os/hal/src/uart.c\000"
 4421      2E2F6F73 
 4421      2F68616C 
 4421      2F737263 
 4421      2F756172 
 4422              	.LASF111:
 4423 00b1 73747265 		.ascii	"stream\000"
 4423      616D00
 4424              	.LASF151:
 4425 00b8 706F7274 		.ascii	"port_lock\000"
 4425      5F6C6F63 
 4425      6B00
 4426              	.LASF15:
 4427 00c2 6C6F6E67 		.ascii	"long long unsigned int\000"
 4427      206C6F6E 
 4427      6720756E 
 4427      7369676E 
 4427      65642069 
 4428              	.LASF96:
 4429 00d9 65786974 		.ascii	"exitcode\000"
 4429      636F6465 
 4429      00
 4430              	.LASF80:
 4431 00e2 6D61696E 		.ascii	"mainthread\000"
 4431      74687265 
 4431      616400
 4432              	.LASF70:
 4433 00ed 76697274 		.ascii	"virtual_timers_list_t\000"
 4433      75616C5F 
 4433      74696D65 
 4433      72735F6C 
 4433      6973745F 
 4434              	.LASF150:
 4435 0103 55415254 		.ascii	"UARTConfig\000"
 4435      436F6E66 
 4435      696700
 4436              	.LASF173:
 4437 010e 49544D5F 		.ascii	"ITM_RxBuffer\000"
 4437      52784275 
 4437      66666572 
 4437      00
 4438              	.LASF140:
ARM GAS  /tmp/ccn8STLw.s 			page 80


 4439 011b 72786275 		.ascii	"rxbuf\000"
 4439      6600
 4440              	.LASF53:
 4441 0121 63685F74 		.ascii	"ch_threads_queue\000"
 4441      68726561 
 4441      64735F71 
 4441      75657565 
 4441      00
 4442              	.LASF33:
 4443 0132 705F7072 		.ascii	"p_prio\000"
 4443      696F00
 4444              	.LASF180:
 4445 0139 75617274 		.ascii	"uart_lld_stop_receive\000"
 4445      5F6C6C64 
 4445      5F73746F 
 4445      705F7265 
 4445      63656976 
 4446              	.LASF1:
 4447 014f 6C6F6E67 		.ascii	"long long int\000"
 4447      206C6F6E 
 4447      6720696E 
 4447      7400
 4448              	.LASF3:
 4449 015d 7369676E 		.ascii	"signed char\000"
 4449      65642063 
 4449      68617200 
 4450              	.LASF141:
 4451 0169 75617274 		.ascii	"uartcb_t\000"
 4451      63625F74 
 4451      00
 4452              	.LASF158:
 4453 0172 75617274 		.ascii	"uartInit\000"
 4453      496E6974 
 4453      00
 4454              	.LASF47:
 4455 017b 705F6D70 		.ascii	"p_mpool\000"
 4455      6F6F6C00 
 4456              	.LASF134:
 4457 0183 72787374 		.ascii	"rxstate\000"
 4457      61746500 
 4458              	.LASF106:
 4459 018b 6D5F7175 		.ascii	"m_queue\000"
 4459      65756500 
 4460              	.LASF128:
 4461 0193 55415254 		.ascii	"UART_RX_COMPLETE\000"
 4461      5F52585F 
 4461      434F4D50 
 4461      4C455445 
 4461      00
 4462              	.LASF152:
 4463 01a4 706F7274 		.ascii	"port_unlock\000"
 4463      5F756E6C 
 4463      6F636B00 
 4464              	.LASF132:
 4465 01b0 73746174 		.ascii	"state\000"
 4465      6500
 4466              	.LASF133:
ARM GAS  /tmp/ccn8STLw.s 			page 81


 4467 01b6 74787374 		.ascii	"txstate\000"
 4467      61746500 
 4468              	.LASF11:
 4469 01be 6C6F6E67 		.ascii	"long int\000"
 4469      20696E74 
 4469      00
 4470              	.LASF172:
 4471 01c7 75617274 		.ascii	"uartStopReceiveI\000"
 4471      53746F70 
 4471      52656365 
 4471      69766549 
 4471      00
 4472              	.LASF23:
 4473 01d8 74737461 		.ascii	"tstate_t\000"
 4473      74655F74 
 4473      00
 4474              	.LASF171:
 4475 01e1 75617274 		.ascii	"uartStopReceive\000"
 4475      53746F70 
 4475      52656365 
 4475      69766500 
 4476              	.LASF164:
 4477 01f1 75617274 		.ascii	"uartStartSend\000"
 4477      53746172 
 4477      7453656E 
 4477      6400
 4478              	.LASF35:
 4479 01ff 705F6E65 		.ascii	"p_newer\000"
 4479      77657200 
 4480              	.LASF103:
 4481 0207 735F7175 		.ascii	"s_queue\000"
 4481      65756500 
 4482              	.LASF129:
 4483 020f 75617274 		.ascii	"uartrxstate_t\000"
 4483      72787374 
 4483      6174655F 
 4483      7400
 4484              	.LASF139:
 4485 021d 646D6174 		.ascii	"dmatx\000"
 4485      7800
 4486              	.LASF2:
 4487 0223 6C6F6E67 		.ascii	"long double\000"
 4487      20646F75 
 4487      626C6500 
 4488              	.LASF131:
 4489 022f 55415254 		.ascii	"UARTDriver\000"
 4489      44726976 
 4489      657200
 4490              	.LASF59:
 4491 023a 725F6E65 		.ascii	"r_newer\000"
 4491      77657200 
 4492              	.LASF89:
 4493 0242 72656761 		.ascii	"regarm_t\000"
 4493      726D5F74 
 4493      00
 4494              	.LASF66:
 4495 024b 76745F70 		.ascii	"vt_prev\000"
ARM GAS  /tmp/ccn8STLw.s 			page 82


 4495      72657600 
 4496              	.LASF79:
 4497 0253 76746C69 		.ascii	"vtlist\000"
 4497      737400
 4498              	.LASF157:
 4499 025a 6F73616C 		.ascii	"osalSysLock\000"
 4499      5379734C 
 4499      6F636B00 
 4500              	.LASF110:
 4501 0266 6D757465 		.ascii	"mutex_t\000"
 4501      785F7400 
 4502              	.LASF184:
 4503 026e 76616C75 		.ascii	"value\000"
 4503      6500
 4504              	.LASF81:
 4505 0274 69646C65 		.ascii	"idle_thread_wa\000"
 4505      5F746872 
 4505      6561645F 
 4505      776100
 4506              	.LASF123:
 4507 0283 55415254 		.ascii	"UART_TX_ACTIVE\000"
 4507      5F54585F 
 4507      41435449 
 4507      564500
 4508              	.LASF136:
 4509 0292 75736172 		.ascii	"usart\000"
 4509      7400
 4510              	.LASF0:
 4511 0298 756E7369 		.ascii	"unsigned int\000"
 4511      676E6564 
 4511      20696E74 
 4511      00
 4512              	.LASF65:
 4513 02a5 76745F6E 		.ascii	"vt_next\000"
 4513      65787400 
 4514              	.LASF165:
 4515 02ad 74786275 		.ascii	"txbuf\000"
 4515      6600
 4516              	.LASF99:
 4517 02b3 77747365 		.ascii	"wtsemp\000"
 4517      6D7000
 4518              	.LASF67:
 4519 02ba 76745F64 		.ascii	"vt_delta\000"
 4519      656C7461 
 4519      00
 4520              	.LASF178:
 4521 02c3 75617274 		.ascii	"uart_lld_stop_send\000"
 4521      5F6C6C64 
 4521      5F73746F 
 4521      705F7365 
 4521      6E6400
 4522              	.LASF42:
 4523 02d6 705F6D73 		.ascii	"p_msgqueue\000"
 4523      67717565 
 4523      756500
 4524              	.LASF143:
 4525 02e1 75617274 		.ascii	"uartecb_t\000"
ARM GAS  /tmp/ccn8STLw.s 			page 83


 4525      6563625F 
 4525      7400
 4526              	.LASF113:
 4527 02eb 69736869 		.ascii	"ishift\000"
 4527      667400
 4528              	.LASF104:
 4529 02f2 735F636E 		.ascii	"s_cnt\000"
 4529      7400
 4530              	.LASF9:
 4531 02f8 73686F72 		.ascii	"short unsigned int\000"
 4531      7420756E 
 4531      7369676E 
 4531      65642069 
 4531      6E7400
 4532              	.LASF118:
 4533 030b 55415254 		.ascii	"UART_UNINIT\000"
 4533      5F554E49 
 4533      4E495400 
 4534              	.LASF119:
 4535 0317 55415254 		.ascii	"UART_STOP\000"
 4535      5F53544F 
 4535      5000
 4536              	.LASF50:
 4537 0321 63685F74 		.ascii	"ch_thread\000"
 4537      68726561 
 4537      6400
 4538              	.LASF161:
 4539 032b 75617274 		.ascii	"uartp\000"
 4539      7000
 4540              	.LASF26:
 4541 0331 6D73675F 		.ascii	"msg_t\000"
 4541      7400
 4542              	.LASF76:
 4543 0337 63685F73 		.ascii	"ch_system_t\000"
 4543      79737465 
 4543      6D5F7400 
 4544              	.LASF88:
 4545 0343 55534152 		.ascii	"USART_TypeDef\000"
 4545      545F5479 
 4545      70654465 
 4545      6600
 4546              	.LASF22:
 4547 0351 746D6F64 		.ascii	"tmode_t\000"
 4547      655F7400 
 4548              	.LASF17:
 4549 0359 75696E74 		.ascii	"uint16_t\000"
 4549      31365F74 
 4549      00
 4550              	.LASF55:
 4551 0362 63685F72 		.ascii	"ch_ready_list\000"
 4551      65616479 
 4551      5F6C6973 
 4551      7400
 4552              	.LASF27:
 4553 0370 6576656E 		.ascii	"eventmask_t\000"
 4553      746D6173 
 4553      6B5F7400 
ARM GAS  /tmp/ccn8STLw.s 			page 84


 4554              	.LASF10:
 4555 037c 5F5F696E 		.ascii	"__int32_t\000"
 4555      7433325F 
 4555      7400
 4556              	.LASF90:
 4557 0386 73746B61 		.ascii	"stkalign_t\000"
 4557      6C69676E 
 4557      5F7400
 4558              	.LASF181:
 4559 0391 474E5520 		.ascii	"GNU C11 5.2.0 -mcpu=cortex-m4 -mfloat-abi=hard -mfp"
 4559      43313120 
 4559      352E322E 
 4559      30202D6D 
 4559      6370753D 
 4560 03c4 753D6670 		.ascii	"u=fpv4-sp-d16 -mno-thumb-interwork -mthumb -ggdb -O"
 4560      76342D73 
 4560      702D6431 
 4560      36202D6D 
 4560      6E6F2D74 
 4561 03f7 32202D66 		.ascii	"2 -fomit-frame-pointer -falign-functions=16 -ffunct"
 4561      6F6D6974 
 4561      2D667261 
 4561      6D652D70 
 4561      6F696E74 
 4562 042a 696F6E2D 		.ascii	"ion-sections -fdata-sections -fno-common -fsingle-p"
 4562      73656374 
 4562      696F6E73 
 4562      202D6664 
 4562      6174612D 
 4563 045d 72656369 		.ascii	"recision-constant\000"
 4563      73696F6E 
 4563      2D636F6E 
 4563      7374616E 
 4563      7400
 4564              	.LASF168:
 4565 046f 75617274 		.ascii	"uartStopSendI\000"
 4565      53746F70 
 4565      53656E64 
 4565      4900
 4566              	.LASF41:
 4567 047d 705F7761 		.ascii	"p_waiting\000"
 4567      6974696E 
 4567      6700
 4568              	.LASF82:
 4569 0487 73697A65 		.ascii	"sizetype\000"
 4569      74797065 
 4569      00
 4570              	.LASF48:
 4571 0490 74687265 		.ascii	"thread_reference_t\000"
 4571      61645F72 
 4571      65666572 
 4571      656E6365 
 4571      5F7400
 4572              	.LASF71:
 4573 04a3 63685F76 		.ascii	"ch_virtual_timers_list\000"
 4573      69727475 
 4573      616C5F74 
ARM GAS  /tmp/ccn8STLw.s 			page 85


 4573      696D6572 
 4573      735F6C69 
 4574              	.LASF98:
 4575 04ba 77747472 		.ascii	"wttrp\000"
 4575      7000
 4576              	.LASF167:
 4577 04c0 75617274 		.ascii	"uartStopSend\000"
 4577      53746F70 
 4577      53656E64 
 4577      00
 4578              	.LASF28:
 4579 04cd 636E745F 		.ascii	"cnt_t\000"
 4579      7400
 4580              	.LASF148:
 4581 04d3 72786572 		.ascii	"rxerr_cb\000"
 4581      725F6362 
 4581      00
 4582              	.LASF72:
 4583 04dc 76745F6C 		.ascii	"vt_lasttime\000"
 4583      61737474 
 4583      696D6500 
 4584              	.LASF36:
 4585 04e8 705F6F6C 		.ascii	"p_older\000"
 4585      64657200 
 4586              	.LASF58:
 4587 04f0 725F6374 		.ascii	"r_ctx\000"
 4587      7800
 4588              	.LASF130:
 4589 04f6 75617274 		.ascii	"uartflags_t\000"
 4589      666C6167 
 4589      735F7400 
 4590              	.LASF160:
 4591 0502 75617274 		.ascii	"uartStart\000"
 4591      53746172 
 4591      7400
 4592              	.LASF146:
 4593 050c 7278656E 		.ascii	"rxend_cb\000"
 4593      645F6362 
 4593      00
 4594              	.LASF94:
 4595 0515 746D5F63 		.ascii	"tm_calibration_t\000"
 4595      616C6962 
 4595      72617469 
 4595      6F6E5F74 
 4595      00
 4596              	.LASF125:
 4597 0526 75617274 		.ascii	"uarttxstate_t\000"
 4597      74787374 
 4597      6174655F 
 4597      7400
 4598              	.LASF61:
 4599 0534 725F6375 		.ascii	"r_current\000"
 4599      7272656E 
 4599      7400
 4600              	.LASF60:
 4601 053e 725F6F6C 		.ascii	"r_older\000"
 4601      64657200 
ARM GAS  /tmp/ccn8STLw.s 			page 86


 4602              	.LASF87:
 4603 0546 47545052 		.ascii	"GTPR\000"
 4603      00
 4604              	.LASF14:
 4605 054b 5F5F7569 		.ascii	"__uint64_t\000"
 4605      6E743634 
 4605      5F7400
 4606              	.LASF183:
 4607 0556 2F686F6D 		.ascii	"/home/sssilvar/Documents/embebidos/ChibiOS/iflab/pr"
 4607      652F7373 
 4607      73696C76 
 4607      61722F44 
 4607      6F63756D 
 4608 0589 6F6A6563 		.ascii	"ojects/UART\000"
 4608      74732F55 
 4608      41525400 
 4609              	.LASF24:
 4610 0595 74726566 		.ascii	"trefs_t\000"
 4610      735F7400 
 4611              	.LASF63:
 4612 059d 76697274 		.ascii	"virtual_timer_t\000"
 4612      75616C5F 
 4612      74696D65 
 4612      725F7400 
 4613              	.LASF32:
 4614 05ad 705F7072 		.ascii	"p_prev\000"
 4614      657600
 4615              	.LASF116:
 4616 05b4 73746D33 		.ascii	"stm32_dma_stream_t\000"
 4616      325F646D 
 4616      615F7374 
 4616      7265616D 
 4616      5F7400
 4617              	.LASF145:
 4618 05c7 7478656E 		.ascii	"txend2_cb\000"
 4618      64325F63 
 4618      6200
 4619              	.LASF25:
 4620 05d1 74707269 		.ascii	"tprio_t\000"
 4620      6F5F7400 
 4621              	.LASF170:
 4622 05d9 75617274 		.ascii	"uartStartReceiveI\000"
 4622      53746172 
 4622      74526563 
 4622      65697665 
 4622      4900
 4623              	.LASF74:
 4624 05eb 63685F73 		.ascii	"ch_system_debug\000"
 4624      79737465 
 4624      6D5F6465 
 4624      62756700 
 4625              	.LASF117:
 4626 05fb 5F426F6F 		.ascii	"_Bool\000"
 4626      6C00
 4627              	.LASF18:
 4628 0601 696E7433 		.ascii	"int32_t\000"
 4628      325F7400 
ARM GAS  /tmp/ccn8STLw.s 			page 87


 4629              	.LASF6:
 4630 0609 756E7369 		.ascii	"unsigned char\000"
 4630      676E6564 
 4630      20636861 
 4630      7200
 4631              	.LASF45:
 4632 0617 705F6D74 		.ascii	"p_mtxlist\000"
 4632      786C6973 
 4632      7400
 4633              	.LASF7:
 4634 0621 73686F72 		.ascii	"short int\000"
 4634      7420696E 
 4634      7400
 4635              	.LASF38:
 4636 062b 705F7374 		.ascii	"p_state\000"
 4636      61746500 
 4637              	.LASF57:
 4638 0633 725F7072 		.ascii	"r_prio\000"
 4638      696F00
 4639              	.LASF101:
 4640 063a 65776D61 		.ascii	"ewmask\000"
 4640      736B00
 4641              	.LASF31:
 4642 0641 705F6E65 		.ascii	"p_next\000"
 4642      787400
 4643              	.LASF121:
 4644 0648 75617274 		.ascii	"uartstate_t\000"
 4644      73746174 
 4644      655F7400 
 4645              	.LASF39:
 4646 0654 705F666C 		.ascii	"p_flags\000"
 4646      61677300 
 4647              	.LASF163:
 4648 065c 5F5F6675 		.ascii	"__func__\000"
 4648      6E635F5F 
 4648      00
 4649              	.LASF37:
 4650 0665 705F6E61 		.ascii	"p_name\000"
 4650      6D6500
 4651              	.LASF153:
 4652 066c 63685379 		.ascii	"chSysLock\000"
 4652      734C6F63 
 4652      6B00
 4653              	.LASF77:
 4654 0676 63685F73 		.ascii	"ch_system\000"
 4654      79737465 
 4654      6D00
 4655              	.LASF156:
 4656 0680 6F73616C 		.ascii	"osalSysUnlock\000"
 4656      53797355 
 4656      6E6C6F63 
 4656      6B00
 4657              	.LASF124:
 4658 068e 55415254 		.ascii	"UART_TX_COMPLETE\000"
 4658      5F54585F 
 4658      434F4D50 
 4658      4C455445 
ARM GAS  /tmp/ccn8STLw.s 			page 88


 4658      00
 4659              	.LASF102:
 4660 069f 63685F73 		.ascii	"ch_semaphore\000"
 4660      656D6170 
 4660      686F7265 
 4660      00
 4661              	.LASF44:
 4662 06ac 705F6570 		.ascii	"p_epending\000"
 4662      656E6469 
 4662      6E6700
 4663              	.LASF112:
 4664 06b7 69666372 		.ascii	"ifcr\000"
 4664      00
 4665              	.LASF19:
 4666 06bc 75696E74 		.ascii	"uint32_t\000"
 4666      33325F74 
 4666      00
 4667              	.LASF100:
 4668 06c5 77746D74 		.ascii	"wtmtxp\000"
 4668      787000
 4669              	.LASF56:
 4670 06cc 725F7175 		.ascii	"r_queue\000"
 4670      65756500 
 4671              	.LASF51:
 4672 06d4 63685F74 		.ascii	"ch_threads_list\000"
 4672      68726561 
 4672      64735F6C 
 4672      69737400 
 4673              	.LASF142:
 4674 06e4 75617274 		.ascii	"uartccb_t\000"
 4674      6363625F 
 4674      7400
 4675              	.LASF162:
 4676 06ee 75617274 		.ascii	"uartStop\000"
 4676      53746F70 
 4676      00
 4677              	.LASF13:
 4678 06f7 6C6F6E67 		.ascii	"long unsigned int\000"
 4678      20756E73 
 4678      69676E65 
 4678      6420696E 
 4678      7400
 4679              	.LASF175:
 4680 0709 75617274 		.ascii	"uart_lld_start\000"
 4680      5F6C6C64 
 4680      5F737461 
 4680      727400
 4681              	.LASF109:
 4682 0718 63686172 		.ascii	"char\000"
 4682      00
 4683              	.LASF135:
 4684 071d 636F6E66 		.ascii	"config\000"
 4684      696700
 4685              	.LASF126:
 4686 0724 55415254 		.ascii	"UART_RX_IDLE\000"
 4686      5F52585F 
 4686      49444C45 
ARM GAS  /tmp/ccn8STLw.s 			page 89


 4686      00
 4687              	.LASF8:
 4688 0731 5F5F7569 		.ascii	"__uint16_t\000"
 4688      6E743136 
 4688      5F7400
 4689              	.LASF120:
 4690 073c 55415254 		.ascii	"UART_READY\000"
 4690      5F524541 
 4690      445900
 4691              	.LASF30:
 4692 0747 74687265 		.ascii	"thread_t\000"
 4692      61645F74 
 4692      00
 4693              	.LASF108:
 4694 0750 6D5F6E65 		.ascii	"m_next\000"
 4694      787400
 4695              	.LASF29:
 4696 0757 73797374 		.ascii	"systime_t\000"
 4696      696D655F 
 4696      7400
 4697              	.LASF46:
 4698 0761 705F7265 		.ascii	"p_realprio\000"
 4698      616C7072 
 4698      696F00
 4699              	.LASF62:
 4700 076c 76746675 		.ascii	"vtfunc_t\000"
 4700      6E635F74 
 4700      00
 4701              	.LASF12:
 4702 0775 5F5F7569 		.ascii	"__uint32_t\000"
 4702      6E743332 
 4702      5F7400
 4703              	.LASF154:
 4704 0780 5F5F7365 		.ascii	"__set_BASEPRI\000"
 4704      745F4241 
 4704      53455052 
 4704      4900
 4705              	.LASF122:
 4706 078e 55415254 		.ascii	"UART_TX_IDLE\000"
 4706      5F54585F 
 4706      49444C45 
 4706      00
 4707              	.LASF83:
 4708 079b 4E445452 		.ascii	"NDTR\000"
 4708      00
 4709              	.LASF75:
 4710 07a0 70616E69 		.ascii	"panic_msg\000"
 4710      635F6D73 
 4710      6700
 4711              	.LASF93:
 4712 07aa 6F666673 		.ascii	"offset\000"
 4712      657400
 4713              	.LASF86:
 4714 07b1 444D415F 		.ascii	"DMA_Stream_TypeDef\000"
 4714      53747265 
 4714      616D5F54 
 4714      79706544 
ARM GAS  /tmp/ccn8STLw.s 			page 90


 4714      656600
 4715              	.LASF91:
 4716 07c4 636F6E74 		.ascii	"context\000"
 4716      65787400 
 4717              	.LASF64:
 4718 07cc 63685F76 		.ascii	"ch_virtual_timer\000"
 4718      69727475 
 4718      616C5F74 
 4718      696D6572 
 4718      00
 4719              	.LASF21:
 4720 07dd 7274636E 		.ascii	"rtcnt_t\000"
 4720      745F7400 
 4721              	.LASF85:
 4722 07e5 4D314152 		.ascii	"M1AR\000"
 4722      00
 4723              	.LASF114:
 4724 07ea 73656C66 		.ascii	"selfindex\000"
 4724      696E6465 
 4724      7800
 4725              	.LASF69:
 4726 07f4 76745F70 		.ascii	"vt_par\000"
 4726      617200
 4727              	.LASF52:
 4728 07fb 74687265 		.ascii	"threads_queue_t\000"
 4728      6164735F 
 4728      71756575 
 4728      655F7400 
 4729              	.LASF105:
 4730 080b 63685F6D 		.ascii	"ch_mutex\000"
 4730      75746578 
 4730      00
 4731              	.LASF40:
 4732 0814 705F7265 		.ascii	"p_refs\000"
 4732      667300
 4733              	.LASF144:
 4734 081b 7478656E 		.ascii	"txend1_cb\000"
 4734      64315F63 
 4734      6200
 4735              	.LASF166:
 4736 0825 75617274 		.ascii	"uartStartSendI\000"
 4736      53746172 
 4736      7453656E 
 4736      644900
 4737              	.LASF78:
 4738 0834 726C6973 		.ascii	"rlist\000"
 4738      7400
 4739              	.LASF16:
 4740 083a 75696E74 		.ascii	"uint8_t\000"
 4740      385F7400 
 4741              	.LASF137:
 4742 0842 646D616D 		.ascii	"dmamode\000"
 4742      6F646500 
 4743              	.LASF97:
 4744 084a 77746F62 		.ascii	"wtobjp\000"
 4744      6A7000
 4745              	.LASF149:
ARM GAS  /tmp/ccn8STLw.s 			page 91


 4746 0851 73706565 		.ascii	"speed\000"
 4746      6400
 4747              	.LASF49:
 4748 0857 74687265 		.ascii	"threads_list_t\000"
 4748      6164735F 
 4748      6C697374 
 4748      5F7400
 4749              	.LASF177:
 4750 0866 75617274 		.ascii	"uart_lld_start_send\000"
 4750      5F6C6C64 
 4750      5F737461 
 4750      72745F73 
 4750      656E6400 
 4751              	.LASF155:
 4752 087a 63685379 		.ascii	"chSysUnlock\000"
 4752      73556E6C 
 4752      6F636B00 
 4753              	.LASF43:
 4754 0886 705F6D73 		.ascii	"p_msg\000"
 4754      6700
 4755              	.LASF176:
 4756 088c 75617274 		.ascii	"uart_lld_stop\000"
 4756      5F6C6C64 
 4756      5F73746F 
 4756      7000
 4757              	.LASF169:
 4758 089a 75617274 		.ascii	"uartStartReceive\000"
 4758      53746172 
 4758      74526563 
 4758      65697665 
 4758      00
 4759              	.LASF107:
 4760 08ab 6D5F6F77 		.ascii	"m_owner\000"
 4760      6E657200 
 4761              	.LASF127:
 4762 08b3 55415254 		.ascii	"UART_RX_ACTIVE\000"
 4762      5F52585F 
 4762      41435449 
 4762      564500
 4763              	.LASF34:
 4764 08c2 705F6374 		.ascii	"p_ctx\000"
 4764      7800
 4765              	.LASF68:
 4766 08c8 76745F66 		.ascii	"vt_func\000"
 4766      756E6300 
 4767              		.ident	"GCC: (Fedora 5.2.0-3.fc22) 5.2.0"
ARM GAS  /tmp/ccn8STLw.s 			page 92


DEFINED SYMBOLS
                            *ABS*:0000000000000000 uart.c
     /tmp/ccn8STLw.s:22     .text.uartInit:0000000000000000 $t
     /tmp/ccn8STLw.s:28     .text.uartInit:0000000000000000 uartInit
     /tmp/ccn8STLw.s:43     .text.uartObjectInit:0000000000000000 $t
     /tmp/ccn8STLw.s:49     .text.uartObjectInit:0000000000000000 uartObjectInit
     /tmp/ccn8STLw.s:73     .text.uartStart:0000000000000000 $t
     /tmp/ccn8STLw.s:79     .text.uartStart:0000000000000000 uartStart
     /tmp/ccn8STLw.s:156    .text.uartStop:0000000000000000 $t
     /tmp/ccn8STLw.s:162    .text.uartStop:0000000000000000 uartStop
     /tmp/ccn8STLw.s:241    .text.uartStartSend:0000000000000000 $t
     /tmp/ccn8STLw.s:247    .text.uartStartSend:0000000000000000 uartStartSend
     /tmp/ccn8STLw.s:321    .text.uartStartSendI:0000000000000000 $t
     /tmp/ccn8STLw.s:327    .text.uartStartSendI:0000000000000000 uartStartSendI
     /tmp/ccn8STLw.s:351    .text.uartStopSend:0000000000000000 $t
     /tmp/ccn8STLw.s:357    .text.uartStopSend:0000000000000000 uartStopSend
     /tmp/ccn8STLw.s:452    .text.uartStopSendI:0000000000000000 $t
     /tmp/ccn8STLw.s:458    .text.uartStopSendI:0000000000000000 uartStopSendI
     /tmp/ccn8STLw.s:495    .text.uartStartReceive:0000000000000000 $t
     /tmp/ccn8STLw.s:501    .text.uartStartReceive:0000000000000000 uartStartReceive
     /tmp/ccn8STLw.s:575    .text.uartStartReceiveI:0000000000000000 $t
     /tmp/ccn8STLw.s:581    .text.uartStartReceiveI:0000000000000000 uartStartReceiveI
     /tmp/ccn8STLw.s:605    .text.uartStopReceive:0000000000000000 $t
     /tmp/ccn8STLw.s:611    .text.uartStopReceive:0000000000000000 uartStopReceive
     /tmp/ccn8STLw.s:706    .text.uartStopReceiveI:0000000000000000 $t
     /tmp/ccn8STLw.s:712    .text.uartStopReceiveI:0000000000000000 uartStopReceiveI
                     .debug_frame:0000000000000010 $d

UNDEFINED SYMBOLS
uart_lld_init
uart_lld_start
uart_lld_stop
uart_lld_start_send
uart_lld_stop_send
uart_lld_start_receive
uart_lld_stop_receive
