ARM GAS  /tmp/ccn8STLw.s 			page 1


   1              		.syntax unified
   2              		.cpu cortex-m4
   3              		.eabi_attribute 27, 1
   4              		.eabi_attribute 28, 1
   5              		.fpu fpv4-sp-d16
   6              		.eabi_attribute 20, 1
   7              		.eabi_attribute 21, 1
   8              		.eabi_attribute 23, 3
   9              		.eabi_attribute 24, 1
  10              		.eabi_attribute 25, 1
  11              		.eabi_attribute 26, 1
  12              		.eabi_attribute 30, 2
  13              		.eabi_attribute 34, 1
  14              		.eabi_attribute 18, 4
  15              		.thumb
  16              		.syntax unified
  17              		.file	"uart.c"
  18              		.text
  19              	.Ltext0:
  20              		.cfi_sections	.debug_frame
  21              		.section	.text.uartInit,"ax",%progbits
  22              		.align	2
  23              		.p2align 4,,15
  24              		.global	uartInit
  25              		.thumb
  26              		.thumb_func
  27              		.type	uartInit, %function
  28              	uartInit:
  29              	.LFB260:
  30              		.file 1 "../../os/hal/src/uart.c"
  31              		.loc 1 56 0
  32              		.cfi_startproc
  33              		@ args = 0, pretend = 0, frame = 0
  34              		@ frame_needed = 0, uses_anonymous_args = 0
  35              		@ link register save eliminated.
  36              		.loc 1 58 0
  37 0000 FFF7FEBF 		b	uart_lld_init
  38              	.LVL0:
  39              		.cfi_endproc
  40              	.LFE260:
  41              		.size	uartInit, .-uartInit
  42 0004 AFF30080 		.section	.text.uartObjectInit,"ax",%progbits
  42      AFF30080 
  42      AFF30080 
  43              		.align	2
  44              		.p2align 4,,15
  45              		.global	uartObjectInit
  46              		.thumb
  47              		.thumb_func
  48              		.type	uartObjectInit, %function
  49              	uartObjectInit:
  50              	.LFB261:
  51              		.loc 1 68 0
  52              		.cfi_startproc
  53              		@ args = 0, pretend = 0, frame = 0
  54              		@ frame_needed = 0, uses_anonymous_args = 0
  55              		@ link register save eliminated.
ARM GAS  /tmp/ccn8STLw.s 			page 2


  56              	.LVL1:
  57              		.loc 1 71 0
  58 0000 0023     		movs	r3, #0
  59              		.loc 1 70 0
  60 0002 0122     		movs	r2, #1
  61 0004 0270     		strb	r2, [r0]
  62              		.loc 1 71 0
  63 0006 4370     		strb	r3, [r0, #1]
  64              		.loc 1 72 0
  65 0008 8370     		strb	r3, [r0, #2]
  66              		.loc 1 73 0
  67 000a 4360     		str	r3, [r0, #4]
  68 000c 7047     		bx	lr
  69              		.cfi_endproc
  70              	.LFE261:
  71              		.size	uartObjectInit, .-uartObjectInit
  72 000e 00BF     		.section	.text.uartStart,"ax",%progbits
  73              		.align	2
  74              		.p2align 4,,15
  75              		.global	uartStart
  76              		.thumb
  77              		.thumb_func
  78              		.type	uartStart, %function
  79              	uartStart:
  80              	.LFB262:
  81              		.loc 1 88 0
  82              		.cfi_startproc
  83              		@ args = 0, pretend = 0, frame = 0
  84              		@ frame_needed = 0, uses_anonymous_args = 0
  85              	.LVL2:
  86 0000 10B5     		push	{r4, lr}
  87              		.cfi_def_cfa_offset 8
  88              		.cfi_offset 4, -8
  89              		.cfi_offset 14, -4
  90              	.LBB102:
  91              	.LBB103:
  92              	.LBB104:
  93              	.LBB105:
  94              	.LBB106:
  95              		.file 2 "../../os/ext/CMSIS/include/core_cmFunc.h"
  96              		.loc 2 546 0
  97 0002 2023     		movs	r3, #32
  98              	.LBE106:
  99              	.LBE105:
 100              	.LBE104:
 101              	.LBE103:
 102              	.LBE102:
 103              		.loc 1 88 0
 104 0004 0446     		mov	r4, r0
 105              	.LBB111:
 106              	.LBB110:
 107              	.LBB109:
 108              	.LBB108:
 109              	.LBB107:
 110              		.loc 2 546 0
 111              		.syntax unified
 112              	@ 546 "../../os/ext/CMSIS/include/core_cmFunc.h" 1
ARM GAS  /tmp/ccn8STLw.s 			page 3


 113 0006 83F31188 		MSR basepri, r3
 114              	@ 0 "" 2
 115              		.thumb
 116              		.syntax unified
 117              	.LBE107:
 118              	.LBE108:
 119              	.LBE109:
 120              	.LBE110:
 121              	.LBE111:
 122              		.loc 1 96 0
 123 000a 4160     		str	r1, [r0, #4]
 124              		.loc 1 97 0
 125 000c FFF7FEFF 		bl	uart_lld_start
 126              	.LVL3:
 127              		.loc 1 98 0
 128 0010 0223     		movs	r3, #2
 129 0012 2370     		strb	r3, [r4]
 130              	.LVL4:
 131              	.LBB112:
 132              	.LBB113:
 133              	.LBB114:
 134              	.LBB115:
 135              	.LBB116:
 136              	.LBB117:
 137              		.loc 2 546 0
 138 0014 0023     		movs	r3, #0
 139              		.syntax unified
 140              	@ 546 "../../os/ext/CMSIS/include/core_cmFunc.h" 1
 141 0016 83F31188 		MSR basepri, r3
 142              	@ 0 "" 2
 143              		.thumb
 144              		.syntax unified
 145 001a 10BD     		pop	{r4, pc}
 146              	.LBE117:
 147              	.LBE116:
 148              	.LBE115:
 149              	.LBE114:
 150              	.LBE113:
 151              	.LBE112:
 152              		.cfi_endproc
 153              	.LFE262:
 154              		.size	uartStart, .-uartStart
 155 001c AFF30080 		.section	.text.uartStop,"ax",%progbits
 156              		.align	2
 157              		.p2align 4,,15
 158              		.global	uartStop
 159              		.thumb
 160              		.thumb_func
 161              		.type	uartStop, %function
 162              	uartStop:
 163              	.LFB263:
 164              		.loc 1 109 0
 165              		.cfi_startproc
 166              		@ args = 0, pretend = 0, frame = 0
 167              		@ frame_needed = 0, uses_anonymous_args = 0
 168              	.LVL5:
 169 0000 10B5     		push	{r4, lr}
ARM GAS  /tmp/ccn8STLw.s 			page 4


 170              		.cfi_def_cfa_offset 8
 171              		.cfi_offset 4, -8
 172              		.cfi_offset 14, -4
 173              	.LBB118:
 174              	.LBB119:
 175              	.LBB120:
 176              	.LBB121:
 177              	.LBB122:
 178              		.loc 2 546 0
 179 0002 2023     		movs	r3, #32
 180              	.LBE122:
 181              	.LBE121:
 182              	.LBE120:
 183              	.LBE119:
 184              	.LBE118:
 185              		.loc 1 109 0
 186 0004 0446     		mov	r4, r0
 187              	.LBB127:
 188              	.LBB126:
 189              	.LBB125:
 190              	.LBB124:
 191              	.LBB123:
 192              		.loc 2 546 0
 193              		.syntax unified
 194              	@ 546 "../../os/ext/CMSIS/include/core_cmFunc.h" 1
 195 0006 83F31188 		MSR basepri, r3
 196              	@ 0 "" 2
 197              		.thumb
 198              		.syntax unified
 199              	.LBE123:
 200              	.LBE124:
 201              	.LBE125:
 202              	.LBE126:
 203              	.LBE127:
 204              		.loc 1 117 0
 205 000a FFF7FEFF 		bl	uart_lld_stop
 206              	.LVL6:
 207              		.loc 1 119 0
 208 000e 0023     		movs	r3, #0
 209              		.loc 1 118 0
 210 0010 0122     		movs	r2, #1
 211 0012 2270     		strb	r2, [r4]
 212              		.loc 1 119 0
 213 0014 6370     		strb	r3, [r4, #1]
 214              		.loc 1 120 0
 215 0016 A370     		strb	r3, [r4, #2]
 216              	.LVL7:
 217              	.LBB128:
 218              	.LBB129:
 219              	.LBB130:
 220              	.LBB131:
 221              	.LBB132:
 222              	.LBB133:
 223              		.loc 2 546 0
 224              		.syntax unified
 225              	@ 546 "../../os/ext/CMSIS/include/core_cmFunc.h" 1
 226 0018 83F31188 		MSR basepri, r3
ARM GAS  /tmp/ccn8STLw.s 			page 5


 227              	@ 0 "" 2
 228              		.thumb
 229              		.syntax unified
 230 001c 10BD     		pop	{r4, pc}
 231              	.LBE133:
 232              	.LBE132:
 233              	.LBE131:
 234              	.LBE130:
 235              	.LBE129:
 236              	.LBE128:
 237              		.cfi_endproc
 238              	.LFE263:
 239              		.size	uartStop, .-uartStop
 240 001e 00BF     		.section	.text.uartStartSend,"ax",%progbits
 241              		.align	2
 242              		.p2align 4,,15
 243              		.global	uartStartSend
 244              		.thumb
 245              		.thumb_func
 246              		.type	uartStartSend, %function
 247              	uartStartSend:
 248              	.LFB264:
 249              		.loc 1 135 0
 250              		.cfi_startproc
 251              		@ args = 0, pretend = 0, frame = 0
 252              		@ frame_needed = 0, uses_anonymous_args = 0
 253              	.LVL8:
 254 0000 10B5     		push	{r4, lr}
 255              		.cfi_def_cfa_offset 8
 256              		.cfi_offset 4, -8
 257              		.cfi_offset 14, -4
 258              	.LBB134:
 259              	.LBB135:
 260              	.LBB136:
 261              	.LBB137:
 262              	.LBB138:
 263              		.loc 2 546 0
 264 0002 2023     		movs	r3, #32
 265              	.LBE138:
 266              	.LBE137:
 267              	.LBE136:
 268              	.LBE135:
 269              	.LBE134:
 270              		.loc 1 135 0
 271 0004 0446     		mov	r4, r0
 272              	.LBB143:
 273              	.LBB142:
 274              	.LBB141:
 275              	.LBB140:
 276              	.LBB139:
 277              		.loc 2 546 0
 278              		.syntax unified
 279              	@ 546 "../../os/ext/CMSIS/include/core_cmFunc.h" 1
 280 0006 83F31188 		MSR basepri, r3
 281              	@ 0 "" 2
 282              		.thumb
 283              		.syntax unified
ARM GAS  /tmp/ccn8STLw.s 			page 6


 284              	.LBE139:
 285              	.LBE140:
 286              	.LBE141:
 287              	.LBE142:
 288              	.LBE143:
 289              		.loc 1 143 0
 290 000a FFF7FEFF 		bl	uart_lld_start_send
 291              	.LVL9:
 292              		.loc 1 144 0
 293 000e 0123     		movs	r3, #1
 294 0010 6370     		strb	r3, [r4, #1]
 295              	.LVL10:
 296              	.LBB144:
 297              	.LBB145:
 298              	.LBB146:
 299              	.LBB147:
 300              	.LBB148:
 301              	.LBB149:
 302              		.loc 2 546 0
 303 0012 0023     		movs	r3, #0
 304              		.syntax unified
 305              	@ 546 "../../os/ext/CMSIS/include/core_cmFunc.h" 1
 306 0014 83F31188 		MSR basepri, r3
 307              	@ 0 "" 2
 308              		.thumb
 309              		.syntax unified
 310 0018 10BD     		pop	{r4, pc}
 311              	.LBE149:
 312              	.LBE148:
 313              	.LBE147:
 314              	.LBE146:
 315              	.LBE145:
 316              	.LBE144:
 317              		.cfi_endproc
 318              	.LFE264:
 319              		.size	uartStartSend, .-uartStartSend
 320 001a 00BFAFF3 		.section	.text.uartStartSendI,"ax",%progbits
 320      0080
 321              		.align	2
 322              		.p2align 4,,15
 323              		.global	uartStartSendI
 324              		.thumb
 325              		.thumb_func
 326              		.type	uartStartSendI, %function
 327              	uartStartSendI:
 328              	.LFB265:
 329              		.loc 1 160 0
 330              		.cfi_startproc
 331              		@ args = 0, pretend = 0, frame = 0
 332              		@ frame_needed = 0, uses_anonymous_args = 0
 333              	.LVL11:
 334 0000 10B5     		push	{r4, lr}
 335              		.cfi_def_cfa_offset 8
 336              		.cfi_offset 4, -8
 337              		.cfi_offset 14, -4
 338              		.loc 1 160 0
 339 0002 0446     		mov	r4, r0
ARM GAS  /tmp/ccn8STLw.s 			page 7


 340              		.loc 1 167 0
 341 0004 FFF7FEFF 		bl	uart_lld_start_send
 342              	.LVL12:
 343              		.loc 1 168 0
 344 0008 0123     		movs	r3, #1
 345 000a 6370     		strb	r3, [r4, #1]
 346 000c 10BD     		pop	{r4, pc}
 347              		.cfi_endproc
 348              	.LFE265:
 349              		.size	uartStartSendI, .-uartStartSendI
 350 000e 00BF     		.section	.text.uartStopSend,"ax",%progbits
 351              		.align	2
 352              		.p2align 4,,15
 353              		.global	uartStopSend
 354              		.thumb
 355              		.thumb_func
 356              		.type	uartStopSend, %function
 357              	uartStopSend:
 358              	.LFB266:
 359              		.loc 1 183 0
 360              		.cfi_startproc
 361              		@ args = 0, pretend = 0, frame = 0
 362              		@ frame_needed = 0, uses_anonymous_args = 0
 363              	.LVL13:
 364              	.LBB150:
 365              	.LBB151:
 366              	.LBB152:
 367              	.LBB153:
 368              	.LBB154:
 369              		.loc 2 546 0
 370 0000 2022     		movs	r2, #32
 371              		.syntax unified
 372              	@ 546 "../../os/ext/CMSIS/include/core_cmFunc.h" 1
 373 0002 82F31188 		MSR basepri, r2
 374              	@ 0 "" 2
 375              		.thumb
 376              		.syntax unified
 377              	.LBE154:
 378              	.LBE153:
 379              	.LBE152:
 380              	.LBE151:
 381              	.LBE150:
 382              		.loc 1 191 0
 383 0006 4278     		ldrb	r2, [r0, #1]	@ zero_extendqisi2
 384 0008 012A     		cmp	r2, #1
 385 000a 04D0     		beq	.L17
 386              		.loc 1 196 0
 387 000c 0020     		movs	r0, #0
 388              	.LVL14:
 389              	.LBB155:
 390              	.LBB156:
 391              	.LBB157:
 392              	.LBB158:
 393              	.LBB159:
 394              	.LBB160:
 395              		.loc 2 546 0
 396 000e 0023     		movs	r3, #0
ARM GAS  /tmp/ccn8STLw.s 			page 8


 397              		.syntax unified
 398              	@ 546 "../../os/ext/CMSIS/include/core_cmFunc.h" 1
 399 0010 83F31188 		MSR basepri, r3
 400              	@ 0 "" 2
 401              		.thumb
 402              		.syntax unified
 403              	.LBE160:
 404              	.LBE159:
 405              	.LBE158:
 406              	.LBE157:
 407              	.LBE156:
 408              	.LBE155:
 409              		.loc 1 201 0
 410 0014 7047     		bx	lr
 411              	.LVL15:
 412              	.L17:
 413              		.loc 1 183 0
 414 0016 10B5     		push	{r4, lr}
 415              		.cfi_def_cfa_offset 8
 416              		.cfi_offset 4, -8
 417              		.cfi_offset 14, -4
 418 0018 0446     		mov	r4, r0
 419              		.loc 1 192 0
 420 001a FFF7FEFF 		bl	uart_lld_stop_send
 421              	.LVL16:
 422              		.loc 1 193 0
 423 001e 0023     		movs	r3, #0
 424 0020 6370     		strb	r3, [r4, #1]
 425              	.LVL17:
 426              	.LBB166:
 427              	.LBB165:
 428              	.LBB164:
 429              	.LBB163:
 430              	.LBB162:
 431              	.LBB161:
 432              		.loc 2 546 0
 433 0022 0023     		movs	r3, #0
 434              		.syntax unified
 435              	@ 546 "../../os/ext/CMSIS/include/core_cmFunc.h" 1
 436 0024 83F31188 		MSR basepri, r3
 437              	@ 0 "" 2
 438              		.thumb
 439              		.syntax unified
 440              	.LBE161:
 441              	.LBE162:
 442              	.LBE163:
 443              	.LBE164:
 444              	.LBE165:
 445              	.LBE166:
 446              		.loc 1 201 0
 447 0028 10BD     		pop	{r4, pc}
 448              		.cfi_endproc
 449              	.LFE266:
 450              		.size	uartStopSend, .-uartStopSend
 451 002a 00BFAFF3 		.section	.text.uartStopSendI,"ax",%progbits
 451      0080
 452              		.align	2
ARM GAS  /tmp/ccn8STLw.s 			page 9


 453              		.p2align 4,,15
 454              		.global	uartStopSendI
 455              		.thumb
 456              		.thumb_func
 457              		.type	uartStopSendI, %function
 458              	uartStopSendI:
 459              	.LFB267:
 460              		.loc 1 216 0
 461              		.cfi_startproc
 462              		@ args = 0, pretend = 0, frame = 0
 463              		@ frame_needed = 0, uses_anonymous_args = 0
 464              	.LVL18:
 465              		.loc 1 222 0
 466 0000 4278     		ldrb	r2, [r0, #1]	@ zero_extendqisi2
 467 0002 012A     		cmp	r2, #1
 468 0004 01D0     		beq	.L23
 469              		.loc 1 227 0
 470 0006 0020     		movs	r0, #0
 471              	.LVL19:
 472 0008 7047     		bx	lr
 473              	.LVL20:
 474              	.L23:
 475              		.loc 1 216 0
 476 000a 10B5     		push	{r4, lr}
 477              		.cfi_def_cfa_offset 8
 478              		.cfi_offset 4, -8
 479              		.cfi_offset 14, -4
 480 000c 0446     		mov	r4, r0
 481              	.LBB167:
 482              		.loc 1 223 0
 483 000e FFF7FEFF 		bl	uart_lld_stop_send
 484              	.LVL21:
 485              		.loc 1 224 0
 486 0012 0023     		movs	r3, #0
 487 0014 6370     		strb	r3, [r4, #1]
 488              		.loc 1 225 0
 489 0016 10BD     		pop	{r4, pc}
 490              	.LBE167:
 491              		.cfi_endproc
 492              	.LFE267:
 493              		.size	uartStopSendI, .-uartStopSendI
 494 0018 AFF30080 		.section	.text.uartStartReceive,"ax",%progbits
 494      AFF30080 
 495              		.align	2
 496              		.p2align 4,,15
 497              		.global	uartStartReceive
 498              		.thumb
 499              		.thumb_func
 500              		.type	uartStartReceive, %function
 501              	uartStartReceive:
 502              	.LFB268:
 503              		.loc 1 241 0
 504              		.cfi_startproc
 505              		@ args = 0, pretend = 0, frame = 0
 506              		@ frame_needed = 0, uses_anonymous_args = 0
 507              	.LVL22:
 508 0000 10B5     		push	{r4, lr}
ARM GAS  /tmp/ccn8STLw.s 			page 10


 509              		.cfi_def_cfa_offset 8
 510              		.cfi_offset 4, -8
 511              		.cfi_offset 14, -4
 512              	.LBB168:
 513              	.LBB169:
 514              	.LBB170:
 515              	.LBB171:
 516              	.LBB172:
 517              		.loc 2 546 0
 518 0002 2023     		movs	r3, #32
 519              	.LBE172:
 520              	.LBE171:
 521              	.LBE170:
 522              	.LBE169:
 523              	.LBE168:
 524              		.loc 1 241 0
 525 0004 0446     		mov	r4, r0
 526              	.LBB177:
 527              	.LBB176:
 528              	.LBB175:
 529              	.LBB174:
 530              	.LBB173:
 531              		.loc 2 546 0
 532              		.syntax unified
 533              	@ 546 "../../os/ext/CMSIS/include/core_cmFunc.h" 1
 534 0006 83F31188 		MSR basepri, r3
 535              	@ 0 "" 2
 536              		.thumb
 537              		.syntax unified
 538              	.LBE173:
 539              	.LBE174:
 540              	.LBE175:
 541              	.LBE176:
 542              	.LBE177:
 543              		.loc 1 249 0
 544 000a FFF7FEFF 		bl	uart_lld_start_receive
 545              	.LVL23:
 546              		.loc 1 250 0
 547 000e 0123     		movs	r3, #1
 548 0010 A370     		strb	r3, [r4, #2]
 549              	.LVL24:
 550              	.LBB178:
 551              	.LBB179:
 552              	.LBB180:
 553              	.LBB181:
 554              	.LBB182:
 555              	.LBB183:
 556              		.loc 2 546 0
 557 0012 0023     		movs	r3, #0
 558              		.syntax unified
 559              	@ 546 "../../os/ext/CMSIS/include/core_cmFunc.h" 1
 560 0014 83F31188 		MSR basepri, r3
 561              	@ 0 "" 2
 562              		.thumb
 563              		.syntax unified
 564 0018 10BD     		pop	{r4, pc}
 565              	.LBE183:
ARM GAS  /tmp/ccn8STLw.s 			page 11


 566              	.LBE182:
 567              	.LBE181:
 568              	.LBE180:
 569              	.LBE179:
 570              	.LBE178:
 571              		.cfi_endproc
 572              	.LFE268:
 573              		.size	uartStartReceive, .-uartStartReceive
 574 001a 00BFAFF3 		.section	.text.uartStartReceiveI,"ax",%progbits
 574      0080
 575              		.align	2
 576              		.p2align 4,,15
 577              		.global	uartStartReceiveI
 578              		.thumb
 579              		.thumb_func
 580              		.type	uartStartReceiveI, %function
 581              	uartStartReceiveI:
 582              	.LFB269:
 583              		.loc 1 266 0
 584              		.cfi_startproc
 585              		@ args = 0, pretend = 0, frame = 0
 586              		@ frame_needed = 0, uses_anonymous_args = 0
 587              	.LVL25:
 588 0000 10B5     		push	{r4, lr}
 589              		.cfi_def_cfa_offset 8
 590              		.cfi_offset 4, -8
 591              		.cfi_offset 14, -4
 592              		.loc 1 266 0
 593 0002 0446     		mov	r4, r0
 594              		.loc 1 273 0
 595 0004 FFF7FEFF 		bl	uart_lld_start_receive
 596              	.LVL26:
 597              		.loc 1 274 0
 598 0008 0123     		movs	r3, #1
 599 000a A370     		strb	r3, [r4, #2]
 600 000c 10BD     		pop	{r4, pc}
 601              		.cfi_endproc
 602              	.LFE269:
 603              		.size	uartStartReceiveI, .-uartStartReceiveI
 604 000e 00BF     		.section	.text.uartStopReceive,"ax",%progbits
 605              		.align	2
 606              		.p2align 4,,15
 607              		.global	uartStopReceive
 608              		.thumb
 609              		.thumb_func
 610              		.type	uartStopReceive, %function
 611              	uartStopReceive:
 612              	.LFB270:
 613              		.loc 1 289 0
 614              		.cfi_startproc
 615              		@ args = 0, pretend = 0, frame = 0
 616              		@ frame_needed = 0, uses_anonymous_args = 0
 617              	.LVL27:
 618              	.LBB184:
 619              	.LBB185:
 620              	.LBB186:
 621              	.LBB187:
ARM GAS  /tmp/ccn8STLw.s 			page 12


 622              	.LBB188:
 623              		.loc 2 546 0
 624 0000 2022     		movs	r2, #32
 625              		.syntax unified
 626              	@ 546 "../../os/ext/CMSIS/include/core_cmFunc.h" 1
 627 0002 82F31188 		MSR basepri, r2
 628              	@ 0 "" 2
 629              		.thumb
 630              		.syntax unified
 631              	.LBE188:
 632              	.LBE187:
 633              	.LBE186:
 634              	.LBE185:
 635              	.LBE184:
 636              		.loc 1 297 0
 637 0006 8278     		ldrb	r2, [r0, #2]	@ zero_extendqisi2
 638 0008 012A     		cmp	r2, #1
 639 000a 04D0     		beq	.L33
 640              		.loc 1 302 0
 641 000c 0020     		movs	r0, #0
 642              	.LVL28:
 643              	.LBB189:
 644              	.LBB190:
 645              	.LBB191:
 646              	.LBB192:
 647              	.LBB193:
 648              	.LBB194:
 649              		.loc 2 546 0
 650 000e 0023     		movs	r3, #0
 651              		.syntax unified
 652              	@ 546 "../../os/ext/CMSIS/include/core_cmFunc.h" 1
 653 0010 83F31188 		MSR basepri, r3
 654              	@ 0 "" 2
 655              		.thumb
 656              		.syntax unified
 657              	.LBE194:
 658              	.LBE193:
 659              	.LBE192:
 660              	.LBE191:
 661              	.LBE190:
 662              	.LBE189:
 663              		.loc 1 307 0
 664 0014 7047     		bx	lr
 665              	.LVL29:
 666              	.L33:
 667              		.loc 1 289 0
 668 0016 10B5     		push	{r4, lr}
 669              		.cfi_def_cfa_offset 8
 670              		.cfi_offset 4, -8
 671              		.cfi_offset 14, -4
 672 0018 0446     		mov	r4, r0
 673              		.loc 1 298 0
 674 001a FFF7FEFF 		bl	uart_lld_stop_receive
 675              	.LVL30:
 676              		.loc 1 299 0
 677 001e 0023     		movs	r3, #0
 678 0020 A370     		strb	r3, [r4, #2]
ARM GAS  /tmp/ccn8STLw.s 			page 13


 679              	.LVL31:
 680              	.LBB200:
 681              	.LBB199:
 682              	.LBB198:
 683              	.LBB197:
 684              	.LBB196:
 685              	.LBB195:
 686              		.loc 2 546 0
 687 0022 0023     		movs	r3, #0
 688              		.syntax unified
 689              	@ 546 "../../os/ext/CMSIS/include/core_cmFunc.h" 1
 690 0024 83F31188 		MSR basepri, r3
 691              	@ 0 "" 2
 692              		.thumb
 693              		.syntax unified
 694              	.LBE195:
 695              	.LBE196:
 696              	.LBE197:
 697              	.LBE198:
 698              	.LBE199:
 699              	.LBE200:
 700              		.loc 1 307 0
 701 0028 10BD     		pop	{r4, pc}
 702              		.cfi_endproc
 703              	.LFE270:
 704              		.size	uartStopReceive, .-uartStopReceive
 705 002a 00BFAFF3 		.section	.text.uartStopReceiveI,"ax",%progbits
 705      0080
 706              		.align	2
 707              		.p2align 4,,15
 708              		.global	uartStopReceiveI
 709              		.thumb
 710              		.thumb_func
 711              		.type	uartStopReceiveI, %function
 712              	uartStopReceiveI:
 713              	.LFB271:
 714              		.loc 1 322 0
 715              		.cfi_startproc
 716              		@ args = 0, pretend = 0, frame = 0
 717              		@ frame_needed = 0, uses_anonymous_args = 0
 718              	.LVL32:
 719              		.loc 1 328 0
 720 0000 8278     		ldrb	r2, [r0, #2]	@ zero_extendqisi2
 721 0002 012A     		cmp	r2, #1
 722 0004 01D0     		beq	.L39
 723              		.loc 1 333 0
 724 0006 0020     		movs	r0, #0
 725              	.LVL33:
 726 0008 7047     		bx	lr
 727              	.LVL34:
 728              	.L39:
 729              		.loc 1 322 0
 730 000a 10B5     		push	{r4, lr}
 731              		.cfi_def_cfa_offset 8
 732              		.cfi_offset 4, -8
 733              		.cfi_offset 14, -4
 734 000c 0446     		mov	r4, r0
ARM GAS  /tmp/ccn8STLw.s 			page 14


 735              	.LBB201:
 736              		.loc 1 329 0
 737 000e FFF7FEFF 		bl	uart_lld_stop_receive
 738              	.LVL35:
 739              		.loc 1 330 0
 740 0012 0023     		movs	r3, #0
 741 0014 A370     		strb	r3, [r4, #2]
 742              		.loc 1 331 0
 743 0016 10BD     		pop	{r4, pc}
 744              	.LBE201:
 745              		.cfi_endproc
 746              	.LFE271:
 747              		.size	uartStopReceiveI, .-uartStopReceiveI
 748 0018 AFF30080 		.text
 748      AFF30080 
 749              	.Letext0:
 750              		.file 3 "/usr/lib/gcc/arm-none-eabi/5.2.0/include/stddef.h"
 751              		.file 4 "/usr/arm-none-eabi/include/machine/_default_types.h"
 752              		.file 5 "/usr/arm-none-eabi/include/stdint.h"
 753              		.file 6 "../../os/rt/ports/ARMCMx/compilers/GCC/chtypes.h"
 754              		.file 7 "../../os/rt/include/chsystypes.h"
 755              		.file 8 "../../os/rt/include/chschd.h"
 756              		.file 9 "../../os/ext/CMSIS/ST/stm32f401xc.h"
 757              		.file 10 "../../os/rt/ports/ARMCMx/chcore.h"
 758              		.file 11 "../../os/rt/ports/ARMCMx/chcore_v7m.h"
 759              		.file 12 "../../os/rt/include/chtm.h"
 760              		.file 13 "../../os/rt/include/chsem.h"
 761              		.file 14 "../../os/rt/include/chmtx.h"
 762              		.file 15 "../../os/hal/ports/STM32/STM32F4xx/stm32_dma.h"
 763              		.file 16 "../../os/hal/include/uart.h"
 764              		.file 17 "../../os/hal/ports/STM32/LLD/USARTv1/uart_lld.h"
 765              		.file 18 "../../os/rt/include/chsys.h"
 766              		.file 19 "../../os/hal/osal/rt/osal.h"
 767              		.file 20 "../../os/ext/CMSIS/include/core_cm4.h"