ARM GAS  /tmp/cceu4JPd.s 			page 1


   1              		.syntax unified
   2              		.cpu cortex-m4
   3              		.eabi_attribute 27, 1
   4              		.eabi_attribute 28, 1
   5              		.fpu fpv4-sp-d16
   6              		.eabi_attribute 20, 1
   7              		.eabi_attribute 21, 1
   8              		.eabi_attribute 23, 3
   9              		.eabi_attribute 24, 1
  10              		.eabi_attribute 25, 1
  11              		.eabi_attribute 26, 1
  12              		.eabi_attribute 30, 2
  13              		.eabi_attribute 34, 1
  14              		.eabi_attribute 18, 4
  15              		.thumb
  16              		.syntax unified
  17              		.file	"uart_lld.c"
  18              		.text
  19              	.Ltext0:
  20              		.cfi_sections	.debug_frame
  21              		.section	.text.usart_stop,"ax",%progbits
  22              		.align	2
  23              		.p2align 4,,15
  24              		.thumb
  25              		.thumb_func
  26              		.type	usart_stop, %function
  27              	usart_stop:
  28              	.LFB262:
  29              		.file 1 "../../os/hal/ports/STM32/LLD/USARTv1/uart_lld.c"
  30              		.loc 1 180 0
  31              		.cfi_startproc
  32              		@ args = 0, pretend = 0, frame = 0
  33              		@ frame_needed = 0, uses_anonymous_args = 0
  34              		@ link register save eliminated.
  35              	.LVL0:
  36              		.loc 1 183 0
  37 0000 0169     		ldr	r1, [r0, #16]
  38 0002 0A68     		ldr	r2, [r1]
  39 0004 1368     		ldr	r3, [r2]
  40 0006 23F01F03 		bic	r3, r3, #31
  41 000a 1360     		str	r3, [r2]
  42              	.L2:
  43              		.loc 1 183 0 is_stmt 0 discriminator 2
  44 000c 1368     		ldr	r3, [r2]
  45 000e DB07     		lsls	r3, r3, #31
  46 0010 FCD4     		bmi	.L2
  47              		.loc 1 180 0 is_stmt 1 discriminator 3
  48 0012 30B4     		push	{r4, r5}
  49              		.cfi_def_cfa_offset 8
  50              		.cfi_offset 4, -8
  51              		.cfi_offset 5, -4
  52              		.loc 1 184 0 discriminator 3
  53 0014 4469     		ldr	r4, [r0, #20]
  54              		.loc 1 183 0 discriminator 3
  55 0016 0D7A     		ldrb	r5, [r1, #8]	@ zero_extendqisi2
  56 0018 4968     		ldr	r1, [r1, #4]
  57              		.loc 1 184 0 discriminator 3
ARM GAS  /tmp/cceu4JPd.s 			page 2


  58 001a 2268     		ldr	r2, [r4]
  59              		.loc 1 183 0 discriminator 3
  60 001c 3D23     		movs	r3, #61
  61 001e AB40     		lsls	r3, r3, r5
  62 0020 0B60     		str	r3, [r1]
  63              		.loc 1 184 0 discriminator 3
  64 0022 1368     		ldr	r3, [r2]
  65 0024 23F01F03 		bic	r3, r3, #31
  66 0028 1360     		str	r3, [r2]
  67              	.L3:
  68              		.loc 1 184 0 is_stmt 0 discriminator 2
  69 002a 1368     		ldr	r3, [r2]
  70 002c 13F00103 		ands	r3, r3, #1
  71 0030 FBD1     		bne	.L3
  72              		.loc 1 184 0 discriminator 3
  73 0032 257A     		ldrb	r5, [r4, #8]	@ zero_extendqisi2
  74              		.loc 1 187 0 is_stmt 1 discriminator 3
  75 0034 8268     		ldr	r2, [r0, #8]
  76              		.loc 1 184 0 discriminator 3
  77 0036 6068     		ldr	r0, [r4, #4]
  78              	.LVL1:
  79 0038 3D21     		movs	r1, #61
  80 003a A940     		lsls	r1, r1, r5
  81 003c 0160     		str	r1, [r0]
  82              		.loc 1 190 0 discriminator 3
  83 003e 30BC     		pop	{r4, r5}
  84              		.cfi_restore 5
  85              		.cfi_restore 4
  86              		.cfi_def_cfa_offset 0
  87              		.loc 1 187 0 discriminator 3
  88 0040 D360     		str	r3, [r2, #12]
  89              		.loc 1 188 0 discriminator 3
  90 0042 1361     		str	r3, [r2, #16]
  91              		.loc 1 189 0 discriminator 3
  92 0044 5361     		str	r3, [r2, #20]
  93              		.loc 1 190 0 discriminator 3
  94 0046 7047     		bx	lr
  95              		.cfi_endproc
  96              	.LFE262:
  97              		.size	usart_stop, .-usart_stop
  98 0048 AFF30080 		.section	.text.uart_lld_serve_tx_end_irq,"ax",%progbits
  98      AFF30080 
  99              		.align	2
 100              		.p2align 4,,15
 101              		.thumb
 102              		.thumb_func
 103              		.type	uart_lld_serve_tx_end_irq, %function
 104              	uart_lld_serve_tx_end_irq:
 105              	.LFB265:
 106              		.loc 1 281 0
 107              		.cfi_startproc
 108              		@ args = 0, pretend = 0, frame = 0
 109              		@ frame_needed = 0, uses_anonymous_args = 0
 110              	.LVL2:
 111              		.loc 1 285 0
 112 0000 11F00C0F 		tst	r1, #12
 113              		.loc 1 281 0
ARM GAS  /tmp/cceu4JPd.s 			page 3


 114 0004 38B5     		push	{r3, r4, r5, lr}
 115              		.cfi_def_cfa_offset 16
 116              		.cfi_offset 3, -16
 117              		.cfi_offset 4, -12
 118              		.cfi_offset 5, -8
 119              		.cfi_offset 14, -4
 120              		.loc 1 281 0
 121 0006 0446     		mov	r4, r0
 122              		.loc 1 285 0
 123 0008 1BD1     		bne	.L22
 124              	.LVL3:
 125              	.L9:
 126              		.loc 1 292 0
 127 000a 6169     		ldr	r1, [r4, #20]
 128 000c 0A68     		ldr	r2, [r1]
 129 000e 1368     		ldr	r3, [r2]
 130 0010 23F01F03 		bic	r3, r3, #31
 131 0014 1360     		str	r3, [r2]
 132              	.L10:
 133              		.loc 1 292 0 is_stmt 0 discriminator 2
 134 0016 1368     		ldr	r3, [r2]
 135 0018 DB07     		lsls	r3, r3, #31
 136 001a FCD4     		bmi	.L10
 137              		.loc 1 296 0 is_stmt 1 discriminator 3
 138 001c 6368     		ldr	r3, [r4, #4]
 139              		.loc 1 292 0 discriminator 3
 140 001e 0D7A     		ldrb	r5, [r1, #8]	@ zero_extendqisi2
 141 0020 4868     		ldr	r0, [r1, #4]
 142              		.loc 1 296 0 discriminator 3
 143 0022 1A68     		ldr	r2, [r3]
 144              		.loc 1 292 0 discriminator 3
 145 0024 3D23     		movs	r3, #61
 146 0026 AB40     		lsls	r3, r3, r5
 147              		.loc 1 295 0 discriminator 3
 148 0028 0221     		movs	r1, #2
 149              		.loc 1 292 0 discriminator 3
 150 002a 0360     		str	r3, [r0]
 151              		.loc 1 295 0 discriminator 3
 152 002c 6170     		strb	r1, [r4, #1]
 153              		.loc 1 296 0 discriminator 3
 154 002e 2AB1     		cbz	r2, .L13
 155              		.loc 1 297 0
 156 0030 2046     		mov	r0, r4
 157 0032 9047     		blx	r2
 158              	.LVL4:
 159              		.loc 1 301 0
 160 0034 6378     		ldrb	r3, [r4, #1]	@ zero_extendqisi2
 161 0036 022B     		cmp	r3, #2
 162 0038 00D0     		beq	.L13
 163 003a 38BD     		pop	{r3, r4, r5, pc}
 164              	.LVL5:
 165              	.L13:
 166              		.loc 1 302 0
 167 003c 0023     		movs	r3, #0
 168 003e 6370     		strb	r3, [r4, #1]
 169 0040 38BD     		pop	{r3, r4, r5, pc}
 170              	.LVL6:
ARM GAS  /tmp/cceu4JPd.s 			page 4


 171              	.L22:
 172              	.LBB16:
 173              	.LBB17:
 174              		.file 2 "../../os/hal/osal/rt/osal.h"
 175              		.loc 2 416 0
 176 0042 0248     		ldr	r0, .L23
 177              	.LVL7:
 178 0044 FFF7FEFF 		bl	chSysHalt
 179              	.LVL8:
 180 0048 DFE7     		b	.L9
 181              	.L24:
 182 004a 00BF     		.align	2
 183              	.L23:
 184 004c 00000000 		.word	.LC0
 185              	.LBE17:
 186              	.LBE16:
 187              		.cfi_endproc
 188              	.LFE265:
 189              		.size	uart_lld_serve_tx_end_irq, .-uart_lld_serve_tx_end_irq
 190              		.section	.text.uart_lld_serve_rx_end_irq,"ax",%progbits
 191              		.align	2
 192              		.p2align 4,,15
 193              		.thumb
 194              		.thumb_func
 195              		.type	uart_lld_serve_rx_end_irq, %function
 196              	uart_lld_serve_rx_end_irq:
 197              	.LFB264:
 198              		.loc 1 241 0
 199              		.cfi_startproc
 200              		@ args = 0, pretend = 0, frame = 0
 201              		@ frame_needed = 0, uses_anonymous_args = 0
 202              	.LVL9:
 203              		.loc 1 245 0
 204 0000 11F00C0F 		tst	r1, #12
 205              		.loc 1 241 0
 206 0004 70B5     		push	{r4, r5, r6, lr}
 207              		.cfi_def_cfa_offset 16
 208              		.cfi_offset 4, -16
 209              		.cfi_offset 5, -12
 210              		.cfi_offset 6, -8
 211              		.cfi_offset 14, -4
 212              		.loc 1 241 0
 213 0006 0446     		mov	r4, r0
 214              		.loc 1 245 0
 215 0008 3BD1     		bne	.L41
 216              	.LVL10:
 217              	.L26:
 218              		.loc 1 252 0
 219 000a A378     		ldrb	r3, [r4, #2]	@ zero_extendqisi2
 220 000c 4BB9     		cbnz	r3, .L27
 221              		.loc 1 255 0
 222 000e 6368     		ldr	r3, [r4, #4]
 223 0010 DB68     		ldr	r3, [r3, #12]
 224 0012 002B     		cmp	r3, #0
 225 0014 34D0     		beq	.L25
 226              		.loc 1 256 0
 227 0016 218B     		ldrh	r1, [r4, #24]
ARM GAS  /tmp/cceu4JPd.s 			page 5


 228 0018 2046     		mov	r0, r4
 229 001a 89B2     		uxth	r1, r1
 230              		.loc 1 273 0
 231 001c BDE87040 		pop	{r4, r5, r6, lr}
 232              		.cfi_remember_state
 233              		.cfi_restore 14
 234              		.cfi_restore 6
 235              		.cfi_restore 5
 236              		.cfi_restore 4
 237              		.cfi_def_cfa_offset 0
 238              	.LVL11:
 239              		.loc 1 256 0
 240 0020 1847     		bx	r3	@ indirect register sibling call
 241              	.LVL12:
 242              	.L27:
 243              		.cfi_restore_state
 244              	.LBB26:
 245              	.LBB27:
 246              		.loc 1 261 0
 247 0022 2169     		ldr	r1, [r4, #16]
 248 0024 0A68     		ldr	r2, [r1]
 249 0026 1368     		ldr	r3, [r2]
 250 0028 23F01F03 		bic	r3, r3, #31
 251 002c 1360     		str	r3, [r2]
 252              	.L30:
 253 002e 1368     		ldr	r3, [r2]
 254 0030 DB07     		lsls	r3, r3, #31
 255 0032 FCD4     		bmi	.L30
 256              		.loc 1 263 0
 257 0034 6068     		ldr	r0, [r4, #4]
 258              		.loc 1 261 0
 259 0036 0D7A     		ldrb	r5, [r1, #8]	@ zero_extendqisi2
 260 0038 4E68     		ldr	r6, [r1, #4]
 261              		.loc 1 263 0
 262 003a 8168     		ldr	r1, [r0, #8]
 263              		.loc 1 261 0
 264 003c 3D23     		movs	r3, #61
 265 003e AB40     		lsls	r3, r3, r5
 266              		.loc 1 262 0
 267 0040 0225     		movs	r5, #2
 268              		.loc 1 261 0
 269 0042 3360     		str	r3, [r6]
 270              		.loc 1 262 0
 271 0044 A570     		strb	r5, [r4, #2]
 272              		.loc 1 263 0
 273 0046 39B1     		cbz	r1, .L31
 274              		.loc 1 264 0
 275 0048 2046     		mov	r0, r4
 276 004a 8847     		blx	r1
 277              	.LVL13:
 278              		.loc 1 268 0
 279 004c A378     		ldrb	r3, [r4, #2]	@ zero_extendqisi2
 280 004e AB42     		cmp	r3, r5
 281 0050 16D1     		bne	.L25
 282 0052 2369     		ldr	r3, [r4, #16]
 283 0054 6068     		ldr	r0, [r4, #4]
 284 0056 1A68     		ldr	r2, [r3]
ARM GAS  /tmp/cceu4JPd.s 			page 6


 285              	.L31:
 286              	.LBB28:
 287              	.LBB29:
 288              		.loc 1 164 0
 289 0058 C168     		ldr	r1, [r0, #12]
 290              		.loc 1 170 0
 291 005a E368     		ldr	r3, [r4, #12]
 292              		.loc 1 165 0
 293 005c 0029     		cmp	r1, #0
 294 005e 14BF     		ite	ne
 295 0060 4FF48871 		movne	r1, #272
 296 0064 4FF48071 		moveq	r1, #256
 297              		.loc 1 170 0
 298 0068 0B43     		orrs	r3, r3, r1
 299              	.LBE29:
 300              	.LBE28:
 301              		.loc 1 269 0
 302 006a 0025     		movs	r5, #0
 303              	.LBB32:
 304              	.LBB30:
 305              		.loc 1 169 0
 306 006c 0121     		movs	r1, #1
 307              		.loc 1 168 0
 308 006e 04F11800 		add	r0, r4, #24
 309              	.LBE30:
 310              	.LBE32:
 311              		.loc 1 269 0
 312 0072 A570     		strb	r5, [r4, #2]
 313              	.LVL14:
 314              	.LBB33:
 315              	.LBB31:
 316              		.loc 1 168 0
 317 0074 D060     		str	r0, [r2, #12]
 318              		.loc 1 169 0
 319 0076 5160     		str	r1, [r2, #4]
 320              		.loc 1 170 0
 321 0078 1360     		str	r3, [r2]
 322              		.loc 1 171 0
 323 007a 1368     		ldr	r3, [r2]
 324 007c 0B43     		orrs	r3, r3, r1
 325 007e 1360     		str	r3, [r2]
 326              	.LVL15:
 327              	.L25:
 328 0080 70BD     		pop	{r4, r5, r6, pc}
 329              	.LVL16:
 330              	.L41:
 331              	.LBE31:
 332              	.LBE33:
 333              	.LBE27:
 334              	.LBE26:
 335              	.LBB34:
 336              	.LBB35:
 337              		.loc 2 416 0
 338 0082 0248     		ldr	r0, .L42
 339              	.LVL17:
 340 0084 FFF7FEFF 		bl	chSysHalt
 341              	.LVL18:
ARM GAS  /tmp/cceu4JPd.s 			page 7


 342 0088 BFE7     		b	.L26
 343              	.L43:
 344 008a 00BF     		.align	2
 345              	.L42:
 346 008c 00000000 		.word	.LC0
 347              	.LBE35:
 348              	.LBE34:
 349              		.cfi_endproc
 350              	.LFE264:
 351              		.size	uart_lld_serve_rx_end_irq, .-uart_lld_serve_rx_end_irq
 352              		.section	.text.VectorD8,"ax",%progbits
 353              		.align	2
 354              		.p2align 4,,15
 355              		.global	VectorD8
 356              		.thumb
 357              		.thumb_func
 358              		.type	VectorD8, %function
 359              	VectorD8:
 360              	.LFB267:
 361              		.loc 1 368 0
 362              		.cfi_startproc
 363              		@ args = 0, pretend = 0, frame = 0
 364              		@ frame_needed = 0, uses_anonymous_args = 0
 365              	.LVL19:
 366 0000 F8B5     		push	{r3, r4, r5, r6, r7, lr}
 367              		.cfi_def_cfa_offset 24
 368              		.cfi_offset 3, -24
 369              		.cfi_offset 4, -20
 370              		.cfi_offset 5, -16
 371              		.cfi_offset 6, -12
 372              		.cfi_offset 7, -8
 373              		.cfi_offset 14, -4
 374              	.LBB40:
 375              	.LBB41:
 376              		.loc 1 312 0
 377 0002 1D4E     		ldr	r6, .L79
 378 0004 B468     		ldr	r4, [r6, #8]
 379              	.LVL20:
 380              		.loc 1 313 0
 381 0006 E768     		ldr	r7, [r4, #12]
 382              	.LVL21:
 383              		.loc 1 315 0
 384 0008 2568     		ldr	r5, [r4]
 385              	.LVL22:
 386              		.loc 1 316 0
 387 000a 6368     		ldr	r3, [r4, #4]
 388              		.loc 1 318 0
 389 000c 40F20F13 		movw	r3, #271
 390 0010 2B40     		ands	r3, r3, r5
 391 0012 EBB1     		cbz	r3, .L46
 392              		.loc 1 321 0
 393 0014 7368     		ldr	r3, [r6, #4]
 394 0016 1A69     		ldr	r2, [r3, #16]
 395              		.loc 1 320 0
 396 0018 6FF48073 		mvn	r3, #256
 397 001c 2360     		str	r3, [r4]
 398              		.loc 1 321 0
ARM GAS  /tmp/cceu4JPd.s 			page 8


 399 001e BAB1     		cbz	r2, .L46
 400              		.loc 1 315 0
 401 0020 ABB2     		uxth	r3, r5
 402              	.LVL23:
 403              	.LBB42:
 404              	.LBB43:
 405              		.loc 1 142 0
 406 0022 13F0080F 		tst	r3, #8
 407 0026 0CBF     		ite	eq
 408 0028 0021     		moveq	r1, #0
 409 002a 1021     		movne	r1, #16
 410              	.LVL24:
 411              		.loc 1 143 0
 412 002c D807     		lsls	r0, r3, #31
 413              		.loc 1 144 0
 414 002e 48BF     		it	mi
 415 0030 41F00401 		orrmi	r1, r1, #4
 416              	.LVL25:
 417              		.loc 1 145 0
 418 0034 9807     		lsls	r0, r3, #30
 419              		.loc 1 146 0
 420 0036 48BF     		it	mi
 421 0038 41F00801 		orrmi	r1, r1, #8
 422              	.LVL26:
 423              		.loc 1 147 0
 424 003c 5807     		lsls	r0, r3, #29
 425              		.loc 1 148 0
 426 003e 48BF     		it	mi
 427 0040 41F02001 		orrmi	r1, r1, #32
 428              	.LVL27:
 429              		.loc 1 149 0
 430 0044 D805     		lsls	r0, r3, #23
 431              		.loc 1 150 0
 432 0046 48BF     		it	mi
 433 0048 41F04001 		orrmi	r1, r1, #64
 434              	.LVL28:
 435              	.LBE43:
 436              	.LBE42:
 437              		.loc 1 322 0
 438 004c 0A48     		ldr	r0, .L79
 439 004e 9047     		blx	r2
 440              	.LVL29:
 441              	.L46:
 442              		.loc 1 325 0
 443 0050 6A06     		lsls	r2, r5, #25
 444 0052 0CD5     		bpl	.L54
 445 0054 7B06     		lsls	r3, r7, #25
 446 0056 0AD5     		bpl	.L54
 447              		.loc 1 331 0
 448 0058 7368     		ldr	r3, [r6, #4]
 449 005a 5B68     		ldr	r3, [r3, #4]
 450              		.loc 1 328 0
 451 005c 27F04007 		bic	r7, r7, #64
 452              	.LVL30:
 453              		.loc 1 327 0
 454 0060 6FF04002 		mvn	r2, #64
 455 0064 2260     		str	r2, [r4]
ARM GAS  /tmp/cceu4JPd.s 			page 9


 456              		.loc 1 328 0
 457 0066 E760     		str	r7, [r4, #12]
 458              		.loc 1 331 0
 459 0068 0BB1     		cbz	r3, .L54
 460              		.loc 1 332 0
 461 006a 0348     		ldr	r0, .L79
 462 006c 9847     		blx	r3
 463              	.LVL31:
 464              	.L54:
 465              	.LBE41:
 466              	.LBE40:
 467              		.loc 1 375 0
 468 006e BDE8F840 		pop	{r3, r4, r5, r6, r7, lr}
 469              		.cfi_restore 14
 470              		.cfi_restore 7
 471              		.cfi_restore 6
 472              		.cfi_restore 5
 473              		.cfi_restore 4
 474              		.cfi_restore 3
 475              		.cfi_def_cfa_offset 0
 476              	.LVL32:
 477              		.loc 1 374 0
 478 0072 FFF7FEBF 		b	_port_irq_epilogue
 479              	.LVL33:
 480              	.L80:
 481 0076 00BF     		.align	2
 482              	.L79:
 483 0078 00000000 		.word	.LANCHOR0
 484              		.cfi_endproc
 485              	.LFE267:
 486              		.size	VectorD8, .-VectorD8
 487 007c AFF30080 		.section	.text.uart_lld_init,"ax",%progbits
 488              		.align	2
 489              		.p2align 4,,15
 490              		.global	uart_lld_init
 491              		.thumb
 492              		.thumb_func
 493              		.type	uart_lld_init, %function
 494              	uart_lld_init:
 495              	.LFB268:
 496              		.loc 1 463 0
 497              		.cfi_startproc
 498              		@ args = 0, pretend = 0, frame = 0
 499              		@ frame_needed = 0, uses_anonymous_args = 0
 500 0000 10B5     		push	{r4, lr}
 501              		.cfi_def_cfa_offset 8
 502              		.cfi_offset 4, -8
 503              		.cfi_offset 14, -4
 504              		.loc 1 474 0
 505 0002 074C     		ldr	r4, .L83
 506 0004 2046     		mov	r0, r4
 507 0006 FFF7FEFF 		bl	uartObjectInit
 508              	.LVL34:
 509              		.loc 1 477 0
 510 000a 064B     		ldr	r3, .L83+4
 511              		.loc 1 475 0
 512 000c 064A     		ldr	r2, .L83+8
ARM GAS  /tmp/cceu4JPd.s 			page 10


 513 000e A260     		str	r2, [r4, #8]
 514              		.loc 1 476 0
 515 0010 0621     		movs	r1, #6
 516              		.loc 1 478 0
 517 0012 03F10C02 		add	r2, r3, #12
 518              		.loc 1 476 0
 519 0016 E160     		str	r1, [r4, #12]
 520              		.loc 1 477 0
 521 0018 2361     		str	r3, [r4, #16]
 522              		.loc 1 478 0
 523 001a 6261     		str	r2, [r4, #20]
 524 001c 10BD     		pop	{r4, pc}
 525              	.L84:
 526 001e 00BF     		.align	2
 527              	.L83:
 528 0020 00000000 		.word	.LANCHOR0
 529 0024 3C000000 		.word	_stm32_dma_streams+60
 530 0028 00440040 		.word	1073759232
 531              		.cfi_endproc
 532              	.LFE268:
 533              		.size	uart_lld_init, .-uart_lld_init
 534 002c AFF30080 		.section	.text.uart_lld_start,"ax",%progbits
 535              		.align	2
 536              		.p2align 4,,15
 537              		.global	uart_lld_start
 538              		.thumb
 539              		.thumb_func
 540              		.type	uart_lld_start, %function
 541              	uart_lld_start:
 542              	.LFB269:
 543              		.loc 1 520 0
 544              		.cfi_startproc
 545              		@ args = 0, pretend = 0, frame = 0
 546              		@ frame_needed = 0, uses_anonymous_args = 0
 547              	.LVL35:
 548 0000 F8B5     		push	{r3, r4, r5, r6, r7, lr}
 549              		.cfi_def_cfa_offset 24
 550              		.cfi_offset 3, -24
 551              		.cfi_offset 4, -20
 552              		.cfi_offset 5, -16
 553              		.cfi_offset 6, -12
 554              		.cfi_offset 7, -8
 555              		.cfi_offset 14, -4
 556              		.loc 1 522 0
 557 0002 0378     		ldrb	r3, [r0]	@ zero_extendqisi2
 558 0004 012B     		cmp	r3, #1
 559              		.loc 1 520 0
 560 0006 0446     		mov	r4, r0
 561              		.loc 1 522 0
 562 0008 3ED0     		beq	.L86
 563 000a 8568     		ldr	r5, [r0, #8]
 564              	.LVL36:
 565              	.L87:
 566              		.loc 1 664 0
 567 000c 0023     		movs	r3, #0
 568 000e A370     		strb	r3, [r4, #2]
 569              		.loc 1 665 0
ARM GAS  /tmp/cceu4JPd.s 			page 11


 570 0010 6370     		strb	r3, [r4, #1]
 571              	.LVL37:
 572              	.LBB49:
 573              	.LBB50:
 574              		.loc 1 203 0
 575 0012 2046     		mov	r0, r4
 576 0014 FFF7FEFF 		bl	usart_stop
 577              	.LVL38:
 578              		.loc 1 207 0
 579 0018 A368     		ldr	r3, [r4, #8]
 580 001a 394A     		ldr	r2, .L98
 581 001c 9342     		cmp	r3, r2
 582 001e 48D0     		beq	.L90
 583 0020 02F58062 		add	r2, r2, #1024
 584 0024 9342     		cmp	r3, r2
 585 0026 44D0     		beq	.L90
 586              		.loc 1 213 0
 587 0028 6268     		ldr	r2, [r4, #4]
 588 002a 364B     		ldr	r3, .L98+4
 589 002c 5169     		ldr	r1, [r2, #20]
 590 002e B3FBF1F3 		udiv	r3, r3, r1
 591 0032 AB60     		str	r3, [r5, #8]
 592              	.L92:
 593              	.LBB51:
 594              	.LBB52:
 595              		.loc 1 164 0
 596 0034 D768     		ldr	r7, [r2, #12]
 597              	.LBE52:
 598              	.LBE51:
 599              		.loc 1 229 0
 600 0036 138B     		ldrh	r3, [r2, #24]
 601              		.loc 1 222 0
 602 0038 508B     		ldrh	r0, [r2, #26]
 603              		.loc 1 223 0
 604 003a 918B     		ldrh	r1, [r2, #28]
 605              	.LBB60:
 606              	.LBB53:
 607              		.loc 1 168 0
 608 003c 2269     		ldr	r2, [r4, #16]
 609              	.LBE53:
 610              	.LBE60:
 611              		.loc 1 216 0
 612 003e 2E68     		ldr	r6, [r5]
 613              		.loc 1 217 0
 614 0040 6E68     		ldr	r6, [r5, #4]
 615              	.LBB61:
 616              	.LBB54:
 617              		.loc 1 170 0
 618 0042 E668     		ldr	r6, [r4, #12]
 619              		.loc 1 168 0
 620 0044 1268     		ldr	r2, [r2]
 621              		.loc 1 164 0
 622 0046 002F     		cmp	r7, #0
 623              	.LBE54:
 624              	.LBE61:
 625              		.loc 1 229 0
 626 0048 43F40453 		orr	r3, r3, #8448
ARM GAS  /tmp/cceu4JPd.s 			page 12


 627              		.loc 1 218 0
 628 004c 4FF00007 		mov	r7, #0
 629 0050 2F60     		str	r7, [r5]
 630              		.loc 1 222 0
 631 0052 40F04000 		orr	r0, r0, #64
 632              	.LBB62:
 633              	.LBB55:
 634              		.loc 1 165 0
 635 0056 14BF     		ite	ne
 636 0058 4FF48877 		movne	r7, #272
 637 005c 4FF48077 		moveq	r7, #256
 638              	.LBE55:
 639              	.LBE62:
 640              		.loc 1 229 0
 641 0060 43F00C03 		orr	r3, r3, #12
 642              		.loc 1 223 0
 643 0064 41F0C101 		orr	r1, r1, #193
 644              		.loc 1 229 0
 645 0068 9BB2     		uxth	r3, r3
 646              	.LBB63:
 647              	.LBB56:
 648              		.loc 1 170 0
 649 006a 3E43     		orrs	r6, r6, r7
 650              	.LBE56:
 651              	.LBE63:
 652              		.loc 1 222 0
 653 006c 80B2     		uxth	r0, r0
 654              	.LBB64:
 655              	.LBB57:
 656              		.loc 1 169 0
 657 006e 0127     		movs	r7, #1
 658              	.LBE57:
 659              	.LBE64:
 660              		.loc 1 223 0
 661 0070 89B2     		uxth	r1, r1
 662              	.LBB65:
 663              	.LBB58:
 664              		.loc 1 168 0
 665 0072 1834     		adds	r4, r4, #24
 666              	.LVL39:
 667              	.LBE58:
 668              	.LBE65:
 669              		.loc 1 222 0
 670 0074 2861     		str	r0, [r5, #16]
 671              		.loc 1 223 0
 672 0076 6961     		str	r1, [r5, #20]
 673              	.LVL40:
 674              		.loc 1 229 0
 675 0078 EB60     		str	r3, [r5, #12]
 676              	.LVL41:
 677              	.LBB66:
 678              	.LBB59:
 679              		.loc 1 168 0
 680 007a D460     		str	r4, [r2, #12]
 681              		.loc 1 169 0
 682 007c 5760     		str	r7, [r2, #4]
 683              		.loc 1 170 0
ARM GAS  /tmp/cceu4JPd.s 			page 13


 684 007e 1660     		str	r6, [r2]
 685              		.loc 1 171 0
 686 0080 1368     		ldr	r3, [r2]
 687 0082 3B43     		orrs	r3, r3, r7
 688 0084 1360     		str	r3, [r2]
 689 0086 F8BD     		pop	{r3, r4, r5, r6, r7, pc}
 690              	.LVL42:
 691              	.L86:
 692              	.LBE59:
 693              	.LBE66:
 694              	.LBE50:
 695              	.LBE49:
 696              		.loc 1 544 0
 697 0088 1F4B     		ldr	r3, .L98+8
 698 008a 9842     		cmp	r0, r3
 699 008c 1DD0     		beq	.L96
 700              	.LVL43:
 701              	.L88:
 702              		.loc 1 657 0
 703 008e 6368     		ldr	r3, [r4, #4]
 704 0090 1B8B     		ldrh	r3, [r3, #24]
 705 0092 03F4A053 		and	r3, r3, #5120
 706 0096 B3F5805F 		cmp	r3, #4096
 707 009a 11D0     		beq	.L97
 708              	.L89:
 709              		.loc 1 659 0
 710 009c 2269     		ldr	r2, [r4, #16]
 711              		.loc 1 660 0
 712 009e 6369     		ldr	r3, [r4, #20]
 713              		.loc 1 659 0
 714 00a0 A568     		ldr	r5, [r4, #8]
 715 00a2 1068     		ldr	r0, [r2]
 716              		.loc 1 660 0
 717 00a4 1968     		ldr	r1, [r3]
 718              		.loc 1 661 0
 719 00a6 0022     		movs	r2, #0
 720              		.loc 1 659 0
 721 00a8 2B1D     		adds	r3, r5, #4
 722 00aa 8360     		str	r3, [r0, #8]
 723              		.loc 1 660 0
 724 00ac 8B60     		str	r3, [r1, #8]
 725              		.loc 1 661 0
 726 00ae 2283     		strh	r2, [r4, #24]	@ movhi
 727 00b0 ACE7     		b	.L87
 728              	.LVL44:
 729              	.L90:
 730              	.LBB68:
 731              	.LBB67:
 732              		.loc 1 211 0
 733 00b2 6268     		ldr	r2, [r4, #4]
 734 00b4 154B     		ldr	r3, .L98+12
 735 00b6 5169     		ldr	r1, [r2, #20]
 736 00b8 B3FBF1F3 		udiv	r3, r3, r1
 737 00bc AB60     		str	r3, [r5, #8]
 738 00be B9E7     		b	.L92
 739              	.LVL45:
 740              	.L97:
ARM GAS  /tmp/cceu4JPd.s 			page 14


 741              	.LBE67:
 742              	.LBE68:
 743              		.loc 1 658 0
 744 00c0 E368     		ldr	r3, [r4, #12]
 745 00c2 43F42053 		orr	r3, r3, #10240
 746 00c6 E360     		str	r3, [r4, #12]
 747 00c8 E8E7     		b	.L89
 748              	.LVL46:
 749              	.L96:
 750              	.LBB69:
 751              		.loc 1 546 0
 752 00ca 0346     		mov	r3, r0
 753 00cc 104A     		ldr	r2, .L98+16
 754 00ce 0069     		ldr	r0, [r0, #16]
 755              	.LVL47:
 756 00d0 0C21     		movs	r1, #12
 757 00d2 FFF7FEFF 		bl	dmaStreamAllocate
 758              	.LVL48:
 759              		.loc 1 551 0
 760 00d6 2346     		mov	r3, r4
 761 00d8 0E4A     		ldr	r2, .L98+20
 762 00da 6069     		ldr	r0, [r4, #20]
 763 00dc 0C21     		movs	r1, #12
 764 00de FFF7FEFF 		bl	dmaStreamAllocate
 765              	.LVL49:
 766              		.loc 1 556 0
 767 00e2 0D4A     		ldr	r2, .L98+24
 768 00e4 136C     		ldr	r3, [r2, #64]
 769 00e6 43F40033 		orr	r3, r3, #131072
 770 00ea 1364     		str	r3, [r2, #64]
 771              		.loc 1 557 0
 772 00ec 0C21     		movs	r1, #12
 773 00ee 2620     		movs	r0, #38
 774 00f0 FFF7FEFF 		bl	nvicEnableVector
 775              	.LVL50:
 776              		.loc 1 558 0
 777 00f4 E368     		ldr	r3, [r4, #12]
 778 00f6 43F00063 		orr	r3, r3, #134217728
 779 00fa E360     		str	r3, [r4, #12]
 780 00fc C7E7     		b	.L88
 781              	.L99:
 782 00fe 00BF     		.align	2
 783              	.L98:
 784 0100 00100140 		.word	1073811456
 785 0104 80DE8002 		.word	42000000
 786 0108 00000000 		.word	.LANCHOR0
 787 010c 00BD0105 		.word	84000000
 788 0110 00000000 		.word	uart_lld_serve_rx_end_irq
 789 0114 00000000 		.word	uart_lld_serve_tx_end_irq
 790 0118 00380240 		.word	1073887232
 791              	.LBE69:
 792              		.cfi_endproc
 793              	.LFE269:
 794              		.size	uart_lld_start, .-uart_lld_start
 795 011c AFF30080 		.section	.text.uart_lld_stop,"ax",%progbits
 796              		.align	2
 797              		.p2align 4,,15
ARM GAS  /tmp/cceu4JPd.s 			page 15


 798              		.global	uart_lld_stop
 799              		.thumb
 800              		.thumb_func
 801              		.type	uart_lld_stop, %function
 802              	uart_lld_stop:
 803              	.LFB270:
 804              		.loc 1 676 0
 805              		.cfi_startproc
 806              		@ args = 0, pretend = 0, frame = 0
 807              		@ frame_needed = 0, uses_anonymous_args = 0
 808              	.LVL51:
 809              		.loc 1 678 0
 810 0000 0278     		ldrb	r2, [r0]	@ zero_extendqisi2
 811 0002 022A     		cmp	r2, #2
 812 0004 00D0     		beq	.L106
 813 0006 7047     		bx	lr
 814              	.L106:
 815              		.loc 1 676 0
 816 0008 10B5     		push	{r4, lr}
 817              		.cfi_def_cfa_offset 8
 818              		.cfi_offset 4, -8
 819              		.cfi_offset 14, -4
 820 000a 0446     		mov	r4, r0
 821              		.loc 1 679 0
 822 000c FFF7FEFF 		bl	usart_stop
 823              	.LVL52:
 824              		.loc 1 680 0
 825 0010 2069     		ldr	r0, [r4, #16]
 826 0012 FFF7FEFF 		bl	dmaStreamRelease
 827              	.LVL53:
 828              		.loc 1 681 0
 829 0016 6069     		ldr	r0, [r4, #20]
 830 0018 FFF7FEFF 		bl	dmaStreamRelease
 831              	.LVL54:
 832              		.loc 1 692 0
 833 001c 064B     		ldr	r3, .L108
 834 001e 9C42     		cmp	r4, r3
 835 0020 00D0     		beq	.L107
 836              	.L100:
 837 0022 10BD     		pop	{r4, pc}
 838              	.LVL55:
 839              	.L107:
 840              		.loc 1 693 0
 841 0024 2620     		movs	r0, #38
 842 0026 FFF7FEFF 		bl	nvicDisableVector
 843              	.LVL56:
 844              		.loc 1 694 0
 845 002a 044A     		ldr	r2, .L108+4
 846 002c 136C     		ldr	r3, [r2, #64]
 847 002e 23F40033 		bic	r3, r3, #131072
 848 0032 1364     		str	r3, [r2, #64]
 849              		.loc 1 695 0
 850 0034 F5E7     		b	.L100
 851              	.L109:
 852 0036 00BF     		.align	2
 853              	.L108:
 854 0038 00000000 		.word	.LANCHOR0
ARM GAS  /tmp/cceu4JPd.s 			page 16


 855 003c 00380240 		.word	1073887232
 856              		.cfi_endproc
 857              	.LFE270:
 858              		.size	uart_lld_stop, .-uart_lld_stop
 859              		.section	.text.uart_lld_start_send,"ax",%progbits
 860              		.align	2
 861              		.p2align 4,,15
 862              		.global	uart_lld_start_send
 863              		.thumb
 864              		.thumb_func
 865              		.type	uart_lld_start_send, %function
 866              	uart_lld_start_send:
 867              	.LFB271:
 868              		.loc 1 744 0
 869              		.cfi_startproc
 870              		@ args = 0, pretend = 0, frame = 0
 871              		@ frame_needed = 0, uses_anonymous_args = 0
 872              		@ link register save eliminated.
 873              	.LVL57:
 874 0000 30B4     		push	{r4, r5}
 875              		.cfi_def_cfa_offset 8
 876              		.cfi_offset 4, -8
 877              		.cfi_offset 5, -4
 878              		.loc 1 747 0
 879 0002 4369     		ldr	r3, [r0, #20]
 880              		.loc 1 754 0
 881 0004 4568     		ldr	r5, [r0, #4]
 882              		.loc 1 749 0
 883 0006 C468     		ldr	r4, [r0, #12]
 884              		.loc 1 747 0
 885 0008 1B68     		ldr	r3, [r3]
 886              		.loc 1 754 0
 887 000a 6D68     		ldr	r5, [r5, #4]
 888              		.loc 1 747 0
 889 000c DA60     		str	r2, [r3, #12]
 890              		.loc 1 749 0
 891 000e 44F48A64 		orr	r4, r4, #1104
 892              		.loc 1 748 0
 893 0012 5960     		str	r1, [r3, #4]
 894              		.loc 1 749 0
 895 0014 1C60     		str	r4, [r3]
 896              		.loc 1 754 0
 897 0016 3DB1     		cbz	r5, .L111
 898              		.loc 1 755 0
 899 0018 8268     		ldr	r2, [r0, #8]
 900              	.LVL58:
 901 001a 6FF04001 		mvn	r1, #64
 902              	.LVL59:
 903 001e 1160     		str	r1, [r2]
 904              		.loc 1 756 0
 905 0020 D168     		ldr	r1, [r2, #12]
 906 0022 41F04001 		orr	r1, r1, #64
 907 0026 D160     		str	r1, [r2, #12]
 908              	.L111:
 909              		.loc 1 760 0
 910 0028 1A68     		ldr	r2, [r3]
 911 002a 42F00102 		orr	r2, r2, #1
ARM GAS  /tmp/cceu4JPd.s 			page 17


 912 002e 1A60     		str	r2, [r3]
 913              		.loc 1 761 0
 914 0030 30BC     		pop	{r4, r5}
 915              		.cfi_restore 5
 916              		.cfi_restore 4
 917              		.cfi_def_cfa_offset 0
 918 0032 7047     		bx	lr
 919              		.cfi_endproc
 920              	.LFE271:
 921              		.size	uart_lld_start_send, .-uart_lld_start_send
 922 0034 AFF30080 		.section	.text.uart_lld_stop_send,"ax",%progbits
 922      AFF30080 
 922      AFF30080 
 923              		.align	2
 924              		.p2align 4,,15
 925              		.global	uart_lld_stop_send
 926              		.thumb
 927              		.thumb_func
 928              		.type	uart_lld_stop_send, %function
 929              	uart_lld_stop_send:
 930              	.LFB272:
 931              		.loc 1 774 0
 932              		.cfi_startproc
 933              		@ args = 0, pretend = 0, frame = 0
 934              		@ frame_needed = 0, uses_anonymous_args = 0
 935              		@ link register save eliminated.
 936              	.LVL60:
 937              		.loc 1 776 0
 938 0000 4169     		ldr	r1, [r0, #20]
 939 0002 0A68     		ldr	r2, [r1]
 940 0004 1368     		ldr	r3, [r2]
 941 0006 23F01F03 		bic	r3, r3, #31
 942 000a 1360     		str	r3, [r2]
 943              	.L117:
 944              		.loc 1 776 0 is_stmt 0 discriminator 2
 945 000c 1368     		ldr	r3, [r2]
 946 000e DB07     		lsls	r3, r3, #31
 947 0010 FCD4     		bmi	.L117
 948              		.loc 1 776 0 discriminator 3
 949 0012 087A     		ldrb	r0, [r1, #8]	@ zero_extendqisi2
 950              	.LVL61:
 951 0014 4968     		ldr	r1, [r1, #4]
 952 0016 3D23     		movs	r3, #61
 953 0018 8340     		lsls	r3, r3, r0
 954 001a 0B60     		str	r3, [r1]
 955              		.loc 1 778 0 is_stmt 1 discriminator 3
 956 001c 5068     		ldr	r0, [r2, #4]
 957              		.loc 1 779 0 discriminator 3
 958 001e 7047     		bx	lr
 959              		.cfi_endproc
 960              	.LFE272:
 961              		.size	uart_lld_stop_send, .-uart_lld_stop_send
 962              		.section	.text.uart_lld_start_receive,"ax",%progbits
 963              		.align	2
 964              		.p2align 4,,15
 965              		.global	uart_lld_start_receive
 966              		.thumb
ARM GAS  /tmp/cceu4JPd.s 			page 18


 967              		.thumb_func
 968              		.type	uart_lld_start_receive, %function
 969              	uart_lld_start_receive:
 970              	.LFB273:
 971              		.loc 1 792 0
 972              		.cfi_startproc
 973              		@ args = 0, pretend = 0, frame = 0
 974              		@ frame_needed = 0, uses_anonymous_args = 0
 975              		@ link register save eliminated.
 976              	.LVL62:
 977 0000 70B4     		push	{r4, r5, r6}
 978              		.cfi_def_cfa_offset 12
 979              		.cfi_offset 4, -12
 980              		.cfi_offset 5, -8
 981              		.cfi_offset 6, -4
 982              		.loc 1 795 0
 983 0002 0569     		ldr	r5, [r0, #16]
 984 0004 2C68     		ldr	r4, [r5]
 985 0006 2368     		ldr	r3, [r4]
 986 0008 23F01F03 		bic	r3, r3, #31
 987 000c 2360     		str	r3, [r4]
 988              	.L120:
 989              		.loc 1 795 0 is_stmt 0 discriminator 2
 990 000e 2368     		ldr	r3, [r4]
 991 0010 DB07     		lsls	r3, r3, #31
 992 0012 FCD4     		bmi	.L120
 993              		.loc 1 795 0 discriminator 3
 994 0014 2E7A     		ldrb	r6, [r5, #8]	@ zero_extendqisi2
 995 0016 6D68     		ldr	r5, [r5, #4]
 996 0018 3D23     		movs	r3, #61
 997 001a B340     		lsls	r3, r3, r6
 998 001c 2B60     		str	r3, [r5]
 999              		.loc 1 800 0 is_stmt 1 discriminator 3
 1000 001e C368     		ldr	r3, [r0, #12]
 1001              		.loc 1 798 0 discriminator 3
 1002 0020 E260     		str	r2, [r4, #12]
 1003              		.loc 1 800 0 discriminator 3
 1004 0022 43F48263 		orr	r3, r3, #1040
 1005              		.loc 1 799 0 discriminator 3
 1006 0026 6160     		str	r1, [r4, #4]
 1007              		.loc 1 800 0 discriminator 3
 1008 0028 2360     		str	r3, [r4]
 1009              		.loc 1 804 0 discriminator 3
 1010 002a 2368     		ldr	r3, [r4]
 1011 002c 43F00103 		orr	r3, r3, #1
 1012 0030 2360     		str	r3, [r4]
 1013              		.loc 1 805 0 discriminator 3
 1014 0032 70BC     		pop	{r4, r5, r6}
 1015              		.cfi_restore 6
 1016              		.cfi_restore 5
 1017              		.cfi_restore 4
 1018              		.cfi_def_cfa_offset 0
 1019 0034 7047     		bx	lr
 1020              		.cfi_endproc
 1021              	.LFE273:
 1022              		.size	uart_lld_start_receive, .-uart_lld_start_receive
 1023 0036 00BFAFF3 		.section	.text.uart_lld_stop_receive,"ax",%progbits
ARM GAS  /tmp/cceu4JPd.s 			page 19


 1023      0080AFF3 
 1023      0080
 1024              		.align	2
 1025              		.p2align 4,,15
 1026              		.global	uart_lld_stop_receive
 1027              		.thumb
 1028              		.thumb_func
 1029              		.type	uart_lld_stop_receive, %function
 1030              	uart_lld_stop_receive:
 1031              	.LFB274:
 1032              		.loc 1 818 0
 1033              		.cfi_startproc
 1034              		@ args = 0, pretend = 0, frame = 0
 1035              		@ frame_needed = 0, uses_anonymous_args = 0
 1036              		@ link register save eliminated.
 1037              	.LVL63:
 1038 0000 0146     		mov	r1, r0
 1039              		.loc 1 821 0
 1040 0002 0069     		ldr	r0, [r0, #16]
 1041              	.LVL64:
 1042 0004 0268     		ldr	r2, [r0]
 1043 0006 1368     		ldr	r3, [r2]
 1044 0008 23F01F03 		bic	r3, r3, #31
 1045 000c 1360     		str	r3, [r2]
 1046              	.L124:
 1047              		.loc 1 821 0 is_stmt 0 discriminator 2
 1048 000e 1368     		ldr	r3, [r2]
 1049 0010 DB07     		lsls	r3, r3, #31
 1050 0012 FCD4     		bmi	.L124
 1051              		.loc 1 818 0 is_stmt 1 discriminator 3
 1052 0014 30B4     		push	{r4, r5}
 1053              		.cfi_def_cfa_offset 8
 1054              		.cfi_offset 4, -8
 1055              		.cfi_offset 5, -4
 1056              	.LBB70:
 1057              	.LBB71:
 1058              		.loc 1 164 0 discriminator 3
 1059 0016 4B68     		ldr	r3, [r1, #4]
 1060              	.LBE71:
 1061              	.LBE70:
 1062              		.loc 1 821 0 discriminator 3
 1063 0018 057A     		ldrb	r5, [r0, #8]	@ zero_extendqisi2
 1064              	.LBB75:
 1065              	.LBB72:
 1066              		.loc 1 164 0 discriminator 3
 1067 001a DC68     		ldr	r4, [r3, #12]
 1068              	.LBE72:
 1069              	.LBE75:
 1070              		.loc 1 821 0 discriminator 3
 1071 001c 4068     		ldr	r0, [r0, #4]
 1072 001e 3D23     		movs	r3, #61
 1073 0020 AB40     		lsls	r3, r3, r5
 1074 0022 0360     		str	r3, [r0]
 1075              	.LBB76:
 1076              	.LBB73:
 1077              		.loc 1 170 0 discriminator 3
 1078 0024 CB68     		ldr	r3, [r1, #12]
ARM GAS  /tmp/cceu4JPd.s 			page 20


 1079              	.LBE73:
 1080              	.LBE76:
 1081              		.loc 1 822 0 discriminator 3
 1082 0026 5068     		ldr	r0, [r2, #4]
 1083              	.LVL65:
 1084              	.LBB77:
 1085              	.LBB74:
 1086              		.loc 1 167 0 discriminator 3
 1087 0028 002C     		cmp	r4, #0
 1088 002a 0CBF     		ite	eq
 1089 002c 4FF48074 		moveq	r4, #256
 1090 0030 4FF48874 		movne	r4, #272
 1091              	.LVL66:
 1092              		.loc 1 170 0 discriminator 3
 1093 0034 2343     		orrs	r3, r3, r4
 1094              		.loc 1 168 0 discriminator 3
 1095 0036 1831     		adds	r1, r1, #24
 1096              	.LVL67:
 1097              		.loc 1 169 0 discriminator 3
 1098 0038 0124     		movs	r4, #1
 1099              	.LVL68:
 1100              		.loc 1 168 0 discriminator 3
 1101 003a D160     		str	r1, [r2, #12]
 1102              		.loc 1 169 0 discriminator 3
 1103 003c 5460     		str	r4, [r2, #4]
 1104              		.loc 1 170 0 discriminator 3
 1105 003e 1360     		str	r3, [r2]
 1106              		.loc 1 171 0 discriminator 3
 1107 0040 1368     		ldr	r3, [r2]
 1108 0042 2343     		orrs	r3, r3, r4
 1109 0044 1360     		str	r3, [r2]
 1110              	.LBE74:
 1111              	.LBE77:
 1112              		.loc 1 826 0 discriminator 3
 1113 0046 30BC     		pop	{r4, r5}
 1114              		.cfi_restore 5
 1115              		.cfi_restore 4
 1116              		.cfi_def_cfa_offset 0
 1117 0048 7047     		bx	lr
 1118              		.cfi_endproc
 1119              	.LFE274:
 1120              		.size	uart_lld_stop_receive, .-uart_lld_stop_receive
 1121              		.global	UARTD2
 1122 004a 00BFAFF3 		.section	.rodata.str1.4,"aMS",%progbits,1
 1122      0080
 1123              		.align	2
 1124              	.LC0:
 1125 0000 444D4120 		.ascii	"DMA failure\000"
 1125      6661696C 
 1125      75726500 
 1126              		.section	.bss.UARTD2,"aw",%nobits
 1127              		.align	2
 1128              		.set	.LANCHOR0,. + 0
 1129              		.type	UARTD2, %object
 1130              		.size	UARTD2, 28
 1131              	UARTD2:
 1132 0000 00000000 		.space	28
ARM GAS  /tmp/cceu4JPd.s 			page 21


 1132      00000000 
 1132      00000000 
 1132      00000000 
 1132      00000000 
 1133              		.text
 1134              	.Letext0:
 1135              		.file 3 "/usr/lib/gcc/arm-none-eabi/5.2.0/include/stddef.h"
 1136              		.file 4 "/usr/arm-none-eabi/include/machine/_default_types.h"
 1137              		.file 5 "/usr/arm-none-eabi/include/stdint.h"
 1138              		.file 6 "../../os/rt/ports/ARMCMx/compilers/GCC/chtypes.h"
 1139              		.file 7 "../../os/rt/include/chsystypes.h"
 1140              		.file 8 "../../os/rt/include/chschd.h"
 1141              		.file 9 "../../os/ext/CMSIS/ST/stm32f401xc.h"
 1142              		.file 10 "../../os/rt/ports/ARMCMx/chcore.h"
 1143              		.file 11 "../../os/rt/ports/ARMCMx/chcore_v7m.h"
 1144              		.file 12 "../../os/rt/include/chtm.h"
 1145              		.file 13 "../../os/rt/include/chsem.h"
 1146              		.file 14 "../../os/rt/include/chmtx.h"
 1147              		.file 15 "../../os/hal/ports/STM32/STM32F4xx/stm32_dma.h"
 1148              		.file 16 "../../os/hal/include/uart.h"
 1149              		.file 17 "../../os/hal/ports/STM32/LLD/USARTv1/uart_lld.h"
 1150              		.file 18 "../../os/ext/CMSIS/include/core_cm4.h"
 1151              		.file 19 "../../os/rt/include/chsys.h"
 1152              		.file 20 "../../os/hal/ports/common/ARMCMx/nvic.h"
 1153              		.section	.debug_info,"",%progbits
 1154              	.Ldebug_info0:
 1155 0000 79120000 		.4byte	0x1279
 1156 0004 0400     		.2byte	0x4
 1157 0006 00000000 		.4byte	.Ldebug_abbrev0
 1158 000a 04       		.byte	0x4
 1159 000b 01       		.uleb128 0x1
 1160 000c 9B010000 		.4byte	.LASF210
 1161 0010 0C       		.byte	0xc
 1162 0011 C9000000 		.4byte	.LASF211
 1163 0015 4B040000 		.4byte	.LASF212
 1164 0019 A8000000 		.4byte	.Ldebug_ranges0+0xa8
 1165 001d 00000000 		.4byte	0
 1166 0021 00000000 		.4byte	.Ldebug_line0
 1167 0025 02       		.uleb128 0x2
 1168 0026 04       		.byte	0x4
 1169 0027 05       		.byte	0x5
 1170 0028 696E7400 		.ascii	"int\000"
 1171 002c 03       		.uleb128 0x3
 1172 002d 18000000 		.4byte	.LASF4
 1173 0031 03       		.byte	0x3
 1174 0032 D8       		.byte	0xd8
 1175 0033 37000000 		.4byte	0x37
 1176 0037 04       		.uleb128 0x4
 1177 0038 04       		.byte	0x4
 1178 0039 07       		.byte	0x7
 1179 003a 98060000 		.4byte	.LASF0
 1180 003e 04       		.uleb128 0x4
 1181 003f 08       		.byte	0x8
 1182 0040 05       		.byte	0x5
 1183 0041 0B060000 		.4byte	.LASF1
 1184 0045 04       		.uleb128 0x4
 1185 0046 08       		.byte	0x8
ARM GAS  /tmp/cceu4JPd.s 			page 22


 1186 0047 04       		.byte	0x4
 1187 0048 1A070000 		.4byte	.LASF2
 1188 004c 04       		.uleb128 0x4
 1189 004d 01       		.byte	0x1
 1190 004e 06       		.byte	0x6
 1191 004f E8020000 		.4byte	.LASF3
 1192 0053 03       		.uleb128 0x3
 1193 0054 3B010000 		.4byte	.LASF5
 1194 0058 04       		.byte	0x4
 1195 0059 1D       		.byte	0x1d
 1196 005a 5E000000 		.4byte	0x5e
 1197 005e 04       		.uleb128 0x4
 1198 005f 01       		.byte	0x1
 1199 0060 08       		.byte	0x8
 1200 0061 31030000 		.4byte	.LASF6
 1201 0065 04       		.uleb128 0x4
 1202 0066 02       		.byte	0x2
 1203 0067 05       		.byte	0x5
 1204 0068 CB080000 		.4byte	.LASF7
 1205 006c 03       		.uleb128 0x3
 1206 006d BA030000 		.4byte	.LASF8
 1207 0071 04       		.byte	0x4
 1208 0072 2B       		.byte	0x2b
 1209 0073 77000000 		.4byte	0x77
 1210 0077 04       		.uleb128 0x4
 1211 0078 02       		.byte	0x2
 1212 0079 07       		.byte	0x7
 1213 007a A9090000 		.4byte	.LASF9
 1214 007e 03       		.uleb128 0x3
 1215 007f D9090000 		.4byte	.LASF10
 1216 0083 04       		.byte	0x4
 1217 0084 3F       		.byte	0x3f
 1218 0085 89000000 		.4byte	0x89
 1219 0089 04       		.uleb128 0x4
 1220 008a 04       		.byte	0x4
 1221 008b 05       		.byte	0x5
 1222 008c 8B010000 		.4byte	.LASF11
 1223 0090 03       		.uleb128 0x3
 1224 0091 00060000 		.4byte	.LASF12
 1225 0095 04       		.byte	0x4
 1226 0096 41       		.byte	0x41
 1227 0097 9B000000 		.4byte	0x9b
 1228 009b 04       		.uleb128 0x4
 1229 009c 04       		.byte	0x4
 1230 009d 07       		.byte	0x7
 1231 009e E4040000 		.4byte	.LASF13
 1232 00a2 03       		.uleb128 0x3
 1233 00a3 D9040000 		.4byte	.LASF14
 1234 00a7 04       		.byte	0x4
 1235 00a8 5B       		.byte	0x5b
 1236 00a9 AD000000 		.4byte	0xad
 1237 00ad 04       		.uleb128 0x4
 1238 00ae 08       		.byte	0x8
 1239 00af 07       		.byte	0x7
 1240 00b0 A9070000 		.4byte	.LASF15
 1241 00b4 03       		.uleb128 0x3
 1242 00b5 FB020000 		.4byte	.LASF16
ARM GAS  /tmp/cceu4JPd.s 			page 23


 1243 00b9 05       		.byte	0x5
 1244 00ba 15       		.byte	0x15
 1245 00bb 53000000 		.4byte	0x53
 1246 00bf 03       		.uleb128 0x3
 1247 00c0 D8070000 		.4byte	.LASF17
 1248 00c4 05       		.byte	0x5
 1249 00c5 21       		.byte	0x21
 1250 00c6 6C000000 		.4byte	0x6c
 1251 00ca 03       		.uleb128 0x3
 1252 00cb 6D000000 		.4byte	.LASF18
 1253 00cf 05       		.byte	0x5
 1254 00d0 2C       		.byte	0x2c
 1255 00d1 7E000000 		.4byte	0x7e
 1256 00d5 03       		.uleb128 0x3
 1257 00d6 84090000 		.4byte	.LASF19
 1258 00da 05       		.byte	0x5
 1259 00db 2D       		.byte	0x2d
 1260 00dc 90000000 		.4byte	0x90
 1261 00e0 03       		.uleb128 0x3
 1262 00e1 D5080000 		.4byte	.LASF20
 1263 00e5 05       		.byte	0x5
 1264 00e6 39       		.byte	0x39
 1265 00e7 A2000000 		.4byte	0xa2
 1266 00eb 05       		.uleb128 0x5
 1267 00ec BF000000 		.4byte	0xbf
 1268 00f0 05       		.uleb128 0x5
 1269 00f1 CA000000 		.4byte	0xca
 1270 00f5 05       		.uleb128 0x5
 1271 00f6 D5000000 		.4byte	0xd5
 1272 00fa 03       		.uleb128 0x3
 1273 00fb A5060000 		.4byte	.LASF21
 1274 00ff 06       		.byte	0x6
 1275 0100 45       		.byte	0x45
 1276 0101 D5000000 		.4byte	0xd5
 1277 0105 03       		.uleb128 0x3
 1278 0106 6B080000 		.4byte	.LASF22
 1279 010a 06       		.byte	0x6
 1280 010b 48       		.byte	0x48
 1281 010c B4000000 		.4byte	0xb4
 1282 0110 03       		.uleb128 0x3
 1283 0111 88020000 		.4byte	.LASF23
 1284 0115 06       		.byte	0x6
 1285 0116 49       		.byte	0x49
 1286 0117 B4000000 		.4byte	0xb4
 1287 011b 03       		.uleb128 0x3
 1288 011c 28090000 		.4byte	.LASF24
 1289 0120 06       		.byte	0x6
 1290 0121 4A       		.byte	0x4a
 1291 0122 B4000000 		.4byte	0xb4
 1292 0126 03       		.uleb128 0x3
 1293 0127 54000000 		.4byte	.LASF25
 1294 012b 06       		.byte	0x6
 1295 012c 4C       		.byte	0x4c
 1296 012d D5000000 		.4byte	0xd5
 1297 0131 03       		.uleb128 0x3
 1298 0132 F0070000 		.4byte	.LASF26
 1299 0136 06       		.byte	0x6
ARM GAS  /tmp/cceu4JPd.s 			page 24


 1300 0137 4D       		.byte	0x4d
 1301 0138 CA000000 		.4byte	0xca
 1302 013c 03       		.uleb128 0x3
 1303 013d 03030000 		.4byte	.LASF27
 1304 0141 06       		.byte	0x6
 1305 0142 4F       		.byte	0x4f
 1306 0143 D5000000 		.4byte	0xd5
 1307 0147 03       		.uleb128 0x3
 1308 0148 33040000 		.4byte	.LASF28
 1309 014c 06       		.byte	0x6
 1310 014d 51       		.byte	0x51
 1311 014e CA000000 		.4byte	0xca
 1312 0152 03       		.uleb128 0x3
 1313 0153 2F000000 		.4byte	.LASF29
 1314 0157 07       		.byte	0x7
 1315 0158 33       		.byte	0x33
 1316 0159 D5000000 		.4byte	0xd5
 1317 015d 03       		.uleb128 0x3
 1318 015e 11070000 		.4byte	.LASF30
 1319 0162 07       		.byte	0x7
 1320 0163 3F       		.byte	0x3f
 1321 0164 68010000 		.4byte	0x168
 1322 0168 06       		.uleb128 0x6
 1323 0169 0E050000 		.4byte	.LASF50
 1324 016d 44       		.byte	0x44
 1325 016e 08       		.byte	0x8
 1326 016f C2       		.byte	0xc2
 1327 0170 55020000 		.4byte	0x255
 1328 0174 07       		.uleb128 0x7
 1329 0175 94010000 		.4byte	.LASF31
 1330 0179 08       		.byte	0x8
 1331 017a C3       		.byte	0xc3
 1332 017b 60020000 		.4byte	0x260
 1333 017f 00       		.byte	0
 1334 0180 07       		.uleb128 0x7
 1335 0181 79020000 		.4byte	.LASF32
 1336 0185 08       		.byte	0x8
 1337 0186 C5       		.byte	0xc5
 1338 0187 60020000 		.4byte	0x260
 1339 018b 04       		.byte	0x4
 1340 018c 07       		.uleb128 0x7
 1341 018d B3030000 		.4byte	.LASF33
 1342 0191 08       		.byte	0x8
 1343 0192 C7       		.byte	0xc7
 1344 0193 26010000 		.4byte	0x126
 1345 0197 08       		.byte	0x8
 1346 0198 07       		.uleb128 0x7
 1347 0199 4E000000 		.4byte	.LASF34
 1348 019d 08       		.byte	0x8
 1349 019e C8       		.byte	0xc8
 1350 019f 05070000 		.4byte	0x705
 1351 01a3 0C       		.byte	0xc
 1352 01a4 07       		.uleb128 0x7
 1353 01a5 78010000 		.4byte	.LASF35
 1354 01a9 08       		.byte	0x8
 1355 01aa CA       		.byte	0xca
 1356 01ab 60020000 		.4byte	0x260
ARM GAS  /tmp/cceu4JPd.s 			page 25


 1357 01af 10       		.byte	0x10
 1358 01b0 07       		.uleb128 0x7
 1359 01b1 D0070000 		.4byte	.LASF36
 1360 01b5 08       		.byte	0x8
 1361 01b6 CB       		.byte	0xcb
 1362 01b7 60020000 		.4byte	0x260
 1363 01bb 14       		.byte	0x14
 1364 01bc 07       		.uleb128 0x7
 1365 01bd F8090000 		.4byte	.LASF37
 1366 01c1 08       		.byte	0x8
 1367 01c2 D2       		.byte	0xd2
 1368 01c3 4A090000 		.4byte	0x94a
 1369 01c7 18       		.byte	0x18
 1370 01c8 07       		.uleb128 0x7
 1371 01c9 1A0A0000 		.4byte	.LASF38
 1372 01cd 08       		.byte	0x8
 1373 01ce DD       		.byte	0xdd
 1374 01cf 10010000 		.4byte	0x110
 1375 01d3 1C       		.byte	0x1c
 1376 01d4 07       		.uleb128 0x7
 1377 01d5 78060000 		.4byte	.LASF39
 1378 01d9 08       		.byte	0x8
 1379 01da E1       		.byte	0xe1
 1380 01db 05010000 		.4byte	0x105
 1381 01df 1D       		.byte	0x1d
 1382 01e0 07       		.uleb128 0x7
 1383 01e1 C4060000 		.4byte	.LASF40
 1384 01e5 08       		.byte	0x8
 1385 01e6 E6       		.byte	0xe6
 1386 01e7 1B010000 		.4byte	0x11b
 1387 01eb 1E       		.byte	0x1e
 1388 01ec 08       		.uleb128 0x8
 1389 01ed 705F7500 		.ascii	"p_u\000"
 1390 01f1 08       		.byte	0x8
 1391 01f2 3101     		.2byte	0x131
 1392 01f4 85080000 		.4byte	0x885
 1393 01f8 20       		.byte	0x20
 1394 01f9 09       		.uleb128 0x9
 1395 01fa 5C060000 		.4byte	.LASF41
 1396 01fe 08       		.byte	0x8
 1397 01ff 3601     		.2byte	0x136
 1398 0201 66020000 		.4byte	0x266
 1399 0205 24       		.byte	0x24
 1400 0206 09       		.uleb128 0x9
 1401 0207 5C000000 		.4byte	.LASF42
 1402 020b 08       		.byte	0x8
 1403 020c 3C01     		.2byte	0x13c
 1404 020e 8A020000 		.4byte	0x28a
 1405 0212 28       		.byte	0x28
 1406 0213 09       		.uleb128 0x9
 1407 0214 140A0000 		.4byte	.LASF43
 1408 0218 08       		.byte	0x8
 1409 0219 4001     		.2byte	0x140
 1410 021b 31010000 		.4byte	0x131
 1411 021f 30       		.byte	0x30
 1412 0220 09       		.uleb128 0x9
 1413 0221 90040000 		.4byte	.LASF44
ARM GAS  /tmp/cceu4JPd.s 			page 26


 1414 0225 08       		.byte	0x8
 1415 0226 4601     		.2byte	0x146
 1416 0228 3C010000 		.4byte	0x13c
 1417 022c 34       		.byte	0x34
 1418 022d 09       		.uleb128 0x9
 1419 022e A1020000 		.4byte	.LASF45
 1420 0232 08       		.byte	0x8
 1421 0233 4D01     		.2byte	0x14d
 1422 0235 44090000 		.4byte	0x944
 1423 0239 38       		.byte	0x38
 1424 023a 09       		.uleb128 0x9
 1425 023b 4B070000 		.4byte	.LASF46
 1426 023f 08       		.byte	0x8
 1427 0240 5101     		.2byte	0x151
 1428 0242 26010000 		.4byte	0x126
 1429 0246 3C       		.byte	0x3c
 1430 0247 09       		.uleb128 0x9
 1431 0248 AD060000 		.4byte	.LASF47
 1432 024c 08       		.byte	0x8
 1433 024d 5801     		.2byte	0x158
 1434 024f 3D030000 		.4byte	0x33d
 1435 0253 40       		.byte	0x40
 1436 0254 00       		.byte	0
 1437 0255 03       		.uleb128 0x3
 1438 0256 38070000 		.4byte	.LASF48
 1439 025a 07       		.byte	0x7
 1440 025b 44       		.byte	0x44
 1441 025c 60020000 		.4byte	0x260
 1442 0260 0A       		.uleb128 0xa
 1443 0261 04       		.byte	0x4
 1444 0262 5D010000 		.4byte	0x15d
 1445 0266 03       		.uleb128 0x3
 1446 0267 44090000 		.4byte	.LASF49
 1447 026b 07       		.byte	0x7
 1448 026c 49       		.byte	0x49
 1449 026d 71020000 		.4byte	0x271
 1450 0271 06       		.uleb128 0x6
 1451 0272 B4050000 		.4byte	.LASF51
 1452 0276 04       		.byte	0x4
 1453 0277 08       		.byte	0x8
 1454 0278 B0       		.byte	0xb0
 1455 0279 8A020000 		.4byte	0x28a
 1456 027d 07       		.uleb128 0x7
 1457 027e 94010000 		.4byte	.LASF31
 1458 0282 08       		.byte	0x8
 1459 0283 B1       		.byte	0xb1
 1460 0284 60020000 		.4byte	0x260
 1461 0288 00       		.byte	0
 1462 0289 00       		.byte	0
 1463 028a 03       		.uleb128 0x3
 1464 028b 91020000 		.4byte	.LASF52
 1465 028f 07       		.byte	0x7
 1466 0290 50       		.byte	0x50
 1467 0291 95020000 		.4byte	0x295
 1468 0295 06       		.uleb128 0x6
 1469 0296 F6070000 		.4byte	.LASF53
 1470 029a 08       		.byte	0x8
ARM GAS  /tmp/cceu4JPd.s 			page 27


 1471 029b 08       		.byte	0x8
 1472 029c B7       		.byte	0xb7
 1473 029d BA020000 		.4byte	0x2ba
 1474 02a1 07       		.uleb128 0x7
 1475 02a2 94010000 		.4byte	.LASF31
 1476 02a6 08       		.byte	0x8
 1477 02a7 B8       		.byte	0xb8
 1478 02a8 60020000 		.4byte	0x260
 1479 02ac 00       		.byte	0
 1480 02ad 07       		.uleb128 0x7
 1481 02ae 79020000 		.4byte	.LASF32
 1482 02b2 08       		.byte	0x8
 1483 02b3 B9       		.byte	0xb9
 1484 02b4 60020000 		.4byte	0x260
 1485 02b8 04       		.byte	0x4
 1486 02b9 00       		.byte	0
 1487 02ba 03       		.uleb128 0x3
 1488 02bb 71050000 		.4byte	.LASF54
 1489 02bf 07       		.byte	0x7
 1490 02c0 57       		.byte	0x57
 1491 02c1 C5020000 		.4byte	0x2c5
 1492 02c5 0B       		.uleb128 0xb
 1493 02c6 A2040000 		.4byte	.LASF55
 1494 02ca 1C       		.byte	0x1c
 1495 02cb 08       		.byte	0x8
 1496 02cc 9001     		.2byte	0x190
 1497 02ce 21030000 		.4byte	0x321
 1498 02d2 09       		.uleb128 0x9
 1499 02d3 53080000 		.4byte	.LASF56
 1500 02d7 08       		.byte	0x8
 1501 02d8 9101     		.2byte	0x191
 1502 02da 8A020000 		.4byte	0x28a
 1503 02de 00       		.byte	0
 1504 02df 09       		.uleb128 0x9
 1505 02e0 EC080000 		.4byte	.LASF57
 1506 02e4 08       		.byte	0x8
 1507 02e5 9201     		.2byte	0x192
 1508 02e7 26010000 		.4byte	0x126
 1509 02eb 08       		.byte	0x8
 1510 02ec 09       		.uleb128 0x9
 1511 02ed 67000000 		.4byte	.LASF58
 1512 02f1 08       		.byte	0x8
 1513 02f2 9401     		.2byte	0x194
 1514 02f4 05070000 		.4byte	0x705
 1515 02f8 0C       		.byte	0xc
 1516 02f9 09       		.uleb128 0x9
 1517 02fa 71030000 		.4byte	.LASF59
 1518 02fe 08       		.byte	0x8
 1519 02ff 9701     		.2byte	0x197
 1520 0301 60020000 		.4byte	0x260
 1521 0305 10       		.byte	0x10
 1522 0306 09       		.uleb128 0x9
 1523 0307 90080000 		.4byte	.LASF60
 1524 030b 08       		.byte	0x8
 1525 030c 9801     		.2byte	0x198
 1526 030e 60020000 		.4byte	0x260
 1527 0312 14       		.byte	0x14
ARM GAS  /tmp/cceu4JPd.s 			page 28


 1528 0313 09       		.uleb128 0x9
 1529 0314 07080000 		.4byte	.LASF61
 1530 0318 08       		.byte	0x8
 1531 0319 9B01     		.2byte	0x19b
 1532 031b 60020000 		.4byte	0x260
 1533 031f 18       		.byte	0x18
 1534 0320 00       		.byte	0
 1535 0321 03       		.uleb128 0x3
 1536 0322 75000000 		.4byte	.LASF62
 1537 0326 07       		.byte	0x7
 1538 0327 5C       		.byte	0x5c
 1539 0328 2C030000 		.4byte	0x32c
 1540 032c 0A       		.uleb128 0xa
 1541 032d 04       		.byte	0x4
 1542 032e 32030000 		.4byte	0x332
 1543 0332 0C       		.uleb128 0xc
 1544 0333 3D030000 		.4byte	0x33d
 1545 0337 0D       		.uleb128 0xd
 1546 0338 3D030000 		.4byte	0x33d
 1547 033c 00       		.byte	0
 1548 033d 0E       		.uleb128 0xe
 1549 033e 04       		.byte	0x4
 1550 033f 03       		.uleb128 0x3
 1551 0340 61050000 		.4byte	.LASF63
 1552 0344 07       		.byte	0x7
 1553 0345 61       		.byte	0x61
 1554 0346 4A030000 		.4byte	0x34a
 1555 034a 0B       		.uleb128 0xb
 1556 034b 80070000 		.4byte	.LASF64
 1557 034f 14       		.byte	0x14
 1558 0350 08       		.byte	0x8
 1559 0351 6B01     		.2byte	0x16b
 1560 0353 99030000 		.4byte	0x399
 1561 0357 09       		.uleb128 0x9
 1562 0358 27060000 		.4byte	.LASF65
 1563 035c 08       		.byte	0x8
 1564 035d 6C01     		.2byte	0x16c
 1565 035f 5C090000 		.4byte	0x95c
 1566 0363 00       		.byte	0
 1567 0364 09       		.uleb128 0x9
 1568 0365 2F060000 		.4byte	.LASF66
 1569 0369 08       		.byte	0x8
 1570 036a 6D01     		.2byte	0x16d
 1571 036c 5C090000 		.4byte	0x95c
 1572 0370 04       		.byte	0x4
 1573 0371 09       		.uleb128 0x9
 1574 0372 6E070000 		.4byte	.LASF67
 1575 0376 08       		.byte	0x8
 1576 0377 6E01     		.2byte	0x16e
 1577 0379 52010000 		.4byte	0x152
 1578 037d 08       		.byte	0x8
 1579 037e 09       		.uleb128 0x9
 1580 037f 43040000 		.4byte	.LASF68
 1581 0383 08       		.byte	0x8
 1582 0384 6F01     		.2byte	0x16f
 1583 0386 21030000 		.4byte	0x321
 1584 038a 0C       		.byte	0xc
ARM GAS  /tmp/cceu4JPd.s 			page 29


 1585 038b 09       		.uleb128 0x9
 1586 038c 1F010000 		.4byte	.LASF69
 1587 0390 08       		.byte	0x8
 1588 0391 7101     		.2byte	0x171
 1589 0393 3D030000 		.4byte	0x33d
 1590 0397 10       		.byte	0x10
 1591 0398 00       		.byte	0
 1592 0399 03       		.uleb128 0x3
 1593 039a 18050000 		.4byte	.LASF70
 1594 039e 07       		.byte	0x7
 1595 039f 66       		.byte	0x66
 1596 03a0 A4030000 		.4byte	0x3a4
 1597 03a4 0B       		.uleb128 0xb
 1598 03a5 8F000000 		.4byte	.LASF71
 1599 03a9 10       		.byte	0x10
 1600 03aa 08       		.byte	0x8
 1601 03ab 7B01     		.2byte	0x17b
 1602 03ad E6030000 		.4byte	0x3e6
 1603 03b1 09       		.uleb128 0x9
 1604 03b2 27060000 		.4byte	.LASF65
 1605 03b6 08       		.byte	0x8
 1606 03b7 7C01     		.2byte	0x17c
 1607 03b9 5C090000 		.4byte	0x95c
 1608 03bd 00       		.byte	0
 1609 03be 09       		.uleb128 0x9
 1610 03bf 2F060000 		.4byte	.LASF66
 1611 03c3 08       		.byte	0x8
 1612 03c4 7E01     		.2byte	0x17e
 1613 03c6 5C090000 		.4byte	0x95c
 1614 03ca 04       		.byte	0x4
 1615 03cb 09       		.uleb128 0x9
 1616 03cc 6E070000 		.4byte	.LASF67
 1617 03d0 08       		.byte	0x8
 1618 03d1 8001     		.2byte	0x180
 1619 03d3 52010000 		.4byte	0x152
 1620 03d7 08       		.byte	0x8
 1621 03d8 09       		.uleb128 0x9
 1622 03d9 9D090000 		.4byte	.LASF72
 1623 03dd 08       		.byte	0x8
 1624 03de 8801     		.2byte	0x188
 1625 03e0 52010000 		.4byte	0x152
 1626 03e4 0C       		.byte	0xc
 1627 03e5 00       		.byte	0
 1628 03e6 03       		.uleb128 0x3
 1629 03e7 79030000 		.4byte	.LASF73
 1630 03eb 07       		.byte	0x7
 1631 03ec 6B       		.byte	0x6b
 1632 03ed F1030000 		.4byte	0x3f1
 1633 03f1 0B       		.uleb128 0xb
 1634 03f2 FF080000 		.4byte	.LASF74
 1635 03f6 04       		.byte	0x4
 1636 03f7 08       		.byte	0x8
 1637 03f8 A201     		.2byte	0x1a2
 1638 03fa 0C040000 		.4byte	0x40c
 1639 03fe 09       		.uleb128 0x9
 1640 03ff 67030000 		.4byte	.LASF75
 1641 0403 08       		.byte	0x8
ARM GAS  /tmp/cceu4JPd.s 			page 30


 1642 0404 AA01     		.2byte	0x1aa
 1643 0406 62090000 		.4byte	0x962
 1644 040a 00       		.byte	0
 1645 040b 00       		.byte	0
 1646 040c 03       		.uleb128 0x3
 1647 040d BC090000 		.4byte	.LASF76
 1648 0411 07       		.byte	0x7
 1649 0412 70       		.byte	0x70
 1650 0413 17040000 		.4byte	0x417
 1651 0417 0F       		.uleb128 0xf
 1652 0418 69090000 		.4byte	.LASF77
 1653 041c D801     		.2byte	0x1d8
 1654 041e 08       		.byte	0x8
 1655 041f C201     		.2byte	0x1c2
 1656 0421 73040000 		.4byte	0x473
 1657 0425 09       		.uleb128 0x9
 1658 0426 65080000 		.4byte	.LASF78
 1659 042a 08       		.byte	0x8
 1660 042b C601     		.2byte	0x1c6
 1661 042d BA020000 		.4byte	0x2ba
 1662 0431 00       		.byte	0
 1663 0432 09       		.uleb128 0x9
 1664 0433 0F090000 		.4byte	.LASF79
 1665 0437 08       		.byte	0x8
 1666 0438 CA01     		.2byte	0x1ca
 1667 043a 99030000 		.4byte	0x399
 1668 043e 1C       		.byte	0x1c
 1669 043f 08       		.uleb128 0x8
 1670 0440 64626700 		.ascii	"dbg\000"
 1671 0444 08       		.byte	0x8
 1672 0445 CE01     		.2byte	0x1ce
 1673 0447 E6030000 		.4byte	0x3e6
 1674 044b 2C       		.byte	0x2c
 1675 044c 09       		.uleb128 0x9
 1676 044d 1F080000 		.4byte	.LASF80
 1677 0451 08       		.byte	0x8
 1678 0452 D201     		.2byte	0x1d2
 1679 0454 5D010000 		.4byte	0x15d
 1680 0458 30       		.byte	0x30
 1681 0459 08       		.uleb128 0x8
 1682 045a 746D00   		.ascii	"tm\000"
 1683 045d 08       		.byte	0x8
 1684 045e D701     		.2byte	0x1d7
 1685 0460 7A080000 		.4byte	0x87a
 1686 0464 74       		.byte	0x74
 1687 0465 09       		.uleb128 0x9
 1688 0466 80060000 		.4byte	.LASF81
 1689 046a 08       		.byte	0x8
 1690 046b E301     		.2byte	0x1e3
 1691 046d 67090000 		.4byte	0x967
 1692 0471 78       		.byte	0x78
 1693 0472 00       		.byte	0
 1694 0473 04       		.uleb128 0x4
 1695 0474 04       		.byte	0x4
 1696 0475 07       		.byte	0x7
 1697 0476 1F000000 		.4byte	.LASF82
 1698 047a 10       		.uleb128 0x10
ARM GAS  /tmp/cceu4JPd.s 			page 31


 1699 047b D5000000 		.4byte	0xd5
 1700 047f 8A040000 		.4byte	0x48a
 1701 0483 11       		.uleb128 0x11
 1702 0484 73040000 		.4byte	0x473
 1703 0488 01       		.byte	0x1
 1704 0489 00       		.byte	0
 1705 048a 12       		.uleb128 0x12
 1706 048b 18       		.byte	0x18
 1707 048c 09       		.byte	0x9
 1708 048d E9       		.byte	0xe9
 1709 048e DA040000 		.4byte	0x4da
 1710 0492 13       		.uleb128 0x13
 1711 0493 435200   		.ascii	"CR\000"
 1712 0496 09       		.byte	0x9
 1713 0497 EB       		.byte	0xeb
 1714 0498 F5000000 		.4byte	0xf5
 1715 049c 00       		.byte	0
 1716 049d 07       		.uleb128 0x7
 1717 049e E3090000 		.4byte	.LASF83
 1718 04a2 09       		.byte	0x9
 1719 04a3 EC       		.byte	0xec
 1720 04a4 F5000000 		.4byte	0xf5
 1721 04a8 04       		.byte	0x4
 1722 04a9 13       		.uleb128 0x13
 1723 04aa 50415200 		.ascii	"PAR\000"
 1724 04ae 09       		.byte	0x9
 1725 04af ED       		.byte	0xed
 1726 04b0 F5000000 		.4byte	0xf5
 1727 04b4 08       		.byte	0x8
 1728 04b5 07       		.uleb128 0x7
 1729 04b6 B2080000 		.4byte	.LASF84
 1730 04ba 09       		.byte	0x9
 1731 04bb EE       		.byte	0xee
 1732 04bc F5000000 		.4byte	0xf5
 1733 04c0 0C       		.byte	0xc
 1734 04c1 07       		.uleb128 0x7
 1735 04c2 00000000 		.4byte	.LASF85
 1736 04c6 09       		.byte	0x9
 1737 04c7 EF       		.byte	0xef
 1738 04c8 F5000000 		.4byte	0xf5
 1739 04cc 10       		.byte	0x10
 1740 04cd 13       		.uleb128 0x13
 1741 04ce 46435200 		.ascii	"FCR\000"
 1742 04d2 09       		.byte	0x9
 1743 04d3 F0       		.byte	0xf0
 1744 04d4 F5000000 		.4byte	0xf5
 1745 04d8 14       		.byte	0x14
 1746 04d9 00       		.byte	0
 1747 04da 03       		.uleb128 0x3
 1748 04db F5060000 		.4byte	.LASF86
 1749 04df 09       		.byte	0x9
 1750 04e0 F1       		.byte	0xf1
 1751 04e1 8A040000 		.4byte	0x48a
 1752 04e5 14       		.uleb128 0x14
 1753 04e6 88       		.byte	0x88
 1754 04e7 09       		.byte	0x9
 1755 04e8 6401     		.2byte	0x164
ARM GAS  /tmp/cceu4JPd.s 			page 32


 1756 04ea 74060000 		.4byte	0x674
 1757 04ee 08       		.uleb128 0x8
 1758 04ef 435200   		.ascii	"CR\000"
 1759 04f2 09       		.byte	0x9
 1760 04f3 6601     		.2byte	0x166
 1761 04f5 F5000000 		.4byte	0xf5
 1762 04f9 00       		.byte	0
 1763 04fa 09       		.uleb128 0x9
 1764 04fb EC050000 		.4byte	.LASF87
 1765 04ff 09       		.byte	0x9
 1766 0500 6701     		.2byte	0x167
 1767 0502 F5000000 		.4byte	0xf5
 1768 0506 04       		.byte	0x4
 1769 0507 09       		.uleb128 0x9
 1770 0508 B0040000 		.4byte	.LASF88
 1771 050c 09       		.byte	0x9
 1772 050d 6801     		.2byte	0x168
 1773 050f F5000000 		.4byte	0xf5
 1774 0513 08       		.byte	0x8
 1775 0514 08       		.uleb128 0x8
 1776 0515 43495200 		.ascii	"CIR\000"
 1777 0519 09       		.byte	0x9
 1778 051a 6901     		.2byte	0x169
 1779 051c F5000000 		.4byte	0xf5
 1780 0520 0C       		.byte	0xc
 1781 0521 09       		.uleb128 0x9
 1782 0522 AA030000 		.4byte	.LASF89
 1783 0526 09       		.byte	0x9
 1784 0527 6A01     		.2byte	0x16a
 1785 0529 F5000000 		.4byte	0xf5
 1786 052d 10       		.byte	0x10
 1787 052e 09       		.uleb128 0x9
 1788 052f A9080000 		.4byte	.LASF90
 1789 0533 09       		.byte	0x9
 1790 0534 6B01     		.2byte	0x16b
 1791 0536 F5000000 		.4byte	0xf5
 1792 053a 14       		.byte	0x14
 1793 053b 09       		.uleb128 0x9
 1794 053c 08070000 		.4byte	.LASF91
 1795 0540 09       		.byte	0x9
 1796 0541 6C01     		.2byte	0x16c
 1797 0543 F5000000 		.4byte	0xf5
 1798 0547 18       		.byte	0x18
 1799 0548 09       		.uleb128 0x9
 1800 0549 1D030000 		.4byte	.LASF92
 1801 054d 09       		.byte	0x9
 1802 054e 6D01     		.2byte	0x16d
 1803 0550 D5000000 		.4byte	0xd5
 1804 0554 1C       		.byte	0x1c
 1805 0555 09       		.uleb128 0x9
 1806 0556 77070000 		.4byte	.LASF93
 1807 055a 09       		.byte	0x9
 1808 055b 6E01     		.2byte	0x16e
 1809 055d F5000000 		.4byte	0xf5
 1810 0561 20       		.byte	0x20
 1811 0562 09       		.uleb128 0x9
 1812 0563 3C060000 		.4byte	.LASF94
ARM GAS  /tmp/cceu4JPd.s 			page 33


 1813 0567 09       		.byte	0x9
 1814 0568 6F01     		.2byte	0x16f
 1815 056a F5000000 		.4byte	0xf5
 1816 056e 24       		.byte	0x24
 1817 056f 09       		.uleb128 0x9
 1818 0570 27030000 		.4byte	.LASF95
 1819 0574 09       		.byte	0x9
 1820 0575 7001     		.2byte	0x170
 1821 0577 7A040000 		.4byte	0x47a
 1822 057b 28       		.byte	0x28
 1823 057c 09       		.uleb128 0x9
 1824 057d 73080000 		.4byte	.LASF96
 1825 0581 09       		.byte	0x9
 1826 0582 7101     		.2byte	0x171
 1827 0584 F5000000 		.4byte	0xf5
 1828 0588 30       		.byte	0x30
 1829 0589 09       		.uleb128 0x9
 1830 058a C5030000 		.4byte	.LASF97
 1831 058e 09       		.byte	0x9
 1832 058f 7201     		.2byte	0x172
 1833 0591 F5000000 		.4byte	0xf5
 1834 0595 34       		.byte	0x34
 1835 0596 09       		.uleb128 0x9
 1836 0597 88080000 		.4byte	.LASF98
 1837 059b 09       		.byte	0x9
 1838 059c 7301     		.2byte	0x173
 1839 059e F5000000 		.4byte	0xf5
 1840 05a2 38       		.byte	0x38
 1841 05a3 09       		.uleb128 0x9
 1842 05a4 8E030000 		.4byte	.LASF99
 1843 05a8 09       		.byte	0x9
 1844 05a9 7401     		.2byte	0x174
 1845 05ab D5000000 		.4byte	0xd5
 1846 05af 3C       		.byte	0x3c
 1847 05b0 09       		.uleb128 0x9
 1848 05b1 91070000 		.4byte	.LASF100
 1849 05b5 09       		.byte	0x9
 1850 05b6 7501     		.2byte	0x175
 1851 05b8 F5000000 		.4byte	0xf5
 1852 05bc 40       		.byte	0x40
 1853 05bd 09       		.uleb128 0x9
 1854 05be C2020000 		.4byte	.LASF101
 1855 05c2 09       		.byte	0x9
 1856 05c3 7601     		.2byte	0x176
 1857 05c5 F5000000 		.4byte	0xf5
 1858 05c9 44       		.byte	0x44
 1859 05ca 09       		.uleb128 0x9
 1860 05cb 3F030000 		.4byte	.LASF102
 1861 05cf 09       		.byte	0x9
 1862 05d0 7701     		.2byte	0x177
 1863 05d2 7A040000 		.4byte	0x47a
 1864 05d6 48       		.byte	0x48
 1865 05d7 09       		.uleb128 0x9
 1866 05d8 CA020000 		.4byte	.LASF103
 1867 05dc 09       		.byte	0x9
 1868 05dd 7801     		.2byte	0x178
 1869 05df F5000000 		.4byte	0xf5
ARM GAS  /tmp/cceu4JPd.s 			page 34


 1870 05e3 50       		.byte	0x50
 1871 05e4 09       		.uleb128 0x9
 1872 05e5 45010000 		.4byte	.LASF104
 1873 05e9 09       		.byte	0x9
 1874 05ea 7901     		.2byte	0x179
 1875 05ec F5000000 		.4byte	0xf5
 1876 05f0 54       		.byte	0x54
 1877 05f1 09       		.uleb128 0x9
 1878 05f2 2A080000 		.4byte	.LASF105
 1879 05f6 09       		.byte	0x9
 1880 05f7 7A01     		.2byte	0x17a
 1881 05f9 F5000000 		.4byte	0xf5
 1882 05fd 58       		.byte	0x58
 1883 05fe 09       		.uleb128 0x9
 1884 05ff 49030000 		.4byte	.LASF106
 1885 0603 09       		.byte	0x9
 1886 0604 7B01     		.2byte	0x17b
 1887 0606 D5000000 		.4byte	0xd5
 1888 060a 5C       		.byte	0x5c
 1889 060b 09       		.uleb128 0x9
 1890 060c EB060000 		.4byte	.LASF107
 1891 0610 09       		.byte	0x9
 1892 0611 7C01     		.2byte	0x17c
 1893 0613 F5000000 		.4byte	0xf5
 1894 0617 60       		.byte	0x60
 1895 0618 09       		.uleb128 0x9
 1896 0619 52060000 		.4byte	.LASF108
 1897 061d 09       		.byte	0x9
 1898 061e 7D01     		.2byte	0x17d
 1899 0620 F5000000 		.4byte	0xf5
 1900 0624 64       		.byte	0x64
 1901 0625 09       		.uleb128 0x9
 1902 0626 53030000 		.4byte	.LASF109
 1903 062a 09       		.byte	0x9
 1904 062b 7E01     		.2byte	0x17e
 1905 062d 7A040000 		.4byte	0x47a
 1906 0631 68       		.byte	0x68
 1907 0632 09       		.uleb128 0x9
 1908 0633 20040000 		.4byte	.LASF110
 1909 0637 09       		.byte	0x9
 1910 0638 7F01     		.2byte	0x17f
 1911 063a F5000000 		.4byte	0xf5
 1912 063e 70       		.byte	0x70
 1913 063f 08       		.uleb128 0x8
 1914 0640 43535200 		.ascii	"CSR\000"
 1915 0644 09       		.byte	0x9
 1916 0645 8001     		.2byte	0x180
 1917 0647 F5000000 		.4byte	0xf5
 1918 064b 74       		.byte	0x74
 1919 064c 09       		.uleb128 0x9
 1920 064d 5D030000 		.4byte	.LASF111
 1921 0651 09       		.byte	0x9
 1922 0652 8101     		.2byte	0x181
 1923 0654 7A040000 		.4byte	0x47a
 1924 0658 78       		.byte	0x78
 1925 0659 09       		.uleb128 0x9
 1926 065a 21060000 		.4byte	.LASF112
ARM GAS  /tmp/cceu4JPd.s 			page 35


 1927 065e 09       		.byte	0x9
 1928 065f 8201     		.2byte	0x182
 1929 0661 F5000000 		.4byte	0xf5
 1930 0665 80       		.byte	0x80
 1931 0666 09       		.uleb128 0x9
 1932 0667 43000000 		.4byte	.LASF113
 1933 066b 09       		.byte	0x9
 1934 066c 8301     		.2byte	0x183
 1935 066e F5000000 		.4byte	0xf5
 1936 0672 84       		.byte	0x84
 1937 0673 00       		.byte	0
 1938 0674 15       		.uleb128 0x15
 1939 0675 BF080000 		.4byte	.LASF114
 1940 0679 09       		.byte	0x9
 1941 067a 8501     		.2byte	0x185
 1942 067c E5040000 		.4byte	0x4e5
 1943 0680 14       		.uleb128 0x14
 1944 0681 1C       		.byte	0x1c
 1945 0682 09       		.byte	0x9
 1946 0683 0602     		.2byte	0x206
 1947 0685 E3060000 		.4byte	0x6e3
 1948 0689 08       		.uleb128 0x8
 1949 068a 535200   		.ascii	"SR\000"
 1950 068d 09       		.byte	0x9
 1951 068e 0802     		.2byte	0x208
 1952 0690 F5000000 		.4byte	0xf5
 1953 0694 00       		.byte	0
 1954 0695 08       		.uleb128 0x8
 1955 0696 445200   		.ascii	"DR\000"
 1956 0699 09       		.byte	0x9
 1957 069a 0902     		.2byte	0x209
 1958 069c F5000000 		.4byte	0xf5
 1959 06a0 04       		.byte	0x4
 1960 06a1 08       		.uleb128 0x8
 1961 06a2 42525200 		.ascii	"BRR\000"
 1962 06a6 09       		.byte	0x9
 1963 06a7 0A02     		.2byte	0x20a
 1964 06a9 F5000000 		.4byte	0xf5
 1965 06ad 08       		.byte	0x8
 1966 06ae 08       		.uleb128 0x8
 1967 06af 43523100 		.ascii	"CR1\000"
 1968 06b3 09       		.byte	0x9
 1969 06b4 0B02     		.2byte	0x20b
 1970 06b6 F5000000 		.4byte	0xf5
 1971 06ba 0C       		.byte	0xc
 1972 06bb 08       		.uleb128 0x8
 1973 06bc 43523200 		.ascii	"CR2\000"
 1974 06c0 09       		.byte	0x9
 1975 06c1 0C02     		.2byte	0x20c
 1976 06c3 F5000000 		.4byte	0xf5
 1977 06c7 10       		.byte	0x10
 1978 06c8 08       		.uleb128 0x8
 1979 06c9 43523300 		.ascii	"CR3\000"
 1980 06cd 09       		.byte	0x9
 1981 06ce 0D02     		.2byte	0x20d
 1982 06d0 F5000000 		.4byte	0xf5
 1983 06d4 14       		.byte	0x14
ARM GAS  /tmp/cceu4JPd.s 			page 36


 1984 06d5 09       		.uleb128 0x9
 1985 06d6 37060000 		.4byte	.LASF115
 1986 06da 09       		.byte	0x9
 1987 06db 0E02     		.2byte	0x20e
 1988 06dd F5000000 		.4byte	0xf5
 1989 06e1 18       		.byte	0x18
 1990 06e2 00       		.byte	0
 1991 06e3 15       		.uleb128 0x15
 1992 06e4 DF030000 		.4byte	.LASF116
 1993 06e8 09       		.byte	0x9
 1994 06e9 0F02     		.2byte	0x20f
 1995 06eb 80060000 		.4byte	0x680
 1996 06ef 03       		.uleb128 0x3
 1997 06f0 B1020000 		.4byte	.LASF117
 1998 06f4 0A       		.byte	0xa
 1999 06f5 65       		.byte	0x65
 2000 06f6 3D030000 		.4byte	0x33d
 2001 06fa 03       		.uleb128 0x3
 2002 06fb D4030000 		.4byte	.LASF118
 2003 06ff 0A       		.byte	0xa
 2004 0700 6D       		.byte	0x6d
 2005 0701 E0000000 		.4byte	0xe0
 2006 0705 06       		.uleb128 0x6
 2007 0706 0F030000 		.4byte	.LASF119
 2008 070a 04       		.byte	0x4
 2009 070b 0A       		.byte	0xa
 2010 070c 89       		.byte	0x89
 2011 070d 1E070000 		.4byte	0x71e
 2012 0711 13       		.uleb128 0x13
 2013 0712 72313300 		.ascii	"r13\000"
 2014 0716 0A       		.byte	0xa
 2015 0717 8A       		.byte	0x8a
 2016 0718 5F080000 		.4byte	0x85f
 2017 071c 00       		.byte	0
 2018 071d 00       		.byte	0
 2019 071e 06       		.uleb128 0x6
 2020 071f 56070000 		.4byte	.LASF120
 2021 0723 64       		.byte	0x64
 2022 0724 0B       		.byte	0xb
 2023 0725 F4       		.byte	0xf4
 2024 0726 5F080000 		.4byte	0x85f
 2025 072a 13       		.uleb128 0x13
 2026 072b 73313600 		.ascii	"s16\000"
 2027 072f 0B       		.byte	0xb
 2028 0730 F6       		.byte	0xf6
 2029 0731 EF060000 		.4byte	0x6ef
 2030 0735 00       		.byte	0
 2031 0736 13       		.uleb128 0x13
 2032 0737 73313700 		.ascii	"s17\000"
 2033 073b 0B       		.byte	0xb
 2034 073c F7       		.byte	0xf7
 2035 073d EF060000 		.4byte	0x6ef
 2036 0741 04       		.byte	0x4
 2037 0742 13       		.uleb128 0x13
 2038 0743 73313800 		.ascii	"s18\000"
 2039 0747 0B       		.byte	0xb
 2040 0748 F8       		.byte	0xf8
ARM GAS  /tmp/cceu4JPd.s 			page 37


 2041 0749 EF060000 		.4byte	0x6ef
 2042 074d 08       		.byte	0x8
 2043 074e 13       		.uleb128 0x13
 2044 074f 73313900 		.ascii	"s19\000"
 2045 0753 0B       		.byte	0xb
 2046 0754 F9       		.byte	0xf9
 2047 0755 EF060000 		.4byte	0x6ef
 2048 0759 0C       		.byte	0xc
 2049 075a 13       		.uleb128 0x13
 2050 075b 73323000 		.ascii	"s20\000"
 2051 075f 0B       		.byte	0xb
 2052 0760 FA       		.byte	0xfa
 2053 0761 EF060000 		.4byte	0x6ef
 2054 0765 10       		.byte	0x10
 2055 0766 13       		.uleb128 0x13
 2056 0767 73323100 		.ascii	"s21\000"
 2057 076b 0B       		.byte	0xb
 2058 076c FB       		.byte	0xfb
 2059 076d EF060000 		.4byte	0x6ef
 2060 0771 14       		.byte	0x14
 2061 0772 13       		.uleb128 0x13
 2062 0773 73323200 		.ascii	"s22\000"
 2063 0777 0B       		.byte	0xb
 2064 0778 FC       		.byte	0xfc
 2065 0779 EF060000 		.4byte	0x6ef
 2066 077d 18       		.byte	0x18
 2067 077e 13       		.uleb128 0x13
 2068 077f 73323300 		.ascii	"s23\000"
 2069 0783 0B       		.byte	0xb
 2070 0784 FD       		.byte	0xfd
 2071 0785 EF060000 		.4byte	0x6ef
 2072 0789 1C       		.byte	0x1c
 2073 078a 13       		.uleb128 0x13
 2074 078b 73323400 		.ascii	"s24\000"
 2075 078f 0B       		.byte	0xb
 2076 0790 FE       		.byte	0xfe
 2077 0791 EF060000 		.4byte	0x6ef
 2078 0795 20       		.byte	0x20
 2079 0796 13       		.uleb128 0x13
 2080 0797 73323500 		.ascii	"s25\000"
 2081 079b 0B       		.byte	0xb
 2082 079c FF       		.byte	0xff
 2083 079d EF060000 		.4byte	0x6ef
 2084 07a1 24       		.byte	0x24
 2085 07a2 08       		.uleb128 0x8
 2086 07a3 73323600 		.ascii	"s26\000"
 2087 07a7 0B       		.byte	0xb
 2088 07a8 0001     		.2byte	0x100
 2089 07aa EF060000 		.4byte	0x6ef
 2090 07ae 28       		.byte	0x28
 2091 07af 08       		.uleb128 0x8
 2092 07b0 73323700 		.ascii	"s27\000"
 2093 07b4 0B       		.byte	0xb
 2094 07b5 0101     		.2byte	0x101
 2095 07b7 EF060000 		.4byte	0x6ef
 2096 07bb 2C       		.byte	0x2c
 2097 07bc 08       		.uleb128 0x8
ARM GAS  /tmp/cceu4JPd.s 			page 38


 2098 07bd 73323800 		.ascii	"s28\000"
 2099 07c1 0B       		.byte	0xb
 2100 07c2 0201     		.2byte	0x102
 2101 07c4 EF060000 		.4byte	0x6ef
 2102 07c8 30       		.byte	0x30
 2103 07c9 08       		.uleb128 0x8
 2104 07ca 73323900 		.ascii	"s29\000"
 2105 07ce 0B       		.byte	0xb
 2106 07cf 0301     		.2byte	0x103
 2107 07d1 EF060000 		.4byte	0x6ef
 2108 07d5 34       		.byte	0x34
 2109 07d6 08       		.uleb128 0x8
 2110 07d7 73333000 		.ascii	"s30\000"
 2111 07db 0B       		.byte	0xb
 2112 07dc 0401     		.2byte	0x104
 2113 07de EF060000 		.4byte	0x6ef
 2114 07e2 38       		.byte	0x38
 2115 07e3 08       		.uleb128 0x8
 2116 07e4 73333100 		.ascii	"s31\000"
 2117 07e8 0B       		.byte	0xb
 2118 07e9 0501     		.2byte	0x105
 2119 07eb EF060000 		.4byte	0x6ef
 2120 07ef 3C       		.byte	0x3c
 2121 07f0 08       		.uleb128 0x8
 2122 07f1 723400   		.ascii	"r4\000"
 2123 07f4 0B       		.byte	0xb
 2124 07f5 0701     		.2byte	0x107
 2125 07f7 EF060000 		.4byte	0x6ef
 2126 07fb 40       		.byte	0x40
 2127 07fc 08       		.uleb128 0x8
 2128 07fd 723500   		.ascii	"r5\000"
 2129 0800 0B       		.byte	0xb
 2130 0801 0801     		.2byte	0x108
 2131 0803 EF060000 		.4byte	0x6ef
 2132 0807 44       		.byte	0x44
 2133 0808 08       		.uleb128 0x8
 2134 0809 723600   		.ascii	"r6\000"
 2135 080c 0B       		.byte	0xb
 2136 080d 0901     		.2byte	0x109
 2137 080f EF060000 		.4byte	0x6ef
 2138 0813 48       		.byte	0x48
 2139 0814 08       		.uleb128 0x8
 2140 0815 723700   		.ascii	"r7\000"
 2141 0818 0B       		.byte	0xb
 2142 0819 0A01     		.2byte	0x10a
 2143 081b EF060000 		.4byte	0x6ef
 2144 081f 4C       		.byte	0x4c
 2145 0820 08       		.uleb128 0x8
 2146 0821 723800   		.ascii	"r8\000"
 2147 0824 0B       		.byte	0xb
 2148 0825 0B01     		.2byte	0x10b
 2149 0827 EF060000 		.4byte	0x6ef
 2150 082b 50       		.byte	0x50
 2151 082c 08       		.uleb128 0x8
 2152 082d 723900   		.ascii	"r9\000"
 2153 0830 0B       		.byte	0xb
 2154 0831 0C01     		.2byte	0x10c
ARM GAS  /tmp/cceu4JPd.s 			page 39


 2155 0833 EF060000 		.4byte	0x6ef
 2156 0837 54       		.byte	0x54
 2157 0838 08       		.uleb128 0x8
 2158 0839 72313000 		.ascii	"r10\000"
 2159 083d 0B       		.byte	0xb
 2160 083e 0D01     		.2byte	0x10d
 2161 0840 EF060000 		.4byte	0x6ef
 2162 0844 58       		.byte	0x58
 2163 0845 08       		.uleb128 0x8
 2164 0846 72313100 		.ascii	"r11\000"
 2165 084a 0B       		.byte	0xb
 2166 084b 0E01     		.2byte	0x10e
 2167 084d EF060000 		.4byte	0x6ef
 2168 0851 5C       		.byte	0x5c
 2169 0852 08       		.uleb128 0x8
 2170 0853 6C7200   		.ascii	"lr\000"
 2171 0856 0B       		.byte	0xb
 2172 0857 0F01     		.2byte	0x10f
 2173 0859 EF060000 		.4byte	0x6ef
 2174 085d 60       		.byte	0x60
 2175 085e 00       		.byte	0
 2176 085f 0A       		.uleb128 0xa
 2177 0860 04       		.byte	0x4
 2178 0861 1E070000 		.4byte	0x71e
 2179 0865 12       		.uleb128 0x12
 2180 0866 04       		.byte	0x4
 2181 0867 0C       		.byte	0xc
 2182 0868 38       		.byte	0x38
 2183 0869 7A080000 		.4byte	0x87a
 2184 086d 07       		.uleb128 0x7
 2185 086e E4060000 		.4byte	.LASF121
 2186 0872 0C       		.byte	0xc
 2187 0873 3C       		.byte	0x3c
 2188 0874 FA000000 		.4byte	0xfa
 2189 0878 00       		.byte	0
 2190 0879 00       		.byte	0
 2191 087a 03       		.uleb128 0x3
 2192 087b 98080000 		.4byte	.LASF122
 2193 087f 0C       		.byte	0xc
 2194 0880 3D       		.byte	0x3d
 2195 0881 65080000 		.4byte	0x865
 2196 0885 16       		.uleb128 0x16
 2197 0886 04       		.byte	0x4
 2198 0887 08       		.byte	0x8
 2199 0888 FA       		.byte	0xfa
 2200 0889 E2080000 		.4byte	0x8e2
 2201 088d 17       		.uleb128 0x17
 2202 088e 96090000 		.4byte	.LASF123
 2203 0892 08       		.byte	0x8
 2204 0893 0101     		.2byte	0x101
 2205 0895 31010000 		.4byte	0x131
 2206 0899 17       		.uleb128 0x17
 2207 089a 32010000 		.4byte	.LASF124
 2208 089e 08       		.byte	0x8
 2209 089f 0801     		.2byte	0x108
 2210 08a1 31010000 		.4byte	0x131
 2211 08a5 17       		.uleb128 0x17
ARM GAS  /tmp/cceu4JPd.s 			page 40


 2212 08a6 CD030000 		.4byte	.LASF125
 2213 08aa 08       		.byte	0x8
 2214 08ab 0F01     		.2byte	0x10f
 2215 08ad 3D030000 		.4byte	0x33d
 2216 08b1 17       		.uleb128 0x17
 2217 08b2 17030000 		.4byte	.LASF126
 2218 08b6 08       		.byte	0x8
 2219 08b7 1601     		.2byte	0x116
 2220 08b9 E2080000 		.4byte	0x8e2
 2221 08bd 17       		.uleb128 0x17
 2222 08be 28000000 		.4byte	.LASF127
 2223 08c2 08       		.byte	0x8
 2224 08c3 1E01     		.2byte	0x11e
 2225 08c5 0D090000 		.4byte	0x90d
 2226 08c9 17       		.uleb128 0x17
 2227 08ca 9B040000 		.4byte	.LASF128
 2228 08ce 08       		.byte	0x8
 2229 08cf 2701     		.2byte	0x127
 2230 08d1 44090000 		.4byte	0x944
 2231 08d5 17       		.uleb128 0x17
 2232 08d6 F4020000 		.4byte	.LASF129
 2233 08da 08       		.byte	0x8
 2234 08db 2F01     		.2byte	0x12f
 2235 08dd 3C010000 		.4byte	0x13c
 2236 08e1 00       		.byte	0
 2237 08e2 0A       		.uleb128 0xa
 2238 08e3 04       		.byte	0x4
 2239 08e4 55020000 		.4byte	0x255
 2240 08e8 06       		.uleb128 0x6
 2241 08e9 01050000 		.4byte	.LASF130
 2242 08ed 0C       		.byte	0xc
 2243 08ee 0D       		.byte	0xd
 2244 08ef 34       		.byte	0x34
 2245 08f0 0D090000 		.4byte	0x90d
 2246 08f4 07       		.uleb128 0x7
 2247 08f5 B7080000 		.4byte	.LASF131
 2248 08f9 0D       		.byte	0xd
 2249 08fa 35       		.byte	0x35
 2250 08fb 8A020000 		.4byte	0x28a
 2251 08ff 00       		.byte	0
 2252 0900 07       		.uleb128 0x7
 2253 0901 99070000 		.4byte	.LASF132
 2254 0905 0D       		.byte	0xd
 2255 0906 37       		.byte	0x37
 2256 0907 47010000 		.4byte	0x147
 2257 090b 08       		.byte	0x8
 2258 090c 00       		.byte	0
 2259 090d 0A       		.uleb128 0xa
 2260 090e 04       		.byte	0x4
 2261 090f E8080000 		.4byte	0x8e8
 2262 0913 06       		.uleb128 0x6
 2263 0914 E3080000 		.4byte	.LASF133
 2264 0918 10       		.byte	0x10
 2265 0919 0E       		.byte	0xe
 2266 091a 39       		.byte	0x39
 2267 091b 44090000 		.4byte	0x944
 2268 091f 07       		.uleb128 0x7
ARM GAS  /tmp/cceu4JPd.s 			page 41


 2269 0920 19060000 		.4byte	.LASF134
 2270 0924 0E       		.byte	0xe
 2271 0925 3A       		.byte	0x3a
 2272 0926 8A020000 		.4byte	0x28a
 2273 092a 00       		.byte	0
 2274 092b 07       		.uleb128 0x7
 2275 092c 17010000 		.4byte	.LASF135
 2276 0930 0E       		.byte	0xe
 2277 0931 3C       		.byte	0x3c
 2278 0932 60020000 		.4byte	0x260
 2279 0936 08       		.byte	0x8
 2280 0937 07       		.uleb128 0x7
 2281 0938 0D0A0000 		.4byte	.LASF136
 2282 093c 0E       		.byte	0xe
 2283 093d 3E       		.byte	0x3e
 2284 093e 82090000 		.4byte	0x982
 2285 0942 0C       		.byte	0xc
 2286 0943 00       		.byte	0
 2287 0944 0A       		.uleb128 0xa
 2288 0945 04       		.byte	0x4
 2289 0946 13090000 		.4byte	0x913
 2290 094a 0A       		.uleb128 0xa
 2291 094b 04       		.byte	0x4
 2292 094c 57090000 		.4byte	0x957
 2293 0950 04       		.uleb128 0x4
 2294 0951 01       		.byte	0x1
 2295 0952 08       		.byte	0x8
 2296 0953 9E030000 		.4byte	.LASF137
 2297 0957 18       		.uleb128 0x18
 2298 0958 50090000 		.4byte	0x950
 2299 095c 0A       		.uleb128 0xa
 2300 095d 04       		.byte	0x4
 2301 095e 3F030000 		.4byte	0x33f
 2302 0962 05       		.uleb128 0x5
 2303 0963 4A090000 		.4byte	0x94a
 2304 0967 10       		.uleb128 0x10
 2305 0968 FA060000 		.4byte	0x6fa
 2306 096c 77090000 		.4byte	0x977
 2307 0970 11       		.uleb128 0x11
 2308 0971 73040000 		.4byte	0x473
 2309 0975 2B       		.byte	0x2b
 2310 0976 00       		.byte	0
 2311 0977 03       		.uleb128 0x3
 2312 0978 20090000 		.4byte	.LASF138
 2313 097c 0E       		.byte	0xe
 2314 097d 34       		.byte	0x34
 2315 097e 13090000 		.4byte	0x913
 2316 0982 0A       		.uleb128 0xa
 2317 0983 04       		.byte	0x4
 2318 0984 77090000 		.4byte	0x977
 2319 0988 12       		.uleb128 0x12
 2320 0989 0C       		.byte	0xc
 2321 098a 0F       		.byte	0xf
 2322 098b DA       		.byte	0xda
 2323 098c CD090000 		.4byte	0x9cd
 2324 0990 07       		.uleb128 0x7
 2325 0991 ED030000 		.4byte	.LASF139
ARM GAS  /tmp/cceu4JPd.s 			page 42


 2326 0995 0F       		.byte	0xf
 2327 0996 DB       		.byte	0xdb
 2328 0997 CD090000 		.4byte	0x9cd
 2329 099b 00       		.byte	0
 2330 099c 07       		.uleb128 0x7
 2331 099d E8090000 		.4byte	.LASF140
 2332 09a1 0F       		.byte	0xf
 2333 09a2 DC       		.byte	0xdc
 2334 09a3 D3090000 		.4byte	0x9d3
 2335 09a7 04       		.byte	0x4
 2336 09a8 07       		.uleb128 0x7
 2337 09a9 A3030000 		.4byte	.LASF141
 2338 09ad 0F       		.byte	0xf
 2339 09ae DD       		.byte	0xdd
 2340 09af B4000000 		.4byte	0xb4
 2341 09b3 08       		.byte	0x8
 2342 09b4 07       		.uleb128 0x7
 2343 09b5 9F070000 		.4byte	.LASF142
 2344 09b9 0F       		.byte	0xf
 2345 09ba DF       		.byte	0xdf
 2346 09bb B4000000 		.4byte	0xb4
 2347 09bf 09       		.byte	0x9
 2348 09c0 07       		.uleb128 0x7
 2349 09c1 18080000 		.4byte	.LASF143
 2350 09c5 0F       		.byte	0xf
 2351 09c6 E0       		.byte	0xe0
 2352 09c7 B4000000 		.4byte	0xb4
 2353 09cb 0A       		.byte	0xa
 2354 09cc 00       		.byte	0
 2355 09cd 0A       		.uleb128 0xa
 2356 09ce 04       		.byte	0x4
 2357 09cf DA040000 		.4byte	0x4da
 2358 09d3 0A       		.uleb128 0xa
 2359 09d4 04       		.byte	0x4
 2360 09d5 F5000000 		.4byte	0xf5
 2361 09d9 03       		.uleb128 0x3
 2362 09da 05000000 		.4byte	.LASF144
 2363 09de 0F       		.byte	0xf
 2364 09df E1       		.byte	0xe1
 2365 09e0 88090000 		.4byte	0x988
 2366 09e4 03       		.uleb128 0x3
 2367 09e5 B5060000 		.4byte	.LASF145
 2368 09e9 0F       		.byte	0xf
 2369 09ea EA       		.byte	0xea
 2370 09eb EF090000 		.4byte	0x9ef
 2371 09ef 0A       		.uleb128 0xa
 2372 09f0 04       		.byte	0x4
 2373 09f1 F5090000 		.4byte	0x9f5
 2374 09f5 0C       		.uleb128 0xc
 2375 09f6 050A0000 		.4byte	0xa05
 2376 09fa 0D       		.uleb128 0xd
 2377 09fb 3D030000 		.4byte	0x33d
 2378 09ff 0D       		.uleb128 0xd
 2379 0a00 D5000000 		.4byte	0xd5
 2380 0a04 00       		.byte	0
 2381 0a05 04       		.uleb128 0x4
 2382 0a06 01       		.byte	0x1
ARM GAS  /tmp/cceu4JPd.s 			page 43


 2383 0a07 02       		.byte	0x2
 2384 0a08 88030000 		.4byte	.LASF146
 2385 0a0c 0A       		.uleb128 0xa
 2386 0a0d 04       		.byte	0x4
 2387 0a0e 120A0000 		.4byte	0xa12
 2388 0a12 18       		.uleb128 0x18
 2389 0a13 D9090000 		.4byte	0x9d9
 2390 0a17 0A       		.uleb128 0xa
 2391 0a18 04       		.byte	0x4
 2392 0a19 E3060000 		.4byte	0x6e3
 2393 0a1d 19       		.uleb128 0x19
 2394 0a1e 01       		.byte	0x1
 2395 0a1f 5E000000 		.4byte	0x5e
 2396 0a23 10       		.byte	0x10
 2397 0a24 3D       		.byte	0x3d
 2398 0a25 3C0A0000 		.4byte	0xa3c
 2399 0a29 1A       		.uleb128 0x1a
 2400 0a2a A8050000 		.4byte	.LASF147
 2401 0a2e 00       		.byte	0
 2402 0a2f 1A       		.uleb128 0x1a
 2403 0a30 39000000 		.4byte	.LASF148
 2404 0a34 01       		.byte	0x1
 2405 0a35 1A       		.uleb128 0x1a
 2406 0a36 ED090000 		.4byte	.LASF149
 2407 0a3a 02       		.byte	0x2
 2408 0a3b 00       		.byte	0
 2409 0a3c 03       		.uleb128 0x3
 2410 0a3d F3080000 		.4byte	.LASF150
 2411 0a41 10       		.byte	0x10
 2412 0a42 41       		.byte	0x41
 2413 0a43 1D0A0000 		.4byte	0xa1d
 2414 0a47 19       		.uleb128 0x19
 2415 0a48 01       		.byte	0x1
 2416 0a49 5E000000 		.4byte	0x5e
 2417 0a4d 10       		.byte	0x10
 2418 0a4e 46       		.byte	0x46
 2419 0a4f 660A0000 		.4byte	0xa66
 2420 0a53 1A       		.uleb128 0x1a
 2421 0a54 53090000 		.4byte	.LASF151
 2422 0a58 00       		.byte	0
 2423 0a59 1A       		.uleb128 0x1a
 2424 0a5a 69010000 		.4byte	.LASF152
 2425 0a5e 01       		.byte	0x1
 2426 0a5f 1A       		.uleb128 0x1a
 2427 0a60 34080000 		.4byte	.LASF153
 2428 0a64 02       		.byte	0x2
 2429 0a65 00       		.byte	0
 2430 0a66 03       		.uleb128 0x3
 2431 0a67 D4020000 		.4byte	.LASF154
 2432 0a6b 10       		.byte	0x10
 2433 0a6c 4A       		.byte	0x4a
 2434 0a6d 470A0000 		.4byte	0xa47
 2435 0a71 19       		.uleb128 0x19
 2436 0a72 01       		.byte	0x1
 2437 0a73 5E000000 		.4byte	0x5e
 2438 0a77 10       		.byte	0x10
 2439 0a78 4F       		.byte	0x4f
ARM GAS  /tmp/cceu4JPd.s 			page 44


 2440 0a79 900A0000 		.4byte	0xa90
 2441 0a7d 1A       		.uleb128 0x1a
 2442 0a7e 7B080000 		.4byte	.LASF155
 2443 0a82 00       		.byte	0
 2444 0a83 1A       		.uleb128 0x1a
 2445 0a84 E1070000 		.4byte	.LASF156
 2446 0a88 01       		.byte	0x1
 2447 0a89 1A       		.uleb128 0x1a
 2448 0a8a C4050000 		.4byte	.LASF157
 2449 0a8e 02       		.byte	0x2
 2450 0a8f 00       		.byte	0
 2451 0a90 03       		.uleb128 0x3
 2452 0a91 45080000 		.4byte	.LASF158
 2453 0a95 10       		.byte	0x10
 2454 0a96 53       		.byte	0x53
 2455 0a97 710A0000 		.4byte	0xa71
 2456 0a9b 15       		.uleb128 0x15
 2457 0a9c 66060000 		.4byte	.LASF159
 2458 0aa0 11       		.byte	0x11
 2459 0aa1 B101     		.2byte	0x1b1
 2460 0aa3 D5000000 		.4byte	0xd5
 2461 0aa7 15       		.uleb128 0x15
 2462 0aa8 80010000 		.4byte	.LASF160
 2463 0aac 11       		.byte	0x11
 2464 0aad B601     		.2byte	0x1b6
 2465 0aaf B30A0000 		.4byte	0xab3
 2466 0ab3 0B       		.uleb128 0xb
 2467 0ab4 80010000 		.4byte	.LASF160
 2468 0ab8 1C       		.byte	0x1c
 2469 0ab9 11       		.byte	0x11
 2470 0aba FE01     		.2byte	0x1fe
 2471 0abc 360B0000 		.4byte	0xb36
 2472 0ac0 09       		.uleb128 0x9
 2473 0ac1 00010000 		.4byte	.LASF161
 2474 0ac5 11       		.byte	0x11
 2475 0ac6 0202     		.2byte	0x202
 2476 0ac8 3C0A0000 		.4byte	0xa3c
 2477 0acc 00       		.byte	0
 2478 0acd 09       		.uleb128 0x9
 2479 0ace BA020000 		.4byte	.LASF162
 2480 0ad2 11       		.byte	0x11
 2481 0ad3 0602     		.2byte	0x206
 2482 0ad5 660A0000 		.4byte	0xa66
 2483 0ad9 01       		.byte	0x1
 2484 0ada 09       		.uleb128 0x9
 2485 0adb 06010000 		.4byte	.LASF163
 2486 0adf 11       		.byte	0x11
 2487 0ae0 0A02     		.2byte	0x20a
 2488 0ae2 900A0000 		.4byte	0xa90
 2489 0ae6 02       		.byte	0x2
 2490 0ae7 09       		.uleb128 0x9
 2491 0ae8 F9000000 		.4byte	.LASF164
 2492 0aec 11       		.byte	0x11
 2493 0aed 0E02     		.2byte	0x20e
 2494 0aef 280C0000 		.4byte	0xc28
 2495 0af3 04       		.byte	0x4
 2496 0af4 09       		.uleb128 0x9
ARM GAS  /tmp/cceu4JPd.s 			page 45


 2497 0af5 E2020000 		.4byte	.LASF165
 2498 0af9 11       		.byte	0x11
 2499 0afa 1602     		.2byte	0x216
 2500 0afc 170A0000 		.4byte	0xa17
 2501 0b00 08       		.byte	0x8
 2502 0b01 09       		.uleb128 0x9
 2503 0b02 80020000 		.4byte	.LASF166
 2504 0b06 11       		.byte	0x11
 2505 0b07 1A02     		.2byte	0x21a
 2506 0b09 D5000000 		.4byte	0xd5
 2507 0b0d 0C       		.byte	0xc
 2508 0b0e 09       		.uleb128 0x9
 2509 0b0f FA050000 		.4byte	.LASF167
 2510 0b13 11       		.byte	0x11
 2511 0b14 1E02     		.2byte	0x21e
 2512 0b16 0C0A0000 		.4byte	0xa0c
 2513 0b1a 10       		.byte	0x10
 2514 0b1b 09       		.uleb128 0x9
 2515 0b1c 72060000 		.4byte	.LASF168
 2516 0b20 11       		.byte	0x11
 2517 0b21 2202     		.2byte	0x222
 2518 0b23 0C0A0000 		.4byte	0xa0c
 2519 0b27 14       		.byte	0x14
 2520 0b28 09       		.uleb128 0x9
 2521 0b29 F4050000 		.4byte	.LASF169
 2522 0b2d 11       		.byte	0x11
 2523 0b2e 2602     		.2byte	0x226
 2524 0b30 EB000000 		.4byte	0xeb
 2525 0b34 18       		.byte	0x18
 2526 0b35 00       		.byte	0
 2527 0b36 15       		.uleb128 0x15
 2528 0b37 60090000 		.4byte	.LASF170
 2529 0b3b 11       		.byte	0x11
 2530 0b3c BD01     		.2byte	0x1bd
 2531 0b3e 420B0000 		.4byte	0xb42
 2532 0b42 0A       		.uleb128 0xa
 2533 0b43 04       		.byte	0x4
 2534 0b44 480B0000 		.4byte	0xb48
 2535 0b48 0C       		.uleb128 0xc
 2536 0b49 530B0000 		.4byte	0xb53
 2537 0b4d 0D       		.uleb128 0xd
 2538 0b4e 530B0000 		.4byte	0xb53
 2539 0b52 00       		.byte	0
 2540 0b53 0A       		.uleb128 0xa
 2541 0b54 04       		.byte	0x4
 2542 0b55 A70A0000 		.4byte	0xaa7
 2543 0b59 15       		.uleb128 0x15
 2544 0b5a 5B080000 		.4byte	.LASF171
 2545 0b5e 11       		.byte	0x11
 2546 0b5f C501     		.2byte	0x1c5
 2547 0b61 650B0000 		.4byte	0xb65
 2548 0b65 0A       		.uleb128 0xa
 2549 0b66 04       		.byte	0x4
 2550 0b67 6B0B0000 		.4byte	0xb6b
 2551 0b6b 0C       		.uleb128 0xc
 2552 0b6c 7B0B0000 		.4byte	0xb7b
 2553 0b70 0D       		.uleb128 0xd
ARM GAS  /tmp/cceu4JPd.s 			page 46


 2554 0b71 530B0000 		.4byte	0xb53
 2555 0b75 0D       		.uleb128 0xd
 2556 0b76 BF000000 		.4byte	0xbf
 2557 0b7a 00       		.byte	0
 2558 0b7b 15       		.uleb128 0x15
 2559 0b7c 8F050000 		.4byte	.LASF172
 2560 0b80 11       		.byte	0x11
 2561 0b81 CD01     		.2byte	0x1cd
 2562 0b83 870B0000 		.4byte	0xb87
 2563 0b87 0A       		.uleb128 0xa
 2564 0b88 04       		.byte	0x4
 2565 0b89 8D0B0000 		.4byte	0xb8d
 2566 0b8d 0C       		.uleb128 0xc
 2567 0b8e 9D0B0000 		.4byte	0xb9d
 2568 0b92 0D       		.uleb128 0xd
 2569 0b93 530B0000 		.4byte	0xb53
 2570 0b97 0D       		.uleb128 0xd
 2571 0b98 9B0A0000 		.4byte	0xa9b
 2572 0b9c 00       		.byte	0
 2573 0b9d 14       		.uleb128 0x14
 2574 0b9e 20       		.byte	0x20
 2575 0b9f 11       		.byte	0x11
 2576 0ba0 D301     		.2byte	0x1d3
 2577 0ba2 1C0C0000 		.4byte	0xc1c
 2578 0ba6 09       		.uleb128 0x9
 2579 0ba7 C8090000 		.4byte	.LASF173
 2580 0bab 11       		.byte	0x11
 2581 0bac D701     		.2byte	0x1d7
 2582 0bae 360B0000 		.4byte	0xb36
 2583 0bb2 00       		.byte	0
 2584 0bb3 09       		.uleb128 0x9
 2585 0bb4 41050000 		.4byte	.LASF174
 2586 0bb8 11       		.byte	0x11
 2587 0bb9 DB01     		.2byte	0x1db
 2588 0bbb 360B0000 		.4byte	0xb36
 2589 0bbf 04       		.byte	0x4
 2590 0bc0 09       		.uleb128 0x9
 2591 0bc1 0E010000 		.4byte	.LASF175
 2592 0bc5 11       		.byte	0x11
 2593 0bc6 DF01     		.2byte	0x1df
 2594 0bc8 360B0000 		.4byte	0xb36
 2595 0bcc 08       		.byte	0x8
 2596 0bcd 09       		.uleb128 0x9
 2597 0bce 39040000 		.4byte	.LASF176
 2598 0bd2 11       		.byte	0x11
 2599 0bd3 E301     		.2byte	0x1e3
 2600 0bd5 590B0000 		.4byte	0xb59
 2601 0bd9 0C       		.byte	0xc
 2602 0bda 09       		.uleb128 0x9
 2603 0bdb 8F060000 		.4byte	.LASF177
 2604 0bdf 11       		.byte	0x11
 2605 0be0 E701     		.2byte	0x1e7
 2606 0be2 7B0B0000 		.4byte	0xb7b
 2607 0be6 10       		.byte	0x10
 2608 0be7 09       		.uleb128 0x9
 2609 0be8 8A040000 		.4byte	.LASF178
 2610 0bec 11       		.byte	0x11
ARM GAS  /tmp/cceu4JPd.s 			page 47


 2611 0bed EC01     		.2byte	0x1ec
 2612 0bef D5000000 		.4byte	0xd5
 2613 0bf3 14       		.byte	0x14
 2614 0bf4 08       		.uleb128 0x8
 2615 0bf5 63723100 		.ascii	"cr1\000"
 2616 0bf9 11       		.byte	0x11
 2617 0bfa F001     		.2byte	0x1f0
 2618 0bfc BF000000 		.4byte	0xbf
 2619 0c00 18       		.byte	0x18
 2620 0c01 08       		.uleb128 0x8
 2621 0c02 63723200 		.ascii	"cr2\000"
 2622 0c06 11       		.byte	0x11
 2623 0c07 F401     		.2byte	0x1f4
 2624 0c09 BF000000 		.4byte	0xbf
 2625 0c0d 1A       		.byte	0x1a
 2626 0c0e 08       		.uleb128 0x8
 2627 0c0f 63723300 		.ascii	"cr3\000"
 2628 0c13 11       		.byte	0x11
 2629 0c14 F801     		.2byte	0x1f8
 2630 0c16 BF000000 		.4byte	0xbf
 2631 0c1a 1C       		.byte	0x1c
 2632 0c1b 00       		.byte	0
 2633 0c1c 15       		.uleb128 0x15
 2634 0c1d F6040000 		.4byte	.LASF179
 2635 0c21 11       		.byte	0x11
 2636 0c22 F901     		.2byte	0x1f9
 2637 0c24 9D0B0000 		.4byte	0xb9d
 2638 0c28 0A       		.uleb128 0xa
 2639 0c29 04       		.byte	0x4
 2640 0c2a 2E0C0000 		.4byte	0xc2e
 2641 0c2e 18       		.uleb128 0x18
 2642 0c2f 1C0C0000 		.4byte	0xc1c
 2643 0c33 1B       		.uleb128 0x1b
 2644 0c34 C8040000 		.4byte	.LASF180
 2645 0c38 01       		.byte	0x1
 2646 0c39 9F       		.byte	0x9f
 2647 0c3a 01       		.byte	0x1
 2648 0c3b 560C0000 		.4byte	0xc56
 2649 0c3f 1C       		.uleb128 0x1c
 2650 0c40 DE060000 		.4byte	.LASF182
 2651 0c44 01       		.byte	0x1
 2652 0c45 9F       		.byte	0x9f
 2653 0c46 530B0000 		.4byte	0xb53
 2654 0c4a 1D       		.uleb128 0x1d
 2655 0c4b DE080000 		.4byte	.LASF187
 2656 0c4f 01       		.byte	0x1
 2657 0c50 A0       		.byte	0xa0
 2658 0c51 D5000000 		.4byte	0xd5
 2659 0c55 00       		.byte	0
 2660 0c56 1E       		.uleb128 0x1e
 2661 0c57 62070000 		.4byte	.LASF181
 2662 0c5b 02       		.byte	0x2
 2663 0c5c 9E01     		.2byte	0x19e
 2664 0c5e 03       		.byte	0x3
 2665 0c5f 700C0000 		.4byte	0xc70
 2666 0c63 1F       		.uleb128 0x1f
 2667 0c64 11080000 		.4byte	.LASF183
ARM GAS  /tmp/cceu4JPd.s 			page 48


 2668 0c68 02       		.byte	0x2
 2669 0c69 9E01     		.2byte	0x19e
 2670 0c6b 4A090000 		.4byte	0x94a
 2671 0c6f 00       		.byte	0
 2672 0c70 1B       		.uleb128 0x1b
 2673 0c71 F4030000 		.4byte	.LASF184
 2674 0c75 01       		.byte	0x1
 2675 0c76 F1       		.byte	0xf1
 2676 0c77 01       		.byte	0x1
 2677 0c78 930C0000 		.4byte	0xc93
 2678 0c7c 1C       		.uleb128 0x1c
 2679 0c7d DE060000 		.4byte	.LASF182
 2680 0c81 01       		.byte	0x1
 2681 0c82 F1       		.byte	0xf1
 2682 0c83 530B0000 		.4byte	0xb53
 2683 0c87 1C       		.uleb128 0x1c
 2684 0c88 98030000 		.4byte	.LASF185
 2685 0c8c 01       		.byte	0x1
 2686 0c8d F1       		.byte	0xf1
 2687 0c8e D5000000 		.4byte	0xd5
 2688 0c92 00       		.byte	0
 2689 0c93 1E       		.uleb128 0x1e
 2690 0c94 C0070000 		.4byte	.LASF186
 2691 0c98 01       		.byte	0x1
 2692 0c99 3601     		.2byte	0x136
 2693 0c9b 01       		.byte	0x1
 2694 0c9c CE0C0000 		.4byte	0xcce
 2695 0ca0 1F       		.uleb128 0x1f
 2696 0ca1 DE060000 		.4byte	.LASF182
 2697 0ca5 01       		.byte	0x1
 2698 0ca6 3601     		.2byte	0x136
 2699 0ca8 530B0000 		.4byte	0xb53
 2700 0cac 20       		.uleb128 0x20
 2701 0cad 737200   		.ascii	"sr\000"
 2702 0cb0 01       		.byte	0x1
 2703 0cb1 3701     		.2byte	0x137
 2704 0cb3 BF000000 		.4byte	0xbf
 2705 0cb7 20       		.uleb128 0x20
 2706 0cb8 7500     		.ascii	"u\000"
 2707 0cba 01       		.byte	0x1
 2708 0cbb 3801     		.2byte	0x138
 2709 0cbd 170A0000 		.4byte	0xa17
 2710 0cc1 20       		.uleb128 0x20
 2711 0cc2 63723100 		.ascii	"cr1\000"
 2712 0cc6 01       		.byte	0x1
 2713 0cc7 3901     		.2byte	0x139
 2714 0cc9 D5000000 		.4byte	0xd5
 2715 0ccd 00       		.byte	0
 2716 0cce 21       		.uleb128 0x21
 2717 0ccf 5E010000 		.4byte	.LASF188
 2718 0cd3 01       		.byte	0x1
 2719 0cd4 B4       		.byte	0xb4
 2720 0cd5 00000000 		.4byte	.LFB262
 2721 0cd9 48000000 		.4byte	.LFE262-.LFB262
 2722 0cdd 01       		.uleb128 0x1
 2723 0cde 9C       		.byte	0x9c
 2724 0cdf F30C0000 		.4byte	0xcf3
ARM GAS  /tmp/cceu4JPd.s 			page 49


 2725 0ce3 22       		.uleb128 0x22
 2726 0ce4 DE060000 		.4byte	.LASF182
 2727 0ce8 01       		.byte	0x1
 2728 0ce9 B4       		.byte	0xb4
 2729 0cea 530B0000 		.4byte	0xb53
 2730 0cee 00000000 		.4byte	.LLST0
 2731 0cf2 00       		.byte	0
 2732 0cf3 23       		.uleb128 0x23
 2733 0cf4 A6000000 		.4byte	.LASF189
 2734 0cf8 01       		.byte	0x1
 2735 0cf9 1901     		.2byte	0x119
 2736 0cfb 00000000 		.4byte	.LFB265
 2737 0cff 50000000 		.4byte	.LFE265-.LFB265
 2738 0d03 01       		.uleb128 0x1
 2739 0d04 9C       		.byte	0x9c
 2740 0d05 6A0D0000 		.4byte	0xd6a
 2741 0d09 24       		.uleb128 0x24
 2742 0d0a DE060000 		.4byte	.LASF182
 2743 0d0e 01       		.byte	0x1
 2744 0d0f 1901     		.2byte	0x119
 2745 0d11 530B0000 		.4byte	0xb53
 2746 0d15 21000000 		.4byte	.LLST1
 2747 0d19 24       		.uleb128 0x24
 2748 0d1a 98030000 		.4byte	.LASF185
 2749 0d1e 01       		.byte	0x1
 2750 0d1f 1901     		.2byte	0x119
 2751 0d21 D5000000 		.4byte	0xd5
 2752 0d25 55000000 		.4byte	.LLST2
 2753 0d29 25       		.uleb128 0x25
 2754 0d2a 560C0000 		.4byte	0xc56
 2755 0d2e 42000000 		.4byte	.LBB16
 2756 0d32 0E000000 		.4byte	.LBE16-.LBB16
 2757 0d36 01       		.byte	0x1
 2758 0d37 1E01     		.2byte	0x11e
 2759 0d39 5D0D0000 		.4byte	0xd5d
 2760 0d3d 26       		.uleb128 0x26
 2761 0d3e 630C0000 		.4byte	0xc63
 2762 0d42 06       		.uleb128 0x6
 2763 0d43 03       		.byte	0x3
 2764 0d44 00000000 		.4byte	.LC0
 2765 0d48 9F       		.byte	0x9f
 2766 0d49 27       		.uleb128 0x27
 2767 0d4a 48000000 		.4byte	.LVL8
 2768 0d4e 2B120000 		.4byte	0x122b
 2769 0d52 28       		.uleb128 0x28
 2770 0d53 01       		.uleb128 0x1
 2771 0d54 50       		.byte	0x50
 2772 0d55 05       		.uleb128 0x5
 2773 0d56 03       		.byte	0x3
 2774 0d57 00000000 		.4byte	.LC0
 2775 0d5b 00       		.byte	0
 2776 0d5c 00       		.byte	0
 2777 0d5d 29       		.uleb128 0x29
 2778 0d5e 34000000 		.4byte	.LVL4
 2779 0d62 28       		.uleb128 0x28
 2780 0d63 01       		.uleb128 0x1
 2781 0d64 50       		.byte	0x50
ARM GAS  /tmp/cceu4JPd.s 			page 50


 2782 0d65 02       		.uleb128 0x2
 2783 0d66 74       		.byte	0x74
 2784 0d67 00       		.sleb128 0
 2785 0d68 00       		.byte	0
 2786 0d69 00       		.byte	0
 2787 0d6a 2A       		.uleb128 0x2a
 2788 0d6b 700C0000 		.4byte	0xc70
 2789 0d6f 00000000 		.4byte	.LFB264
 2790 0d73 90000000 		.4byte	.LFE264-.LFB264
 2791 0d77 01       		.uleb128 0x1
 2792 0d78 9C       		.byte	0x9c
 2793 0d79 250E0000 		.4byte	0xe25
 2794 0d7d 2B       		.uleb128 0x2b
 2795 0d7e 7C0C0000 		.4byte	0xc7c
 2796 0d82 8F000000 		.4byte	.LLST3
 2797 0d86 2B       		.uleb128 0x2b
 2798 0d87 870C0000 		.4byte	0xc87
 2799 0d8b E7000000 		.4byte	.LLST4
 2800 0d8f 2C       		.uleb128 0x2c
 2801 0d90 22000000 		.4byte	.LBB26
 2802 0d94 60000000 		.4byte	.LBE26-.LBB26
 2803 0d98 E40D0000 		.4byte	0xde4
 2804 0d9c 2B       		.uleb128 0x2b
 2805 0d9d 870C0000 		.4byte	0xc87
 2806 0da1 21010000 		.4byte	.LLST5
 2807 0da5 2B       		.uleb128 0x2b
 2808 0da6 7C0C0000 		.4byte	0xc7c
 2809 0daa 37010000 		.4byte	.LLST6
 2810 0dae 2D       		.uleb128 0x2d
 2811 0daf 330C0000 		.4byte	0xc33
 2812 0db3 58000000 		.4byte	.LBB28
 2813 0db7 00000000 		.4byte	.Ldebug_ranges0+0
 2814 0dbb 01       		.byte	0x1
 2815 0dbc 0E01     		.2byte	0x10e
 2816 0dbe D70D0000 		.4byte	0xdd7
 2817 0dc2 2B       		.uleb128 0x2b
 2818 0dc3 3F0C0000 		.4byte	0xc3f
 2819 0dc7 4A010000 		.4byte	.LLST7
 2820 0dcb 2E       		.uleb128 0x2e
 2821 0dcc 00000000 		.4byte	.Ldebug_ranges0+0
 2822 0dd0 2F       		.uleb128 0x2f
 2823 0dd1 4A0C0000 		.4byte	0xc4a
 2824 0dd5 00       		.byte	0
 2825 0dd6 00       		.byte	0
 2826 0dd7 29       		.uleb128 0x29
 2827 0dd8 4C000000 		.4byte	.LVL13
 2828 0ddc 28       		.uleb128 0x28
 2829 0ddd 01       		.uleb128 0x1
 2830 0dde 50       		.byte	0x50
 2831 0ddf 02       		.uleb128 0x2
 2832 0de0 74       		.byte	0x74
 2833 0de1 00       		.sleb128 0
 2834 0de2 00       		.byte	0
 2835 0de3 00       		.byte	0
 2836 0de4 30       		.uleb128 0x30
 2837 0de5 560C0000 		.4byte	0xc56
 2838 0de9 82000000 		.4byte	.LBB34
ARM GAS  /tmp/cceu4JPd.s 			page 51


 2839 0ded 0E000000 		.4byte	.LBE34-.LBB34
 2840 0df1 01       		.byte	0x1
 2841 0df2 F6       		.byte	0xf6
 2842 0df3 170E0000 		.4byte	0xe17
 2843 0df7 26       		.uleb128 0x26
 2844 0df8 630C0000 		.4byte	0xc63
 2845 0dfc 06       		.uleb128 0x6
 2846 0dfd 03       		.byte	0x3
 2847 0dfe 00000000 		.4byte	.LC0
 2848 0e02 9F       		.byte	0x9f
 2849 0e03 27       		.uleb128 0x27
 2850 0e04 88000000 		.4byte	.LVL18
 2851 0e08 2B120000 		.4byte	0x122b
 2852 0e0c 28       		.uleb128 0x28
 2853 0e0d 01       		.uleb128 0x1
 2854 0e0e 50       		.byte	0x50
 2855 0e0f 05       		.uleb128 0x5
 2856 0e10 03       		.byte	0x3
 2857 0e11 00000000 		.4byte	.LC0
 2858 0e15 00       		.byte	0
 2859 0e16 00       		.byte	0
 2860 0e17 31       		.uleb128 0x31
 2861 0e18 22000000 		.4byte	.LVL12
 2862 0e1c 28       		.uleb128 0x28
 2863 0e1d 01       		.uleb128 0x1
 2864 0e1e 50       		.byte	0x50
 2865 0e1f 03       		.uleb128 0x3
 2866 0e20 F3       		.byte	0xf3
 2867 0e21 01       		.uleb128 0x1
 2868 0e22 50       		.byte	0x50
 2869 0e23 00       		.byte	0
 2870 0e24 00       		.byte	0
 2871 0e25 32       		.uleb128 0x32
 2872 0e26 7E050000 		.4byte	.LASF213
 2873 0e2a 01       		.byte	0x1
 2874 0e2b 8A       		.byte	0x8a
 2875 0e2c 9B0A0000 		.4byte	0xa9b
 2876 0e30 01       		.byte	0x1
 2877 0e31 4B0E0000 		.4byte	0xe4b
 2878 0e35 33       		.uleb128 0x33
 2879 0e36 737200   		.ascii	"sr\000"
 2880 0e39 01       		.byte	0x1
 2881 0e3a 8A       		.byte	0x8a
 2882 0e3b BF000000 		.4byte	0xbf
 2883 0e3f 34       		.uleb128 0x34
 2884 0e40 73747300 		.ascii	"sts\000"
 2885 0e44 01       		.byte	0x1
 2886 0e45 8B       		.byte	0x8b
 2887 0e46 9B0A0000 		.4byte	0xa9b
 2888 0e4a 00       		.byte	0
 2889 0e4b 35       		.uleb128 0x35
 2890 0e4c 8D090000 		.4byte	.LASF190
 2891 0e50 01       		.byte	0x1
 2892 0e51 7001     		.2byte	0x170
 2893 0e53 00000000 		.4byte	.LFB267
 2894 0e57 7C000000 		.4byte	.LFE267-.LFB267
 2895 0e5b 01       		.uleb128 0x1
ARM GAS  /tmp/cceu4JPd.s 			page 52


 2896 0e5c 9C       		.byte	0x9c
 2897 0e5d FE0E0000 		.4byte	0xefe
 2898 0e61 25       		.uleb128 0x25
 2899 0e62 930C0000 		.4byte	0xc93
 2900 0e66 02000000 		.4byte	.LBB40
 2901 0e6a 6C000000 		.4byte	.LBE40-.LBB40
 2902 0e6e 01       		.byte	0x1
 2903 0e6f 7401     		.2byte	0x174
 2904 0e71 F40E0000 		.4byte	0xef4
 2905 0e75 26       		.uleb128 0x26
 2906 0e76 A00C0000 		.4byte	0xca0
 2907 0e7a 06       		.uleb128 0x6
 2908 0e7b 03       		.byte	0x3
 2909 0e7c 00000000 		.4byte	UARTD2
 2910 0e80 9F       		.byte	0x9f
 2911 0e81 36       		.uleb128 0x36
 2912 0e82 02000000 		.4byte	.LBB41
 2913 0e86 6C000000 		.4byte	.LBE41-.LBB41
 2914 0e8a 37       		.uleb128 0x37
 2915 0e8b AC0C0000 		.4byte	0xcac
 2916 0e8f 5D010000 		.4byte	.LLST8
 2917 0e93 37       		.uleb128 0x37
 2918 0e94 B70C0000 		.4byte	0xcb7
 2919 0e98 70010000 		.4byte	.LLST9
 2920 0e9c 37       		.uleb128 0x37
 2921 0e9d C10C0000 		.4byte	0xcc1
 2922 0ea1 83010000 		.4byte	.LLST10
 2923 0ea5 25       		.uleb128 0x25
 2924 0ea6 250E0000 		.4byte	0xe25
 2925 0eaa 22000000 		.4byte	.LBB42
 2926 0eae 2A000000 		.4byte	.LBE42-.LBB42
 2927 0eb2 01       		.byte	0x1
 2928 0eb3 4201     		.2byte	0x142
 2929 0eb5 D60E0000 		.4byte	0xed6
 2930 0eb9 2B       		.uleb128 0x2b
 2931 0eba 350E0000 		.4byte	0xe35
 2932 0ebe 96010000 		.4byte	.LLST11
 2933 0ec2 36       		.uleb128 0x36
 2934 0ec3 22000000 		.4byte	.LBB43
 2935 0ec7 2A000000 		.4byte	.LBE43-.LBB43
 2936 0ecb 37       		.uleb128 0x37
 2937 0ecc 3F0E0000 		.4byte	0xe3f
 2938 0ed0 A9010000 		.4byte	.LLST12
 2939 0ed4 00       		.byte	0
 2940 0ed5 00       		.byte	0
 2941 0ed6 38       		.uleb128 0x38
 2942 0ed7 50000000 		.4byte	.LVL29
 2943 0edb E60E0000 		.4byte	0xee6
 2944 0edf 28       		.uleb128 0x28
 2945 0ee0 01       		.uleb128 0x1
 2946 0ee1 50       		.byte	0x50
 2947 0ee2 02       		.uleb128 0x2
 2948 0ee3 76       		.byte	0x76
 2949 0ee4 00       		.sleb128 0
 2950 0ee5 00       		.byte	0
 2951 0ee6 29       		.uleb128 0x29
 2952 0ee7 6E000000 		.4byte	.LVL31
ARM GAS  /tmp/cceu4JPd.s 			page 53


 2953 0eeb 28       		.uleb128 0x28
 2954 0eec 01       		.uleb128 0x1
 2955 0eed 50       		.byte	0x50
 2956 0eee 02       		.uleb128 0x2
 2957 0eef 76       		.byte	0x76
 2958 0ef0 00       		.sleb128 0
 2959 0ef1 00       		.byte	0
 2960 0ef2 00       		.byte	0
 2961 0ef3 00       		.byte	0
 2962 0ef4 39       		.uleb128 0x39
 2963 0ef5 76000000 		.4byte	.LVL33
 2964 0ef9 37120000 		.4byte	0x1237
 2965 0efd 00       		.byte	0
 2966 0efe 35       		.uleb128 0x35
 2967 0eff 25040000 		.4byte	.LASF191
 2968 0f03 01       		.byte	0x1
 2969 0f04 CF01     		.2byte	0x1cf
 2970 0f06 00000000 		.4byte	.LFB268
 2971 0f0a 2C000000 		.4byte	.LFE268-.LFB268
 2972 0f0e 01       		.uleb128 0x1
 2973 0f0f 9C       		.byte	0x9c
 2974 0f10 250F0000 		.4byte	0xf25
 2975 0f14 27       		.uleb128 0x27
 2976 0f15 0A000000 		.4byte	.LVL34
 2977 0f19 43120000 		.4byte	0x1243
 2978 0f1d 28       		.uleb128 0x28
 2979 0f1e 01       		.uleb128 0x1
 2980 0f1f 50       		.byte	0x50
 2981 0f20 02       		.uleb128 0x2
 2982 0f21 74       		.byte	0x74
 2983 0f22 00       		.sleb128 0
 2984 0f23 00       		.byte	0
 2985 0f24 00       		.byte	0
 2986 0f25 1B       		.uleb128 0x1b
 2987 0f26 26010000 		.4byte	.LASF192
 2988 0f2a 01       		.byte	0x1
 2989 0f2b C6       		.byte	0xc6
 2990 0f2c 01       		.byte	0x1
 2991 0f2d 510F0000 		.4byte	0xf51
 2992 0f31 1C       		.uleb128 0x1c
 2993 0f32 DE060000 		.4byte	.LASF182
 2994 0f36 01       		.byte	0x1
 2995 0f37 C6       		.byte	0xc6
 2996 0f38 530B0000 		.4byte	0xb53
 2997 0f3c 34       		.uleb128 0x34
 2998 0f3d 63723100 		.ascii	"cr1\000"
 2999 0f41 01       		.byte	0x1
 3000 0f42 C7       		.byte	0xc7
 3001 0f43 BF000000 		.4byte	0xbf
 3002 0f47 34       		.uleb128 0x34
 3003 0f48 7500     		.ascii	"u\000"
 3004 0f4a 01       		.byte	0x1
 3005 0f4b C8       		.byte	0xc8
 3006 0f4c 170A0000 		.4byte	0xa17
 3007 0f50 00       		.byte	0
 3008 0f51 35       		.uleb128 0x35
 3009 0f52 4F010000 		.4byte	.LASF193
ARM GAS  /tmp/cceu4JPd.s 			page 54


 3010 0f56 01       		.byte	0x1
 3011 0f57 0802     		.2byte	0x208
 3012 0f59 00000000 		.4byte	.LFB269
 3013 0f5d 1C010000 		.4byte	.LFE269-.LFB269
 3014 0f61 01       		.uleb128 0x1
 3015 0f62 9C       		.byte	0x9c
 3016 0f63 5C100000 		.4byte	0x105c
 3017 0f67 24       		.uleb128 0x24
 3018 0f68 DE060000 		.4byte	.LASF182
 3019 0f6c 01       		.byte	0x1
 3020 0f6d 0802     		.2byte	0x208
 3021 0f6f 530B0000 		.4byte	0xb53
 3022 0f73 C8010000 		.4byte	.LLST13
 3023 0f77 3A       		.uleb128 0x3a
 3024 0f78 C0000000 		.4byte	.LASF214
 3025 0f7c 6C100000 		.4byte	0x106c
 3026 0f80 2D       		.uleb128 0x2d
 3027 0f81 250F0000 		.4byte	0xf25
 3028 0f85 12000000 		.4byte	.LBB49
 3029 0f89 20000000 		.4byte	.Ldebug_ranges0+0x20
 3030 0f8d 01       		.byte	0x1
 3031 0f8e 9A02     		.2byte	0x29a
 3032 0f90 EE0F0000 		.4byte	0xfee
 3033 0f94 2B       		.uleb128 0x2b
 3034 0f95 310F0000 		.4byte	0xf31
 3035 0f99 1F020000 		.4byte	.LLST14
 3036 0f9d 2E       		.uleb128 0x2e
 3037 0f9e 20000000 		.4byte	.Ldebug_ranges0+0x20
 3038 0fa2 37       		.uleb128 0x37
 3039 0fa3 3C0F0000 		.4byte	0xf3c
 3040 0fa7 4A020000 		.4byte	.LLST15
 3041 0fab 37       		.uleb128 0x37
 3042 0fac 470F0000 		.4byte	0xf47
 3043 0fb0 60020000 		.4byte	.LLST16
 3044 0fb4 3B       		.uleb128 0x3b
 3045 0fb5 330C0000 		.4byte	0xc33
 3046 0fb9 34000000 		.4byte	.LBB51
 3047 0fbd 38000000 		.4byte	.Ldebug_ranges0+0x38
 3048 0fc1 01       		.byte	0x1
 3049 0fc2 E8       		.byte	0xe8
 3050 0fc3 DC0F0000 		.4byte	0xfdc
 3051 0fc7 2B       		.uleb128 0x2b
 3052 0fc8 3F0C0000 		.4byte	0xc3f
 3053 0fcc 74020000 		.4byte	.LLST17
 3054 0fd0 2E       		.uleb128 0x2e
 3055 0fd1 38000000 		.4byte	.Ldebug_ranges0+0x38
 3056 0fd5 2F       		.uleb128 0x2f
 3057 0fd6 4A0C0000 		.4byte	0xc4a
 3058 0fda 00       		.byte	0
 3059 0fdb 00       		.byte	0
 3060 0fdc 27       		.uleb128 0x27
 3061 0fdd 18000000 		.4byte	.LVL38
 3062 0fe1 CE0C0000 		.4byte	0xcce
 3063 0fe5 28       		.uleb128 0x28
 3064 0fe6 01       		.uleb128 0x1
 3065 0fe7 50       		.byte	0x50
 3066 0fe8 02       		.uleb128 0x2
ARM GAS  /tmp/cceu4JPd.s 			page 55


 3067 0fe9 74       		.byte	0x74
 3068 0fea 00       		.sleb128 0
 3069 0feb 00       		.byte	0
 3070 0fec 00       		.byte	0
 3071 0fed 00       		.byte	0
 3072 0fee 36       		.uleb128 0x36
 3073 0fef CA000000 		.4byte	.LBB69
 3074 0ff3 52000000 		.4byte	.LBE69-.LBB69
 3075 0ff7 20       		.uleb128 0x20
 3076 0ff8 6200     		.ascii	"b\000"
 3077 0ffa 01       		.byte	0x1
 3078 0ffb 2102     		.2byte	0x221
 3079 0ffd 050A0000 		.4byte	0xa05
 3080 1001 3C       		.uleb128 0x3c
 3081 1002 D6000000 		.4byte	.LVL48
 3082 1006 4E120000 		.4byte	0x124e
 3083 100a 23100000 		.4byte	0x1023
 3084 100e 28       		.uleb128 0x28
 3085 100f 01       		.uleb128 0x1
 3086 1010 51       		.byte	0x51
 3087 1011 01       		.uleb128 0x1
 3088 1012 3C       		.byte	0x3c
 3089 1013 28       		.uleb128 0x28
 3090 1014 01       		.uleb128 0x1
 3091 1015 52       		.byte	0x52
 3092 1016 05       		.uleb128 0x5
 3093 1017 03       		.byte	0x3
 3094 1018 00000000 		.4byte	uart_lld_serve_rx_end_irq
 3095 101c 28       		.uleb128 0x28
 3096 101d 01       		.uleb128 0x1
 3097 101e 53       		.byte	0x53
 3098 101f 02       		.uleb128 0x2
 3099 1020 74       		.byte	0x74
 3100 1021 00       		.sleb128 0
 3101 1022 00       		.byte	0
 3102 1023 3C       		.uleb128 0x3c
 3103 1024 E2000000 		.4byte	.LVL49
 3104 1028 4E120000 		.4byte	0x124e
 3105 102c 45100000 		.4byte	0x1045
 3106 1030 28       		.uleb128 0x28
 3107 1031 01       		.uleb128 0x1
 3108 1032 51       		.byte	0x51
 3109 1033 01       		.uleb128 0x1
 3110 1034 3C       		.byte	0x3c
 3111 1035 28       		.uleb128 0x28
 3112 1036 01       		.uleb128 0x1
 3113 1037 52       		.byte	0x52
 3114 1038 05       		.uleb128 0x5
 3115 1039 03       		.byte	0x3
 3116 103a 00000000 		.4byte	uart_lld_serve_tx_end_irq
 3117 103e 28       		.uleb128 0x28
 3118 103f 01       		.uleb128 0x1
 3119 1040 53       		.byte	0x53
 3120 1041 02       		.uleb128 0x2
 3121 1042 74       		.byte	0x74
 3122 1043 00       		.sleb128 0
 3123 1044 00       		.byte	0
ARM GAS  /tmp/cceu4JPd.s 			page 56


 3124 1045 27       		.uleb128 0x27
 3125 1046 F4000000 		.4byte	.LVL50
 3126 104a 5A120000 		.4byte	0x125a
 3127 104e 28       		.uleb128 0x28
 3128 104f 01       		.uleb128 0x1
 3129 1050 50       		.byte	0x50
 3130 1051 02       		.uleb128 0x2
 3131 1052 08       		.byte	0x8
 3132 1053 26       		.byte	0x26
 3133 1054 28       		.uleb128 0x28
 3134 1055 01       		.uleb128 0x1
 3135 1056 51       		.byte	0x51
 3136 1057 01       		.uleb128 0x1
 3137 1058 3C       		.byte	0x3c
 3138 1059 00       		.byte	0
 3139 105a 00       		.byte	0
 3140 105b 00       		.byte	0
 3141 105c 10       		.uleb128 0x10
 3142 105d 50090000 		.4byte	0x950
 3143 1061 6C100000 		.4byte	0x106c
 3144 1065 11       		.uleb128 0x11
 3145 1066 73040000 		.4byte	0x473
 3146 106a 0E       		.byte	0xe
 3147 106b 00       		.byte	0
 3148 106c 18       		.uleb128 0x18
 3149 106d 5C100000 		.4byte	0x105c
 3150 1071 35       		.uleb128 0x35
 3151 1072 FF090000 		.4byte	.LASF194
 3152 1076 01       		.byte	0x1
 3153 1077 A402     		.2byte	0x2a4
 3154 1079 00000000 		.4byte	.LFB270
 3155 107d 40000000 		.4byte	.LFE270-.LFB270
 3156 1081 01       		.uleb128 0x1
 3157 1082 9C       		.byte	0x9c
 3158 1083 CE100000 		.4byte	0x10ce
 3159 1087 24       		.uleb128 0x24
 3160 1088 DE060000 		.4byte	.LASF182
 3161 108c 01       		.byte	0x1
 3162 108d A402     		.2byte	0x2a4
 3163 108f 530B0000 		.4byte	0xb53
 3164 1093 89020000 		.4byte	.LLST18
 3165 1097 3C       		.uleb128 0x3c
 3166 1098 10000000 		.4byte	.LVL52
 3167 109c CE0C0000 		.4byte	0xcce
 3168 10a0 AB100000 		.4byte	0x10ab
 3169 10a4 28       		.uleb128 0x28
 3170 10a5 01       		.uleb128 0x1
 3171 10a6 50       		.byte	0x50
 3172 10a7 02       		.uleb128 0x2
 3173 10a8 74       		.byte	0x74
 3174 10a9 00       		.sleb128 0
 3175 10aa 00       		.byte	0
 3176 10ab 3D       		.uleb128 0x3d
 3177 10ac 16000000 		.4byte	.LVL53
 3178 10b0 65120000 		.4byte	0x1265
 3179 10b4 3D       		.uleb128 0x3d
 3180 10b5 1C000000 		.4byte	.LVL54
ARM GAS  /tmp/cceu4JPd.s 			page 57


 3181 10b9 65120000 		.4byte	0x1265
 3182 10bd 27       		.uleb128 0x27
 3183 10be 2A000000 		.4byte	.LVL56
 3184 10c2 71120000 		.4byte	0x1271
 3185 10c6 28       		.uleb128 0x28
 3186 10c7 01       		.uleb128 0x1
 3187 10c8 50       		.byte	0x50
 3188 10c9 02       		.uleb128 0x2
 3189 10ca 08       		.byte	0x8
 3190 10cb 26       		.byte	0x26
 3191 10cc 00       		.byte	0
 3192 10cd 00       		.byte	0
 3193 10ce 35       		.uleb128 0x35
 3194 10cf 30090000 		.4byte	.LASF195
 3195 10d3 01       		.byte	0x1
 3196 10d4 E802     		.2byte	0x2e8
 3197 10d6 00000000 		.4byte	.LFB271
 3198 10da 34000000 		.4byte	.LFE271-.LFB271
 3199 10de 01       		.uleb128 0x1
 3200 10df 9C       		.byte	0x9c
 3201 10e0 11110000 		.4byte	0x1111
 3202 10e4 3E       		.uleb128 0x3e
 3203 10e5 DE060000 		.4byte	.LASF182
 3204 10e9 01       		.byte	0x1
 3205 10ea E802     		.2byte	0x2e8
 3206 10ec 530B0000 		.4byte	0xb53
 3207 10f0 01       		.uleb128 0x1
 3208 10f1 50       		.byte	0x50
 3209 10f2 3F       		.uleb128 0x3f
 3210 10f3 6E00     		.ascii	"n\000"
 3211 10f5 01       		.byte	0x1
 3212 10f6 E802     		.2byte	0x2e8
 3213 10f8 2C000000 		.4byte	0x2c
 3214 10fc A7020000 		.4byte	.LLST19
 3215 1100 24       		.uleb128 0x24
 3216 1101 AB020000 		.4byte	.LASF196
 3217 1105 01       		.byte	0x1
 3218 1106 E802     		.2byte	0x2e8
 3219 1108 11110000 		.4byte	0x1111
 3220 110c C8020000 		.4byte	.LLST20
 3221 1110 00       		.byte	0
 3222 1111 0A       		.uleb128 0xa
 3223 1112 04       		.byte	0x4
 3224 1113 17110000 		.4byte	0x1117
 3225 1117 40       		.uleb128 0x40
 3226 1118 41       		.uleb128 0x41
 3227 1119 B5040000 		.4byte	.LASF198
 3228 111d 01       		.byte	0x1
 3229 111e 0603     		.2byte	0x306
 3230 1120 2C000000 		.4byte	0x2c
 3231 1124 00000000 		.4byte	.LFB272
 3232 1128 20000000 		.4byte	.LFE272-.LFB272
 3233 112c 01       		.uleb128 0x1
 3234 112d 9C       		.byte	0x9c
 3235 112e 43110000 		.4byte	0x1143
 3236 1132 24       		.uleb128 0x24
 3237 1133 DE060000 		.4byte	.LASF182
ARM GAS  /tmp/cceu4JPd.s 			page 58


 3238 1137 01       		.byte	0x1
 3239 1138 0603     		.2byte	0x306
 3240 113a 530B0000 		.4byte	0xb53
 3241 113e E9020000 		.4byte	.LLST21
 3242 1142 00       		.byte	0
 3243 1143 35       		.uleb128 0x35
 3244 1144 D5050000 		.4byte	.LASF197
 3245 1148 01       		.byte	0x1
 3246 1149 1803     		.2byte	0x318
 3247 114b 00000000 		.4byte	.LFB273
 3248 114f 36000000 		.4byte	.LFE273-.LFB273
 3249 1153 01       		.uleb128 0x1
 3250 1154 9C       		.byte	0x9c
 3251 1155 82110000 		.4byte	0x1182
 3252 1159 3E       		.uleb128 0x3e
 3253 115a DE060000 		.4byte	.LASF182
 3254 115e 01       		.byte	0x1
 3255 115f 1803     		.2byte	0x318
 3256 1161 530B0000 		.4byte	0xb53
 3257 1165 01       		.uleb128 0x1
 3258 1166 50       		.byte	0x50
 3259 1167 42       		.uleb128 0x42
 3260 1168 6E00     		.ascii	"n\000"
 3261 116a 01       		.byte	0x1
 3262 116b 1803     		.2byte	0x318
 3263 116d 2C000000 		.4byte	0x2c
 3264 1171 01       		.uleb128 0x1
 3265 1172 51       		.byte	0x51
 3266 1173 3E       		.uleb128 0x3e
 3267 1174 F4050000 		.4byte	.LASF169
 3268 1178 01       		.byte	0x1
 3269 1179 1803     		.2byte	0x318
 3270 117b 3D030000 		.4byte	0x33d
 3271 117f 01       		.uleb128 0x1
 3272 1180 52       		.byte	0x52
 3273 1181 00       		.byte	0
 3274 1182 41       		.uleb128 0x41
 3275 1183 4B050000 		.4byte	.LASF199
 3276 1187 01       		.byte	0x1
 3277 1188 3203     		.2byte	0x332
 3278 118a 2C000000 		.4byte	0x2c
 3279 118e 00000000 		.4byte	.LFB274
 3280 1192 4A000000 		.4byte	.LFE274-.LFB274
 3281 1196 01       		.uleb128 0x1
 3282 1197 9C       		.byte	0x9c
 3283 1198 E2110000 		.4byte	0x11e2
 3284 119c 24       		.uleb128 0x24
 3285 119d DE060000 		.4byte	.LASF182
 3286 11a1 01       		.byte	0x1
 3287 11a2 3203     		.2byte	0x332
 3288 11a4 530B0000 		.4byte	0xb53
 3289 11a8 0A030000 		.4byte	.LLST22
 3290 11ac 43       		.uleb128 0x43
 3291 11ad 6E00     		.ascii	"n\000"
 3292 11af 01       		.byte	0x1
 3293 11b0 3303     		.2byte	0x333
 3294 11b2 2C000000 		.4byte	0x2c
ARM GAS  /tmp/cceu4JPd.s 			page 59


 3295 11b6 01       		.uleb128 0x1
 3296 11b7 50       		.byte	0x50
 3297 11b8 44       		.uleb128 0x44
 3298 11b9 330C0000 		.4byte	0xc33
 3299 11bd 16000000 		.4byte	.LBB70
 3300 11c1 80000000 		.4byte	.Ldebug_ranges0+0x80
 3301 11c5 01       		.byte	0x1
 3302 11c6 3703     		.2byte	0x337
 3303 11c8 2B       		.uleb128 0x2b
 3304 11c9 3F0C0000 		.4byte	0xc3f
 3305 11cd 36030000 		.4byte	.LLST23
 3306 11d1 2E       		.uleb128 0x2e
 3307 11d2 80000000 		.4byte	.Ldebug_ranges0+0x80
 3308 11d6 37       		.uleb128 0x37
 3309 11d7 4A0C0000 		.4byte	0xc4a
 3310 11db 56030000 		.4byte	.LLST24
 3311 11df 00       		.byte	0
 3312 11e0 00       		.byte	0
 3313 11e1 00       		.byte	0
 3314 11e2 45       		.uleb128 0x45
 3315 11e3 45060000 		.4byte	.LASF200
 3316 11e7 12       		.byte	0x12
 3317 11e8 A706     		.2byte	0x6a7
 3318 11ea F0000000 		.4byte	0xf0
 3319 11ee 46       		.uleb128 0x46
 3320 11ef 636800   		.ascii	"ch\000"
 3321 11f2 08       		.byte	0x8
 3322 11f3 0902     		.2byte	0x209
 3323 11f5 0C040000 		.4byte	0x40c
 3324 11f9 10       		.uleb128 0x10
 3325 11fa D9090000 		.4byte	0x9d9
 3326 11fe 09120000 		.4byte	0x1209
 3327 1202 11       		.uleb128 0x11
 3328 1203 73040000 		.4byte	0x473
 3329 1207 0F       		.byte	0xf
 3330 1208 00       		.byte	0
 3331 1209 45       		.uleb128 0x45
 3332 120a 2E050000 		.4byte	.LASF201
 3333 120e 0F       		.byte	0xf
 3334 120f BB01     		.2byte	0x1bb
 3335 1211 15120000 		.4byte	0x1215
 3336 1215 18       		.uleb128 0x18
 3337 1216 F9110000 		.4byte	0x11f9
 3338 121a 47       		.uleb128 0x47
 3339 121b D2090000 		.4byte	.LASF202
 3340 121f 01       		.byte	0x1
 3341 1220 64       		.byte	0x64
 3342 1221 A70A0000 		.4byte	0xaa7
 3343 1225 05       		.uleb128 0x5
 3344 1226 03       		.byte	0x3
 3345 1227 00000000 		.4byte	UARTD2
 3346 122b 48       		.uleb128 0x48
 3347 122c 16090000 		.4byte	.LASF203
 3348 1230 16090000 		.4byte	.LASF203
 3349 1234 13       		.byte	0x13
 3350 1235 1601     		.2byte	0x116
 3351 1237 48       		.uleb128 0x48
ARM GAS  /tmp/cceu4JPd.s 			page 60


 3352 1238 CB060000 		.4byte	.LASF204
 3353 123c CB060000 		.4byte	.LASF204
 3354 1240 0B       		.byte	0xb
 3355 1241 6601     		.2byte	0x166
 3356 1243 49       		.uleb128 0x49
 3357 1244 99050000 		.4byte	.LASF205
 3358 1248 99050000 		.4byte	.LASF205
 3359 124c 10       		.byte	0x10
 3360 124d 63       		.byte	0x63
 3361 124e 48       		.uleb128 0x48
 3362 124f 0E040000 		.4byte	.LASF206
 3363 1253 0E040000 		.4byte	.LASF206
 3364 1257 0F       		.byte	0xf
 3365 1258 C201     		.2byte	0x1c2
 3366 125a 49       		.uleb128 0x49
 3367 125b 73090000 		.4byte	.LASF207
 3368 125f 73090000 		.4byte	.LASF207
 3369 1263 14       		.byte	0x14
 3370 1264 4E       		.byte	0x4e
 3371 1265 48       		.uleb128 0x48
 3372 1266 7E000000 		.4byte	.LASF208
 3373 126a 7E000000 		.4byte	.LASF208
 3374 126e 0F       		.byte	0xf
 3375 126f C601     		.2byte	0x1c6
 3376 1271 49       		.uleb128 0x49
 3377 1272 26070000 		.4byte	.LASF209
 3378 1276 26070000 		.4byte	.LASF209
 3379 127a 14       		.byte	0x14
 3380 127b 4F       		.byte	0x4f
 3381 127c 00       		.byte	0
 3382              		.section	.debug_abbrev,"",%progbits
 3383              	.Ldebug_abbrev0:
 3384 0000 01       		.uleb128 0x1
 3385 0001 11       		.uleb128 0x11
 3386 0002 01       		.byte	0x1
 3387 0003 25       		.uleb128 0x25
 3388 0004 0E       		.uleb128 0xe
 3389 0005 13       		.uleb128 0x13
 3390 0006 0B       		.uleb128 0xb
 3391 0007 03       		.uleb128 0x3
 3392 0008 0E       		.uleb128 0xe
 3393 0009 1B       		.uleb128 0x1b
 3394 000a 0E       		.uleb128 0xe
 3395 000b 55       		.uleb128 0x55
 3396 000c 17       		.uleb128 0x17
 3397 000d 11       		.uleb128 0x11
 3398 000e 01       		.uleb128 0x1
 3399 000f 10       		.uleb128 0x10
 3400 0010 17       		.uleb128 0x17
 3401 0011 00       		.byte	0
 3402 0012 00       		.byte	0
 3403 0013 02       		.uleb128 0x2
 3404 0014 24       		.uleb128 0x24
 3405 0015 00       		.byte	0
 3406 0016 0B       		.uleb128 0xb
 3407 0017 0B       		.uleb128 0xb
 3408 0018 3E       		.uleb128 0x3e
ARM GAS  /tmp/cceu4JPd.s 			page 61


 3409 0019 0B       		.uleb128 0xb
 3410 001a 03       		.uleb128 0x3
 3411 001b 08       		.uleb128 0x8
 3412 001c 00       		.byte	0
 3413 001d 00       		.byte	0
 3414 001e 03       		.uleb128 0x3
 3415 001f 16       		.uleb128 0x16
 3416 0020 00       		.byte	0
 3417 0021 03       		.uleb128 0x3
 3418 0022 0E       		.uleb128 0xe
 3419 0023 3A       		.uleb128 0x3a
 3420 0024 0B       		.uleb128 0xb
 3421 0025 3B       		.uleb128 0x3b
 3422 0026 0B       		.uleb128 0xb
 3423 0027 49       		.uleb128 0x49
 3424 0028 13       		.uleb128 0x13
 3425 0029 00       		.byte	0
 3426 002a 00       		.byte	0
 3427 002b 04       		.uleb128 0x4
 3428 002c 24       		.uleb128 0x24
 3429 002d 00       		.byte	0
 3430 002e 0B       		.uleb128 0xb
 3431 002f 0B       		.uleb128 0xb
 3432 0030 3E       		.uleb128 0x3e
 3433 0031 0B       		.uleb128 0xb
 3434 0032 03       		.uleb128 0x3
 3435 0033 0E       		.uleb128 0xe
 3436 0034 00       		.byte	0
 3437 0035 00       		.byte	0
 3438 0036 05       		.uleb128 0x5
 3439 0037 35       		.uleb128 0x35
 3440 0038 00       		.byte	0
 3441 0039 49       		.uleb128 0x49
 3442 003a 13       		.uleb128 0x13
 3443 003b 00       		.byte	0
 3444 003c 00       		.byte	0
 3445 003d 06       		.uleb128 0x6
 3446 003e 13       		.uleb128 0x13
 3447 003f 01       		.byte	0x1
 3448 0040 03       		.uleb128 0x3
 3449 0041 0E       		.uleb128 0xe
 3450 0042 0B       		.uleb128 0xb
 3451 0043 0B       		.uleb128 0xb
 3452 0044 3A       		.uleb128 0x3a
 3453 0045 0B       		.uleb128 0xb
 3454 0046 3B       		.uleb128 0x3b
 3455 0047 0B       		.uleb128 0xb
 3456 0048 01       		.uleb128 0x1
 3457 0049 13       		.uleb128 0x13
 3458 004a 00       		.byte	0
 3459 004b 00       		.byte	0
 3460 004c 07       		.uleb128 0x7
 3461 004d 0D       		.uleb128 0xd
 3462 004e 00       		.byte	0
 3463 004f 03       		.uleb128 0x3
 3464 0050 0E       		.uleb128 0xe
 3465 0051 3A       		.uleb128 0x3a
ARM GAS  /tmp/cceu4JPd.s 			page 62


 3466 0052 0B       		.uleb128 0xb
 3467 0053 3B       		.uleb128 0x3b
 3468 0054 0B       		.uleb128 0xb
 3469 0055 49       		.uleb128 0x49
 3470 0056 13       		.uleb128 0x13
 3471 0057 38       		.uleb128 0x38
 3472 0058 0B       		.uleb128 0xb
 3473 0059 00       		.byte	0
 3474 005a 00       		.byte	0
 3475 005b 08       		.uleb128 0x8
 3476 005c 0D       		.uleb128 0xd
 3477 005d 00       		.byte	0
 3478 005e 03       		.uleb128 0x3
 3479 005f 08       		.uleb128 0x8
 3480 0060 3A       		.uleb128 0x3a
 3481 0061 0B       		.uleb128 0xb
 3482 0062 3B       		.uleb128 0x3b
 3483 0063 05       		.uleb128 0x5
 3484 0064 49       		.uleb128 0x49
 3485 0065 13       		.uleb128 0x13
 3486 0066 38       		.uleb128 0x38
 3487 0067 0B       		.uleb128 0xb
 3488 0068 00       		.byte	0
 3489 0069 00       		.byte	0
 3490 006a 09       		.uleb128 0x9
 3491 006b 0D       		.uleb128 0xd
 3492 006c 00       		.byte	0
 3493 006d 03       		.uleb128 0x3
 3494 006e 0E       		.uleb128 0xe
 3495 006f 3A       		.uleb128 0x3a
 3496 0070 0B       		.uleb128 0xb
 3497 0071 3B       		.uleb128 0x3b
 3498 0072 05       		.uleb128 0x5
 3499 0073 49       		.uleb128 0x49
 3500 0074 13       		.uleb128 0x13
 3501 0075 38       		.uleb128 0x38
 3502 0076 0B       		.uleb128 0xb
 3503 0077 00       		.byte	0
 3504 0078 00       		.byte	0
 3505 0079 0A       		.uleb128 0xa
 3506 007a 0F       		.uleb128 0xf
 3507 007b 00       		.byte	0
 3508 007c 0B       		.uleb128 0xb
 3509 007d 0B       		.uleb128 0xb
 3510 007e 49       		.uleb128 0x49
 3511 007f 13       		.uleb128 0x13
 3512 0080 00       		.byte	0
 3513 0081 00       		.byte	0
 3514 0082 0B       		.uleb128 0xb
 3515 0083 13       		.uleb128 0x13
 3516 0084 01       		.byte	0x1
 3517 0085 03       		.uleb128 0x3
 3518 0086 0E       		.uleb128 0xe
 3519 0087 0B       		.uleb128 0xb
 3520 0088 0B       		.uleb128 0xb
 3521 0089 3A       		.uleb128 0x3a
 3522 008a 0B       		.uleb128 0xb
ARM GAS  /tmp/cceu4JPd.s 			page 63


 3523 008b 3B       		.uleb128 0x3b
 3524 008c 05       		.uleb128 0x5
 3525 008d 01       		.uleb128 0x1
 3526 008e 13       		.uleb128 0x13
 3527 008f 00       		.byte	0
 3528 0090 00       		.byte	0
 3529 0091 0C       		.uleb128 0xc
 3530 0092 15       		.uleb128 0x15
 3531 0093 01       		.byte	0x1
 3532 0094 27       		.uleb128 0x27
 3533 0095 19       		.uleb128 0x19
 3534 0096 01       		.uleb128 0x1
 3535 0097 13       		.uleb128 0x13
 3536 0098 00       		.byte	0
 3537 0099 00       		.byte	0
 3538 009a 0D       		.uleb128 0xd
 3539 009b 05       		.uleb128 0x5
 3540 009c 00       		.byte	0
 3541 009d 49       		.uleb128 0x49
 3542 009e 13       		.uleb128 0x13
 3543 009f 00       		.byte	0
 3544 00a0 00       		.byte	0
 3545 00a1 0E       		.uleb128 0xe
 3546 00a2 0F       		.uleb128 0xf
 3547 00a3 00       		.byte	0
 3548 00a4 0B       		.uleb128 0xb
 3549 00a5 0B       		.uleb128 0xb
 3550 00a6 00       		.byte	0
 3551 00a7 00       		.byte	0
 3552 00a8 0F       		.uleb128 0xf
 3553 00a9 13       		.uleb128 0x13
 3554 00aa 01       		.byte	0x1
 3555 00ab 03       		.uleb128 0x3
 3556 00ac 0E       		.uleb128 0xe
 3557 00ad 0B       		.uleb128 0xb
 3558 00ae 05       		.uleb128 0x5
 3559 00af 3A       		.uleb128 0x3a
 3560 00b0 0B       		.uleb128 0xb
 3561 00b1 3B       		.uleb128 0x3b
 3562 00b2 05       		.uleb128 0x5
 3563 00b3 01       		.uleb128 0x1
 3564 00b4 13       		.uleb128 0x13
 3565 00b5 00       		.byte	0
 3566 00b6 00       		.byte	0
 3567 00b7 10       		.uleb128 0x10
 3568 00b8 01       		.uleb128 0x1
 3569 00b9 01       		.byte	0x1
 3570 00ba 49       		.uleb128 0x49
 3571 00bb 13       		.uleb128 0x13
 3572 00bc 01       		.uleb128 0x1
 3573 00bd 13       		.uleb128 0x13
 3574 00be 00       		.byte	0
 3575 00bf 00       		.byte	0
 3576 00c0 11       		.uleb128 0x11
 3577 00c1 21       		.uleb128 0x21
 3578 00c2 00       		.byte	0
 3579 00c3 49       		.uleb128 0x49
ARM GAS  /tmp/cceu4JPd.s 			page 64


 3580 00c4 13       		.uleb128 0x13
 3581 00c5 2F       		.uleb128 0x2f
 3582 00c6 0B       		.uleb128 0xb
 3583 00c7 00       		.byte	0
 3584 00c8 00       		.byte	0
 3585 00c9 12       		.uleb128 0x12
 3586 00ca 13       		.uleb128 0x13
 3587 00cb 01       		.byte	0x1
 3588 00cc 0B       		.uleb128 0xb
 3589 00cd 0B       		.uleb128 0xb
 3590 00ce 3A       		.uleb128 0x3a
 3591 00cf 0B       		.uleb128 0xb
 3592 00d0 3B       		.uleb128 0x3b
 3593 00d1 0B       		.uleb128 0xb
 3594 00d2 01       		.uleb128 0x1
 3595 00d3 13       		.uleb128 0x13
 3596 00d4 00       		.byte	0
 3597 00d5 00       		.byte	0
 3598 00d6 13       		.uleb128 0x13
 3599 00d7 0D       		.uleb128 0xd
 3600 00d8 00       		.byte	0
 3601 00d9 03       		.uleb128 0x3
 3602 00da 08       		.uleb128 0x8
 3603 00db 3A       		.uleb128 0x3a
 3604 00dc 0B       		.uleb128 0xb
 3605 00dd 3B       		.uleb128 0x3b
 3606 00de 0B       		.uleb128 0xb
 3607 00df 49       		.uleb128 0x49
 3608 00e0 13       		.uleb128 0x13
 3609 00e1 38       		.uleb128 0x38
 3610 00e2 0B       		.uleb128 0xb
 3611 00e3 00       		.byte	0
 3612 00e4 00       		.byte	0
 3613 00e5 14       		.uleb128 0x14
 3614 00e6 13       		.uleb128 0x13
 3615 00e7 01       		.byte	0x1
 3616 00e8 0B       		.uleb128 0xb
 3617 00e9 0B       		.uleb128 0xb
 3618 00ea 3A       		.uleb128 0x3a
 3619 00eb 0B       		.uleb128 0xb
 3620 00ec 3B       		.uleb128 0x3b
 3621 00ed 05       		.uleb128 0x5
 3622 00ee 01       		.uleb128 0x1
 3623 00ef 13       		.uleb128 0x13
 3624 00f0 00       		.byte	0
 3625 00f1 00       		.byte	0
 3626 00f2 15       		.uleb128 0x15
 3627 00f3 16       		.uleb128 0x16
 3628 00f4 00       		.byte	0
 3629 00f5 03       		.uleb128 0x3
 3630 00f6 0E       		.uleb128 0xe
 3631 00f7 3A       		.uleb128 0x3a
 3632 00f8 0B       		.uleb128 0xb
 3633 00f9 3B       		.uleb128 0x3b
 3634 00fa 05       		.uleb128 0x5
 3635 00fb 49       		.uleb128 0x49
 3636 00fc 13       		.uleb128 0x13
ARM GAS  /tmp/cceu4JPd.s 			page 65


 3637 00fd 00       		.byte	0
 3638 00fe 00       		.byte	0
 3639 00ff 16       		.uleb128 0x16
 3640 0100 17       		.uleb128 0x17
 3641 0101 01       		.byte	0x1
 3642 0102 0B       		.uleb128 0xb
 3643 0103 0B       		.uleb128 0xb
 3644 0104 3A       		.uleb128 0x3a
 3645 0105 0B       		.uleb128 0xb
 3646 0106 3B       		.uleb128 0x3b
 3647 0107 0B       		.uleb128 0xb
 3648 0108 01       		.uleb128 0x1
 3649 0109 13       		.uleb128 0x13
 3650 010a 00       		.byte	0
 3651 010b 00       		.byte	0
 3652 010c 17       		.uleb128 0x17
 3653 010d 0D       		.uleb128 0xd
 3654 010e 00       		.byte	0
 3655 010f 03       		.uleb128 0x3
 3656 0110 0E       		.uleb128 0xe
 3657 0111 3A       		.uleb128 0x3a
 3658 0112 0B       		.uleb128 0xb
 3659 0113 3B       		.uleb128 0x3b
 3660 0114 05       		.uleb128 0x5
 3661 0115 49       		.uleb128 0x49
 3662 0116 13       		.uleb128 0x13
 3663 0117 00       		.byte	0
 3664 0118 00       		.byte	0
 3665 0119 18       		.uleb128 0x18
 3666 011a 26       		.uleb128 0x26
 3667 011b 00       		.byte	0
 3668 011c 49       		.uleb128 0x49
 3669 011d 13       		.uleb128 0x13
 3670 011e 00       		.byte	0
 3671 011f 00       		.byte	0
 3672 0120 19       		.uleb128 0x19
 3673 0121 04       		.uleb128 0x4
 3674 0122 01       		.byte	0x1
 3675 0123 0B       		.uleb128 0xb
 3676 0124 0B       		.uleb128 0xb
 3677 0125 49       		.uleb128 0x49
 3678 0126 13       		.uleb128 0x13
 3679 0127 3A       		.uleb128 0x3a
 3680 0128 0B       		.uleb128 0xb
 3681 0129 3B       		.uleb128 0x3b
 3682 012a 0B       		.uleb128 0xb
 3683 012b 01       		.uleb128 0x1
 3684 012c 13       		.uleb128 0x13
 3685 012d 00       		.byte	0
 3686 012e 00       		.byte	0
 3687 012f 1A       		.uleb128 0x1a
 3688 0130 28       		.uleb128 0x28
 3689 0131 00       		.byte	0
 3690 0132 03       		.uleb128 0x3
 3691 0133 0E       		.uleb128 0xe
 3692 0134 1C       		.uleb128 0x1c
 3693 0135 0B       		.uleb128 0xb
ARM GAS  /tmp/cceu4JPd.s 			page 66


 3694 0136 00       		.byte	0
 3695 0137 00       		.byte	0
 3696 0138 1B       		.uleb128 0x1b
 3697 0139 2E       		.uleb128 0x2e
 3698 013a 01       		.byte	0x1
 3699 013b 03       		.uleb128 0x3
 3700 013c 0E       		.uleb128 0xe
 3701 013d 3A       		.uleb128 0x3a
 3702 013e 0B       		.uleb128 0xb
 3703 013f 3B       		.uleb128 0x3b
 3704 0140 0B       		.uleb128 0xb
 3705 0141 27       		.uleb128 0x27
 3706 0142 19       		.uleb128 0x19
 3707 0143 20       		.uleb128 0x20
 3708 0144 0B       		.uleb128 0xb
 3709 0145 01       		.uleb128 0x1
 3710 0146 13       		.uleb128 0x13
 3711 0147 00       		.byte	0
 3712 0148 00       		.byte	0
 3713 0149 1C       		.uleb128 0x1c
 3714 014a 05       		.uleb128 0x5
 3715 014b 00       		.byte	0
 3716 014c 03       		.uleb128 0x3
 3717 014d 0E       		.uleb128 0xe
 3718 014e 3A       		.uleb128 0x3a
 3719 014f 0B       		.uleb128 0xb
 3720 0150 3B       		.uleb128 0x3b
 3721 0151 0B       		.uleb128 0xb
 3722 0152 49       		.uleb128 0x49
 3723 0153 13       		.uleb128 0x13
 3724 0154 00       		.byte	0
 3725 0155 00       		.byte	0
 3726 0156 1D       		.uleb128 0x1d
 3727 0157 34       		.uleb128 0x34
 3728 0158 00       		.byte	0
 3729 0159 03       		.uleb128 0x3
 3730 015a 0E       		.uleb128 0xe
 3731 015b 3A       		.uleb128 0x3a
 3732 015c 0B       		.uleb128 0xb
 3733 015d 3B       		.uleb128 0x3b
 3734 015e 0B       		.uleb128 0xb
 3735 015f 49       		.uleb128 0x49
 3736 0160 13       		.uleb128 0x13
 3737 0161 00       		.byte	0
 3738 0162 00       		.byte	0
 3739 0163 1E       		.uleb128 0x1e
 3740 0164 2E       		.uleb128 0x2e
 3741 0165 01       		.byte	0x1
 3742 0166 03       		.uleb128 0x3
 3743 0167 0E       		.uleb128 0xe
 3744 0168 3A       		.uleb128 0x3a
 3745 0169 0B       		.uleb128 0xb
 3746 016a 3B       		.uleb128 0x3b
 3747 016b 05       		.uleb128 0x5
 3748 016c 27       		.uleb128 0x27
 3749 016d 19       		.uleb128 0x19
 3750 016e 20       		.uleb128 0x20
ARM GAS  /tmp/cceu4JPd.s 			page 67


 3751 016f 0B       		.uleb128 0xb
 3752 0170 01       		.uleb128 0x1
 3753 0171 13       		.uleb128 0x13
 3754 0172 00       		.byte	0
 3755 0173 00       		.byte	0
 3756 0174 1F       		.uleb128 0x1f
 3757 0175 05       		.uleb128 0x5
 3758 0176 00       		.byte	0
 3759 0177 03       		.uleb128 0x3
 3760 0178 0E       		.uleb128 0xe
 3761 0179 3A       		.uleb128 0x3a
 3762 017a 0B       		.uleb128 0xb
 3763 017b 3B       		.uleb128 0x3b
 3764 017c 05       		.uleb128 0x5
 3765 017d 49       		.uleb128 0x49
 3766 017e 13       		.uleb128 0x13
 3767 017f 00       		.byte	0
 3768 0180 00       		.byte	0
 3769 0181 20       		.uleb128 0x20
 3770 0182 34       		.uleb128 0x34
 3771 0183 00       		.byte	0
 3772 0184 03       		.uleb128 0x3
 3773 0185 08       		.uleb128 0x8
 3774 0186 3A       		.uleb128 0x3a
 3775 0187 0B       		.uleb128 0xb
 3776 0188 3B       		.uleb128 0x3b
 3777 0189 05       		.uleb128 0x5
 3778 018a 49       		.uleb128 0x49
 3779 018b 13       		.uleb128 0x13
 3780 018c 00       		.byte	0
 3781 018d 00       		.byte	0
 3782 018e 21       		.uleb128 0x21
 3783 018f 2E       		.uleb128 0x2e
 3784 0190 01       		.byte	0x1
 3785 0191 03       		.uleb128 0x3
 3786 0192 0E       		.uleb128 0xe
 3787 0193 3A       		.uleb128 0x3a
 3788 0194 0B       		.uleb128 0xb
 3789 0195 3B       		.uleb128 0x3b
 3790 0196 0B       		.uleb128 0xb
 3791 0197 27       		.uleb128 0x27
 3792 0198 19       		.uleb128 0x19
 3793 0199 11       		.uleb128 0x11
 3794 019a 01       		.uleb128 0x1
 3795 019b 12       		.uleb128 0x12
 3796 019c 06       		.uleb128 0x6
 3797 019d 40       		.uleb128 0x40
 3798 019e 18       		.uleb128 0x18
 3799 019f 9742     		.uleb128 0x2117
 3800 01a1 19       		.uleb128 0x19
 3801 01a2 01       		.uleb128 0x1
 3802 01a3 13       		.uleb128 0x13
 3803 01a4 00       		.byte	0
 3804 01a5 00       		.byte	0
 3805 01a6 22       		.uleb128 0x22
 3806 01a7 05       		.uleb128 0x5
 3807 01a8 00       		.byte	0
ARM GAS  /tmp/cceu4JPd.s 			page 68


 3808 01a9 03       		.uleb128 0x3
 3809 01aa 0E       		.uleb128 0xe
 3810 01ab 3A       		.uleb128 0x3a
 3811 01ac 0B       		.uleb128 0xb
 3812 01ad 3B       		.uleb128 0x3b
 3813 01ae 0B       		.uleb128 0xb
 3814 01af 49       		.uleb128 0x49
 3815 01b0 13       		.uleb128 0x13
 3816 01b1 02       		.uleb128 0x2
 3817 01b2 17       		.uleb128 0x17
 3818 01b3 00       		.byte	0
 3819 01b4 00       		.byte	0
 3820 01b5 23       		.uleb128 0x23
 3821 01b6 2E       		.uleb128 0x2e
 3822 01b7 01       		.byte	0x1
 3823 01b8 03       		.uleb128 0x3
 3824 01b9 0E       		.uleb128 0xe
 3825 01ba 3A       		.uleb128 0x3a
 3826 01bb 0B       		.uleb128 0xb
 3827 01bc 3B       		.uleb128 0x3b
 3828 01bd 05       		.uleb128 0x5
 3829 01be 27       		.uleb128 0x27
 3830 01bf 19       		.uleb128 0x19
 3831 01c0 11       		.uleb128 0x11
 3832 01c1 01       		.uleb128 0x1
 3833 01c2 12       		.uleb128 0x12
 3834 01c3 06       		.uleb128 0x6
 3835 01c4 40       		.uleb128 0x40
 3836 01c5 18       		.uleb128 0x18
 3837 01c6 9742     		.uleb128 0x2117
 3838 01c8 19       		.uleb128 0x19
 3839 01c9 01       		.uleb128 0x1
 3840 01ca 13       		.uleb128 0x13
 3841 01cb 00       		.byte	0
 3842 01cc 00       		.byte	0
 3843 01cd 24       		.uleb128 0x24
 3844 01ce 05       		.uleb128 0x5
 3845 01cf 00       		.byte	0
 3846 01d0 03       		.uleb128 0x3
 3847 01d1 0E       		.uleb128 0xe
 3848 01d2 3A       		.uleb128 0x3a
 3849 01d3 0B       		.uleb128 0xb
 3850 01d4 3B       		.uleb128 0x3b
 3851 01d5 05       		.uleb128 0x5
 3852 01d6 49       		.uleb128 0x49
 3853 01d7 13       		.uleb128 0x13
 3854 01d8 02       		.uleb128 0x2
 3855 01d9 17       		.uleb128 0x17
 3856 01da 00       		.byte	0
 3857 01db 00       		.byte	0
 3858 01dc 25       		.uleb128 0x25
 3859 01dd 1D       		.uleb128 0x1d
 3860 01de 01       		.byte	0x1
 3861 01df 31       		.uleb128 0x31
 3862 01e0 13       		.uleb128 0x13
 3863 01e1 11       		.uleb128 0x11
 3864 01e2 01       		.uleb128 0x1
ARM GAS  /tmp/cceu4JPd.s 			page 69


 3865 01e3 12       		.uleb128 0x12
 3866 01e4 06       		.uleb128 0x6
 3867 01e5 58       		.uleb128 0x58
 3868 01e6 0B       		.uleb128 0xb
 3869 01e7 59       		.uleb128 0x59
 3870 01e8 05       		.uleb128 0x5
 3871 01e9 01       		.uleb128 0x1
 3872 01ea 13       		.uleb128 0x13
 3873 01eb 00       		.byte	0
 3874 01ec 00       		.byte	0
 3875 01ed 26       		.uleb128 0x26
 3876 01ee 05       		.uleb128 0x5
 3877 01ef 00       		.byte	0
 3878 01f0 31       		.uleb128 0x31
 3879 01f1 13       		.uleb128 0x13
 3880 01f2 02       		.uleb128 0x2
 3881 01f3 18       		.uleb128 0x18
 3882 01f4 00       		.byte	0
 3883 01f5 00       		.byte	0
 3884 01f6 27       		.uleb128 0x27
 3885 01f7 898201   		.uleb128 0x4109
 3886 01fa 01       		.byte	0x1
 3887 01fb 11       		.uleb128 0x11
 3888 01fc 01       		.uleb128 0x1
 3889 01fd 31       		.uleb128 0x31
 3890 01fe 13       		.uleb128 0x13
 3891 01ff 00       		.byte	0
 3892 0200 00       		.byte	0
 3893 0201 28       		.uleb128 0x28
 3894 0202 8A8201   		.uleb128 0x410a
 3895 0205 00       		.byte	0
 3896 0206 02       		.uleb128 0x2
 3897 0207 18       		.uleb128 0x18
 3898 0208 9142     		.uleb128 0x2111
 3899 020a 18       		.uleb128 0x18
 3900 020b 00       		.byte	0
 3901 020c 00       		.byte	0
 3902 020d 29       		.uleb128 0x29
 3903 020e 898201   		.uleb128 0x4109
 3904 0211 01       		.byte	0x1
 3905 0212 11       		.uleb128 0x11
 3906 0213 01       		.uleb128 0x1
 3907 0214 00       		.byte	0
 3908 0215 00       		.byte	0
 3909 0216 2A       		.uleb128 0x2a
 3910 0217 2E       		.uleb128 0x2e
 3911 0218 01       		.byte	0x1
 3912 0219 31       		.uleb128 0x31
 3913 021a 13       		.uleb128 0x13
 3914 021b 11       		.uleb128 0x11
 3915 021c 01       		.uleb128 0x1
 3916 021d 12       		.uleb128 0x12
 3917 021e 06       		.uleb128 0x6
 3918 021f 40       		.uleb128 0x40
 3919 0220 18       		.uleb128 0x18
 3920 0221 9742     		.uleb128 0x2117
 3921 0223 19       		.uleb128 0x19
ARM GAS  /tmp/cceu4JPd.s 			page 70


 3922 0224 01       		.uleb128 0x1
 3923 0225 13       		.uleb128 0x13
 3924 0226 00       		.byte	0
 3925 0227 00       		.byte	0
 3926 0228 2B       		.uleb128 0x2b
 3927 0229 05       		.uleb128 0x5
 3928 022a 00       		.byte	0
 3929 022b 31       		.uleb128 0x31
 3930 022c 13       		.uleb128 0x13
 3931 022d 02       		.uleb128 0x2
 3932 022e 17       		.uleb128 0x17
 3933 022f 00       		.byte	0
 3934 0230 00       		.byte	0
 3935 0231 2C       		.uleb128 0x2c
 3936 0232 0B       		.uleb128 0xb
 3937 0233 01       		.byte	0x1
 3938 0234 11       		.uleb128 0x11
 3939 0235 01       		.uleb128 0x1
 3940 0236 12       		.uleb128 0x12
 3941 0237 06       		.uleb128 0x6
 3942 0238 01       		.uleb128 0x1
 3943 0239 13       		.uleb128 0x13
 3944 023a 00       		.byte	0
 3945 023b 00       		.byte	0
 3946 023c 2D       		.uleb128 0x2d
 3947 023d 1D       		.uleb128 0x1d
 3948 023e 01       		.byte	0x1
 3949 023f 31       		.uleb128 0x31
 3950 0240 13       		.uleb128 0x13
 3951 0241 52       		.uleb128 0x52
 3952 0242 01       		.uleb128 0x1
 3953 0243 55       		.uleb128 0x55
 3954 0244 17       		.uleb128 0x17
 3955 0245 58       		.uleb128 0x58
 3956 0246 0B       		.uleb128 0xb
 3957 0247 59       		.uleb128 0x59
 3958 0248 05       		.uleb128 0x5
 3959 0249 01       		.uleb128 0x1
 3960 024a 13       		.uleb128 0x13
 3961 024b 00       		.byte	0
 3962 024c 00       		.byte	0
 3963 024d 2E       		.uleb128 0x2e
 3964 024e 0B       		.uleb128 0xb
 3965 024f 01       		.byte	0x1
 3966 0250 55       		.uleb128 0x55
 3967 0251 17       		.uleb128 0x17
 3968 0252 00       		.byte	0
 3969 0253 00       		.byte	0
 3970 0254 2F       		.uleb128 0x2f
 3971 0255 34       		.uleb128 0x34
 3972 0256 00       		.byte	0
 3973 0257 31       		.uleb128 0x31
 3974 0258 13       		.uleb128 0x13
 3975 0259 00       		.byte	0
 3976 025a 00       		.byte	0
 3977 025b 30       		.uleb128 0x30
 3978 025c 1D       		.uleb128 0x1d
ARM GAS  /tmp/cceu4JPd.s 			page 71


 3979 025d 01       		.byte	0x1
 3980 025e 31       		.uleb128 0x31
 3981 025f 13       		.uleb128 0x13
 3982 0260 11       		.uleb128 0x11
 3983 0261 01       		.uleb128 0x1
 3984 0262 12       		.uleb128 0x12
 3985 0263 06       		.uleb128 0x6
 3986 0264 58       		.uleb128 0x58
 3987 0265 0B       		.uleb128 0xb
 3988 0266 59       		.uleb128 0x59
 3989 0267 0B       		.uleb128 0xb
 3990 0268 01       		.uleb128 0x1
 3991 0269 13       		.uleb128 0x13
 3992 026a 00       		.byte	0
 3993 026b 00       		.byte	0
 3994 026c 31       		.uleb128 0x31
 3995 026d 898201   		.uleb128 0x4109
 3996 0270 01       		.byte	0x1
 3997 0271 11       		.uleb128 0x11
 3998 0272 01       		.uleb128 0x1
 3999 0273 9542     		.uleb128 0x2115
 4000 0275 19       		.uleb128 0x19
 4001 0276 00       		.byte	0
 4002 0277 00       		.byte	0
 4003 0278 32       		.uleb128 0x32
 4004 0279 2E       		.uleb128 0x2e
 4005 027a 01       		.byte	0x1
 4006 027b 03       		.uleb128 0x3
 4007 027c 0E       		.uleb128 0xe
 4008 027d 3A       		.uleb128 0x3a
 4009 027e 0B       		.uleb128 0xb
 4010 027f 3B       		.uleb128 0x3b
 4011 0280 0B       		.uleb128 0xb
 4012 0281 27       		.uleb128 0x27
 4013 0282 19       		.uleb128 0x19
 4014 0283 49       		.uleb128 0x49
 4015 0284 13       		.uleb128 0x13
 4016 0285 20       		.uleb128 0x20
 4017 0286 0B       		.uleb128 0xb
 4018 0287 01       		.uleb128 0x1
 4019 0288 13       		.uleb128 0x13
 4020 0289 00       		.byte	0
 4021 028a 00       		.byte	0
 4022 028b 33       		.uleb128 0x33
 4023 028c 05       		.uleb128 0x5
 4024 028d 00       		.byte	0
 4025 028e 03       		.uleb128 0x3
 4026 028f 08       		.uleb128 0x8
 4027 0290 3A       		.uleb128 0x3a
 4028 0291 0B       		.uleb128 0xb
 4029 0292 3B       		.uleb128 0x3b
 4030 0293 0B       		.uleb128 0xb
 4031 0294 49       		.uleb128 0x49
 4032 0295 13       		.uleb128 0x13
 4033 0296 00       		.byte	0
 4034 0297 00       		.byte	0
 4035 0298 34       		.uleb128 0x34
ARM GAS  /tmp/cceu4JPd.s 			page 72


 4036 0299 34       		.uleb128 0x34
 4037 029a 00       		.byte	0
 4038 029b 03       		.uleb128 0x3
 4039 029c 08       		.uleb128 0x8
 4040 029d 3A       		.uleb128 0x3a
 4041 029e 0B       		.uleb128 0xb
 4042 029f 3B       		.uleb128 0x3b
 4043 02a0 0B       		.uleb128 0xb
 4044 02a1 49       		.uleb128 0x49
 4045 02a2 13       		.uleb128 0x13
 4046 02a3 00       		.byte	0
 4047 02a4 00       		.byte	0
 4048 02a5 35       		.uleb128 0x35
 4049 02a6 2E       		.uleb128 0x2e
 4050 02a7 01       		.byte	0x1
 4051 02a8 3F       		.uleb128 0x3f
 4052 02a9 19       		.uleb128 0x19
 4053 02aa 03       		.uleb128 0x3
 4054 02ab 0E       		.uleb128 0xe
 4055 02ac 3A       		.uleb128 0x3a
 4056 02ad 0B       		.uleb128 0xb
 4057 02ae 3B       		.uleb128 0x3b
 4058 02af 05       		.uleb128 0x5
 4059 02b0 27       		.uleb128 0x27
 4060 02b1 19       		.uleb128 0x19
 4061 02b2 11       		.uleb128 0x11
 4062 02b3 01       		.uleb128 0x1
 4063 02b4 12       		.uleb128 0x12
 4064 02b5 06       		.uleb128 0x6
 4065 02b6 40       		.uleb128 0x40
 4066 02b7 18       		.uleb128 0x18
 4067 02b8 9742     		.uleb128 0x2117
 4068 02ba 19       		.uleb128 0x19
 4069 02bb 01       		.uleb128 0x1
 4070 02bc 13       		.uleb128 0x13
 4071 02bd 00       		.byte	0
 4072 02be 00       		.byte	0
 4073 02bf 36       		.uleb128 0x36
 4074 02c0 0B       		.uleb128 0xb
 4075 02c1 01       		.byte	0x1
 4076 02c2 11       		.uleb128 0x11
 4077 02c3 01       		.uleb128 0x1
 4078 02c4 12       		.uleb128 0x12
 4079 02c5 06       		.uleb128 0x6
 4080 02c6 00       		.byte	0
 4081 02c7 00       		.byte	0
 4082 02c8 37       		.uleb128 0x37
 4083 02c9 34       		.uleb128 0x34
 4084 02ca 00       		.byte	0
 4085 02cb 31       		.uleb128 0x31
 4086 02cc 13       		.uleb128 0x13
 4087 02cd 02       		.uleb128 0x2
 4088 02ce 17       		.uleb128 0x17
 4089 02cf 00       		.byte	0
 4090 02d0 00       		.byte	0
 4091 02d1 38       		.uleb128 0x38
 4092 02d2 898201   		.uleb128 0x4109
ARM GAS  /tmp/cceu4JPd.s 			page 73


 4093 02d5 01       		.byte	0x1
 4094 02d6 11       		.uleb128 0x11
 4095 02d7 01       		.uleb128 0x1
 4096 02d8 01       		.uleb128 0x1
 4097 02d9 13       		.uleb128 0x13
 4098 02da 00       		.byte	0
 4099 02db 00       		.byte	0
 4100 02dc 39       		.uleb128 0x39
 4101 02dd 898201   		.uleb128 0x4109
 4102 02e0 00       		.byte	0
 4103 02e1 11       		.uleb128 0x11
 4104 02e2 01       		.uleb128 0x1
 4105 02e3 9542     		.uleb128 0x2115
 4106 02e5 19       		.uleb128 0x19
 4107 02e6 31       		.uleb128 0x31
 4108 02e7 13       		.uleb128 0x13
 4109 02e8 00       		.byte	0
 4110 02e9 00       		.byte	0
 4111 02ea 3A       		.uleb128 0x3a
 4112 02eb 34       		.uleb128 0x34
 4113 02ec 00       		.byte	0
 4114 02ed 03       		.uleb128 0x3
 4115 02ee 0E       		.uleb128 0xe
 4116 02ef 49       		.uleb128 0x49
 4117 02f0 13       		.uleb128 0x13
 4118 02f1 34       		.uleb128 0x34
 4119 02f2 19       		.uleb128 0x19
 4120 02f3 00       		.byte	0
 4121 02f4 00       		.byte	0
 4122 02f5 3B       		.uleb128 0x3b
 4123 02f6 1D       		.uleb128 0x1d
 4124 02f7 01       		.byte	0x1
 4125 02f8 31       		.uleb128 0x31
 4126 02f9 13       		.uleb128 0x13
 4127 02fa 52       		.uleb128 0x52
 4128 02fb 01       		.uleb128 0x1
 4129 02fc 55       		.uleb128 0x55
 4130 02fd 17       		.uleb128 0x17
 4131 02fe 58       		.uleb128 0x58
 4132 02ff 0B       		.uleb128 0xb
 4133 0300 59       		.uleb128 0x59
 4134 0301 0B       		.uleb128 0xb
 4135 0302 01       		.uleb128 0x1
 4136 0303 13       		.uleb128 0x13
 4137 0304 00       		.byte	0
 4138 0305 00       		.byte	0
 4139 0306 3C       		.uleb128 0x3c
 4140 0307 898201   		.uleb128 0x4109
 4141 030a 01       		.byte	0x1
 4142 030b 11       		.uleb128 0x11
 4143 030c 01       		.uleb128 0x1
 4144 030d 31       		.uleb128 0x31
 4145 030e 13       		.uleb128 0x13
 4146 030f 01       		.uleb128 0x1
 4147 0310 13       		.uleb128 0x13
 4148 0311 00       		.byte	0
 4149 0312 00       		.byte	0
ARM GAS  /tmp/cceu4JPd.s 			page 74


 4150 0313 3D       		.uleb128 0x3d
 4151 0314 898201   		.uleb128 0x4109
 4152 0317 00       		.byte	0
 4153 0318 11       		.uleb128 0x11
 4154 0319 01       		.uleb128 0x1
 4155 031a 31       		.uleb128 0x31
 4156 031b 13       		.uleb128 0x13
 4157 031c 00       		.byte	0
 4158 031d 00       		.byte	0
 4159 031e 3E       		.uleb128 0x3e
 4160 031f 05       		.uleb128 0x5
 4161 0320 00       		.byte	0
 4162 0321 03       		.uleb128 0x3
 4163 0322 0E       		.uleb128 0xe
 4164 0323 3A       		.uleb128 0x3a
 4165 0324 0B       		.uleb128 0xb
 4166 0325 3B       		.uleb128 0x3b
 4167 0326 05       		.uleb128 0x5
 4168 0327 49       		.uleb128 0x49
 4169 0328 13       		.uleb128 0x13
 4170 0329 02       		.uleb128 0x2
 4171 032a 18       		.uleb128 0x18
 4172 032b 00       		.byte	0
 4173 032c 00       		.byte	0
 4174 032d 3F       		.uleb128 0x3f
 4175 032e 05       		.uleb128 0x5
 4176 032f 00       		.byte	0
 4177 0330 03       		.uleb128 0x3
 4178 0331 08       		.uleb128 0x8
 4179 0332 3A       		.uleb128 0x3a
 4180 0333 0B       		.uleb128 0xb
 4181 0334 3B       		.uleb128 0x3b
 4182 0335 05       		.uleb128 0x5
 4183 0336 49       		.uleb128 0x49
 4184 0337 13       		.uleb128 0x13
 4185 0338 02       		.uleb128 0x2
 4186 0339 17       		.uleb128 0x17
 4187 033a 00       		.byte	0
 4188 033b 00       		.byte	0
 4189 033c 40       		.uleb128 0x40
 4190 033d 26       		.uleb128 0x26
 4191 033e 00       		.byte	0
 4192 033f 00       		.byte	0
 4193 0340 00       		.byte	0
 4194 0341 41       		.uleb128 0x41
 4195 0342 2E       		.uleb128 0x2e
 4196 0343 01       		.byte	0x1
 4197 0344 3F       		.uleb128 0x3f
 4198 0345 19       		.uleb128 0x19
 4199 0346 03       		.uleb128 0x3
 4200 0347 0E       		.uleb128 0xe
 4201 0348 3A       		.uleb128 0x3a
 4202 0349 0B       		.uleb128 0xb
 4203 034a 3B       		.uleb128 0x3b
 4204 034b 05       		.uleb128 0x5
 4205 034c 27       		.uleb128 0x27
 4206 034d 19       		.uleb128 0x19
ARM GAS  /tmp/cceu4JPd.s 			page 75


 4207 034e 49       		.uleb128 0x49
 4208 034f 13       		.uleb128 0x13
 4209 0350 11       		.uleb128 0x11
 4210 0351 01       		.uleb128 0x1
 4211 0352 12       		.uleb128 0x12
 4212 0353 06       		.uleb128 0x6
 4213 0354 40       		.uleb128 0x40
 4214 0355 18       		.uleb128 0x18
 4215 0356 9742     		.uleb128 0x2117
 4216 0358 19       		.uleb128 0x19
 4217 0359 01       		.uleb128 0x1
 4218 035a 13       		.uleb128 0x13
 4219 035b 00       		.byte	0
 4220 035c 00       		.byte	0
 4221 035d 42       		.uleb128 0x42
 4222 035e 05       		.uleb128 0x5
 4223 035f 00       		.byte	0
 4224 0360 03       		.uleb128 0x3
 4225 0361 08       		.uleb128 0x8
 4226 0362 3A       		.uleb128 0x3a
 4227 0363 0B       		.uleb128 0xb
 4228 0364 3B       		.uleb128 0x3b
 4229 0365 05       		.uleb128 0x5
 4230 0366 49       		.uleb128 0x49
 4231 0367 13       		.uleb128 0x13
 4232 0368 02       		.uleb128 0x2
 4233 0369 18       		.uleb128 0x18
 4234 036a 00       		.byte	0
 4235 036b 00       		.byte	0
 4236 036c 43       		.uleb128 0x43
 4237 036d 34       		.uleb128 0x34
 4238 036e 00       		.byte	0
 4239 036f 03       		.uleb128 0x3
 4240 0370 08       		.uleb128 0x8
 4241 0371 3A       		.uleb128 0x3a
 4242 0372 0B       		.uleb128 0xb
 4243 0373 3B       		.uleb128 0x3b
 4244 0374 05       		.uleb128 0x5
 4245 0375 49       		.uleb128 0x49
 4246 0376 13       		.uleb128 0x13
 4247 0377 02       		.uleb128 0x2
 4248 0378 18       		.uleb128 0x18
 4249 0379 00       		.byte	0
 4250 037a 00       		.byte	0
 4251 037b 44       		.uleb128 0x44
 4252 037c 1D       		.uleb128 0x1d
 4253 037d 01       		.byte	0x1
 4254 037e 31       		.uleb128 0x31
 4255 037f 13       		.uleb128 0x13
 4256 0380 52       		.uleb128 0x52
 4257 0381 01       		.uleb128 0x1
 4258 0382 55       		.uleb128 0x55
 4259 0383 17       		.uleb128 0x17
 4260 0384 58       		.uleb128 0x58
 4261 0385 0B       		.uleb128 0xb
 4262 0386 59       		.uleb128 0x59
 4263 0387 05       		.uleb128 0x5
ARM GAS  /tmp/cceu4JPd.s 			page 76


 4264 0388 00       		.byte	0
 4265 0389 00       		.byte	0
 4266 038a 45       		.uleb128 0x45
 4267 038b 34       		.uleb128 0x34
 4268 038c 00       		.byte	0
 4269 038d 03       		.uleb128 0x3
 4270 038e 0E       		.uleb128 0xe
 4271 038f 3A       		.uleb128 0x3a
 4272 0390 0B       		.uleb128 0xb
 4273 0391 3B       		.uleb128 0x3b
 4274 0392 05       		.uleb128 0x5
 4275 0393 49       		.uleb128 0x49
 4276 0394 13       		.uleb128 0x13
 4277 0395 3F       		.uleb128 0x3f
 4278 0396 19       		.uleb128 0x19
 4279 0397 3C       		.uleb128 0x3c
 4280 0398 19       		.uleb128 0x19
 4281 0399 00       		.byte	0
 4282 039a 00       		.byte	0
 4283 039b 46       		.uleb128 0x46
 4284 039c 34       		.uleb128 0x34
 4285 039d 00       		.byte	0
 4286 039e 03       		.uleb128 0x3
 4287 039f 08       		.uleb128 0x8
 4288 03a0 3A       		.uleb128 0x3a
 4289 03a1 0B       		.uleb128 0xb
 4290 03a2 3B       		.uleb128 0x3b
 4291 03a3 05       		.uleb128 0x5
 4292 03a4 49       		.uleb128 0x49
 4293 03a5 13       		.uleb128 0x13
 4294 03a6 3F       		.uleb128 0x3f
 4295 03a7 19       		.uleb128 0x19
 4296 03a8 3C       		.uleb128 0x3c
 4297 03a9 19       		.uleb128 0x19
 4298 03aa 00       		.byte	0
 4299 03ab 00       		.byte	0
 4300 03ac 47       		.uleb128 0x47
 4301 03ad 34       		.uleb128 0x34
 4302 03ae 00       		.byte	0
 4303 03af 03       		.uleb128 0x3
 4304 03b0 0E       		.uleb128 0xe
 4305 03b1 3A       		.uleb128 0x3a
 4306 03b2 0B       		.uleb128 0xb
 4307 03b3 3B       		.uleb128 0x3b
 4308 03b4 0B       		.uleb128 0xb
 4309 03b5 49       		.uleb128 0x49
 4310 03b6 13       		.uleb128 0x13
 4311 03b7 3F       		.uleb128 0x3f
 4312 03b8 19       		.uleb128 0x19
 4313 03b9 02       		.uleb128 0x2
 4314 03ba 18       		.uleb128 0x18
 4315 03bb 00       		.byte	0
 4316 03bc 00       		.byte	0
 4317 03bd 48       		.uleb128 0x48
 4318 03be 2E       		.uleb128 0x2e
 4319 03bf 00       		.byte	0
 4320 03c0 3F       		.uleb128 0x3f
ARM GAS  /tmp/cceu4JPd.s 			page 77


 4321 03c1 19       		.uleb128 0x19
 4322 03c2 3C       		.uleb128 0x3c
 4323 03c3 19       		.uleb128 0x19
 4324 03c4 6E       		.uleb128 0x6e
 4325 03c5 0E       		.uleb128 0xe
 4326 03c6 03       		.uleb128 0x3
 4327 03c7 0E       		.uleb128 0xe
 4328 03c8 3A       		.uleb128 0x3a
 4329 03c9 0B       		.uleb128 0xb
 4330 03ca 3B       		.uleb128 0x3b
 4331 03cb 05       		.uleb128 0x5
 4332 03cc 00       		.byte	0
 4333 03cd 00       		.byte	0
 4334 03ce 49       		.uleb128 0x49
 4335 03cf 2E       		.uleb128 0x2e
 4336 03d0 00       		.byte	0
 4337 03d1 3F       		.uleb128 0x3f
 4338 03d2 19       		.uleb128 0x19
 4339 03d3 3C       		.uleb128 0x3c
 4340 03d4 19       		.uleb128 0x19
 4341 03d5 6E       		.uleb128 0x6e
 4342 03d6 0E       		.uleb128 0xe
 4343 03d7 03       		.uleb128 0x3
 4344 03d8 0E       		.uleb128 0xe
 4345 03d9 3A       		.uleb128 0x3a
 4346 03da 0B       		.uleb128 0xb
 4347 03db 3B       		.uleb128 0x3b
 4348 03dc 0B       		.uleb128 0xb
 4349 03dd 00       		.byte	0
 4350 03de 00       		.byte	0
 4351 03df 00       		.byte	0
 4352              		.section	.debug_loc,"",%progbits
 4353              	.Ldebug_loc0:
 4354              	.LLST0:
 4355 0000 00000000 		.4byte	.LVL0
 4356 0004 38000000 		.4byte	.LVL1
 4357 0008 0100     		.2byte	0x1
 4358 000a 50       		.byte	0x50
 4359 000b 38000000 		.4byte	.LVL1
 4360 000f 48000000 		.4byte	.LFE262
 4361 0013 0400     		.2byte	0x4
 4362 0015 F3       		.byte	0xf3
 4363 0016 01       		.uleb128 0x1
 4364 0017 50       		.byte	0x50
 4365 0018 9F       		.byte	0x9f
 4366 0019 00000000 		.4byte	0
 4367 001d 00000000 		.4byte	0
 4368              	.LLST1:
 4369 0021 00000000 		.4byte	.LVL2
 4370 0025 0A000000 		.4byte	.LVL3
 4371 0029 0100     		.2byte	0x1
 4372 002b 50       		.byte	0x50
 4373 002c 0A000000 		.4byte	.LVL3
 4374 0030 42000000 		.4byte	.LVL6
 4375 0034 0100     		.2byte	0x1
 4376 0036 54       		.byte	0x54
 4377 0037 42000000 		.4byte	.LVL6
ARM GAS  /tmp/cceu4JPd.s 			page 78


 4378 003b 44000000 		.4byte	.LVL7
 4379 003f 0100     		.2byte	0x1
 4380 0041 50       		.byte	0x50
 4381 0042 44000000 		.4byte	.LVL7
 4382 0046 50000000 		.4byte	.LFE265
 4383 004a 0100     		.2byte	0x1
 4384 004c 54       		.byte	0x54
 4385 004d 00000000 		.4byte	0
 4386 0051 00000000 		.4byte	0
 4387              	.LLST2:
 4388 0055 00000000 		.4byte	.LVL2
 4389 0059 0A000000 		.4byte	.LVL3
 4390 005d 0100     		.2byte	0x1
 4391 005f 51       		.byte	0x51
 4392 0060 0A000000 		.4byte	.LVL3
 4393 0064 42000000 		.4byte	.LVL6
 4394 0068 0400     		.2byte	0x4
 4395 006a F3       		.byte	0xf3
 4396 006b 01       		.uleb128 0x1
 4397 006c 51       		.byte	0x51
 4398 006d 9F       		.byte	0x9f
 4399 006e 42000000 		.4byte	.LVL6
 4400 0072 47000000 		.4byte	.LVL8-1
 4401 0076 0100     		.2byte	0x1
 4402 0078 51       		.byte	0x51
 4403 0079 47000000 		.4byte	.LVL8-1
 4404 007d 50000000 		.4byte	.LFE265
 4405 0081 0400     		.2byte	0x4
 4406 0083 F3       		.byte	0xf3
 4407 0084 01       		.uleb128 0x1
 4408 0085 51       		.byte	0x51
 4409 0086 9F       		.byte	0x9f
 4410 0087 00000000 		.4byte	0
 4411 008b 00000000 		.4byte	0
 4412              	.LLST3:
 4413 008f 00000000 		.4byte	.LVL9
 4414 0093 0A000000 		.4byte	.LVL10
 4415 0097 0100     		.2byte	0x1
 4416 0099 50       		.byte	0x50
 4417 009a 0A000000 		.4byte	.LVL10
 4418 009e 20000000 		.4byte	.LVL11
 4419 00a2 0100     		.2byte	0x1
 4420 00a4 54       		.byte	0x54
 4421 00a5 20000000 		.4byte	.LVL11
 4422 00a9 21000000 		.4byte	.LVL12-1
 4423 00ad 0100     		.2byte	0x1
 4424 00af 50       		.byte	0x50
 4425 00b0 21000000 		.4byte	.LVL12-1
 4426 00b4 22000000 		.4byte	.LVL12
 4427 00b8 0400     		.2byte	0x4
 4428 00ba F3       		.byte	0xf3
 4429 00bb 01       		.uleb128 0x1
 4430 00bc 50       		.byte	0x50
 4431 00bd 9F       		.byte	0x9f
 4432 00be 22000000 		.4byte	.LVL12
 4433 00c2 82000000 		.4byte	.LVL16
 4434 00c6 0100     		.2byte	0x1
ARM GAS  /tmp/cceu4JPd.s 			page 79


 4435 00c8 54       		.byte	0x54
 4436 00c9 82000000 		.4byte	.LVL16
 4437 00cd 84000000 		.4byte	.LVL17
 4438 00d1 0100     		.2byte	0x1
 4439 00d3 50       		.byte	0x50
 4440 00d4 84000000 		.4byte	.LVL17
 4441 00d8 90000000 		.4byte	.LFE264
 4442 00dc 0100     		.2byte	0x1
 4443 00de 54       		.byte	0x54
 4444 00df 00000000 		.4byte	0
 4445 00e3 00000000 		.4byte	0
 4446              	.LLST4:
 4447 00e7 00000000 		.4byte	.LVL9
 4448 00eb 0A000000 		.4byte	.LVL10
 4449 00ef 0100     		.2byte	0x1
 4450 00f1 51       		.byte	0x51
 4451 00f2 0A000000 		.4byte	.LVL10
 4452 00f6 82000000 		.4byte	.LVL16
 4453 00fa 0400     		.2byte	0x4
 4454 00fc F3       		.byte	0xf3
 4455 00fd 01       		.uleb128 0x1
 4456 00fe 51       		.byte	0x51
 4457 00ff 9F       		.byte	0x9f
 4458 0100 82000000 		.4byte	.LVL16
 4459 0104 87000000 		.4byte	.LVL18-1
 4460 0108 0100     		.2byte	0x1
 4461 010a 51       		.byte	0x51
 4462 010b 87000000 		.4byte	.LVL18-1
 4463 010f 90000000 		.4byte	.LFE264
 4464 0113 0400     		.2byte	0x4
 4465 0115 F3       		.byte	0xf3
 4466 0116 01       		.uleb128 0x1
 4467 0117 51       		.byte	0x51
 4468 0118 9F       		.byte	0x9f
 4469 0119 00000000 		.4byte	0
 4470 011d 00000000 		.4byte	0
 4471              	.LLST5:
 4472 0121 22000000 		.4byte	.LVL12
 4473 0125 80000000 		.4byte	.LVL15
 4474 0129 0400     		.2byte	0x4
 4475 012b F3       		.byte	0xf3
 4476 012c 01       		.uleb128 0x1
 4477 012d 51       		.byte	0x51
 4478 012e 9F       		.byte	0x9f
 4479 012f 00000000 		.4byte	0
 4480 0133 00000000 		.4byte	0
 4481              	.LLST6:
 4482 0137 22000000 		.4byte	.LVL12
 4483 013b 80000000 		.4byte	.LVL15
 4484 013f 0100     		.2byte	0x1
 4485 0141 54       		.byte	0x54
 4486 0142 00000000 		.4byte	0
 4487 0146 00000000 		.4byte	0
 4488              	.LLST7:
 4489 014a 74000000 		.4byte	.LVL14
 4490 014e 80000000 		.4byte	.LVL15
 4491 0152 0100     		.2byte	0x1
ARM GAS  /tmp/cceu4JPd.s 			page 80


 4492 0154 54       		.byte	0x54
 4493 0155 00000000 		.4byte	0
 4494 0159 00000000 		.4byte	0
 4495              	.LLST8:
 4496 015d 0A000000 		.4byte	.LVL22
 4497 0161 72000000 		.4byte	.LVL32
 4498 0165 0100     		.2byte	0x1
 4499 0167 55       		.byte	0x55
 4500 0168 00000000 		.4byte	0
 4501 016c 00000000 		.4byte	0
 4502              	.LLST9:
 4503 0170 06000000 		.4byte	.LVL20
 4504 0174 72000000 		.4byte	.LVL32
 4505 0178 0100     		.2byte	0x1
 4506 017a 54       		.byte	0x54
 4507 017b 00000000 		.4byte	0
 4508 017f 00000000 		.4byte	0
 4509              	.LLST10:
 4510 0183 08000000 		.4byte	.LVL21
 4511 0187 60000000 		.4byte	.LVL30
 4512 018b 0100     		.2byte	0x1
 4513 018d 57       		.byte	0x57
 4514 018e 00000000 		.4byte	0
 4515 0192 00000000 		.4byte	0
 4516              	.LLST11:
 4517 0196 22000000 		.4byte	.LVL23
 4518 019a 50000000 		.4byte	.LVL29
 4519 019e 0100     		.2byte	0x1
 4520 01a0 55       		.byte	0x55
 4521 01a1 00000000 		.4byte	0
 4522 01a5 00000000 		.4byte	0
 4523              	.LLST12:
 4524 01a9 22000000 		.4byte	.LVL23
 4525 01ad 2C000000 		.4byte	.LVL24
 4526 01b1 0200     		.2byte	0x2
 4527 01b3 30       		.byte	0x30
 4528 01b4 9F       		.byte	0x9f
 4529 01b5 2C000000 		.4byte	.LVL24
 4530 01b9 4F000000 		.4byte	.LVL29-1
 4531 01bd 0100     		.2byte	0x1
 4532 01bf 51       		.byte	0x51
 4533 01c0 00000000 		.4byte	0
 4534 01c4 00000000 		.4byte	0
 4535              	.LLST13:
 4536 01c8 00000000 		.4byte	.LVL35
 4537 01cc 0C000000 		.4byte	.LVL36
 4538 01d0 0100     		.2byte	0x1
 4539 01d2 50       		.byte	0x50
 4540 01d3 0C000000 		.4byte	.LVL36
 4541 01d7 74000000 		.4byte	.LVL39
 4542 01db 0100     		.2byte	0x1
 4543 01dd 54       		.byte	0x54
 4544 01de 74000000 		.4byte	.LVL39
 4545 01e2 88000000 		.4byte	.LVL42
 4546 01e6 0300     		.2byte	0x3
 4547 01e8 74       		.byte	0x74
 4548 01e9 68       		.sleb128 -24
ARM GAS  /tmp/cceu4JPd.s 			page 81


 4549 01ea 9F       		.byte	0x9f
 4550 01eb 88000000 		.4byte	.LVL42
 4551 01ef 8E000000 		.4byte	.LVL43
 4552 01f3 0100     		.2byte	0x1
 4553 01f5 50       		.byte	0x50
 4554 01f6 8E000000 		.4byte	.LVL43
 4555 01fa CA000000 		.4byte	.LVL46
 4556 01fe 0100     		.2byte	0x1
 4557 0200 54       		.byte	0x54
 4558 0201 CA000000 		.4byte	.LVL46
 4559 0205 D0000000 		.4byte	.LVL47
 4560 0209 0100     		.2byte	0x1
 4561 020b 50       		.byte	0x50
 4562 020c D0000000 		.4byte	.LVL47
 4563 0210 1C010000 		.4byte	.LFE269
 4564 0214 0100     		.2byte	0x1
 4565 0216 54       		.byte	0x54
 4566 0217 00000000 		.4byte	0
 4567 021b 00000000 		.4byte	0
 4568              	.LLST14:
 4569 021f 12000000 		.4byte	.LVL37
 4570 0223 74000000 		.4byte	.LVL39
 4571 0227 0100     		.2byte	0x1
 4572 0229 54       		.byte	0x54
 4573 022a 74000000 		.4byte	.LVL39
 4574 022e 88000000 		.4byte	.LVL42
 4575 0232 0300     		.2byte	0x3
 4576 0234 74       		.byte	0x74
 4577 0235 68       		.sleb128 -24
 4578 0236 9F       		.byte	0x9f
 4579 0237 B2000000 		.4byte	.LVL44
 4580 023b C0000000 		.4byte	.LVL45
 4581 023f 0100     		.2byte	0x1
 4582 0241 54       		.byte	0x54
 4583 0242 00000000 		.4byte	0
 4584 0246 00000000 		.4byte	0
 4585              	.LLST15:
 4586 024a 78000000 		.4byte	.LVL40
 4587 024e 88000000 		.4byte	.LVL42
 4588 0252 0400     		.2byte	0x4
 4589 0254 0A       		.byte	0xa
 4590 0255 0C21     		.2byte	0x210c
 4591 0257 9F       		.byte	0x9f
 4592 0258 00000000 		.4byte	0
 4593 025c 00000000 		.4byte	0
 4594              	.LLST16:
 4595 0260 12000000 		.4byte	.LVL37
 4596 0264 17000000 		.4byte	.LVL38-1
 4597 0268 0200     		.2byte	0x2
 4598 026a 74       		.byte	0x74
 4599 026b 08       		.sleb128 8
 4600 026c 00000000 		.4byte	0
 4601 0270 00000000 		.4byte	0
 4602              	.LLST17:
 4603 0274 7A000000 		.4byte	.LVL41
 4604 0278 88000000 		.4byte	.LVL42
 4605 027c 0300     		.2byte	0x3
ARM GAS  /tmp/cceu4JPd.s 			page 82


 4606 027e 74       		.byte	0x74
 4607 027f 68       		.sleb128 -24
 4608 0280 9F       		.byte	0x9f
 4609 0281 00000000 		.4byte	0
 4610 0285 00000000 		.4byte	0
 4611              	.LLST18:
 4612 0289 00000000 		.4byte	.LVL51
 4613 028d 0F000000 		.4byte	.LVL52-1
 4614 0291 0100     		.2byte	0x1
 4615 0293 50       		.byte	0x50
 4616 0294 0F000000 		.4byte	.LVL52-1
 4617 0298 40000000 		.4byte	.LFE270
 4618 029c 0100     		.2byte	0x1
 4619 029e 54       		.byte	0x54
 4620 029f 00000000 		.4byte	0
 4621 02a3 00000000 		.4byte	0
 4622              	.LLST19:
 4623 02a7 00000000 		.4byte	.LVL57
 4624 02ab 1E000000 		.4byte	.LVL59
 4625 02af 0100     		.2byte	0x1
 4626 02b1 51       		.byte	0x51
 4627 02b2 1E000000 		.4byte	.LVL59
 4628 02b6 34000000 		.4byte	.LFE271
 4629 02ba 0400     		.2byte	0x4
 4630 02bc F3       		.byte	0xf3
 4631 02bd 01       		.uleb128 0x1
 4632 02be 51       		.byte	0x51
 4633 02bf 9F       		.byte	0x9f
 4634 02c0 00000000 		.4byte	0
 4635 02c4 00000000 		.4byte	0
 4636              	.LLST20:
 4637 02c8 00000000 		.4byte	.LVL57
 4638 02cc 1A000000 		.4byte	.LVL58
 4639 02d0 0100     		.2byte	0x1
 4640 02d2 52       		.byte	0x52
 4641 02d3 1A000000 		.4byte	.LVL58
 4642 02d7 34000000 		.4byte	.LFE271
 4643 02db 0400     		.2byte	0x4
 4644 02dd F3       		.byte	0xf3
 4645 02de 01       		.uleb128 0x1
 4646 02df 52       		.byte	0x52
 4647 02e0 9F       		.byte	0x9f
 4648 02e1 00000000 		.4byte	0
 4649 02e5 00000000 		.4byte	0
 4650              	.LLST21:
 4651 02e9 00000000 		.4byte	.LVL60
 4652 02ed 14000000 		.4byte	.LVL61
 4653 02f1 0100     		.2byte	0x1
 4654 02f3 50       		.byte	0x50
 4655 02f4 14000000 		.4byte	.LVL61
 4656 02f8 20000000 		.4byte	.LFE272
 4657 02fc 0400     		.2byte	0x4
 4658 02fe F3       		.byte	0xf3
 4659 02ff 01       		.uleb128 0x1
 4660 0300 50       		.byte	0x50
 4661 0301 9F       		.byte	0x9f
 4662 0302 00000000 		.4byte	0
ARM GAS  /tmp/cceu4JPd.s 			page 83


 4663 0306 00000000 		.4byte	0
 4664              	.LLST22:
 4665 030a 00000000 		.4byte	.LVL63
 4666 030e 04000000 		.4byte	.LVL64
 4667 0312 0100     		.2byte	0x1
 4668 0314 50       		.byte	0x50
 4669 0315 04000000 		.4byte	.LVL64
 4670 0319 38000000 		.4byte	.LVL67
 4671 031d 0100     		.2byte	0x1
 4672 031f 51       		.byte	0x51
 4673 0320 38000000 		.4byte	.LVL67
 4674 0324 4A000000 		.4byte	.LFE274
 4675 0328 0400     		.2byte	0x4
 4676 032a F3       		.byte	0xf3
 4677 032b 01       		.uleb128 0x1
 4678 032c 50       		.byte	0x50
 4679 032d 9F       		.byte	0x9f
 4680 032e 00000000 		.4byte	0
 4681 0332 00000000 		.4byte	0
 4682              	.LLST23:
 4683 0336 28000000 		.4byte	.LVL65
 4684 033a 38000000 		.4byte	.LVL67
 4685 033e 0100     		.2byte	0x1
 4686 0340 51       		.byte	0x51
 4687 0341 38000000 		.4byte	.LVL67
 4688 0345 4A000000 		.4byte	.LFE274
 4689 0349 0300     		.2byte	0x3
 4690 034b 71       		.byte	0x71
 4691 034c 68       		.sleb128 -24
 4692 034d 9F       		.byte	0x9f
 4693 034e 00000000 		.4byte	0
 4694 0352 00000000 		.4byte	0
 4695              	.LLST24:
 4696 0356 34000000 		.4byte	.LVL66
 4697 035a 3A000000 		.4byte	.LVL68
 4698 035e 0100     		.2byte	0x1
 4699 0360 54       		.byte	0x54
 4700 0361 00000000 		.4byte	0
 4701 0365 00000000 		.4byte	0
 4702              		.section	.debug_aranges,"",%progbits
 4703 0000 6C000000 		.4byte	0x6c
 4704 0004 0200     		.2byte	0x2
 4705 0006 00000000 		.4byte	.Ldebug_info0
 4706 000a 04       		.byte	0x4
 4707 000b 00       		.byte	0
 4708 000c 0000     		.2byte	0
 4709 000e 0000     		.2byte	0
 4710 0010 00000000 		.4byte	.LFB262
 4711 0014 48000000 		.4byte	.LFE262-.LFB262
 4712 0018 00000000 		.4byte	.LFB265
 4713 001c 50000000 		.4byte	.LFE265-.LFB265
 4714 0020 00000000 		.4byte	.LFB264
 4715 0024 90000000 		.4byte	.LFE264-.LFB264
 4716 0028 00000000 		.4byte	.LFB267
 4717 002c 7C000000 		.4byte	.LFE267-.LFB267
 4718 0030 00000000 		.4byte	.LFB268
 4719 0034 2C000000 		.4byte	.LFE268-.LFB268
ARM GAS  /tmp/cceu4JPd.s 			page 84


 4720 0038 00000000 		.4byte	.LFB269
 4721 003c 1C010000 		.4byte	.LFE269-.LFB269
 4722 0040 00000000 		.4byte	.LFB270
 4723 0044 40000000 		.4byte	.LFE270-.LFB270
 4724 0048 00000000 		.4byte	.LFB271
 4725 004c 34000000 		.4byte	.LFE271-.LFB271
 4726 0050 00000000 		.4byte	.LFB272
 4727 0054 20000000 		.4byte	.LFE272-.LFB272
 4728 0058 00000000 		.4byte	.LFB273
 4729 005c 36000000 		.4byte	.LFE273-.LFB273
 4730 0060 00000000 		.4byte	.LFB274
 4731 0064 4A000000 		.4byte	.LFE274-.LFB274
 4732 0068 00000000 		.4byte	0
 4733 006c 00000000 		.4byte	0
 4734              		.section	.debug_ranges,"",%progbits
 4735              	.Ldebug_ranges0:
 4736 0000 58000000 		.4byte	.LBB28
 4737 0004 6A000000 		.4byte	.LBE28
 4738 0008 6C000000 		.4byte	.LBB32
 4739 000c 72000000 		.4byte	.LBE32
 4740 0010 74000000 		.4byte	.LBB33
 4741 0014 82000000 		.4byte	.LBE33
 4742 0018 00000000 		.4byte	0
 4743 001c 00000000 		.4byte	0
 4744 0020 12000000 		.4byte	.LBB49
 4745 0024 88000000 		.4byte	.LBE49
 4746 0028 B2000000 		.4byte	.LBB68
 4747 002c C0000000 		.4byte	.LBE68
 4748 0030 00000000 		.4byte	0
 4749 0034 00000000 		.4byte	0
 4750 0038 34000000 		.4byte	.LBB51
 4751 003c 36000000 		.4byte	.LBE51
 4752 0040 3C000000 		.4byte	.LBB60
 4753 0044 3E000000 		.4byte	.LBE60
 4754 0048 42000000 		.4byte	.LBB61
 4755 004c 48000000 		.4byte	.LBE61
 4756 0050 56000000 		.4byte	.LBB62
 4757 0054 60000000 		.4byte	.LBE62
 4758 0058 6A000000 		.4byte	.LBB63
 4759 005c 6C000000 		.4byte	.LBE63
 4760 0060 6E000000 		.4byte	.LBB64
 4761 0064 70000000 		.4byte	.LBE64
 4762 0068 72000000 		.4byte	.LBB65
 4763 006c 74000000 		.4byte	.LBE65
 4764 0070 7A000000 		.4byte	.LBB66
 4765 0074 88000000 		.4byte	.LBE66
 4766 0078 00000000 		.4byte	0
 4767 007c 00000000 		.4byte	0
 4768 0080 16000000 		.4byte	.LBB70
 4769 0084 18000000 		.4byte	.LBE70
 4770 0088 1A000000 		.4byte	.LBB75
 4771 008c 1C000000 		.4byte	.LBE75
 4772 0090 24000000 		.4byte	.LBB76
 4773 0094 26000000 		.4byte	.LBE76
 4774 0098 28000000 		.4byte	.LBB77
 4775 009c 46000000 		.4byte	.LBE77
 4776 00a0 00000000 		.4byte	0
ARM GAS  /tmp/cceu4JPd.s 			page 85


 4777 00a4 00000000 		.4byte	0
 4778 00a8 00000000 		.4byte	.LFB262
 4779 00ac 48000000 		.4byte	.LFE262
 4780 00b0 00000000 		.4byte	.LFB265
 4781 00b4 50000000 		.4byte	.LFE265
 4782 00b8 00000000 		.4byte	.LFB264
 4783 00bc 90000000 		.4byte	.LFE264
 4784 00c0 00000000 		.4byte	.LFB267
 4785 00c4 7C000000 		.4byte	.LFE267
 4786 00c8 00000000 		.4byte	.LFB268
 4787 00cc 2C000000 		.4byte	.LFE268
 4788 00d0 00000000 		.4byte	.LFB269
 4789 00d4 1C010000 		.4byte	.LFE269
 4790 00d8 00000000 		.4byte	.LFB270
 4791 00dc 40000000 		.4byte	.LFE270
 4792 00e0 00000000 		.4byte	.LFB271
 4793 00e4 34000000 		.4byte	.LFE271
 4794 00e8 00000000 		.4byte	.LFB272
 4795 00ec 20000000 		.4byte	.LFE272
 4796 00f0 00000000 		.4byte	.LFB273
 4797 00f4 36000000 		.4byte	.LFE273
 4798 00f8 00000000 		.4byte	.LFB274
 4799 00fc 4A000000 		.4byte	.LFE274
 4800 0100 00000000 		.4byte	0
 4801 0104 00000000 		.4byte	0
 4802              		.section	.debug_line,"",%progbits
 4803              	.Ldebug_line0:
 4804 0000 8D050000 		.section	.debug_str,"MS",%progbits,1
 4804      02009602 
 4804      00000201 
 4804      FB0E0D00 
 4804      01010101 
 4805              	.LASF85:
 4806 0000 4D314152 		.ascii	"M1AR\000"
 4806      00
 4807              	.LASF144:
 4808 0005 73746D33 		.ascii	"stm32_dma_stream_t\000"
 4808      325F646D 
 4808      615F7374 
 4808      7265616D 
 4808      5F7400
 4809              	.LASF4:
 4810 0018 73697A65 		.ascii	"size_t\000"
 4810      5F7400
 4811              	.LASF82:
 4812 001f 73697A65 		.ascii	"sizetype\000"
 4812      74797065 
 4812      00
 4813              	.LASF127:
 4814 0028 77747365 		.ascii	"wtsemp\000"
 4814      6D7000
 4815              	.LASF29:
 4816 002f 73797374 		.ascii	"systime_t\000"
 4816      696D655F 
 4816      7400
 4817              	.LASF148:
 4818 0039 55415254 		.ascii	"UART_STOP\000"
ARM GAS  /tmp/cceu4JPd.s 			page 86


 4818      5F53544F 
 4818      5000
 4819              	.LASF113:
 4820 0043 504C4C49 		.ascii	"PLLI2SCFGR\000"
 4820      32534346 
 4820      475200
 4821              	.LASF34:
 4822 004e 705F6374 		.ascii	"p_ctx\000"
 4822      7800
 4823              	.LASF25:
 4824 0054 74707269 		.ascii	"tprio_t\000"
 4824      6F5F7400 
 4825              	.LASF42:
 4826 005c 705F6D73 		.ascii	"p_msgqueue\000"
 4826      67717565 
 4826      756500
 4827              	.LASF58:
 4828 0067 725F6374 		.ascii	"r_ctx\000"
 4828      7800
 4829              	.LASF18:
 4830 006d 696E7433 		.ascii	"int32_t\000"
 4830      325F7400 
 4831              	.LASF62:
 4832 0075 76746675 		.ascii	"vtfunc_t\000"
 4832      6E635F74 
 4832      00
 4833              	.LASF208:
 4834 007e 646D6153 		.ascii	"dmaStreamRelease\000"
 4834      74726561 
 4834      6D52656C 
 4834      65617365 
 4834      00
 4835              	.LASF71:
 4836 008f 63685F76 		.ascii	"ch_virtual_timers_list\000"
 4836      69727475 
 4836      616C5F74 
 4836      696D6572 
 4836      735F6C69 
 4837              	.LASF189:
 4838 00a6 75617274 		.ascii	"uart_lld_serve_tx_end_irq\000"
 4838      5F6C6C64 
 4838      5F736572 
 4838      76655F74 
 4838      785F656E 
 4839              	.LASF214:
 4840 00c0 5F5F6675 		.ascii	"__func__\000"
 4840      6E635F5F 
 4840      00
 4841              	.LASF211:
 4842 00c9 2E2E2F2E 		.ascii	"../../os/hal/ports/STM32/LLD/USARTv1/uart_lld.c\000"
 4842      2E2F6F73 
 4842      2F68616C 
 4842      2F706F72 
 4842      74732F53 
 4843              	.LASF164:
 4844 00f9 636F6E66 		.ascii	"config\000"
 4844      696700
ARM GAS  /tmp/cceu4JPd.s 			page 87


 4845              	.LASF161:
 4846 0100 73746174 		.ascii	"state\000"
 4846      6500
 4847              	.LASF163:
 4848 0106 72787374 		.ascii	"rxstate\000"
 4848      61746500 
 4849              	.LASF175:
 4850 010e 7278656E 		.ascii	"rxend_cb\000"
 4850      645F6362 
 4850      00
 4851              	.LASF135:
 4852 0117 6D5F6F77 		.ascii	"m_owner\000"
 4852      6E657200 
 4853              	.LASF69:
 4854 011f 76745F70 		.ascii	"vt_par\000"
 4854      617200
 4855              	.LASF192:
 4856 0126 75736172 		.ascii	"usart_start\000"
 4856      745F7374 
 4856      61727400 
 4857              	.LASF124:
 4858 0132 65786974 		.ascii	"exitcode\000"
 4858      636F6465 
 4858      00
 4859              	.LASF5:
 4860 013b 5F5F7569 		.ascii	"__uint8_t\000"
 4860      6E74385F 
 4860      7400
 4861              	.LASF104:
 4862 0145 41484232 		.ascii	"AHB2LPENR\000"
 4862      4C50454E 
 4862      5200
 4863              	.LASF193:
 4864 014f 75617274 		.ascii	"uart_lld_start\000"
 4864      5F6C6C64 
 4864      5F737461 
 4864      727400
 4865              	.LASF188:
 4866 015e 75736172 		.ascii	"usart_stop\000"
 4866      745F7374 
 4866      6F7000
 4867              	.LASF152:
 4868 0169 55415254 		.ascii	"UART_TX_ACTIVE\000"
 4868      5F54585F 
 4868      41435449 
 4868      564500
 4869              	.LASF35:
 4870 0178 705F6E65 		.ascii	"p_newer\000"
 4870      77657200 
 4871              	.LASF160:
 4872 0180 55415254 		.ascii	"UARTDriver\000"
 4872      44726976 
 4872      657200
 4873              	.LASF11:
 4874 018b 6C6F6E67 		.ascii	"long int\000"
 4874      20696E74 
 4874      00
ARM GAS  /tmp/cceu4JPd.s 			page 88


 4875              	.LASF31:
 4876 0194 705F6E65 		.ascii	"p_next\000"
 4876      787400
 4877              	.LASF210:
 4878 019b 474E5520 		.ascii	"GNU C11 5.2.0 -mcpu=cortex-m4 -mfloat-abi=hard -mfp"
 4878      43313120 
 4878      352E322E 
 4878      30202D6D 
 4878      6370753D 
 4879 01ce 753D6670 		.ascii	"u=fpv4-sp-d16 -mno-thumb-interwork -mthumb -ggdb -O"
 4879      76342D73 
 4879      702D6431 
 4879      36202D6D 
 4879      6E6F2D74 
 4880 0201 32202D66 		.ascii	"2 -fomit-frame-pointer -falign-functions=16 -ffunct"
 4880      6F6D6974 
 4880      2D667261 
 4880      6D652D70 
 4880      6F696E74 
 4881 0234 696F6E2D 		.ascii	"ion-sections -fdata-sections -fno-common -fsingle-p"
 4881      73656374 
 4881      696F6E73 
 4881      202D6664 
 4881      6174612D 
 4882 0267 72656369 		.ascii	"recision-constant\000"
 4882      73696F6E 
 4882      2D636F6E 
 4882      7374616E 
 4882      7400
 4883              	.LASF32:
 4884 0279 705F7072 		.ascii	"p_prev\000"
 4884      657600
 4885              	.LASF166:
 4886 0280 646D616D 		.ascii	"dmamode\000"
 4886      6F646500 
 4887              	.LASF23:
 4888 0288 74737461 		.ascii	"tstate_t\000"
 4888      74655F74 
 4888      00
 4889              	.LASF52:
 4890 0291 74687265 		.ascii	"threads_queue_t\000"
 4890      6164735F 
 4890      71756575 
 4890      655F7400 
 4891              	.LASF45:
 4892 02a1 705F6D74 		.ascii	"p_mtxlist\000"
 4892      786C6973 
 4892      7400
 4893              	.LASF196:
 4894 02ab 74786275 		.ascii	"txbuf\000"
 4894      6600
 4895              	.LASF117:
 4896 02b1 72656761 		.ascii	"regarm_t\000"
 4896      726D5F74 
 4896      00
 4897              	.LASF162:
 4898 02ba 74787374 		.ascii	"txstate\000"
ARM GAS  /tmp/cceu4JPd.s 			page 89


 4898      61746500 
 4899              	.LASF101:
 4900 02c2 41504232 		.ascii	"APB2ENR\000"
 4900      454E5200 
 4901              	.LASF103:
 4902 02ca 41484231 		.ascii	"AHB1LPENR\000"
 4902      4C50454E 
 4902      5200
 4903              	.LASF154:
 4904 02d4 75617274 		.ascii	"uarttxstate_t\000"
 4904      74787374 
 4904      6174655F 
 4904      7400
 4905              	.LASF165:
 4906 02e2 75736172 		.ascii	"usart\000"
 4906      7400
 4907              	.LASF3:
 4908 02e8 7369676E 		.ascii	"signed char\000"
 4908      65642063 
 4908      68617200 
 4909              	.LASF129:
 4910 02f4 65776D61 		.ascii	"ewmask\000"
 4910      736B00
 4911              	.LASF16:
 4912 02fb 75696E74 		.ascii	"uint8_t\000"
 4912      385F7400 
 4913              	.LASF27:
 4914 0303 6576656E 		.ascii	"eventmask_t\000"
 4914      746D6173 
 4914      6B5F7400 
 4915              	.LASF119:
 4916 030f 636F6E74 		.ascii	"context\000"
 4916      65787400 
 4917              	.LASF126:
 4918 0317 77747472 		.ascii	"wttrp\000"
 4918      7000
 4919              	.LASF92:
 4920 031d 52455345 		.ascii	"RESERVED0\000"
 4920      52564544 
 4920      3000
 4921              	.LASF95:
 4922 0327 52455345 		.ascii	"RESERVED1\000"
 4922      52564544 
 4922      3100
 4923              	.LASF6:
 4924 0331 756E7369 		.ascii	"unsigned char\000"
 4924      676E6564 
 4924      20636861 
 4924      7200
 4925              	.LASF102:
 4926 033f 52455345 		.ascii	"RESERVED3\000"
 4926      52564544 
 4926      3300
 4927              	.LASF106:
 4928 0349 52455345 		.ascii	"RESERVED4\000"
 4928      52564544 
 4928      3400
ARM GAS  /tmp/cceu4JPd.s 			page 90


 4929              	.LASF109:
 4930 0353 52455345 		.ascii	"RESERVED5\000"
 4930      52564544 
 4930      3500
 4931              	.LASF111:
 4932 035d 52455345 		.ascii	"RESERVED6\000"
 4932      52564544 
 4932      3600
 4933              	.LASF75:
 4934 0367 70616E69 		.ascii	"panic_msg\000"
 4934      635F6D73 
 4934      6700
 4935              	.LASF59:
 4936 0371 725F6E65 		.ascii	"r_newer\000"
 4936      77657200 
 4937              	.LASF73:
 4938 0379 73797374 		.ascii	"system_debug_t\000"
 4938      656D5F64 
 4938      65627567 
 4938      5F7400
 4939              	.LASF146:
 4940 0388 5F426F6F 		.ascii	"_Bool\000"
 4940      6C00
 4941              	.LASF99:
 4942 038e 52455345 		.ascii	"RESERVED2\000"
 4942      52564544 
 4942      3200
 4943              	.LASF185:
 4944 0398 666C6167 		.ascii	"flags\000"
 4944      7300
 4945              	.LASF137:
 4946 039e 63686172 		.ascii	"char\000"
 4946      00
 4947              	.LASF141:
 4948 03a3 69736869 		.ascii	"ishift\000"
 4948      667400
 4949              	.LASF89:
 4950 03aa 41484231 		.ascii	"AHB1RSTR\000"
 4950      52535452 
 4950      00
 4951              	.LASF33:
 4952 03b3 705F7072 		.ascii	"p_prio\000"
 4952      696F00
 4953              	.LASF8:
 4954 03ba 5F5F7569 		.ascii	"__uint16_t\000"
 4954      6E743136 
 4954      5F7400
 4955              	.LASF97:
 4956 03c5 41484232 		.ascii	"AHB2ENR\000"
 4956      454E5200 
 4957              	.LASF125:
 4958 03cd 77746F62 		.ascii	"wtobjp\000"
 4958      6A7000
 4959              	.LASF118:
 4960 03d4 73746B61 		.ascii	"stkalign_t\000"
 4960      6C69676E 
 4960      5F7400
ARM GAS  /tmp/cceu4JPd.s 			page 91


 4961              	.LASF116:
 4962 03df 55534152 		.ascii	"USART_TypeDef\000"
 4962      545F5479 
 4962      70654465 
 4962      6600
 4963              	.LASF139:
 4964 03ed 73747265 		.ascii	"stream\000"
 4964      616D00
 4965              	.LASF184:
 4966 03f4 75617274 		.ascii	"uart_lld_serve_rx_end_irq\000"
 4966      5F6C6C64 
 4966      5F736572 
 4966      76655F72 
 4966      785F656E 
 4967              	.LASF206:
 4968 040e 646D6153 		.ascii	"dmaStreamAllocate\000"
 4968      74726561 
 4968      6D416C6C 
 4968      6F636174 
 4968      6500
 4969              	.LASF110:
 4970 0420 42444352 		.ascii	"BDCR\000"
 4970      00
 4971              	.LASF191:
 4972 0425 75617274 		.ascii	"uart_lld_init\000"
 4972      5F6C6C64 
 4972      5F696E69 
 4972      7400
 4973              	.LASF28:
 4974 0433 636E745F 		.ascii	"cnt_t\000"
 4974      7400
 4975              	.LASF176:
 4976 0439 72786368 		.ascii	"rxchar_cb\000"
 4976      61725F63 
 4976      6200
 4977              	.LASF68:
 4978 0443 76745F66 		.ascii	"vt_func\000"
 4978      756E6300 
 4979              	.LASF212:
 4980 044b 2F686F6D 		.ascii	"/home/sssilvar/Documents/embebidos/ChibiOS/iflab/pr"
 4980      652F7373 
 4980      73696C76 
 4980      61722F44 
 4980      6F63756D 
 4981 047e 6F6A6563 		.ascii	"ojects/UART\000"
 4981      74732F55 
 4981      41525400 
 4982              	.LASF178:
 4983 048a 73706565 		.ascii	"speed\000"
 4983      6400
 4984              	.LASF44:
 4985 0490 705F6570 		.ascii	"p_epending\000"
 4985      656E6469 
 4985      6E6700
 4986              	.LASF128:
 4987 049b 77746D74 		.ascii	"wtmtxp\000"
 4987      787000
ARM GAS  /tmp/cceu4JPd.s 			page 92


 4988              	.LASF55:
 4989 04a2 63685F72 		.ascii	"ch_ready_list\000"
 4989      65616479 
 4989      5F6C6973 
 4989      7400
 4990              	.LASF88:
 4991 04b0 43464752 		.ascii	"CFGR\000"
 4991      00
 4992              	.LASF198:
 4993 04b5 75617274 		.ascii	"uart_lld_stop_send\000"
 4993      5F6C6C64 
 4993      5F73746F 
 4993      705F7365 
 4993      6E6400
 4994              	.LASF180:
 4995 04c8 7365745F 		.ascii	"set_rx_idle_loop\000"
 4995      72785F69 
 4995      646C655F 
 4995      6C6F6F70 
 4995      00
 4996              	.LASF14:
 4997 04d9 5F5F7569 		.ascii	"__uint64_t\000"
 4997      6E743634 
 4997      5F7400
 4998              	.LASF13:
 4999 04e4 6C6F6E67 		.ascii	"long unsigned int\000"
 4999      20756E73 
 4999      69676E65 
 4999      6420696E 
 4999      7400
 5000              	.LASF179:
 5001 04f6 55415254 		.ascii	"UARTConfig\000"
 5001      436F6E66 
 5001      696700
 5002              	.LASF130:
 5003 0501 63685F73 		.ascii	"ch_semaphore\000"
 5003      656D6170 
 5003      686F7265 
 5003      00
 5004              	.LASF50:
 5005 050e 63685F74 		.ascii	"ch_thread\000"
 5005      68726561 
 5005      6400
 5006              	.LASF70:
 5007 0518 76697274 		.ascii	"virtual_timers_list_t\000"
 5007      75616C5F 
 5007      74696D65 
 5007      72735F6C 
 5007      6973745F 
 5008              	.LASF201:
 5009 052e 5F73746D 		.ascii	"_stm32_dma_streams\000"
 5009      33325F64 
 5009      6D615F73 
 5009      74726561 
 5009      6D7300
 5010              	.LASF174:
 5011 0541 7478656E 		.ascii	"txend2_cb\000"
ARM GAS  /tmp/cceu4JPd.s 			page 93


 5011      64325F63 
 5011      6200
 5012              	.LASF199:
 5013 054b 75617274 		.ascii	"uart_lld_stop_receive\000"
 5013      5F6C6C64 
 5013      5F73746F 
 5013      705F7265 
 5013      63656976 
 5014              	.LASF63:
 5015 0561 76697274 		.ascii	"virtual_timer_t\000"
 5015      75616C5F 
 5015      74696D65 
 5015      725F7400 
 5016              	.LASF54:
 5017 0571 72656164 		.ascii	"ready_list_t\000"
 5017      795F6C69 
 5017      73745F74 
 5017      00
 5018              	.LASF213:
 5019 057e 7472616E 		.ascii	"translate_errors\000"
 5019      736C6174 
 5019      655F6572 
 5019      726F7273 
 5019      00
 5020              	.LASF172:
 5021 058f 75617274 		.ascii	"uartecb_t\000"
 5021      6563625F 
 5021      7400
 5022              	.LASF205:
 5023 0599 75617274 		.ascii	"uartObjectInit\000"
 5023      4F626A65 
 5023      6374496E 
 5023      697400
 5024              	.LASF147:
 5025 05a8 55415254 		.ascii	"UART_UNINIT\000"
 5025      5F554E49 
 5025      4E495400 
 5026              	.LASF51:
 5027 05b4 63685F74 		.ascii	"ch_threads_list\000"
 5027      68726561 
 5027      64735F6C 
 5027      69737400 
 5028              	.LASF157:
 5029 05c4 55415254 		.ascii	"UART_RX_COMPLETE\000"
 5029      5F52585F 
 5029      434F4D50 
 5029      4C455445 
 5029      00
 5030              	.LASF197:
 5031 05d5 75617274 		.ascii	"uart_lld_start_receive\000"
 5031      5F6C6C64 
 5031      5F737461 
 5031      72745F72 
 5031      65636569 
 5032              	.LASF87:
 5033 05ec 504C4C43 		.ascii	"PLLCFGR\000"
 5033      46475200 
ARM GAS  /tmp/cceu4JPd.s 			page 94


 5034              	.LASF169:
 5035 05f4 72786275 		.ascii	"rxbuf\000"
 5035      6600
 5036              	.LASF167:
 5037 05fa 646D6172 		.ascii	"dmarx\000"
 5037      7800
 5038              	.LASF12:
 5039 0600 5F5F7569 		.ascii	"__uint32_t\000"
 5039      6E743332 
 5039      5F7400
 5040              	.LASF1:
 5041 060b 6C6F6E67 		.ascii	"long long int\000"
 5041      206C6F6E 
 5041      6720696E 
 5041      7400
 5042              	.LASF134:
 5043 0619 6D5F7175 		.ascii	"m_queue\000"
 5043      65756500 
 5044              	.LASF112:
 5045 0621 53534347 		.ascii	"SSCGR\000"
 5045      5200
 5046              	.LASF65:
 5047 0627 76745F6E 		.ascii	"vt_next\000"
 5047      65787400 
 5048              	.LASF66:
 5049 062f 76745F70 		.ascii	"vt_prev\000"
 5049      72657600 
 5050              	.LASF115:
 5051 0637 47545052 		.ascii	"GTPR\000"
 5051      00
 5052              	.LASF94:
 5053 063c 41504232 		.ascii	"APB2RSTR\000"
 5053      52535452 
 5053      00
 5054              	.LASF200:
 5055 0645 49544D5F 		.ascii	"ITM_RxBuffer\000"
 5055      52784275 
 5055      66666572 
 5055      00
 5056              	.LASF108:
 5057 0652 41504232 		.ascii	"APB2LPENR\000"
 5057      4C50454E 
 5057      5200
 5058              	.LASF41:
 5059 065c 705F7761 		.ascii	"p_waiting\000"
 5059      6974696E 
 5059      6700
 5060              	.LASF159:
 5061 0666 75617274 		.ascii	"uartflags_t\000"
 5061      666C6167 
 5061      735F7400 
 5062              	.LASF168:
 5063 0672 646D6174 		.ascii	"dmatx\000"
 5063      7800
 5064              	.LASF39:
 5065 0678 705F666C 		.ascii	"p_flags\000"
 5065      61677300 
ARM GAS  /tmp/cceu4JPd.s 			page 95


 5066              	.LASF81:
 5067 0680 69646C65 		.ascii	"idle_thread_wa\000"
 5067      5F746872 
 5067      6561645F 
 5067      776100
 5068              	.LASF177:
 5069 068f 72786572 		.ascii	"rxerr_cb\000"
 5069      725F6362 
 5069      00
 5070              	.LASF0:
 5071 0698 756E7369 		.ascii	"unsigned int\000"
 5071      676E6564 
 5071      20696E74 
 5071      00
 5072              	.LASF21:
 5073 06a5 7274636E 		.ascii	"rtcnt_t\000"
 5073      745F7400 
 5074              	.LASF47:
 5075 06ad 705F6D70 		.ascii	"p_mpool\000"
 5075      6F6F6C00 
 5076              	.LASF145:
 5077 06b5 73746D33 		.ascii	"stm32_dmaisr_t\000"
 5077      325F646D 
 5077      61697372 
 5077      5F7400
 5078              	.LASF40:
 5079 06c4 705F7265 		.ascii	"p_refs\000"
 5079      667300
 5080              	.LASF204:
 5081 06cb 5F706F72 		.ascii	"_port_irq_epilogue\000"
 5081      745F6972 
 5081      715F6570 
 5081      696C6F67 
 5081      756500
 5082              	.LASF182:
 5083 06de 75617274 		.ascii	"uartp\000"
 5083      7000
 5084              	.LASF121:
 5085 06e4 6F666673 		.ascii	"offset\000"
 5085      657400
 5086              	.LASF107:
 5087 06eb 41504231 		.ascii	"APB1LPENR\000"
 5087      4C50454E 
 5087      5200
 5088              	.LASF86:
 5089 06f5 444D415F 		.ascii	"DMA_Stream_TypeDef\000"
 5089      53747265 
 5089      616D5F54 
 5089      79706544 
 5089      656600
 5090              	.LASF91:
 5091 0708 41484233 		.ascii	"AHB3RSTR\000"
 5091      52535452 
 5091      00
 5092              	.LASF30:
 5093 0711 74687265 		.ascii	"thread_t\000"
 5093      61645F74 
ARM GAS  /tmp/cceu4JPd.s 			page 96


 5093      00
 5094              	.LASF2:
 5095 071a 6C6F6E67 		.ascii	"long double\000"
 5095      20646F75 
 5095      626C6500 
 5096              	.LASF209:
 5097 0726 6E766963 		.ascii	"nvicDisableVector\000"
 5097      44697361 
 5097      626C6556 
 5097      6563746F 
 5097      7200
 5098              	.LASF48:
 5099 0738 74687265 		.ascii	"thread_reference_t\000"
 5099      61645F72 
 5099      65666572 
 5099      656E6365 
 5099      5F7400
 5100              	.LASF46:
 5101 074b 705F7265 		.ascii	"p_realprio\000"
 5101      616C7072 
 5101      696F00
 5102              	.LASF120:
 5103 0756 706F7274 		.ascii	"port_intctx\000"
 5103      5F696E74 
 5103      63747800 
 5104              	.LASF181:
 5105 0762 6F73616C 		.ascii	"osalSysHalt\000"
 5105      53797348 
 5105      616C7400 
 5106              	.LASF67:
 5107 076e 76745F64 		.ascii	"vt_delta\000"
 5107      656C7461 
 5107      00
 5108              	.LASF93:
 5109 0777 41504231 		.ascii	"APB1RSTR\000"
 5109      52535452 
 5109      00
 5110              	.LASF64:
 5111 0780 63685F76 		.ascii	"ch_virtual_timer\000"
 5111      69727475 
 5111      616C5F74 
 5111      696D6572 
 5111      00
 5112              	.LASF100:
 5113 0791 41504231 		.ascii	"APB1ENR\000"
 5113      454E5200 
 5114              	.LASF132:
 5115 0799 735F636E 		.ascii	"s_cnt\000"
 5115      7400
 5116              	.LASF142:
 5117 079f 73656C66 		.ascii	"selfindex\000"
 5117      696E6465 
 5117      7800
 5118              	.LASF15:
 5119 07a9 6C6F6E67 		.ascii	"long long unsigned int\000"
 5119      206C6F6E 
 5119      6720756E 
ARM GAS  /tmp/cceu4JPd.s 			page 97


 5119      7369676E 
 5119      65642069 
 5120              	.LASF186:
 5121 07c0 73657276 		.ascii	"serve_usart_irq\000"
 5121      655F7573 
 5121      6172745F 
 5121      69727100 
 5122              	.LASF36:
 5123 07d0 705F6F6C 		.ascii	"p_older\000"
 5123      64657200 
 5124              	.LASF17:
 5125 07d8 75696E74 		.ascii	"uint16_t\000"
 5125      31365F74 
 5125      00
 5126              	.LASF156:
 5127 07e1 55415254 		.ascii	"UART_RX_ACTIVE\000"
 5127      5F52585F 
 5127      41435449 
 5127      564500
 5128              	.LASF26:
 5129 07f0 6D73675F 		.ascii	"msg_t\000"
 5129      7400
 5130              	.LASF53:
 5131 07f6 63685F74 		.ascii	"ch_threads_queue\000"
 5131      68726561 
 5131      64735F71 
 5131      75657565 
 5131      00
 5132              	.LASF61:
 5133 0807 725F6375 		.ascii	"r_current\000"
 5133      7272656E 
 5133      7400
 5134              	.LASF183:
 5135 0811 72656173 		.ascii	"reason\000"
 5135      6F6E00
 5136              	.LASF143:
 5137 0818 76656374 		.ascii	"vector\000"
 5137      6F7200
 5138              	.LASF80:
 5139 081f 6D61696E 		.ascii	"mainthread\000"
 5139      74687265 
 5139      616400
 5140              	.LASF105:
 5141 082a 41484233 		.ascii	"AHB3LPENR\000"
 5141      4C50454E 
 5141      5200
 5142              	.LASF153:
 5143 0834 55415254 		.ascii	"UART_TX_COMPLETE\000"
 5143      5F54585F 
 5143      434F4D50 
 5143      4C455445 
 5143      00
 5144              	.LASF158:
 5145 0845 75617274 		.ascii	"uartrxstate_t\000"
 5145      72787374 
 5145      6174655F 
 5145      7400
ARM GAS  /tmp/cceu4JPd.s 			page 98


 5146              	.LASF56:
 5147 0853 725F7175 		.ascii	"r_queue\000"
 5147      65756500 
 5148              	.LASF171:
 5149 085b 75617274 		.ascii	"uartccb_t\000"
 5149      6363625F 
 5149      7400
 5150              	.LASF78:
 5151 0865 726C6973 		.ascii	"rlist\000"
 5151      7400
 5152              	.LASF22:
 5153 086b 746D6F64 		.ascii	"tmode_t\000"
 5153      655F7400 
 5154              	.LASF96:
 5155 0873 41484231 		.ascii	"AHB1ENR\000"
 5155      454E5200 
 5156              	.LASF155:
 5157 087b 55415254 		.ascii	"UART_RX_IDLE\000"
 5157      5F52585F 
 5157      49444C45 
 5157      00
 5158              	.LASF98:
 5159 0888 41484233 		.ascii	"AHB3ENR\000"
 5159      454E5200 
 5160              	.LASF60:
 5161 0890 725F6F6C 		.ascii	"r_older\000"
 5161      64657200 
 5162              	.LASF122:
 5163 0898 746D5F63 		.ascii	"tm_calibration_t\000"
 5163      616C6962 
 5163      72617469 
 5163      6F6E5F74 
 5163      00
 5164              	.LASF90:
 5165 08a9 41484232 		.ascii	"AHB2RSTR\000"
 5165      52535452 
 5165      00
 5166              	.LASF84:
 5167 08b2 4D304152 		.ascii	"M0AR\000"
 5167      00
 5168              	.LASF131:
 5169 08b7 735F7175 		.ascii	"s_queue\000"
 5169      65756500 
 5170              	.LASF114:
 5171 08bf 5243435F 		.ascii	"RCC_TypeDef\000"
 5171      54797065 
 5171      44656600 
 5172              	.LASF7:
 5173 08cb 73686F72 		.ascii	"short int\000"
 5173      7420696E 
 5173      7400
 5174              	.LASF20:
 5175 08d5 75696E74 		.ascii	"uint64_t\000"
 5175      36345F74 
 5175      00
 5176              	.LASF187:
 5177 08de 6D6F6465 		.ascii	"mode\000"
ARM GAS  /tmp/cceu4JPd.s 			page 99


 5177      00
 5178              	.LASF133:
 5179 08e3 63685F6D 		.ascii	"ch_mutex\000"
 5179      75746578 
 5179      00
 5180              	.LASF57:
 5181 08ec 725F7072 		.ascii	"r_prio\000"
 5181      696F00
 5182              	.LASF150:
 5183 08f3 75617274 		.ascii	"uartstate_t\000"
 5183      73746174 
 5183      655F7400 
 5184              	.LASF74:
 5185 08ff 63685F73 		.ascii	"ch_system_debug\000"
 5185      79737465 
 5185      6D5F6465 
 5185      62756700 
 5186              	.LASF79:
 5187 090f 76746C69 		.ascii	"vtlist\000"
 5187      737400
 5188              	.LASF203:
 5189 0916 63685379 		.ascii	"chSysHalt\000"
 5189      7348616C 
 5189      7400
 5190              	.LASF138:
 5191 0920 6D757465 		.ascii	"mutex_t\000"
 5191      785F7400 
 5192              	.LASF24:
 5193 0928 74726566 		.ascii	"trefs_t\000"
 5193      735F7400 
 5194              	.LASF195:
 5195 0930 75617274 		.ascii	"uart_lld_start_send\000"
 5195      5F6C6C64 
 5195      5F737461 
 5195      72745F73 
 5195      656E6400 
 5196              	.LASF49:
 5197 0944 74687265 		.ascii	"threads_list_t\000"
 5197      6164735F 
 5197      6C697374 
 5197      5F7400
 5198              	.LASF151:
 5199 0953 55415254 		.ascii	"UART_TX_IDLE\000"
 5199      5F54585F 
 5199      49444C45 
 5199      00
 5200              	.LASF170:
 5201 0960 75617274 		.ascii	"uartcb_t\000"
 5201      63625F74 
 5201      00
 5202              	.LASF77:
 5203 0969 63685F73 		.ascii	"ch_system\000"
 5203      79737465 
 5203      6D00
 5204              	.LASF207:
 5205 0973 6E766963 		.ascii	"nvicEnableVector\000"
 5205      456E6162 
ARM GAS  /tmp/cceu4JPd.s 			page 100


 5205      6C655665 
 5205      63746F72 
 5205      00
 5206              	.LASF19:
 5207 0984 75696E74 		.ascii	"uint32_t\000"
 5207      33325F74 
 5207      00
 5208              	.LASF190:
 5209 098d 56656374 		.ascii	"VectorD8\000"
 5209      6F724438 
 5209      00
 5210              	.LASF123:
 5211 0996 7264796D 		.ascii	"rdymsg\000"
 5211      736700
 5212              	.LASF72:
 5213 099d 76745F6C 		.ascii	"vt_lasttime\000"
 5213      61737474 
 5213      696D6500 
 5214              	.LASF9:
 5215 09a9 73686F72 		.ascii	"short unsigned int\000"
 5215      7420756E 
 5215      7369676E 
 5215      65642069 
 5215      6E7400
 5216              	.LASF76:
 5217 09bc 63685F73 		.ascii	"ch_system_t\000"
 5217      79737465 
 5217      6D5F7400 
 5218              	.LASF173:
 5219 09c8 7478656E 		.ascii	"txend1_cb\000"
 5219      64315F63 
 5219      6200
 5220              	.LASF202:
 5221 09d2 55415254 		.ascii	"UARTD2\000"
 5221      443200
 5222              	.LASF10:
 5223 09d9 5F5F696E 		.ascii	"__int32_t\000"
 5223      7433325F 
 5223      7400
 5224              	.LASF83:
 5225 09e3 4E445452 		.ascii	"NDTR\000"
 5225      00
 5226              	.LASF140:
 5227 09e8 69666372 		.ascii	"ifcr\000"
 5227      00
 5228              	.LASF149:
 5229 09ed 55415254 		.ascii	"UART_READY\000"
 5229      5F524541 
 5229      445900
 5230              	.LASF37:
 5231 09f8 705F6E61 		.ascii	"p_name\000"
 5231      6D6500
 5232              	.LASF194:
 5233 09ff 75617274 		.ascii	"uart_lld_stop\000"
 5233      5F6C6C64 
 5233      5F73746F 
 5233      7000
ARM GAS  /tmp/cceu4JPd.s 			page 101


 5234              	.LASF136:
 5235 0a0d 6D5F6E65 		.ascii	"m_next\000"
 5235      787400
 5236              	.LASF43:
 5237 0a14 705F6D73 		.ascii	"p_msg\000"
 5237      6700
 5238              	.LASF38:
 5239 0a1a 705F7374 		.ascii	"p_state\000"
 5239      61746500 
 5240              		.ident	"GCC: (Fedora 5.2.0-3.fc22) 5.2.0"
ARM GAS  /tmp/cceu4JPd.s 			page 102


DEFINED SYMBOLS
                            *ABS*:0000000000000000 uart_lld.c
     /tmp/cceu4JPd.s:22     .text.usart_stop:0000000000000000 $t
     /tmp/cceu4JPd.s:27     .text.usart_stop:0000000000000000 usart_stop
     /tmp/cceu4JPd.s:99     .text.uart_lld_serve_tx_end_irq:0000000000000000 $t
     /tmp/cceu4JPd.s:104    .text.uart_lld_serve_tx_end_irq:0000000000000000 uart_lld_serve_tx_end_irq
     /tmp/cceu4JPd.s:184    .text.uart_lld_serve_tx_end_irq:000000000000004c $d
     /tmp/cceu4JPd.s:191    .text.uart_lld_serve_rx_end_irq:0000000000000000 $t
     /tmp/cceu4JPd.s:196    .text.uart_lld_serve_rx_end_irq:0000000000000000 uart_lld_serve_rx_end_irq
     /tmp/cceu4JPd.s:346    .text.uart_lld_serve_rx_end_irq:000000000000008c $d
     /tmp/cceu4JPd.s:353    .text.VectorD8:0000000000000000 $t
     /tmp/cceu4JPd.s:359    .text.VectorD8:0000000000000000 VectorD8
     /tmp/cceu4JPd.s:483    .text.VectorD8:0000000000000078 $d
     /tmp/cceu4JPd.s:488    .text.uart_lld_init:0000000000000000 $t
     /tmp/cceu4JPd.s:494    .text.uart_lld_init:0000000000000000 uart_lld_init
     /tmp/cceu4JPd.s:528    .text.uart_lld_init:0000000000000020 $d
     /tmp/cceu4JPd.s:535    .text.uart_lld_start:0000000000000000 $t
     /tmp/cceu4JPd.s:541    .text.uart_lld_start:0000000000000000 uart_lld_start
     /tmp/cceu4JPd.s:784    .text.uart_lld_start:0000000000000100 $d
     /tmp/cceu4JPd.s:796    .text.uart_lld_stop:0000000000000000 $t
     /tmp/cceu4JPd.s:802    .text.uart_lld_stop:0000000000000000 uart_lld_stop
     /tmp/cceu4JPd.s:854    .text.uart_lld_stop:0000000000000038 $d
     /tmp/cceu4JPd.s:860    .text.uart_lld_start_send:0000000000000000 $t
     /tmp/cceu4JPd.s:866    .text.uart_lld_start_send:0000000000000000 uart_lld_start_send
     /tmp/cceu4JPd.s:923    .text.uart_lld_stop_send:0000000000000000 $t
     /tmp/cceu4JPd.s:929    .text.uart_lld_stop_send:0000000000000000 uart_lld_stop_send
     /tmp/cceu4JPd.s:963    .text.uart_lld_start_receive:0000000000000000 $t
     /tmp/cceu4JPd.s:969    .text.uart_lld_start_receive:0000000000000000 uart_lld_start_receive
     /tmp/cceu4JPd.s:1024   .text.uart_lld_stop_receive:0000000000000000 $t
     /tmp/cceu4JPd.s:1030   .text.uart_lld_stop_receive:0000000000000000 uart_lld_stop_receive
     /tmp/cceu4JPd.s:1131   .bss.UARTD2:0000000000000000 UARTD2
     /tmp/cceu4JPd.s:1123   .rodata.str1.4:0000000000000000 $d
     /tmp/cceu4JPd.s:1127   .bss.UARTD2:0000000000000000 $d
                     .debug_frame:0000000000000010 $d
     /tmp/cceu4JPd.s:487    .text.VectorD8:000000000000007c $t
     /tmp/cceu4JPd.s:534    .text.uart_lld_init:000000000000002c $t
     /tmp/cceu4JPd.s:795    .text.uart_lld_start:000000000000011c $t

UNDEFINED SYMBOLS
chSysHalt
_port_irq_epilogue
uartObjectInit
_stm32_dma_streams
dmaStreamAllocate
nvicEnableVector
dmaStreamRelease
nvicDisableVector
