ARM GAS  /tmp/cceu4JPd.s 			page 1


   1              		.syntax unified
   2              		.cpu cortex-m4
   3              		.eabi_attribute 27, 1
   4              		.eabi_attribute 28, 1
   5              		.fpu fpv4-sp-d16
   6              		.eabi_attribute 20, 1
   7              		.eabi_attribute 21, 1
   8              		.eabi_attribute 23, 3
   9              		.eabi_attribute 24, 1
  10              		.eabi_attribute 25, 1
  11              		.eabi_attribute 26, 1
  12              		.eabi_attribute 30, 2
  13              		.eabi_attribute 34, 1
  14              		.eabi_attribute 18, 4
  15              		.thumb
  16              		.syntax unified
  17              		.file	"uart_lld.c"
  18              		.text
  19              	.Ltext0:
  20              		.cfi_sections	.debug_frame
  21              		.section	.text.usart_stop,"ax",%progbits
  22              		.align	2
  23              		.p2align 4,,15
  24              		.thumb
  25              		.thumb_func
  26              		.type	usart_stop, %function
  27              	usart_stop:
  28              	.LFB262:
  29              		.file 1 "../../os/hal/ports/STM32/LLD/USARTv1/uart_lld.c"
  30              		.loc 1 180 0
  31              		.cfi_startproc
  32              		@ args = 0, pretend = 0, frame = 0
  33              		@ frame_needed = 0, uses_anonymous_args = 0
  34              		@ link register save eliminated.
  35              	.LVL0:
  36              		.loc 1 183 0
  37 0000 0169     		ldr	r1, [r0, #16]
  38 0002 0A68     		ldr	r2, [r1]
  39 0004 1368     		ldr	r3, [r2]
  40 0006 23F01F03 		bic	r3, r3, #31
  41 000a 1360     		str	r3, [r2]
  42              	.L2:
  43              		.loc 1 183 0 is_stmt 0 discriminator 2
  44 000c 1368     		ldr	r3, [r2]
  45 000e DB07     		lsls	r3, r3, #31
  46 0010 FCD4     		bmi	.L2
  47              		.loc 1 180 0 is_stmt 1 discriminator 3
  48 0012 30B4     		push	{r4, r5}
  49              		.cfi_def_cfa_offset 8
  50              		.cfi_offset 4, -8
  51              		.cfi_offset 5, -4
  52              		.loc 1 184 0 discriminator 3
  53 0014 4469     		ldr	r4, [r0, #20]
  54              		.loc 1 183 0 discriminator 3
  55 0016 0D7A     		ldrb	r5, [r1, #8]	@ zero_extendqisi2
  56 0018 4968     		ldr	r1, [r1, #4]
  57              		.loc 1 184 0 discriminator 3
ARM GAS  /tmp/cceu4JPd.s 			page 2


  58 001a 2268     		ldr	r2, [r4]
  59              		.loc 1 183 0 discriminator 3
  60 001c 3D23     		movs	r3, #61
  61 001e AB40     		lsls	r3, r3, r5
  62 0020 0B60     		str	r3, [r1]
  63              		.loc 1 184 0 discriminator 3
  64 0022 1368     		ldr	r3, [r2]
  65 0024 23F01F03 		bic	r3, r3, #31
  66 0028 1360     		str	r3, [r2]
  67              	.L3:
  68              		.loc 1 184 0 is_stmt 0 discriminator 2
  69 002a 1368     		ldr	r3, [r2]
  70 002c 13F00103 		ands	r3, r3, #1
  71 0030 FBD1     		bne	.L3
  72              		.loc 1 184 0 discriminator 3
  73 0032 257A     		ldrb	r5, [r4, #8]	@ zero_extendqisi2
  74              		.loc 1 187 0 is_stmt 1 discriminator 3
  75 0034 8268     		ldr	r2, [r0, #8]
  76              		.loc 1 184 0 discriminator 3
  77 0036 6068     		ldr	r0, [r4, #4]
  78              	.LVL1:
  79 0038 3D21     		movs	r1, #61
  80 003a A940     		lsls	r1, r1, r5
  81 003c 0160     		str	r1, [r0]
  82              		.loc 1 190 0 discriminator 3
  83 003e 30BC     		pop	{r4, r5}
  84              		.cfi_restore 5
  85              		.cfi_restore 4
  86              		.cfi_def_cfa_offset 0
  87              		.loc 1 187 0 discriminator 3
  88 0040 D360     		str	r3, [r2, #12]
  89              		.loc 1 188 0 discriminator 3
  90 0042 1361     		str	r3, [r2, #16]
  91              		.loc 1 189 0 discriminator 3
  92 0044 5361     		str	r3, [r2, #20]
  93              		.loc 1 190 0 discriminator 3
  94 0046 7047     		bx	lr
  95              		.cfi_endproc
  96              	.LFE262:
  97              		.size	usart_stop, .-usart_stop
  98 0048 AFF30080 		.section	.text.uart_lld_serve_tx_end_irq,"ax",%progbits
  98      AFF30080 
  99              		.align	2
 100              		.p2align 4,,15
 101              		.thumb
 102              		.thumb_func
 103              		.type	uart_lld_serve_tx_end_irq, %function
 104              	uart_lld_serve_tx_end_irq:
 105              	.LFB265:
 106              		.loc 1 281 0
 107              		.cfi_startproc
 108              		@ args = 0, pretend = 0, frame = 0
 109              		@ frame_needed = 0, uses_anonymous_args = 0
 110              	.LVL2:
 111              		.loc 1 285 0
 112 0000 11F00C0F 		tst	r1, #12
 113              		.loc 1 281 0
ARM GAS  /tmp/cceu4JPd.s 			page 3


 114 0004 38B5     		push	{r3, r4, r5, lr}
 115              		.cfi_def_cfa_offset 16
 116              		.cfi_offset 3, -16
 117              		.cfi_offset 4, -12
 118              		.cfi_offset 5, -8
 119              		.cfi_offset 14, -4
 120              		.loc 1 281 0
 121 0006 0446     		mov	r4, r0
 122              		.loc 1 285 0
 123 0008 1BD1     		bne	.L22
 124              	.LVL3:
 125              	.L9:
 126              		.loc 1 292 0
 127 000a 6169     		ldr	r1, [r4, #20]
 128 000c 0A68     		ldr	r2, [r1]
 129 000e 1368     		ldr	r3, [r2]
 130 0010 23F01F03 		bic	r3, r3, #31
 131 0014 1360     		str	r3, [r2]
 132              	.L10:
 133              		.loc 1 292 0 is_stmt 0 discriminator 2
 134 0016 1368     		ldr	r3, [r2]
 135 0018 DB07     		lsls	r3, r3, #31
 136 001a FCD4     		bmi	.L10
 137              		.loc 1 296 0 is_stmt 1 discriminator 3
 138 001c 6368     		ldr	r3, [r4, #4]
 139              		.loc 1 292 0 discriminator 3
 140 001e 0D7A     		ldrb	r5, [r1, #8]	@ zero_extendqisi2
 141 0020 4868     		ldr	r0, [r1, #4]
 142              		.loc 1 296 0 discriminator 3
 143 0022 1A68     		ldr	r2, [r3]
 144              		.loc 1 292 0 discriminator 3
 145 0024 3D23     		movs	r3, #61
 146 0026 AB40     		lsls	r3, r3, r5
 147              		.loc 1 295 0 discriminator 3
 148 0028 0221     		movs	r1, #2
 149              		.loc 1 292 0 discriminator 3
 150 002a 0360     		str	r3, [r0]
 151              		.loc 1 295 0 discriminator 3
 152 002c 6170     		strb	r1, [r4, #1]
 153              		.loc 1 296 0 discriminator 3
 154 002e 2AB1     		cbz	r2, .L13
 155              		.loc 1 297 0
 156 0030 2046     		mov	r0, r4
 157 0032 9047     		blx	r2
 158              	.LVL4:
 159              		.loc 1 301 0
 160 0034 6378     		ldrb	r3, [r4, #1]	@ zero_extendqisi2
 161 0036 022B     		cmp	r3, #2
 162 0038 00D0     		beq	.L13
 163 003a 38BD     		pop	{r3, r4, r5, pc}
 164              	.LVL5:
 165              	.L13:
 166              		.loc 1 302 0
 167 003c 0023     		movs	r3, #0
 168 003e 6370     		strb	r3, [r4, #1]
 169 0040 38BD     		pop	{r3, r4, r5, pc}
 170              	.LVL6:
ARM GAS  /tmp/cceu4JPd.s 			page 4


 171              	.L22:
 172              	.LBB16:
 173              	.LBB17:
 174              		.file 2 "../../os/hal/osal/rt/osal.h"
 175              		.loc 2 416 0
 176 0042 0248     		ldr	r0, .L23
 177              	.LVL7:
 178 0044 FFF7FEFF 		bl	chSysHalt
 179              	.LVL8:
 180 0048 DFE7     		b	.L9
 181              	.L24:
 182 004a 00BF     		.align	2
 183              	.L23:
 184 004c 00000000 		.word	.LC0
 185              	.LBE17:
 186              	.LBE16:
 187              		.cfi_endproc
 188              	.LFE265:
 189              		.size	uart_lld_serve_tx_end_irq, .-uart_lld_serve_tx_end_irq
 190              		.section	.text.uart_lld_serve_rx_end_irq,"ax",%progbits
 191              		.align	2
 192              		.p2align 4,,15
 193              		.thumb
 194              		.thumb_func
 195              		.type	uart_lld_serve_rx_end_irq, %function
 196              	uart_lld_serve_rx_end_irq:
 197              	.LFB264:
 198              		.loc 1 241 0
 199              		.cfi_startproc
 200              		@ args = 0, pretend = 0, frame = 0
 201              		@ frame_needed = 0, uses_anonymous_args = 0
 202              	.LVL9:
 203              		.loc 1 245 0
 204 0000 11F00C0F 		tst	r1, #12
 205              		.loc 1 241 0
 206 0004 70B5     		push	{r4, r5, r6, lr}
 207              		.cfi_def_cfa_offset 16
 208              		.cfi_offset 4, -16
 209              		.cfi_offset 5, -12
 210              		.cfi_offset 6, -8
 211              		.cfi_offset 14, -4
 212              		.loc 1 241 0
 213 0006 0446     		mov	r4, r0
 214              		.loc 1 245 0
 215 0008 3BD1     		bne	.L41
 216              	.LVL10:
 217              	.L26:
 218              		.loc 1 252 0
 219 000a A378     		ldrb	r3, [r4, #2]	@ zero_extendqisi2
 220 000c 4BB9     		cbnz	r3, .L27
 221              		.loc 1 255 0
 222 000e 6368     		ldr	r3, [r4, #4]
 223 0010 DB68     		ldr	r3, [r3, #12]
 224 0012 002B     		cmp	r3, #0
 225 0014 34D0     		beq	.L25
 226              		.loc 1 256 0
 227 0016 218B     		ldrh	r1, [r4, #24]
ARM GAS  /tmp/cceu4JPd.s 			page 5


 228 0018 2046     		mov	r0, r4
 229 001a 89B2     		uxth	r1, r1
 230              		.loc 1 273 0
 231 001c BDE87040 		pop	{r4, r5, r6, lr}
 232              		.cfi_remember_state
 233              		.cfi_restore 14
 234              		.cfi_restore 6
 235              		.cfi_restore 5
 236              		.cfi_restore 4
 237              		.cfi_def_cfa_offset 0
 238              	.LVL11:
 239              		.loc 1 256 0
 240 0020 1847     		bx	r3	@ indirect register sibling call
 241              	.LVL12:
 242              	.L27:
 243              		.cfi_restore_state
 244              	.LBB26:
 245              	.LBB27:
 246              		.loc 1 261 0
 247 0022 2169     		ldr	r1, [r4, #16]
 248 0024 0A68     		ldr	r2, [r1]
 249 0026 1368     		ldr	r3, [r2]
 250 0028 23F01F03 		bic	r3, r3, #31
 251 002c 1360     		str	r3, [r2]
 252              	.L30:
 253 002e 1368     		ldr	r3, [r2]
 254 0030 DB07     		lsls	r3, r3, #31
 255 0032 FCD4     		bmi	.L30
 256              		.loc 1 263 0
 257 0034 6068     		ldr	r0, [r4, #4]
 258              		.loc 1 261 0
 259 0036 0D7A     		ldrb	r5, [r1, #8]	@ zero_extendqisi2
 260 0038 4E68     		ldr	r6, [r1, #4]
 261              		.loc 1 263 0
 262 003a 8168     		ldr	r1, [r0, #8]
 263              		.loc 1 261 0
 264 003c 3D23     		movs	r3, #61
 265 003e AB40     		lsls	r3, r3, r5
 266              		.loc 1 262 0
 267 0040 0225     		movs	r5, #2
 268              		.loc 1 261 0
 269 0042 3360     		str	r3, [r6]
 270              		.loc 1 262 0
 271 0044 A570     		strb	r5, [r4, #2]
 272              		.loc 1 263 0
 273 0046 39B1     		cbz	r1, .L31
 274              		.loc 1 264 0
 275 0048 2046     		mov	r0, r4
 276 004a 8847     		blx	r1
 277              	.LVL13:
 278              		.loc 1 268 0
 279 004c A378     		ldrb	r3, [r4, #2]	@ zero_extendqisi2
 280 004e AB42     		cmp	r3, r5
 281 0050 16D1     		bne	.L25
 282 0052 2369     		ldr	r3, [r4, #16]
 283 0054 6068     		ldr	r0, [r4, #4]
 284 0056 1A68     		ldr	r2, [r3]
ARM GAS  /tmp/cceu4JPd.s 			page 6


 285              	.L31:
 286              	.LBB28:
 287              	.LBB29:
 288              		.loc 1 164 0
 289 0058 C168     		ldr	r1, [r0, #12]
 290              		.loc 1 170 0
 291 005a E368     		ldr	r3, [r4, #12]
 292              		.loc 1 165 0
 293 005c 0029     		cmp	r1, #0
 294 005e 14BF     		ite	ne
 295 0060 4FF48871 		movne	r1, #272
 296 0064 4FF48071 		moveq	r1, #256
 297              		.loc 1 170 0
 298 0068 0B43     		orrs	r3, r3, r1
 299              	.LBE29:
 300              	.LBE28:
 301              		.loc 1 269 0
 302 006a 0025     		movs	r5, #0
 303              	.LBB32:
 304              	.LBB30:
 305              		.loc 1 169 0
 306 006c 0121     		movs	r1, #1
 307              		.loc 1 168 0
 308 006e 04F11800 		add	r0, r4, #24
 309              	.LBE30:
 310              	.LBE32:
 311              		.loc 1 269 0
 312 0072 A570     		strb	r5, [r4, #2]
 313              	.LVL14:
 314              	.LBB33:
 315              	.LBB31:
 316              		.loc 1 168 0
 317 0074 D060     		str	r0, [r2, #12]
 318              		.loc 1 169 0
 319 0076 5160     		str	r1, [r2, #4]
 320              		.loc 1 170 0
 321 0078 1360     		str	r3, [r2]
 322              		.loc 1 171 0
 323 007a 1368     		ldr	r3, [r2]
 324 007c 0B43     		orrs	r3, r3, r1
 325 007e 1360     		str	r3, [r2]
 326              	.LVL15:
 327              	.L25:
 328 0080 70BD     		pop	{r4, r5, r6, pc}
 329              	.LVL16:
 330              	.L41:
 331              	.LBE31:
 332              	.LBE33:
 333              	.LBE27:
 334              	.LBE26:
 335              	.LBB34:
 336              	.LBB35:
 337              		.loc 2 416 0
 338 0082 0248     		ldr	r0, .L42
 339              	.LVL17:
 340 0084 FFF7FEFF 		bl	chSysHalt
 341              	.LVL18:
ARM GAS  /tmp/cceu4JPd.s 			page 7


 342 0088 BFE7     		b	.L26
 343              	.L43:
 344 008a 00BF     		.align	2
 345              	.L42:
 346 008c 00000000 		.word	.LC0
 347              	.LBE35:
 348              	.LBE34:
 349              		.cfi_endproc
 350              	.LFE264:
 351              		.size	uart_lld_serve_rx_end_irq, .-uart_lld_serve_rx_end_irq
 352              		.section	.text.VectorD8,"ax",%progbits
 353              		.align	2
 354              		.p2align 4,,15
 355              		.global	VectorD8
 356              		.thumb
 357              		.thumb_func
 358              		.type	VectorD8, %function
 359              	VectorD8:
 360              	.LFB267:
 361              		.loc 1 368 0
 362              		.cfi_startproc
 363              		@ args = 0, pretend = 0, frame = 0
 364              		@ frame_needed = 0, uses_anonymous_args = 0
 365              	.LVL19:
 366 0000 F8B5     		push	{r3, r4, r5, r6, r7, lr}
 367              		.cfi_def_cfa_offset 24
 368              		.cfi_offset 3, -24
 369              		.cfi_offset 4, -20
 370              		.cfi_offset 5, -16
 371              		.cfi_offset 6, -12
 372              		.cfi_offset 7, -8
 373              		.cfi_offset 14, -4
 374              	.LBB40:
 375              	.LBB41:
 376              		.loc 1 312 0
 377 0002 1D4E     		ldr	r6, .L79
 378 0004 B468     		ldr	r4, [r6, #8]
 379              	.LVL20:
 380              		.loc 1 313 0
 381 0006 E768     		ldr	r7, [r4, #12]
 382              	.LVL21:
 383              		.loc 1 315 0
 384 0008 2568     		ldr	r5, [r4]
 385              	.LVL22:
 386              		.loc 1 316 0
 387 000a 6368     		ldr	r3, [r4, #4]
 388              		.loc 1 318 0
 389 000c 40F20F13 		movw	r3, #271
 390 0010 2B40     		ands	r3, r3, r5
 391 0012 EBB1     		cbz	r3, .L46
 392              		.loc 1 321 0
 393 0014 7368     		ldr	r3, [r6, #4]
 394 0016 1A69     		ldr	r2, [r3, #16]
 395              		.loc 1 320 0
 396 0018 6FF48073 		mvn	r3, #256
 397 001c 2360     		str	r3, [r4]
 398              		.loc 1 321 0
ARM GAS  /tmp/cceu4JPd.s 			page 8


 399 001e BAB1     		cbz	r2, .L46
 400              		.loc 1 315 0
 401 0020 ABB2     		uxth	r3, r5
 402              	.LVL23:
 403              	.LBB42:
 404              	.LBB43:
 405              		.loc 1 142 0
 406 0022 13F0080F 		tst	r3, #8
 407 0026 0CBF     		ite	eq
 408 0028 0021     		moveq	r1, #0
 409 002a 1021     		movne	r1, #16
 410              	.LVL24:
 411              		.loc 1 143 0
 412 002c D807     		lsls	r0, r3, #31
 413              		.loc 1 144 0
 414 002e 48BF     		it	mi
 415 0030 41F00401 		orrmi	r1, r1, #4
 416              	.LVL25:
 417              		.loc 1 145 0
 418 0034 9807     		lsls	r0, r3, #30
 419              		.loc 1 146 0
 420 0036 48BF     		it	mi
 421 0038 41F00801 		orrmi	r1, r1, #8
 422              	.LVL26:
 423              		.loc 1 147 0
 424 003c 5807     		lsls	r0, r3, #29
 425              		.loc 1 148 0
 426 003e 48BF     		it	mi
 427 0040 41F02001 		orrmi	r1, r1, #32
 428              	.LVL27:
 429              		.loc 1 149 0
 430 0044 D805     		lsls	r0, r3, #23
 431              		.loc 1 150 0
 432 0046 48BF     		it	mi
 433 0048 41F04001 		orrmi	r1, r1, #64
 434              	.LVL28:
 435              	.LBE43:
 436              	.LBE42:
 437              		.loc 1 322 0
 438 004c 0A48     		ldr	r0, .L79
 439 004e 9047     		blx	r2
 440              	.LVL29:
 441              	.L46:
 442              		.loc 1 325 0
 443 0050 6A06     		lsls	r2, r5, #25
 444 0052 0CD5     		bpl	.L54
 445 0054 7B06     		lsls	r3, r7, #25
 446 0056 0AD5     		bpl	.L54
 447              		.loc 1 331 0
 448 0058 7368     		ldr	r3, [r6, #4]
 449 005a 5B68     		ldr	r3, [r3, #4]
 450              		.loc 1 328 0
 451 005c 27F04007 		bic	r7, r7, #64
 452              	.LVL30:
 453              		.loc 1 327 0
 454 0060 6FF04002 		mvn	r2, #64
 455 0064 2260     		str	r2, [r4]
ARM GAS  /tmp/cceu4JPd.s 			page 9


 456              		.loc 1 328 0
 457 0066 E760     		str	r7, [r4, #12]
 458              		.loc 1 331 0
 459 0068 0BB1     		cbz	r3, .L54
 460              		.loc 1 332 0
 461 006a 0348     		ldr	r0, .L79
 462 006c 9847     		blx	r3
 463              	.LVL31:
 464              	.L54:
 465              	.LBE41:
 466              	.LBE40:
 467              		.loc 1 375 0
 468 006e BDE8F840 		pop	{r3, r4, r5, r6, r7, lr}
 469              		.cfi_restore 14
 470              		.cfi_restore 7
 471              		.cfi_restore 6
 472              		.cfi_restore 5
 473              		.cfi_restore 4
 474              		.cfi_restore 3
 475              		.cfi_def_cfa_offset 0
 476              	.LVL32:
 477              		.loc 1 374 0
 478 0072 FFF7FEBF 		b	_port_irq_epilogue
 479              	.LVL33:
 480              	.L80:
 481 0076 00BF     		.align	2
 482              	.L79:
 483 0078 00000000 		.word	.LANCHOR0
 484              		.cfi_endproc
 485              	.LFE267:
 486              		.size	VectorD8, .-VectorD8
 487 007c AFF30080 		.section	.text.uart_lld_init,"ax",%progbits
 488              		.align	2
 489              		.p2align 4,,15
 490              		.global	uart_lld_init
 491              		.thumb
 492              		.thumb_func
 493              		.type	uart_lld_init, %function
 494              	uart_lld_init:
 495              	.LFB268:
 496              		.loc 1 463 0
 497              		.cfi_startproc
 498              		@ args = 0, pretend = 0, frame = 0
 499              		@ frame_needed = 0, uses_anonymous_args = 0
 500 0000 10B5     		push	{r4, lr}
 501              		.cfi_def_cfa_offset 8
 502              		.cfi_offset 4, -8
 503              		.cfi_offset 14, -4
 504              		.loc 1 474 0
 505 0002 074C     		ldr	r4, .L83
 506 0004 2046     		mov	r0, r4
 507 0006 FFF7FEFF 		bl	uartObjectInit
 508              	.LVL34:
 509              		.loc 1 477 0
 510 000a 064B     		ldr	r3, .L83+4
 511              		.loc 1 475 0
 512 000c 064A     		ldr	r2, .L83+8
ARM GAS  /tmp/cceu4JPd.s 			page 10


 513 000e A260     		str	r2, [r4, #8]
 514              		.loc 1 476 0
 515 0010 0621     		movs	r1, #6
 516              		.loc 1 478 0
 517 0012 03F10C02 		add	r2, r3, #12
 518              		.loc 1 476 0
 519 0016 E160     		str	r1, [r4, #12]
 520              		.loc 1 477 0
 521 0018 2361     		str	r3, [r4, #16]
 522              		.loc 1 478 0
 523 001a 6261     		str	r2, [r4, #20]
 524 001c 10BD     		pop	{r4, pc}
 525              	.L84:
 526 001e 00BF     		.align	2
 527              	.L83:
 528 0020 00000000 		.word	.LANCHOR0
 529 0024 3C000000 		.word	_stm32_dma_streams+60
 530 0028 00440040 		.word	1073759232
 531              		.cfi_endproc
 532              	.LFE268:
 533              		.size	uart_lld_init, .-uart_lld_init
 534 002c AFF30080 		.section	.text.uart_lld_start,"ax",%progbits
 535              		.align	2
 536              		.p2align 4,,15
 537              		.global	uart_lld_start
 538              		.thumb
 539              		.thumb_func
 540              		.type	uart_lld_start, %function
 541              	uart_lld_start:
 542              	.LFB269:
 543              		.loc 1 520 0
 544              		.cfi_startproc
 545              		@ args = 0, pretend = 0, frame = 0
 546              		@ frame_needed = 0, uses_anonymous_args = 0
 547              	.LVL35:
 548 0000 F8B5     		push	{r3, r4, r5, r6, r7, lr}
 549              		.cfi_def_cfa_offset 24
 550              		.cfi_offset 3, -24
 551              		.cfi_offset 4, -20
 552              		.cfi_offset 5, -16
 553              		.cfi_offset 6, -12
 554              		.cfi_offset 7, -8
 555              		.cfi_offset 14, -4
 556              		.loc 1 522 0
 557 0002 0378     		ldrb	r3, [r0]	@ zero_extendqisi2
 558 0004 012B     		cmp	r3, #1
 559              		.loc 1 520 0
 560 0006 0446     		mov	r4, r0
 561              		.loc 1 522 0
 562 0008 3ED0     		beq	.L86
 563 000a 8568     		ldr	r5, [r0, #8]
 564              	.LVL36:
 565              	.L87:
 566              		.loc 1 664 0
 567 000c 0023     		movs	r3, #0
 568 000e A370     		strb	r3, [r4, #2]
 569              		.loc 1 665 0
ARM GAS  /tmp/cceu4JPd.s 			page 11


 570 0010 6370     		strb	r3, [r4, #1]
 571              	.LVL37:
 572              	.LBB49:
 573              	.LBB50:
 574              		.loc 1 203 0
 575 0012 2046     		mov	r0, r4
 576 0014 FFF7FEFF 		bl	usart_stop
 577              	.LVL38:
 578              		.loc 1 207 0
 579 0018 A368     		ldr	r3, [r4, #8]
 580 001a 394A     		ldr	r2, .L98
 581 001c 9342     		cmp	r3, r2
 582 001e 48D0     		beq	.L90
 583 0020 02F58062 		add	r2, r2, #1024
 584 0024 9342     		cmp	r3, r2
 585 0026 44D0     		beq	.L90
 586              		.loc 1 213 0
 587 0028 6268     		ldr	r2, [r4, #4]
 588 002a 364B     		ldr	r3, .L98+4
 589 002c 5169     		ldr	r1, [r2, #20]
 590 002e B3FBF1F3 		udiv	r3, r3, r1
 591 0032 AB60     		str	r3, [r5, #8]
 592              	.L92:
 593              	.LBB51:
 594              	.LBB52:
 595              		.loc 1 164 0
 596 0034 D768     		ldr	r7, [r2, #12]
 597              	.LBE52:
 598              	.LBE51:
 599              		.loc 1 229 0
 600 0036 138B     		ldrh	r3, [r2, #24]
 601              		.loc 1 222 0
 602 0038 508B     		ldrh	r0, [r2, #26]
 603              		.loc 1 223 0
 604 003a 918B     		ldrh	r1, [r2, #28]
 605              	.LBB60:
 606              	.LBB53:
 607              		.loc 1 168 0
 608 003c 2269     		ldr	r2, [r4, #16]
 609              	.LBE53:
 610              	.LBE60:
 611              		.loc 1 216 0
 612 003e 2E68     		ldr	r6, [r5]
 613              		.loc 1 217 0
 614 0040 6E68     		ldr	r6, [r5, #4]
 615              	.LBB61:
 616              	.LBB54:
 617              		.loc 1 170 0
 618 0042 E668     		ldr	r6, [r4, #12]
 619              		.loc 1 168 0
 620 0044 1268     		ldr	r2, [r2]
 621              		.loc 1 164 0
 622 0046 002F     		cmp	r7, #0
 623              	.LBE54:
 624              	.LBE61:
 625              		.loc 1 229 0
 626 0048 43F40453 		orr	r3, r3, #8448
ARM GAS  /tmp/cceu4JPd.s 			page 12


 627              		.loc 1 218 0
 628 004c 4FF00007 		mov	r7, #0
 629 0050 2F60     		str	r7, [r5]
 630              		.loc 1 222 0
 631 0052 40F04000 		orr	r0, r0, #64
 632              	.LBB62:
 633              	.LBB55:
 634              		.loc 1 165 0
 635 0056 14BF     		ite	ne
 636 0058 4FF48877 		movne	r7, #272
 637 005c 4FF48077 		moveq	r7, #256
 638              	.LBE55:
 639              	.LBE62:
 640              		.loc 1 229 0
 641 0060 43F00C03 		orr	r3, r3, #12
 642              		.loc 1 223 0
 643 0064 41F0C101 		orr	r1, r1, #193
 644              		.loc 1 229 0
 645 0068 9BB2     		uxth	r3, r3
 646              	.LBB63:
 647              	.LBB56:
 648              		.loc 1 170 0
 649 006a 3E43     		orrs	r6, r6, r7
 650              	.LBE56:
 651              	.LBE63:
 652              		.loc 1 222 0
 653 006c 80B2     		uxth	r0, r0
 654              	.LBB64:
 655              	.LBB57:
 656              		.loc 1 169 0
 657 006e 0127     		movs	r7, #1
 658              	.LBE57:
 659              	.LBE64:
 660              		.loc 1 223 0
 661 0070 89B2     		uxth	r1, r1
 662              	.LBB65:
 663              	.LBB58:
 664              		.loc 1 168 0
 665 0072 1834     		adds	r4, r4, #24
 666              	.LVL39:
 667              	.LBE58:
 668              	.LBE65:
 669              		.loc 1 222 0
 670 0074 2861     		str	r0, [r5, #16]
 671              		.loc 1 223 0
 672 0076 6961     		str	r1, [r5, #20]
 673              	.LVL40:
 674              		.loc 1 229 0
 675 0078 EB60     		str	r3, [r5, #12]
 676              	.LVL41:
 677              	.LBB66:
 678              	.LBB59:
 679              		.loc 1 168 0
 680 007a D460     		str	r4, [r2, #12]
 681              		.loc 1 169 0
 682 007c 5760     		str	r7, [r2, #4]
 683              		.loc 1 170 0
ARM GAS  /tmp/cceu4JPd.s 			page 13


 684 007e 1660     		str	r6, [r2]
 685              		.loc 1 171 0
 686 0080 1368     		ldr	r3, [r2]
 687 0082 3B43     		orrs	r3, r3, r7
 688 0084 1360     		str	r3, [r2]
 689 0086 F8BD     		pop	{r3, r4, r5, r6, r7, pc}
 690              	.LVL42:
 691              	.L86:
 692              	.LBE59:
 693              	.LBE66:
 694              	.LBE50:
 695              	.LBE49:
 696              		.loc 1 544 0
 697 0088 1F4B     		ldr	r3, .L98+8
 698 008a 9842     		cmp	r0, r3
 699 008c 1DD0     		beq	.L96
 700              	.LVL43:
 701              	.L88:
 702              		.loc 1 657 0
 703 008e 6368     		ldr	r3, [r4, #4]
 704 0090 1B8B     		ldrh	r3, [r3, #24]
 705 0092 03F4A053 		and	r3, r3, #5120
 706 0096 B3F5805F 		cmp	r3, #4096
 707 009a 11D0     		beq	.L97
 708              	.L89:
 709              		.loc 1 659 0
 710 009c 2269     		ldr	r2, [r4, #16]
 711              		.loc 1 660 0
 712 009e 6369     		ldr	r3, [r4, #20]
 713              		.loc 1 659 0
 714 00a0 A568     		ldr	r5, [r4, #8]
 715 00a2 1068     		ldr	r0, [r2]
 716              		.loc 1 660 0
 717 00a4 1968     		ldr	r1, [r3]
 718              		.loc 1 661 0
 719 00a6 0022     		movs	r2, #0
 720              		.loc 1 659 0
 721 00a8 2B1D     		adds	r3, r5, #4
 722 00aa 8360     		str	r3, [r0, #8]
 723              		.loc 1 660 0
 724 00ac 8B60     		str	r3, [r1, #8]
 725              		.loc 1 661 0
 726 00ae 2283     		strh	r2, [r4, #24]	@ movhi
 727 00b0 ACE7     		b	.L87
 728              	.LVL44:
 729              	.L90:
 730              	.LBB68:
 731              	.LBB67:
 732              		.loc 1 211 0
 733 00b2 6268     		ldr	r2, [r4, #4]
 734 00b4 154B     		ldr	r3, .L98+12
 735 00b6 5169     		ldr	r1, [r2, #20]
 736 00b8 B3FBF1F3 		udiv	r3, r3, r1
 737 00bc AB60     		str	r3, [r5, #8]
 738 00be B9E7     		b	.L92
 739              	.LVL45:
 740              	.L97:
ARM GAS  /tmp/cceu4JPd.s 			page 14


 741              	.LBE67:
 742              	.LBE68:
 743              		.loc 1 658 0
 744 00c0 E368     		ldr	r3, [r4, #12]
 745 00c2 43F42053 		orr	r3, r3, #10240
 746 00c6 E360     		str	r3, [r4, #12]
 747 00c8 E8E7     		b	.L89
 748              	.LVL46:
 749              	.L96:
 750              	.LBB69:
 751              		.loc 1 546 0
 752 00ca 0346     		mov	r3, r0
 753 00cc 104A     		ldr	r2, .L98+16
 754 00ce 0069     		ldr	r0, [r0, #16]
 755              	.LVL47:
 756 00d0 0C21     		movs	r1, #12
 757 00d2 FFF7FEFF 		bl	dmaStreamAllocate
 758              	.LVL48:
 759              		.loc 1 551 0
 760 00d6 2346     		mov	r3, r4
 761 00d8 0E4A     		ldr	r2, .L98+20
 762 00da 6069     		ldr	r0, [r4, #20]
 763 00dc 0C21     		movs	r1, #12
 764 00de FFF7FEFF 		bl	dmaStreamAllocate
 765              	.LVL49:
 766              		.loc 1 556 0
 767 00e2 0D4A     		ldr	r2, .L98+24
 768 00e4 136C     		ldr	r3, [r2, #64]
 769 00e6 43F40033 		orr	r3, r3, #131072
 770 00ea 1364     		str	r3, [r2, #64]
 771              		.loc 1 557 0
 772 00ec 0C21     		movs	r1, #12
 773 00ee 2620     		movs	r0, #38
 774 00f0 FFF7FEFF 		bl	nvicEnableVector
 775              	.LVL50:
 776              		.loc 1 558 0
 777 00f4 E368     		ldr	r3, [r4, #12]
 778 00f6 43F00063 		orr	r3, r3, #134217728
 779 00fa E360     		str	r3, [r4, #12]
 780 00fc C7E7     		b	.L88
 781              	.L99:
 782 00fe 00BF     		.align	2
 783              	.L98:
 784 0100 00100140 		.word	1073811456
 785 0104 80DE8002 		.word	42000000
 786 0108 00000000 		.word	.LANCHOR0
 787 010c 00BD0105 		.word	84000000
 788 0110 00000000 		.word	uart_lld_serve_rx_end_irq
 789 0114 00000000 		.word	uart_lld_serve_tx_end_irq
 790 0118 00380240 		.word	1073887232
 791              	.LBE69:
 792              		.cfi_endproc
 793              	.LFE269:
 794              		.size	uart_lld_start, .-uart_lld_start
 795 011c AFF30080 		.section	.text.uart_lld_stop,"ax",%progbits
 796              		.align	2
 797              		.p2align 4,,15
ARM GAS  /tmp/cceu4JPd.s 			page 15


 798              		.global	uart_lld_stop
 799              		.thumb
 800              		.thumb_func
 801              		.type	uart_lld_stop, %function
 802              	uart_lld_stop:
 803              	.LFB270:
 804              		.loc 1 676 0
 805              		.cfi_startproc
 806              		@ args = 0, pretend = 0, frame = 0
 807              		@ frame_needed = 0, uses_anonymous_args = 0
 808              	.LVL51:
 809              		.loc 1 678 0
 810 0000 0278     		ldrb	r2, [r0]	@ zero_extendqisi2
 811 0002 022A     		cmp	r2, #2
 812 0004 00D0     		beq	.L106
 813 0006 7047     		bx	lr
 814              	.L106:
 815              		.loc 1 676 0
 816 0008 10B5     		push	{r4, lr}
 817              		.cfi_def_cfa_offset 8
 818              		.cfi_offset 4, -8
 819              		.cfi_offset 14, -4
 820 000a 0446     		mov	r4, r0
 821              		.loc 1 679 0
 822 000c FFF7FEFF 		bl	usart_stop
 823              	.LVL52:
 824              		.loc 1 680 0
 825 0010 2069     		ldr	r0, [r4, #16]
 826 0012 FFF7FEFF 		bl	dmaStreamRelease
 827              	.LVL53:
 828              		.loc 1 681 0
 829 0016 6069     		ldr	r0, [r4, #20]
 830 0018 FFF7FEFF 		bl	dmaStreamRelease
 831              	.LVL54:
 832              		.loc 1 692 0
 833 001c 064B     		ldr	r3, .L108
 834 001e 9C42     		cmp	r4, r3
 835 0020 00D0     		beq	.L107
 836              	.L100:
 837 0022 10BD     		pop	{r4, pc}
 838              	.LVL55:
 839              	.L107:
 840              		.loc 1 693 0
 841 0024 2620     		movs	r0, #38
 842 0026 FFF7FEFF 		bl	nvicDisableVector
 843              	.LVL56:
 844              		.loc 1 694 0
 845 002a 044A     		ldr	r2, .L108+4
 846 002c 136C     		ldr	r3, [r2, #64]
 847 002e 23F40033 		bic	r3, r3, #131072
 848 0032 1364     		str	r3, [r2, #64]
 849              		.loc 1 695 0
 850 0034 F5E7     		b	.L100
 851              	.L109:
 852 0036 00BF     		.align	2
 853              	.L108:
 854 0038 00000000 		.word	.LANCHOR0
ARM GAS  /tmp/cceu4JPd.s 			page 16


 855 003c 00380240 		.word	1073887232
 856              		.cfi_endproc
 857              	.LFE270:
 858              		.size	uart_lld_stop, .-uart_lld_stop
 859              		.section	.text.uart_lld_start_send,"ax",%progbits
 860              		.align	2
 861              		.p2align 4,,15
 862              		.global	uart_lld_start_send
 863              		.thumb
 864              		.thumb_func
 865              		.type	uart_lld_start_send, %function
 866              	uart_lld_start_send:
 867              	.LFB271:
 868              		.loc 1 744 0
 869              		.cfi_startproc
 870              		@ args = 0, pretend = 0, frame = 0
 871              		@ frame_needed = 0, uses_anonymous_args = 0
 872              		@ link register save eliminated.
 873              	.LVL57:
 874 0000 30B4     		push	{r4, r5}
 875              		.cfi_def_cfa_offset 8
 876              		.cfi_offset 4, -8
 877              		.cfi_offset 5, -4
 878              		.loc 1 747 0
 879 0002 4369     		ldr	r3, [r0, #20]
 880              		.loc 1 754 0
 881 0004 4568     		ldr	r5, [r0, #4]
 882              		.loc 1 749 0
 883 0006 C468     		ldr	r4, [r0, #12]
 884              		.loc 1 747 0
 885 0008 1B68     		ldr	r3, [r3]
 886              		.loc 1 754 0
 887 000a 6D68     		ldr	r5, [r5, #4]
 888              		.loc 1 747 0
 889 000c DA60     		str	r2, [r3, #12]
 890              		.loc 1 749 0
 891 000e 44F48A64 		orr	r4, r4, #1104
 892              		.loc 1 748 0
 893 0012 5960     		str	r1, [r3, #4]
 894              		.loc 1 749 0
 895 0014 1C60     		str	r4, [r3]
 896              		.loc 1 754 0
 897 0016 3DB1     		cbz	r5, .L111
 898              		.loc 1 755 0
 899 0018 8268     		ldr	r2, [r0, #8]
 900              	.LVL58:
 901 001a 6FF04001 		mvn	r1, #64
 902              	.LVL59:
 903 001e 1160     		str	r1, [r2]
 904              		.loc 1 756 0
 905 0020 D168     		ldr	r1, [r2, #12]
 906 0022 41F04001 		orr	r1, r1, #64
 907 0026 D160     		str	r1, [r2, #12]
 908              	.L111:
 909              		.loc 1 760 0
 910 0028 1A68     		ldr	r2, [r3]
 911 002a 42F00102 		orr	r2, r2, #1
ARM GAS  /tmp/cceu4JPd.s 			page 17


 912 002e 1A60     		str	r2, [r3]
 913              		.loc 1 761 0
 914 0030 30BC     		pop	{r4, r5}
 915              		.cfi_restore 5
 916              		.cfi_restore 4
 917              		.cfi_def_cfa_offset 0
 918 0032 7047     		bx	lr
 919              		.cfi_endproc
 920              	.LFE271:
 921              		.size	uart_lld_start_send, .-uart_lld_start_send
 922 0034 AFF30080 		.section	.text.uart_lld_stop_send,"ax",%progbits
 922      AFF30080 
 922      AFF30080 
 923              		.align	2
 924              		.p2align 4,,15
 925              		.global	uart_lld_stop_send
 926              		.thumb
 927              		.thumb_func
 928              		.type	uart_lld_stop_send, %function
 929              	uart_lld_stop_send:
 930              	.LFB272:
 931              		.loc 1 774 0
 932              		.cfi_startproc
 933              		@ args = 0, pretend = 0, frame = 0
 934              		@ frame_needed = 0, uses_anonymous_args = 0
 935              		@ link register save eliminated.
 936              	.LVL60:
 937              		.loc 1 776 0
 938 0000 4169     		ldr	r1, [r0, #20]
 939 0002 0A68     		ldr	r2, [r1]
 940 0004 1368     		ldr	r3, [r2]
 941 0006 23F01F03 		bic	r3, r3, #31
 942 000a 1360     		str	r3, [r2]
 943              	.L117:
 944              		.loc 1 776 0 is_stmt 0 discriminator 2
 945 000c 1368     		ldr	r3, [r2]
 946 000e DB07     		lsls	r3, r3, #31
 947 0010 FCD4     		bmi	.L117
 948              		.loc 1 776 0 discriminator 3
 949 0012 087A     		ldrb	r0, [r1, #8]	@ zero_extendqisi2
 950              	.LVL61:
 951 0014 4968     		ldr	r1, [r1, #4]
 952 0016 3D23     		movs	r3, #61
 953 0018 8340     		lsls	r3, r3, r0
 954 001a 0B60     		str	r3, [r1]
 955              		.loc 1 778 0 is_stmt 1 discriminator 3
 956 001c 5068     		ldr	r0, [r2, #4]
 957              		.loc 1 779 0 discriminator 3
 958 001e 7047     		bx	lr
 959              		.cfi_endproc
 960              	.LFE272:
 961              		.size	uart_lld_stop_send, .-uart_lld_stop_send
 962              		.section	.text.uart_lld_start_receive,"ax",%progbits
 963              		.align	2
 964              		.p2align 4,,15
 965              		.global	uart_lld_start_receive
 966              		.thumb
ARM GAS  /tmp/cceu4JPd.s 			page 18


 967              		.thumb_func
 968              		.type	uart_lld_start_receive, %function
 969              	uart_lld_start_receive:
 970              	.LFB273:
 971              		.loc 1 792 0
 972              		.cfi_startproc
 973              		@ args = 0, pretend = 0, frame = 0
 974              		@ frame_needed = 0, uses_anonymous_args = 0
 975              		@ link register save eliminated.
 976              	.LVL62:
 977 0000 70B4     		push	{r4, r5, r6}
 978              		.cfi_def_cfa_offset 12
 979              		.cfi_offset 4, -12
 980              		.cfi_offset 5, -8
 981              		.cfi_offset 6, -4
 982              		.loc 1 795 0
 983 0002 0569     		ldr	r5, [r0, #16]
 984 0004 2C68     		ldr	r4, [r5]
 985 0006 2368     		ldr	r3, [r4]
 986 0008 23F01F03 		bic	r3, r3, #31
 987 000c 2360     		str	r3, [r4]
 988              	.L120:
 989              		.loc 1 795 0 is_stmt 0 discriminator 2
 990 000e 2368     		ldr	r3, [r4]
 991 0010 DB07     		lsls	r3, r3, #31
 992 0012 FCD4     		bmi	.L120
 993              		.loc 1 795 0 discriminator 3
 994 0014 2E7A     		ldrb	r6, [r5, #8]	@ zero_extendqisi2
 995 0016 6D68     		ldr	r5, [r5, #4]
 996 0018 3D23     		movs	r3, #61
 997 001a B340     		lsls	r3, r3, r6
 998 001c 2B60     		str	r3, [r5]
 999              		.loc 1 800 0 is_stmt 1 discriminator 3
 1000 001e C368     		ldr	r3, [r0, #12]
 1001              		.loc 1 798 0 discriminator 3
 1002 0020 E260     		str	r2, [r4, #12]
 1003              		.loc 1 800 0 discriminator 3
 1004 0022 43F48263 		orr	r3, r3, #1040
 1005              		.loc 1 799 0 discriminator 3
 1006 0026 6160     		str	r1, [r4, #4]
 1007              		.loc 1 800 0 discriminator 3
 1008 0028 2360     		str	r3, [r4]
 1009              		.loc 1 804 0 discriminator 3
 1010 002a 2368     		ldr	r3, [r4]
 1011 002c 43F00103 		orr	r3, r3, #1
 1012 0030 2360     		str	r3, [r4]
 1013              		.loc 1 805 0 discriminator 3
 1014 0032 70BC     		pop	{r4, r5, r6}
 1015              		.cfi_restore 6
 1016              		.cfi_restore 5
 1017              		.cfi_restore 4
 1018              		.cfi_def_cfa_offset 0
 1019 0034 7047     		bx	lr
 1020              		.cfi_endproc
 1021              	.LFE273:
 1022              		.size	uart_lld_start_receive, .-uart_lld_start_receive
 1023 0036 00BFAFF3 		.section	.text.uart_lld_stop_receive,"ax",%progbits
ARM GAS  /tmp/cceu4JPd.s 			page 19


 1023      0080AFF3 
 1023      0080
 1024              		.align	2
 1025              		.p2align 4,,15
 1026              		.global	uart_lld_stop_receive
 1027              		.thumb
 1028              		.thumb_func
 1029              		.type	uart_lld_stop_receive, %function
 1030              	uart_lld_stop_receive:
 1031              	.LFB274:
 1032              		.loc 1 818 0
 1033              		.cfi_startproc
 1034              		@ args = 0, pretend = 0, frame = 0
 1035              		@ frame_needed = 0, uses_anonymous_args = 0
 1036              		@ link register save eliminated.
 1037              	.LVL63:
 1038 0000 0146     		mov	r1, r0
 1039              		.loc 1 821 0
 1040 0002 0069     		ldr	r0, [r0, #16]
 1041              	.LVL64:
 1042 0004 0268     		ldr	r2, [r0]
 1043 0006 1368     		ldr	r3, [r2]
 1044 0008 23F01F03 		bic	r3, r3, #31
 1045 000c 1360     		str	r3, [r2]
 1046              	.L124:
 1047              		.loc 1 821 0 is_stmt 0 discriminator 2
 1048 000e 1368     		ldr	r3, [r2]
 1049 0010 DB07     		lsls	r3, r3, #31
 1050 0012 FCD4     		bmi	.L124
 1051              		.loc 1 818 0 is_stmt 1 discriminator 3
 1052 0014 30B4     		push	{r4, r5}
 1053              		.cfi_def_cfa_offset 8
 1054              		.cfi_offset 4, -8
 1055              		.cfi_offset 5, -4
 1056              	.LBB70:
 1057              	.LBB71:
 1058              		.loc 1 164 0 discriminator 3
 1059 0016 4B68     		ldr	r3, [r1, #4]
 1060              	.LBE71:
 1061              	.LBE70:
 1062              		.loc 1 821 0 discriminator 3
 1063 0018 057A     		ldrb	r5, [r0, #8]	@ zero_extendqisi2
 1064              	.LBB75:
 1065              	.LBB72:
 1066              		.loc 1 164 0 discriminator 3
 1067 001a DC68     		ldr	r4, [r3, #12]
 1068              	.LBE72:
 1069              	.LBE75:
 1070              		.loc 1 821 0 discriminator 3
 1071 001c 4068     		ldr	r0, [r0, #4]
 1072 001e 3D23     		movs	r3, #61
 1073 0020 AB40     		lsls	r3, r3, r5
 1074 0022 0360     		str	r3, [r0]
 1075              	.LBB76:
 1076              	.LBB73:
 1077              		.loc 1 170 0 discriminator 3
 1078 0024 CB68     		ldr	r3, [r1, #12]
ARM GAS  /tmp/cceu4JPd.s 			page 20


 1079              	.LBE73:
 1080              	.LBE76:
 1081              		.loc 1 822 0 discriminator 3
 1082 0026 5068     		ldr	r0, [r2, #4]
 1083              	.LVL65:
 1084              	.LBB77:
 1085              	.LBB74:
 1086              		.loc 1 167 0 discriminator 3
 1087 0028 002C     		cmp	r4, #0
 1088 002a 0CBF     		ite	eq
 1089 002c 4FF48074 		moveq	r4, #256
 1090 0030 4FF48874 		movne	r4, #272
 1091              	.LVL66:
 1092              		.loc 1 170 0 discriminator 3
 1093 0034 2343     		orrs	r3, r3, r4
 1094              		.loc 1 168 0 discriminator 3
 1095 0036 1831     		adds	r1, r1, #24
 1096              	.LVL67:
 1097              		.loc 1 169 0 discriminator 3
 1098 0038 0124     		movs	r4, #1
 1099              	.LVL68:
 1100              		.loc 1 168 0 discriminator 3
 1101 003a D160     		str	r1, [r2, #12]
 1102              		.loc 1 169 0 discriminator 3
 1103 003c 5460     		str	r4, [r2, #4]
 1104              		.loc 1 170 0 discriminator 3
 1105 003e 1360     		str	r3, [r2]
 1106              		.loc 1 171 0 discriminator 3
 1107 0040 1368     		ldr	r3, [r2]
 1108 0042 2343     		orrs	r3, r3, r4
 1109 0044 1360     		str	r3, [r2]
 1110              	.LBE74:
 1111              	.LBE77:
 1112              		.loc 1 826 0 discriminator 3
 1113 0046 30BC     		pop	{r4, r5}
 1114              		.cfi_restore 5
 1115              		.cfi_restore 4
 1116              		.cfi_def_cfa_offset 0
 1117 0048 7047     		bx	lr
 1118              		.cfi_endproc
 1119              	.LFE274:
 1120              		.size	uart_lld_stop_receive, .-uart_lld_stop_receive
 1121              		.global	UARTD2
 1122 004a 00BFAFF3 		.section	.rodata.str1.4,"aMS",%progbits,1
 1122      0080
 1123              		.align	2
 1124              	.LC0:
 1125 0000 444D4120 		.ascii	"DMA failure\000"
 1125      6661696C 
 1125      75726500 
 1126              		.section	.bss.UARTD2,"aw",%nobits
 1127              		.align	2
 1128              		.set	.LANCHOR0,. + 0
 1129              		.type	UARTD2, %object
 1130              		.size	UARTD2, 28
 1131              	UARTD2:
 1132 0000 00000000 		.space	28
ARM GAS  /tmp/cceu4JPd.s 			page 21


 1132      00000000 
 1132      00000000 
 1132      00000000 
 1132      00000000 
 1133              		.text
 1134              	.Letext0:
 1135              		.file 3 "/usr/lib/gcc/arm-none-eabi/5.2.0/include/stddef.h"
 1136              		.file 4 "/usr/arm-none-eabi/include/machine/_default_types.h"
 1137              		.file 5 "/usr/arm-none-eabi/include/stdint.h"
 1138              		.file 6 "../../os/rt/ports/ARMCMx/compilers/GCC/chtypes.h"
 1139              		.file 7 "../../os/rt/include/chsystypes.h"
 1140              		.file 8 "../../os/rt/include/chschd.h"
 1141              		.file 9 "../../os/ext/CMSIS/ST/stm32f401xc.h"
 1142              		.file 10 "../../os/rt/ports/ARMCMx/chcore.h"
 1143              		.file 11 "../../os/rt/ports/ARMCMx/chcore_v7m.h"
 1144              		.file 12 "../../os/rt/include/chtm.h"
 1145              		.file 13 "../../os/rt/include/chsem.h"
 1146              		.file 14 "../../os/rt/include/chmtx.h"
 1147              		.file 15 "../../os/hal/ports/STM32/STM32F4xx/stm32_dma.h"
 1148              		.file 16 "../../os/hal/include/uart.h"
 1149              		.file 17 "../../os/hal/ports/STM32/LLD/USARTv1/uart_lld.h"
 1150              		.file 18 "../../os/ext/CMSIS/include/core_cm4.h"
 1151              		.file 19 "../../os/rt/include/chsys.h"
 1152              		.file 20 "../../os/hal/ports/common/ARMCMx/nvic.h"